
Blinky.elf:     file format elf32-littlearm


Disassembly of section .text:

10000000 <__Vectors>:
10000000:	00 00 20 38 cf 90 00 10 cd 90 00 10 25 92 00 10     .. 8........%...
10000010:	cd 90 00 10 cd 90 00 10 cd 90 00 10 cd 90 00 10     ................
	...
1000002c:	cd 90 00 10 cd 90 00 10 00 00 00 00 cd 90 00 10     ................
1000003c:	cd 90 00 10 cd 90 00 10 cd 90 00 10 cd 90 00 10     ................
1000004c:	01 04 00 10 cd 90 00 10 cd 90 00 10 00 00 00 00     ................
	...
10000064:	cd 90 00 10 cd 90 00 10 cd 90 00 10 cd 90 00 10     ................
	...
100000c0:	b1 8b 00 10 ff 8b 00 10 cd 90 00 10 cd 90 00 10     ................
100000d0:	cd 90 00 10 cd 90 00 10 cd 90 00 10 cd 90 00 10     ................
100000e0:	cd 90 00 10 cd 90 00 10 cd 90 00 10 cd 90 00 10     ................
100000f0:	cd 90 00 10 cd 90 00 10 cd 90 00 10 cd 90 00 10     ................
10000100:	cd 90 00 10 cd 90 00 10 cd 90 00 10 cd 90 00 10     ................
10000110:	cd 90 00 10 cd 90 00 10 cd 90 00 10 cd 90 00 10     ................
10000120:	cd 90 00 10 cd 90 00 10 cd 90 00 10 cd 90 00 10     ................
10000130:	cd 90 00 10 cd 90 00 10 cd 90 00 10 cd 90 00 10     ................
10000140:	cd 90 00 10 cd 90 00 10 cd 90 00 10 cd 90 00 10     ................
10000150:	cd 90 00 10 cd 90 00 10 cd 90 00 10 cd 90 00 10     ................
10000160:	cd 90 00 10 cd 90 00 10 cd 90 00 10 cd 90 00 10     ................
10000170:	cd 90 00 10 cd 90 00 10 cd 90 00 10 cd 90 00 10     ................
10000180:	cd 90 00 10 cd 90 00 10 cd 90 00 10 cd 90 00 10     ................
10000190:	cd 90 00 10 cd 90 00 10 cd 90 00 10 cd 90 00 10     ................
100001a0:	cd 90 00 10 cd 90 00 10 cd 90 00 10 cd 90 00 10     ................
100001b0:	cd 90 00 10 cd 90 00 10 cd 90 00 10 cd 90 00 10     ................
100001c0:	cd 90 00 10 cd 90 00 10 cd 90 00 10 cd 90 00 10     ................
100001d0:	cd 90 00 10 cd 90 00 10 cd 90 00 10 cd 90 00 10     ................
100001e0:	cd 90 00 10 cd 90 00 10 cd 90 00 10 cd 90 00 10     ................
100001f0:	cd 90 00 10 cd 90 00 10 cd 90 00 10 cd 90 00 10     ................
10000200:	cd 90 00 10 cd 90 00 10 cd 90 00 10 cd 90 00 10     ................
10000210:	cd 90 00 10 cd 90 00 10 cd 90 00 10 cd 90 00 10     ................
10000220:	cd 90 00 10 cd 90 00 10 cd 90 00 10 cd 90 00 10     ................
	...

10000400 <TIMER0_Handler>:
10000400:	f240 0018 	movw	r0, #24
10000404:	f6c3 0000 	movt	r0, #14336	@ 0x3800
10000408:	6901      	ldr	r1, [r0, #16]
1000040a:	1c4a      	adds	r2, r1, #1
1000040c:	2963      	cmp	r1, #99	@ 0x63
1000040e:	6102      	str	r2, [r0, #16]
10000410:	d303      	bcc.n	1000041a <TIMER0_Handler+0x1a>
10000412:	2100      	movs	r1, #0
10000414:	6101      	str	r1, [r0, #16]
10000416:	2101      	movs	r1, #1
10000418:	7001      	strb	r1, [r0, #0]
1000041a:	68c2      	ldr	r2, [r0, #12]
1000041c:	1c51      	adds	r1, r2, #1
1000041e:	2a2d      	cmp	r2, #45	@ 0x2d
10000420:	60c1      	str	r1, [r0, #12]
10000422:	d00b      	beq.n	1000043c <TIMER0_Handler+0x3c>
10000424:	2a28      	cmp	r2, #40	@ 0x28
10000426:	d003      	beq.n	10000430 <TIMER0_Handler+0x30>
10000428:	b932      	cbnz	r2, 10000438 <TIMER0_Handler+0x38>
1000042a:	2101      	movs	r1, #1
1000042c:	7101      	strb	r1, [r0, #4]
1000042e:	e007      	b.n	10000440 <TIMER0_Handler+0x40>
10000430:	2101      	movs	r1, #1
10000432:	7201      	strb	r1, [r0, #8]
10000434:	e004      	b.n	10000440 <TIMER0_Handler+0x40>
10000436:	bf00      	nop
10000438:	2933      	cmp	r1, #51	@ 0x33
1000043a:	d301      	bcc.n	10000440 <TIMER0_Handler+0x40>
1000043c:	2100      	movs	r1, #0
1000043e:	60c1      	str	r1, [r0, #12]
10000440:	200c      	movs	r0, #12
10000442:	f2c4 0000 	movt	r0, #16384	@ 0x4000
10000446:	2101      	movs	r1, #1
10000448:	6001      	str	r1, [r0, #0]
1000044a:	4770      	bx	lr

1000044c <Timer0_Config>:
1000044c:	2108      	movs	r1, #8
1000044e:	f2c4 0100 	movt	r1, #16384	@ 0x4000
10000452:	2201      	movs	r2, #1
10000454:	3801      	subs	r0, #1
10000456:	604a      	str	r2, [r1, #4]
10000458:	6008      	str	r0, [r1, #0]
1000045a:	f04f 4080 	mov.w	r0, #1073741824	@ 0x40000000
1000045e:	2109      	movs	r1, #9
10000460:	6001      	str	r1, [r0, #0]
10000462:	f24e 1000 	movw	r0, #57600	@ 0xe100
10000466:	f2ce 0000 	movt	r0, #57344	@ 0xe000
1000046a:	2108      	movs	r1, #8
1000046c:	6001      	str	r1, [r0, #0]
1000046e:	4770      	bx	lr

10000470 <main>:
10000470:	b580      	push	{r7, lr}
10000472:	466f      	mov	r7, sp
10000474:	b088      	sub	sp, #32
10000476:	f24e 1800 	movw	r8, #57600	@ 0xe100
1000047a:	f2ce 0800 	movt	r8, #57344	@ 0xe000
1000047e:	f006 f963 	bl	10006748 <LED_GetCount>
10000482:	f1a0 0a01 	sub.w	sl, r0, #1
10000486:	f000 f9a1 	bl	100007cc <Buttons_GetCount>
1000048a:	4604      	mov	r4, r0
1000048c:	4681      	mov	r9, r0
1000048e:	f646 4072 	movw	r0, #27762	@ 0x6c72
10000492:	f2c0 0064 	movt	r0, #100	@ 0x64
10000496:	9007      	str	r0, [sp, #28]
10000498:	f242 006f 	movw	r0, #8303	@ 0x206f
1000049c:	f6c6 7057 	movt	r0, #28503	@ 0x6f57
100004a0:	9006      	str	r0, [sp, #24]
100004a2:	f246 5048 	movw	r0, #25928	@ 0x6548
100004a6:	f6c6 406c 	movt	r0, #27756	@ 0x6c6c
100004aa:	9005      	str	r0, [sp, #20]
100004ac:	f008 febc 	bl	10009228 <SystemCoreClockUpdate>
100004b0:	f006 f91a 	bl	100066e8 <LED_Initialize>
100004b4:	f000 f97e 	bl	100007b4 <Buttons_Initialize>
100004b8:	f008 fdcc 	bl	10009054 <stdout_init>
100004bc:	f008 f8b4 	bl	10008628 <Touch_Initialize>
100004c0:	f000 f986 	bl	100007d0 <GLCD_Initialize>
100004c4:	f64a 40c4 	movw	r0, #44228	@ 0xacc4
100004c8:	f2c1 0000 	movt	r0, #4096	@ 0x1000
100004cc:	f004 fd83 	bl	10004fd6 <GLCD_SetFont>
100004d0:	f64f 70ff 	movw	r0, #65535	@ 0xffff
100004d4:	f003 ffb3 	bl	1000443e <GLCD_SetBackgroundColor>
100004d8:	f003 ffb9 	bl	1000444e <GLCD_ClearScreen>
100004dc:	201f      	movs	r0, #31
100004de:	f003 ffae 	bl	1000443e <GLCD_SetBackgroundColor>
100004e2:	f44f 4078 	mov.w	r0, #63488	@ 0xf800
100004e6:	f003 ffa2 	bl	1000442e <GLCD_SetForegroundColor>
100004ea:	f249 32d5 	movw	r2, #37845	@ 0x93d5
100004ee:	f2c1 0200 	movt	r2, #4096	@ 0x1000
100004f2:	2000      	movs	r0, #0
100004f4:	2100      	movs	r1, #0
100004f6:	2600      	movs	r6, #0
100004f8:	f005 fd68 	bl	10005fcc <GLCD_DrawString>
100004fc:	f249 421e 	movw	r2, #37918	@ 0x941e
10000500:	f2c1 0200 	movt	r2, #4096	@ 0x1000
10000504:	2000      	movs	r0, #0
10000506:	2118      	movs	r1, #24
10000508:	f005 fd60 	bl	10005fcc <GLCD_DrawString>
1000050c:	f249 4209 	movw	r2, #37897	@ 0x9409
10000510:	f2c1 0200 	movt	r2, #4096	@ 0x1000
10000514:	2000      	movs	r0, #0
10000516:	2130      	movs	r1, #48	@ 0x30
10000518:	f005 fd58 	bl	10005fcc <GLCD_DrawString>
1000051c:	f64f 70ff 	movw	r0, #65535	@ 0xffff
10000520:	f003 ff8d 	bl	1000443e <GLCD_SetBackgroundColor>
10000524:	2000      	movs	r0, #0
10000526:	f003 ff82 	bl	1000442e <GLCD_SetForegroundColor>
1000052a:	f8d8 0c00 	ldr.w	r0, [r8, #3072]	@ 0xc00
1000052e:	f249 3190 	movw	r1, #37776	@ 0x9390
10000532:	f3c0 100b 	ubfx	r0, r0, #4, #12
10000536:	f249 33ea 	movw	r3, #37866	@ 0x93ea
1000053a:	f640 5221 	movw	r2, #3361	@ 0xd21
1000053e:	f2c1 0100 	movt	r1, #4096	@ 0x1000
10000542:	f2c1 0300 	movt	r3, #4096	@ 0x1000
10000546:	4290      	cmp	r0, r2
10000548:	f249 32b3 	movw	r2, #37811	@ 0x93b3
1000054c:	bf08      	it	eq
1000054e:	460b      	moveq	r3, r1
10000550:	f2c1 0200 	movt	r2, #4096	@ 0x1000
10000554:	f5b0 6f52 	cmp.w	r0, #3360	@ 0xd20
10000558:	f04f 0000 	mov.w	r0, #0
1000055c:	f04f 0160 	mov.w	r1, #96	@ 0x60
10000560:	bf18      	it	ne
10000562:	461a      	movne	r2, r3
10000564:	f005 fd32 	bl	10005fcc <GLCD_DrawString>
10000568:	f249 32c8 	movw	r2, #37832	@ 0x93c8
1000056c:	f2c1 0200 	movt	r2, #4096	@ 0x1000
10000570:	2020      	movs	r0, #32
10000572:	2190      	movs	r1, #144	@ 0x90
10000574:	2590      	movs	r5, #144	@ 0x90
10000576:	f005 fd29 	bl	10005fcc <GLCD_DrawString>
1000057a:	f249 4204 	movw	r2, #37892	@ 0x9404
1000057e:	f2c1 0200 	movt	r2, #4096	@ 0x1000
10000582:	2020      	movs	r0, #32
10000584:	21a8      	movs	r1, #168	@ 0xa8
10000586:	f005 fd21 	bl	10005fcc <GLCD_DrawString>
1000058a:	f249 32ac 	movw	r2, #37804	@ 0x93ac
1000058e:	f2c1 0200 	movt	r2, #4096	@ 0x1000
10000592:	2020      	movs	r0, #32
10000594:	21c0      	movs	r1, #192	@ 0xc0
10000596:	f005 fd19 	bl	10005fcc <GLCD_DrawString>
1000059a:	f24c 6018 	movw	r0, #50712	@ 0xc618
1000059e:	f003 ff46 	bl	1000442e <GLCD_SetForegroundColor>
100005a2:	bf00      	nop
100005a4:	4628      	mov	r0, r5
100005a6:	2190      	movs	r1, #144	@ 0x90
100005a8:	2280      	movs	r2, #128	@ 0x80
100005aa:	f005 fba5 	bl	10005cf8 <GLCD_DrawChar>
100005ae:	3601      	adds	r6, #1
100005b0:	4556      	cmp	r6, sl
100005b2:	f105 0510 	add.w	r5, r5, #16
100005b6:	d9f5      	bls.n	100005a4 <main+0x134>
100005b8:	f8cd a000 	str.w	sl, [sp]
100005bc:	b154      	cbz	r4, 100005d4 <main+0x164>
100005be:	2590      	movs	r5, #144	@ 0x90
100005c0:	4628      	mov	r0, r5
100005c2:	21a8      	movs	r1, #168	@ 0xa8
100005c4:	2280      	movs	r2, #128	@ 0x80
100005c6:	f005 fb97 	bl	10005cf8 <GLCD_DrawChar>
100005ca:	f1b9 0901 	subs.w	r9, r9, #1
100005ce:	f105 0510 	add.w	r5, r5, #16
100005d2:	d1f5      	bne.n	100005c0 <main+0x150>
100005d4:	2090      	movs	r0, #144	@ 0x90
100005d6:	21c0      	movs	r1, #192	@ 0xc0
100005d8:	2280      	movs	r2, #128	@ 0x80
100005da:	f005 fb8d 	bl	10005cf8 <GLCD_DrawChar>
100005de:	f240 0014 	movw	r0, #20
100005e2:	f6c3 0000 	movt	r0, #14336	@ 0x3800
100005e6:	6800      	ldr	r0, [r0, #0]
100005e8:	f248 511f 	movw	r1, #34079	@ 0x851f
100005ec:	f2c5 11eb 	movt	r1, #20971	@ 0x51eb
100005f0:	fba0 0101 	umull	r0, r1, r0, r1
100005f4:	2008      	movs	r0, #8
100005f6:	f04f 39ff 	mov.w	r9, #4294967295	@ 0xffffffff
100005fa:	f2c4 0000 	movt	r0, #16384	@ 0x4000
100005fe:	f04f 0b01 	mov.w	fp, #1
10000602:	eb09 1151 	add.w	r1, r9, r1, lsr #5
10000606:	f8c0 b004 	str.w	fp, [r0, #4]
1000060a:	6001      	str	r1, [r0, #0]
1000060c:	f04f 4080 	mov.w	r0, #1073741824	@ 0x40000000
10000610:	2109      	movs	r1, #9
10000612:	6001      	str	r1, [r0, #0]
10000614:	2008      	movs	r0, #8
10000616:	f8c8 0000 	str.w	r0, [r8]
1000061a:	f240 0618 	movw	r6, #24
1000061e:	2001      	movs	r0, #1
10000620:	f6c3 0600 	movt	r6, #14336	@ 0x3800
10000624:	f04f 0a00 	mov.w	sl, #0
10000628:	9002      	str	r0, [sp, #8]
1000062a:	f04f 30ff 	mov.w	r0, #4294967295	@ 0xffffffff
1000062e:	9001      	str	r0, [sp, #4]
10000630:	7930      	ldrb	r0, [r6, #4]
10000632:	2801      	cmp	r0, #1
10000634:	d10f      	bne.n	10000656 <main+0x1e6>
10000636:	2000      	movs	r0, #0
10000638:	7130      	strb	r0, [r6, #4]
1000063a:	4650      	mov	r0, sl
1000063c:	f006 f85e 	bl	100066fc <LED_On>
10000640:	f44f 60fc 	mov.w	r0, #2016	@ 0x7e0
10000644:	f003 fef3 	bl	1000442e <GLCD_SetForegroundColor>
10000648:	2090      	movs	r0, #144	@ 0x90
1000064a:	eb00 100a 	add.w	r0, r0, sl, lsl #4
1000064e:	2190      	movs	r1, #144	@ 0x90
10000650:	2281      	movs	r2, #129	@ 0x81
10000652:	f005 fb51 	bl	10005cf8 <GLCD_DrawChar>
10000656:	7a30      	ldrb	r0, [r6, #8]
10000658:	2801      	cmp	r0, #1
1000065a:	d121      	bne.n	100006a0 <main+0x230>
1000065c:	2000      	movs	r0, #0
1000065e:	7230      	strb	r0, [r6, #8]
10000660:	4650      	mov	r0, sl
10000662:	f006 f859 	bl	10006718 <LED_Off>
10000666:	f24c 6018 	movw	r0, #50712	@ 0xc618
1000066a:	f003 fee0 	bl	1000442e <GLCD_SetForegroundColor>
1000066e:	2090      	movs	r0, #144	@ 0x90
10000670:	eb00 100a 	add.w	r0, r0, sl, lsl #4
10000674:	2190      	movs	r1, #144	@ 0x90
10000676:	2280      	movs	r2, #128	@ 0x80
10000678:	f005 fb3e 	bl	10005cf8 <GLCD_DrawChar>
1000067c:	9902      	ldr	r1, [sp, #8]
1000067e:	9800      	ldr	r0, [sp, #0]
10000680:	2901      	cmp	r1, #1
10000682:	448a      	add	sl, r1
10000684:	bf08      	it	eq
10000686:	4582      	cmpeq	sl, r0
10000688:	d006      	beq.n	10000698 <main+0x228>
1000068a:	f1ba 0f00 	cmp.w	sl, #0
1000068e:	bf08      	it	eq
10000690:	2101      	moveq	r1, #1
10000692:	9102      	str	r1, [sp, #8]
10000694:	e004      	b.n	100006a0 <main+0x230>
10000696:	bf00      	nop
10000698:	f04f 31ff 	mov.w	r1, #4294967295	@ 0xffffffff
1000069c:	9102      	str	r1, [sp, #8]
1000069e:	4682      	mov	sl, r0
100006a0:	f000 f88c 	bl	100007bc <Buttons_GetState>
100006a4:	4605      	mov	r5, r0
100006a6:	4548      	cmp	r0, r9
100006a8:	bf18      	it	ne
100006aa:	2c00      	cmpne	r4, #0
100006ac:	d01b      	beq.n	100006e6 <main+0x276>
100006ae:	2600      	movs	r6, #0
100006b0:	f04f 0890 	mov.w	r8, #144	@ 0x90
100006b4:	fa0b f006 	lsl.w	r0, fp, r6
100006b8:	4028      	ands	r0, r5
100006ba:	f04f 0000 	mov.w	r0, #0
100006be:	f04f 0981 	mov.w	r9, #129	@ 0x81
100006c2:	bf08      	it	eq
100006c4:	f24c 6018 	movweq	r0, #50712	@ 0xc618
100006c8:	bf08      	it	eq
100006ca:	f04f 0980 	moveq.w	r9, #128	@ 0x80
100006ce:	f003 feae 	bl	1000442e <GLCD_SetForegroundColor>
100006d2:	4640      	mov	r0, r8
100006d4:	21a8      	movs	r1, #168	@ 0xa8
100006d6:	464a      	mov	r2, r9
100006d8:	f005 fb0e 	bl	10005cf8 <GLCD_DrawChar>
100006dc:	3601      	adds	r6, #1
100006de:	42b4      	cmp	r4, r6
100006e0:	f108 0810 	add.w	r8, r8, #16
100006e4:	d1e6      	bne.n	100006b4 <main+0x244>
100006e6:	a803      	add	r0, sp, #12
100006e8:	f008 f8d0 	bl	1000888c <Touch_GetState>
100006ec:	2800      	cmp	r0, #0
100006ee:	d14d      	bne.n	1000078c <main+0x31c>
100006f0:	f89d 9010 	ldrb.w	r9, [sp, #16]
100006f4:	9801      	ldr	r0, [sp, #4]
100006f6:	4548      	cmp	r0, r9
100006f8:	d048      	beq.n	1000078c <main+0x31c>
100006fa:	4648      	mov	r0, r9
100006fc:	f1b9 0f00 	cmp.w	r9, #0
10000700:	bf18      	it	ne
10000702:	2001      	movne	r0, #1
10000704:	f9bd 100c 	ldrsh.w	r1, [sp, #12]
10000708:	2300      	movs	r3, #0
1000070a:	f5b1 7ffa 	cmp.w	r1, #500	@ 0x1f4
1000070e:	f9bd 200e 	ldrsh.w	r2, [sp, #14]
10000712:	bfa8      	it	ge
10000714:	2301      	movge	r3, #1
10000716:	f5b1 7f7a 	cmp.w	r1, #1000	@ 0x3e8
1000071a:	f04f 0100 	mov.w	r1, #0
1000071e:	ea00 0003 	and.w	r0, r0, r3
10000722:	bfd8      	it	le
10000724:	2101      	movle	r1, #1
10000726:	4008      	ands	r0, r1
10000728:	f240 2125 	movw	r1, #549	@ 0x225
1000072c:	428a      	cmp	r2, r1
1000072e:	f04f 0100 	mov.w	r1, #0
10000732:	bfc8      	it	gt
10000734:	2101      	movgt	r1, #1
10000736:	4008      	ands	r0, r1
10000738:	f240 610f 	movw	r1, #1551	@ 0x60f
1000073c:	428a      	cmp	r2, r1
1000073e:	f04f 0100 	mov.w	r1, #0
10000742:	bfb8      	it	lt
10000744:	2101      	movlt	r1, #1
10000746:	4008      	ands	r0, r1
10000748:	f24c 6618 	movw	r6, #50712	@ 0xc618
1000074c:	f04f 0880 	mov.w	r8, #128	@ 0x80
10000750:	bf18      	it	ne
10000752:	f24c 6018 	movwne	r0, #50712	@ 0xc618
10000756:	bf18      	it	ne
10000758:	f64f 76e0 	movwne	r6, #65504	@ 0xffe0
1000075c:	bf18      	it	ne
1000075e:	f04f 0881 	movne.w	r8, #129	@ 0x81
10000762:	f003 fe64 	bl	1000442e <GLCD_SetForegroundColor>
10000766:	f249 32ac 	movw	r2, #37804	@ 0x93ac
1000076a:	2020      	movs	r0, #32
1000076c:	21c0      	movs	r1, #192	@ 0xc0
1000076e:	f2c1 0200 	movt	r2, #4096	@ 0x1000
10000772:	f005 fc2b 	bl	10005fcc <GLCD_DrawString>
10000776:	4630      	mov	r0, r6
10000778:	f003 fe59 	bl	1000442e <GLCD_SetForegroundColor>
1000077c:	2090      	movs	r0, #144	@ 0x90
1000077e:	21c0      	movs	r1, #192	@ 0xc0
10000780:	4642      	mov	r2, r8
10000782:	f005 fab9 	bl	10005cf8 <GLCD_DrawChar>
10000786:	f8cd 9004 	str.w	r9, [sp, #4]
1000078a:	bf00      	nop
1000078c:	f240 0618 	movw	r6, #24
10000790:	f6c3 0600 	movt	r6, #14336	@ 0x3800
10000794:	7830      	ldrb	r0, [r6, #0]
10000796:	46a9      	mov	r9, r5
10000798:	2801      	cmp	r0, #1
1000079a:	f47f af49 	bne.w	10000630 <main+0x1c0>
1000079e:	2000      	movs	r0, #0
100007a0:	7030      	strb	r0, [r6, #0]
100007a2:	f249 30ff 	movw	r0, #37887	@ 0x93ff
100007a6:	f2c1 0000 	movt	r0, #4096	@ 0x1000
100007aa:	a905      	add	r1, sp, #20
100007ac:	f00a fc5a 	bl	1000b064 <printf>
100007b0:	46a9      	mov	r9, r5
100007b2:	e73d      	b.n	10000630 <main+0x1c0>

100007b4 <Buttons_Initialize>:
100007b4:	2000      	movs	r0, #0
100007b6:	4770      	bx	lr

100007b8 <Buttons_Uninitialize>:
100007b8:	2000      	movs	r0, #0
100007ba:	4770      	bx	lr

100007bc <Buttons_GetState>:
100007bc:	f242 0008 	movw	r0, #8200	@ 0x2008
100007c0:	f2c5 0030 	movt	r0, #20528	@ 0x5030
100007c4:	6800      	ldr	r0, [r0, #0]
100007c6:	f000 0003 	and.w	r0, r0, #3
100007ca:	4770      	bx	lr

100007cc <Buttons_GetCount>:
100007cc:	2002      	movs	r0, #2
100007ce:	4770      	bx	lr

100007d0 <GLCD_Initialize>:
100007d0:	b5d0      	push	{r4, r6, r7, lr}
100007d2:	af02      	add	r7, sp, #8
100007d4:	f246 000c 	movw	r0, #24588	@ 0x600c
100007d8:	f2c5 0020 	movt	r0, #20512	@ 0x5020
100007dc:	2200      	movs	r2, #0
100007de:	f840 2c08 	str.w	r2, [r0, #-8]
100007e2:	6182      	str	r2, [r0, #24]
100007e4:	6082      	str	r2, [r0, #8]
100007e6:	2203      	movs	r2, #3
100007e8:	6142      	str	r2, [r0, #20]
100007ea:	f240 1207 	movw	r2, #263	@ 0x107
100007ee:	f242 014c 	movw	r1, #8268	@ 0x204c
100007f2:	f840 2c0c 	str.w	r2, [r0, #-12]
100007f6:	2202      	movs	r2, #2
100007f8:	f2c5 0130 	movt	r1, #20528	@ 0x5030
100007fc:	6042      	str	r2, [r0, #4]
100007fe:	f840 2c08 	str.w	r2, [r0, #-8]
10000802:	680a      	ldr	r2, [r1, #0]
10000804:	f240 0e14 	movw	lr, #20
10000808:	f042 0209 	orr.w	r2, r2, #9
1000080c:	600a      	str	r2, [r1, #0]
1000080e:	680a      	ldr	r2, [r1, #0]
10000810:	f6c3 0e00 	movt	lr, #14336	@ 0x3800
10000814:	f022 0270 	bic.w	r2, r2, #112	@ 0x70
10000818:	600a      	str	r2, [r1, #0]
1000081a:	680a      	ldr	r2, [r1, #0]
1000081c:	f644 5cd3 	movw	ip, #19923	@ 0x4dd3
10000820:	f022 0208 	bic.w	r2, r2, #8
10000824:	600a      	str	r2, [r1, #0]
10000826:	f8de 2000 	ldr.w	r2, [lr]
1000082a:	f2c1 0c62 	movt	ip, #4194	@ 0x1062
1000082e:	f5b2 7f7a 	cmp.w	r2, #1000	@ 0x3e8
10000832:	d306      	bcc.n	10000842 <GLCD_Initialize+0x72>
10000834:	fba2 230c 	umull	r2, r3, r2, ip
10000838:	099a      	lsrs	r2, r3, #6
1000083a:	bf00      	nop
1000083c:	3a01      	subs	r2, #1
1000083e:	bf00      	nop
10000840:	d1fc      	bne.n	1000083c <GLCD_Initialize+0x6c>
10000842:	680a      	ldr	r2, [r1, #0]
10000844:	f042 0208 	orr.w	r2, r2, #8
10000848:	600a      	str	r2, [r1, #0]
1000084a:	f8de 2000 	ldr.w	r2, [lr]
1000084e:	f5b2 7f7a 	cmp.w	r2, #1000	@ 0x3e8
10000852:	d308      	bcc.n	10000866 <GLCD_Initialize+0x96>
10000854:	fba2 230c 	umull	r2, r3, r2, ip
10000858:	099a      	lsrs	r2, r3, #6
1000085a:	eb02 0282 	add.w	r2, r2, r2, lsl #2
1000085e:	4252      	negs	r2, r2
10000860:	3201      	adds	r2, #1
10000862:	bf00      	nop
10000864:	d3fc      	bcc.n	10000860 <GLCD_Initialize+0x90>
10000866:	f242 024c 	movw	r2, #8268	@ 0x204c
1000086a:	f2c4 0230 	movt	r2, #16432	@ 0x4030
1000086e:	6813      	ldr	r3, [r2, #0]
10000870:	f023 0301 	bic.w	r3, r3, #1
10000874:	6013      	str	r3, [r2, #0]
10000876:	2370      	movs	r3, #112	@ 0x70
10000878:	f840 3c04 	str.w	r3, [r0, #-4]
1000087c:	6803      	ldr	r3, [r0, #0]
1000087e:	075b      	lsls	r3, r3, #29
10000880:	d409      	bmi.n	10000896 <GLCD_Initialize+0xc6>
10000882:	6803      	ldr	r3, [r0, #0]
10000884:	075b      	lsls	r3, r3, #29
10000886:	bf5c      	itt	pl
10000888:	6803      	ldrpl	r3, [r0, #0]
1000088a:	ea5f 7343 	movspl.w	r3, r3, lsl #29
1000088e:	d402      	bmi.n	10000896 <GLCD_Initialize+0xc6>
10000890:	6803      	ldr	r3, [r0, #0]
10000892:	075b      	lsls	r3, r3, #29
10000894:	d5f2      	bpl.n	1000087c <GLCD_Initialize+0xac>
10000896:	f850 3c04 	ldr.w	r3, [r0, #-4]
1000089a:	2300      	movs	r3, #0
1000089c:	f840 3c04 	str.w	r3, [r0, #-4]
100008a0:	6803      	ldr	r3, [r0, #0]
100008a2:	075b      	lsls	r3, r3, #29
100008a4:	d409      	bmi.n	100008ba <GLCD_Initialize+0xea>
100008a6:	6803      	ldr	r3, [r0, #0]
100008a8:	075b      	lsls	r3, r3, #29
100008aa:	bf5c      	itt	pl
100008ac:	6803      	ldrpl	r3, [r0, #0]
100008ae:	ea5f 7343 	movspl.w	r3, r3, lsl #29
100008b2:	d402      	bmi.n	100008ba <GLCD_Initialize+0xea>
100008b4:	6803      	ldr	r3, [r0, #0]
100008b6:	075b      	lsls	r3, r3, #29
100008b8:	d5f2      	bpl.n	100008a0 <GLCD_Initialize+0xd0>
100008ba:	f850 3c04 	ldr.w	r3, [r0, #-4]
100008be:	23ea      	movs	r3, #234	@ 0xea
100008c0:	f840 3c04 	str.w	r3, [r0, #-4]
100008c4:	6803      	ldr	r3, [r0, #0]
100008c6:	075b      	lsls	r3, r3, #29
100008c8:	d409      	bmi.n	100008de <GLCD_Initialize+0x10e>
100008ca:	6803      	ldr	r3, [r0, #0]
100008cc:	075b      	lsls	r3, r3, #29
100008ce:	bf5c      	itt	pl
100008d0:	6803      	ldrpl	r3, [r0, #0]
100008d2:	ea5f 7343 	movspl.w	r3, r3, lsl #29
100008d6:	d402      	bmi.n	100008de <GLCD_Initialize+0x10e>
100008d8:	6803      	ldr	r3, [r0, #0]
100008da:	075b      	lsls	r3, r3, #29
100008dc:	d5f2      	bpl.n	100008c4 <GLCD_Initialize+0xf4>
100008de:	f850 3c04 	ldr.w	r3, [r0, #-4]
100008e2:	680b      	ldr	r3, [r1, #0]
100008e4:	f043 0301 	orr.w	r3, r3, #1
100008e8:	600b      	str	r3, [r1, #0]
100008ea:	6813      	ldr	r3, [r2, #0]
100008ec:	f023 0301 	bic.w	r3, r3, #1
100008f0:	6013      	str	r3, [r2, #0]
100008f2:	2372      	movs	r3, #114	@ 0x72
100008f4:	f840 3c04 	str.w	r3, [r0, #-4]
100008f8:	6803      	ldr	r3, [r0, #0]
100008fa:	075b      	lsls	r3, r3, #29
100008fc:	d409      	bmi.n	10000912 <GLCD_Initialize+0x142>
100008fe:	6803      	ldr	r3, [r0, #0]
10000900:	075b      	lsls	r3, r3, #29
10000902:	bf5c      	itt	pl
10000904:	6803      	ldrpl	r3, [r0, #0]
10000906:	ea5f 7343 	movspl.w	r3, r3, lsl #29
1000090a:	d402      	bmi.n	10000912 <GLCD_Initialize+0x142>
1000090c:	6803      	ldr	r3, [r0, #0]
1000090e:	075b      	lsls	r3, r3, #29
10000910:	d5f2      	bpl.n	100008f8 <GLCD_Initialize+0x128>
10000912:	f850 3c04 	ldr.w	r3, [r0, #-4]
10000916:	2300      	movs	r3, #0
10000918:	f840 3c04 	str.w	r3, [r0, #-4]
1000091c:	6803      	ldr	r3, [r0, #0]
1000091e:	075b      	lsls	r3, r3, #29
10000920:	d409      	bmi.n	10000936 <GLCD_Initialize+0x166>
10000922:	6803      	ldr	r3, [r0, #0]
10000924:	075b      	lsls	r3, r3, #29
10000926:	bf5c      	itt	pl
10000928:	6803      	ldrpl	r3, [r0, #0]
1000092a:	ea5f 7343 	movspl.w	r3, r3, lsl #29
1000092e:	d402      	bmi.n	10000936 <GLCD_Initialize+0x166>
10000930:	6803      	ldr	r3, [r0, #0]
10000932:	075b      	lsls	r3, r3, #29
10000934:	d5f2      	bpl.n	1000091c <GLCD_Initialize+0x14c>
10000936:	f850 3c04 	ldr.w	r3, [r0, #-4]
1000093a:	2300      	movs	r3, #0
1000093c:	f840 3c04 	str.w	r3, [r0, #-4]
10000940:	6803      	ldr	r3, [r0, #0]
10000942:	075b      	lsls	r3, r3, #29
10000944:	d409      	bmi.n	1000095a <GLCD_Initialize+0x18a>
10000946:	6803      	ldr	r3, [r0, #0]
10000948:	075b      	lsls	r3, r3, #29
1000094a:	bf5c      	itt	pl
1000094c:	6803      	ldrpl	r3, [r0, #0]
1000094e:	ea5f 7343 	movspl.w	r3, r3, lsl #29
10000952:	d402      	bmi.n	1000095a <GLCD_Initialize+0x18a>
10000954:	6803      	ldr	r3, [r0, #0]
10000956:	075b      	lsls	r3, r3, #29
10000958:	d5f2      	bpl.n	10000940 <GLCD_Initialize+0x170>
1000095a:	f850 3c04 	ldr.w	r3, [r0, #-4]
1000095e:	680b      	ldr	r3, [r1, #0]
10000960:	f043 0301 	orr.w	r3, r3, #1
10000964:	600b      	str	r3, [r1, #0]
10000966:	6813      	ldr	r3, [r2, #0]
10000968:	f023 0301 	bic.w	r3, r3, #1
1000096c:	6013      	str	r3, [r2, #0]
1000096e:	2370      	movs	r3, #112	@ 0x70
10000970:	f840 3c04 	str.w	r3, [r0, #-4]
10000974:	6803      	ldr	r3, [r0, #0]
10000976:	075b      	lsls	r3, r3, #29
10000978:	d409      	bmi.n	1000098e <GLCD_Initialize+0x1be>
1000097a:	6803      	ldr	r3, [r0, #0]
1000097c:	075b      	lsls	r3, r3, #29
1000097e:	bf5c      	itt	pl
10000980:	6803      	ldrpl	r3, [r0, #0]
10000982:	ea5f 7343 	movspl.w	r3, r3, lsl #29
10000986:	d402      	bmi.n	1000098e <GLCD_Initialize+0x1be>
10000988:	6803      	ldr	r3, [r0, #0]
1000098a:	075b      	lsls	r3, r3, #29
1000098c:	d5f2      	bpl.n	10000974 <GLCD_Initialize+0x1a4>
1000098e:	f850 3c04 	ldr.w	r3, [r0, #-4]
10000992:	2300      	movs	r3, #0
10000994:	f840 3c04 	str.w	r3, [r0, #-4]
10000998:	6803      	ldr	r3, [r0, #0]
1000099a:	075b      	lsls	r3, r3, #29
1000099c:	d409      	bmi.n	100009b2 <GLCD_Initialize+0x1e2>
1000099e:	6803      	ldr	r3, [r0, #0]
100009a0:	075b      	lsls	r3, r3, #29
100009a2:	bf5c      	itt	pl
100009a4:	6803      	ldrpl	r3, [r0, #0]
100009a6:	ea5f 7343 	movspl.w	r3, r3, lsl #29
100009aa:	d402      	bmi.n	100009b2 <GLCD_Initialize+0x1e2>
100009ac:	6803      	ldr	r3, [r0, #0]
100009ae:	075b      	lsls	r3, r3, #29
100009b0:	d5f2      	bpl.n	10000998 <GLCD_Initialize+0x1c8>
100009b2:	f850 3c04 	ldr.w	r3, [r0, #-4]
100009b6:	23eb      	movs	r3, #235	@ 0xeb
100009b8:	f840 3c04 	str.w	r3, [r0, #-4]
100009bc:	6803      	ldr	r3, [r0, #0]
100009be:	075b      	lsls	r3, r3, #29
100009c0:	d409      	bmi.n	100009d6 <GLCD_Initialize+0x206>
100009c2:	6803      	ldr	r3, [r0, #0]
100009c4:	075b      	lsls	r3, r3, #29
100009c6:	bf5c      	itt	pl
100009c8:	6803      	ldrpl	r3, [r0, #0]
100009ca:	ea5f 7343 	movspl.w	r3, r3, lsl #29
100009ce:	d402      	bmi.n	100009d6 <GLCD_Initialize+0x206>
100009d0:	6803      	ldr	r3, [r0, #0]
100009d2:	075b      	lsls	r3, r3, #29
100009d4:	d5f2      	bpl.n	100009bc <GLCD_Initialize+0x1ec>
100009d6:	f850 3c04 	ldr.w	r3, [r0, #-4]
100009da:	680b      	ldr	r3, [r1, #0]
100009dc:	f043 0301 	orr.w	r3, r3, #1
100009e0:	600b      	str	r3, [r1, #0]
100009e2:	6813      	ldr	r3, [r2, #0]
100009e4:	f023 0301 	bic.w	r3, r3, #1
100009e8:	6013      	str	r3, [r2, #0]
100009ea:	2372      	movs	r3, #114	@ 0x72
100009ec:	f840 3c04 	str.w	r3, [r0, #-4]
100009f0:	6803      	ldr	r3, [r0, #0]
100009f2:	075b      	lsls	r3, r3, #29
100009f4:	d409      	bmi.n	10000a0a <GLCD_Initialize+0x23a>
100009f6:	6803      	ldr	r3, [r0, #0]
100009f8:	075b      	lsls	r3, r3, #29
100009fa:	bf5c      	itt	pl
100009fc:	6803      	ldrpl	r3, [r0, #0]
100009fe:	ea5f 7343 	movspl.w	r3, r3, lsl #29
10000a02:	d402      	bmi.n	10000a0a <GLCD_Initialize+0x23a>
10000a04:	6803      	ldr	r3, [r0, #0]
10000a06:	075b      	lsls	r3, r3, #29
10000a08:	d5f2      	bpl.n	100009f0 <GLCD_Initialize+0x220>
10000a0a:	f850 3c04 	ldr.w	r3, [r0, #-4]
10000a0e:	2300      	movs	r3, #0
10000a10:	f840 3c04 	str.w	r3, [r0, #-4]
10000a14:	6803      	ldr	r3, [r0, #0]
10000a16:	075b      	lsls	r3, r3, #29
10000a18:	d409      	bmi.n	10000a2e <GLCD_Initialize+0x25e>
10000a1a:	6803      	ldr	r3, [r0, #0]
10000a1c:	075b      	lsls	r3, r3, #29
10000a1e:	bf5c      	itt	pl
10000a20:	6803      	ldrpl	r3, [r0, #0]
10000a22:	ea5f 7343 	movspl.w	r3, r3, lsl #29
10000a26:	d402      	bmi.n	10000a2e <GLCD_Initialize+0x25e>
10000a28:	6803      	ldr	r3, [r0, #0]
10000a2a:	075b      	lsls	r3, r3, #29
10000a2c:	d5f2      	bpl.n	10000a14 <GLCD_Initialize+0x244>
10000a2e:	f850 3c04 	ldr.w	r3, [r0, #-4]
10000a32:	2320      	movs	r3, #32
10000a34:	f840 3c04 	str.w	r3, [r0, #-4]
10000a38:	6803      	ldr	r3, [r0, #0]
10000a3a:	075b      	lsls	r3, r3, #29
10000a3c:	d409      	bmi.n	10000a52 <GLCD_Initialize+0x282>
10000a3e:	6803      	ldr	r3, [r0, #0]
10000a40:	075b      	lsls	r3, r3, #29
10000a42:	bf5c      	itt	pl
10000a44:	6803      	ldrpl	r3, [r0, #0]
10000a46:	ea5f 7343 	movspl.w	r3, r3, lsl #29
10000a4a:	d402      	bmi.n	10000a52 <GLCD_Initialize+0x282>
10000a4c:	6803      	ldr	r3, [r0, #0]
10000a4e:	075b      	lsls	r3, r3, #29
10000a50:	d5f2      	bpl.n	10000a38 <GLCD_Initialize+0x268>
10000a52:	f850 3c04 	ldr.w	r3, [r0, #-4]
10000a56:	680b      	ldr	r3, [r1, #0]
10000a58:	f043 0301 	orr.w	r3, r3, #1
10000a5c:	600b      	str	r3, [r1, #0]
10000a5e:	6813      	ldr	r3, [r2, #0]
10000a60:	f023 0301 	bic.w	r3, r3, #1
10000a64:	6013      	str	r3, [r2, #0]
10000a66:	2370      	movs	r3, #112	@ 0x70
10000a68:	f840 3c04 	str.w	r3, [r0, #-4]
10000a6c:	6803      	ldr	r3, [r0, #0]
10000a6e:	075b      	lsls	r3, r3, #29
10000a70:	d409      	bmi.n	10000a86 <GLCD_Initialize+0x2b6>
10000a72:	6803      	ldr	r3, [r0, #0]
10000a74:	075b      	lsls	r3, r3, #29
10000a76:	bf5c      	itt	pl
10000a78:	6803      	ldrpl	r3, [r0, #0]
10000a7a:	ea5f 7343 	movspl.w	r3, r3, lsl #29
10000a7e:	d402      	bmi.n	10000a86 <GLCD_Initialize+0x2b6>
10000a80:	6803      	ldr	r3, [r0, #0]
10000a82:	075b      	lsls	r3, r3, #29
10000a84:	d5f2      	bpl.n	10000a6c <GLCD_Initialize+0x29c>
10000a86:	f850 3c04 	ldr.w	r3, [r0, #-4]
10000a8a:	2300      	movs	r3, #0
10000a8c:	f840 3c04 	str.w	r3, [r0, #-4]
10000a90:	6803      	ldr	r3, [r0, #0]
10000a92:	075b      	lsls	r3, r3, #29
10000a94:	d409      	bmi.n	10000aaa <GLCD_Initialize+0x2da>
10000a96:	6803      	ldr	r3, [r0, #0]
10000a98:	075b      	lsls	r3, r3, #29
10000a9a:	bf5c      	itt	pl
10000a9c:	6803      	ldrpl	r3, [r0, #0]
10000a9e:	ea5f 7343 	movspl.w	r3, r3, lsl #29
10000aa2:	d402      	bmi.n	10000aaa <GLCD_Initialize+0x2da>
10000aa4:	6803      	ldr	r3, [r0, #0]
10000aa6:	075b      	lsls	r3, r3, #29
10000aa8:	d5f2      	bpl.n	10000a90 <GLCD_Initialize+0x2c0>
10000aaa:	f850 3c04 	ldr.w	r3, [r0, #-4]
10000aae:	23ec      	movs	r3, #236	@ 0xec
10000ab0:	f840 3c04 	str.w	r3, [r0, #-4]
10000ab4:	6803      	ldr	r3, [r0, #0]
10000ab6:	075b      	lsls	r3, r3, #29
10000ab8:	d409      	bmi.n	10000ace <GLCD_Initialize+0x2fe>
10000aba:	6803      	ldr	r3, [r0, #0]
10000abc:	075b      	lsls	r3, r3, #29
10000abe:	bf5c      	itt	pl
10000ac0:	6803      	ldrpl	r3, [r0, #0]
10000ac2:	ea5f 7343 	movspl.w	r3, r3, lsl #29
10000ac6:	d402      	bmi.n	10000ace <GLCD_Initialize+0x2fe>
10000ac8:	6803      	ldr	r3, [r0, #0]
10000aca:	075b      	lsls	r3, r3, #29
10000acc:	d5f2      	bpl.n	10000ab4 <GLCD_Initialize+0x2e4>
10000ace:	f850 3c04 	ldr.w	r3, [r0, #-4]
10000ad2:	680b      	ldr	r3, [r1, #0]
10000ad4:	f043 0301 	orr.w	r3, r3, #1
10000ad8:	600b      	str	r3, [r1, #0]
10000ada:	6813      	ldr	r3, [r2, #0]
10000adc:	f023 0301 	bic.w	r3, r3, #1
10000ae0:	6013      	str	r3, [r2, #0]
10000ae2:	2372      	movs	r3, #114	@ 0x72
10000ae4:	f840 3c04 	str.w	r3, [r0, #-4]
10000ae8:	6803      	ldr	r3, [r0, #0]
10000aea:	075b      	lsls	r3, r3, #29
10000aec:	d409      	bmi.n	10000b02 <GLCD_Initialize+0x332>
10000aee:	6803      	ldr	r3, [r0, #0]
10000af0:	075b      	lsls	r3, r3, #29
10000af2:	bf5c      	itt	pl
10000af4:	6803      	ldrpl	r3, [r0, #0]
10000af6:	ea5f 7343 	movspl.w	r3, r3, lsl #29
10000afa:	d402      	bmi.n	10000b02 <GLCD_Initialize+0x332>
10000afc:	6803      	ldr	r3, [r0, #0]
10000afe:	075b      	lsls	r3, r3, #29
10000b00:	d5f2      	bpl.n	10000ae8 <GLCD_Initialize+0x318>
10000b02:	f850 3c04 	ldr.w	r3, [r0, #-4]
10000b06:	2300      	movs	r3, #0
10000b08:	f840 3c04 	str.w	r3, [r0, #-4]
10000b0c:	6803      	ldr	r3, [r0, #0]
10000b0e:	075b      	lsls	r3, r3, #29
10000b10:	d409      	bmi.n	10000b26 <GLCD_Initialize+0x356>
10000b12:	6803      	ldr	r3, [r0, #0]
10000b14:	075b      	lsls	r3, r3, #29
10000b16:	bf5c      	itt	pl
10000b18:	6803      	ldrpl	r3, [r0, #0]
10000b1a:	ea5f 7343 	movspl.w	r3, r3, lsl #29
10000b1e:	d402      	bmi.n	10000b26 <GLCD_Initialize+0x356>
10000b20:	6803      	ldr	r3, [r0, #0]
10000b22:	075b      	lsls	r3, r3, #29
10000b24:	d5f2      	bpl.n	10000b0c <GLCD_Initialize+0x33c>
10000b26:	f850 3c04 	ldr.w	r3, [r0, #-4]
10000b2a:	230c      	movs	r3, #12
10000b2c:	f840 3c04 	str.w	r3, [r0, #-4]
10000b30:	6803      	ldr	r3, [r0, #0]
10000b32:	075b      	lsls	r3, r3, #29
10000b34:	d409      	bmi.n	10000b4a <GLCD_Initialize+0x37a>
10000b36:	6803      	ldr	r3, [r0, #0]
10000b38:	075b      	lsls	r3, r3, #29
10000b3a:	bf5c      	itt	pl
10000b3c:	6803      	ldrpl	r3, [r0, #0]
10000b3e:	ea5f 7343 	movspl.w	r3, r3, lsl #29
10000b42:	d402      	bmi.n	10000b4a <GLCD_Initialize+0x37a>
10000b44:	6803      	ldr	r3, [r0, #0]
10000b46:	075b      	lsls	r3, r3, #29
10000b48:	d5f2      	bpl.n	10000b30 <GLCD_Initialize+0x360>
10000b4a:	f850 3c04 	ldr.w	r3, [r0, #-4]
10000b4e:	680b      	ldr	r3, [r1, #0]
10000b50:	f043 0301 	orr.w	r3, r3, #1
10000b54:	600b      	str	r3, [r1, #0]
10000b56:	6813      	ldr	r3, [r2, #0]
10000b58:	f023 0301 	bic.w	r3, r3, #1
10000b5c:	6013      	str	r3, [r2, #0]
10000b5e:	2370      	movs	r3, #112	@ 0x70
10000b60:	f840 3c04 	str.w	r3, [r0, #-4]
10000b64:	6803      	ldr	r3, [r0, #0]
10000b66:	075b      	lsls	r3, r3, #29
10000b68:	d409      	bmi.n	10000b7e <GLCD_Initialize+0x3ae>
10000b6a:	6803      	ldr	r3, [r0, #0]
10000b6c:	075b      	lsls	r3, r3, #29
10000b6e:	bf5c      	itt	pl
10000b70:	6803      	ldrpl	r3, [r0, #0]
10000b72:	ea5f 7343 	movspl.w	r3, r3, lsl #29
10000b76:	d402      	bmi.n	10000b7e <GLCD_Initialize+0x3ae>
10000b78:	6803      	ldr	r3, [r0, #0]
10000b7a:	075b      	lsls	r3, r3, #29
10000b7c:	d5f2      	bpl.n	10000b64 <GLCD_Initialize+0x394>
10000b7e:	f850 3c04 	ldr.w	r3, [r0, #-4]
10000b82:	2300      	movs	r3, #0
10000b84:	f840 3c04 	str.w	r3, [r0, #-4]
10000b88:	6803      	ldr	r3, [r0, #0]
10000b8a:	075b      	lsls	r3, r3, #29
10000b8c:	d409      	bmi.n	10000ba2 <GLCD_Initialize+0x3d2>
10000b8e:	6803      	ldr	r3, [r0, #0]
10000b90:	075b      	lsls	r3, r3, #29
10000b92:	bf5c      	itt	pl
10000b94:	6803      	ldrpl	r3, [r0, #0]
10000b96:	ea5f 7343 	movspl.w	r3, r3, lsl #29
10000b9a:	d402      	bmi.n	10000ba2 <GLCD_Initialize+0x3d2>
10000b9c:	6803      	ldr	r3, [r0, #0]
10000b9e:	075b      	lsls	r3, r3, #29
10000ba0:	d5f2      	bpl.n	10000b88 <GLCD_Initialize+0x3b8>
10000ba2:	f850 3c04 	ldr.w	r3, [r0, #-4]
10000ba6:	23ed      	movs	r3, #237	@ 0xed
10000ba8:	f840 3c04 	str.w	r3, [r0, #-4]
10000bac:	6803      	ldr	r3, [r0, #0]
10000bae:	075b      	lsls	r3, r3, #29
10000bb0:	d409      	bmi.n	10000bc6 <GLCD_Initialize+0x3f6>
10000bb2:	6803      	ldr	r3, [r0, #0]
10000bb4:	075b      	lsls	r3, r3, #29
10000bb6:	bf5c      	itt	pl
10000bb8:	6803      	ldrpl	r3, [r0, #0]
10000bba:	ea5f 7343 	movspl.w	r3, r3, lsl #29
10000bbe:	d402      	bmi.n	10000bc6 <GLCD_Initialize+0x3f6>
10000bc0:	6803      	ldr	r3, [r0, #0]
10000bc2:	075b      	lsls	r3, r3, #29
10000bc4:	d5f2      	bpl.n	10000bac <GLCD_Initialize+0x3dc>
10000bc6:	f850 3c04 	ldr.w	r3, [r0, #-4]
10000bca:	680b      	ldr	r3, [r1, #0]
10000bcc:	f043 0301 	orr.w	r3, r3, #1
10000bd0:	600b      	str	r3, [r1, #0]
10000bd2:	6813      	ldr	r3, [r2, #0]
10000bd4:	f023 0301 	bic.w	r3, r3, #1
10000bd8:	6013      	str	r3, [r2, #0]
10000bda:	2372      	movs	r3, #114	@ 0x72
10000bdc:	f840 3c04 	str.w	r3, [r0, #-4]
10000be0:	6803      	ldr	r3, [r0, #0]
10000be2:	075b      	lsls	r3, r3, #29
10000be4:	d409      	bmi.n	10000bfa <GLCD_Initialize+0x42a>
10000be6:	6803      	ldr	r3, [r0, #0]
10000be8:	075b      	lsls	r3, r3, #29
10000bea:	bf5c      	itt	pl
10000bec:	6803      	ldrpl	r3, [r0, #0]
10000bee:	ea5f 7343 	movspl.w	r3, r3, lsl #29
10000bf2:	d402      	bmi.n	10000bfa <GLCD_Initialize+0x42a>
10000bf4:	6803      	ldr	r3, [r0, #0]
10000bf6:	075b      	lsls	r3, r3, #29
10000bf8:	d5f2      	bpl.n	10000be0 <GLCD_Initialize+0x410>
10000bfa:	f850 3c04 	ldr.w	r3, [r0, #-4]
10000bfe:	2300      	movs	r3, #0
10000c00:	f840 3c04 	str.w	r3, [r0, #-4]
10000c04:	6803      	ldr	r3, [r0, #0]
10000c06:	075b      	lsls	r3, r3, #29
10000c08:	d409      	bmi.n	10000c1e <GLCD_Initialize+0x44e>
10000c0a:	6803      	ldr	r3, [r0, #0]
10000c0c:	075b      	lsls	r3, r3, #29
10000c0e:	bf5c      	itt	pl
10000c10:	6803      	ldrpl	r3, [r0, #0]
10000c12:	ea5f 7343 	movspl.w	r3, r3, lsl #29
10000c16:	d402      	bmi.n	10000c1e <GLCD_Initialize+0x44e>
10000c18:	6803      	ldr	r3, [r0, #0]
10000c1a:	075b      	lsls	r3, r3, #29
10000c1c:	d5f2      	bpl.n	10000c04 <GLCD_Initialize+0x434>
10000c1e:	f850 3c04 	ldr.w	r3, [r0, #-4]
10000c22:	23c7      	movs	r3, #199	@ 0xc7
10000c24:	f840 3c04 	str.w	r3, [r0, #-4]
10000c28:	6803      	ldr	r3, [r0, #0]
10000c2a:	075b      	lsls	r3, r3, #29
10000c2c:	d409      	bmi.n	10000c42 <GLCD_Initialize+0x472>
10000c2e:	6803      	ldr	r3, [r0, #0]
10000c30:	075b      	lsls	r3, r3, #29
10000c32:	bf5c      	itt	pl
10000c34:	6803      	ldrpl	r3, [r0, #0]
10000c36:	ea5f 7343 	movspl.w	r3, r3, lsl #29
10000c3a:	d402      	bmi.n	10000c42 <GLCD_Initialize+0x472>
10000c3c:	6803      	ldr	r3, [r0, #0]
10000c3e:	075b      	lsls	r3, r3, #29
10000c40:	d5f2      	bpl.n	10000c28 <GLCD_Initialize+0x458>
10000c42:	f850 3c04 	ldr.w	r3, [r0, #-4]
10000c46:	680b      	ldr	r3, [r1, #0]
10000c48:	f043 0301 	orr.w	r3, r3, #1
10000c4c:	600b      	str	r3, [r1, #0]
10000c4e:	6813      	ldr	r3, [r2, #0]
10000c50:	f023 0301 	bic.w	r3, r3, #1
10000c54:	6013      	str	r3, [r2, #0]
10000c56:	2370      	movs	r3, #112	@ 0x70
10000c58:	f840 3c04 	str.w	r3, [r0, #-4]
10000c5c:	6803      	ldr	r3, [r0, #0]
10000c5e:	075b      	lsls	r3, r3, #29
10000c60:	d409      	bmi.n	10000c76 <GLCD_Initialize+0x4a6>
10000c62:	6803      	ldr	r3, [r0, #0]
10000c64:	075b      	lsls	r3, r3, #29
10000c66:	bf5c      	itt	pl
10000c68:	6803      	ldrpl	r3, [r0, #0]
10000c6a:	ea5f 7343 	movspl.w	r3, r3, lsl #29
10000c6e:	d402      	bmi.n	10000c76 <GLCD_Initialize+0x4a6>
10000c70:	6803      	ldr	r3, [r0, #0]
10000c72:	075b      	lsls	r3, r3, #29
10000c74:	d5f2      	bpl.n	10000c5c <GLCD_Initialize+0x48c>
10000c76:	f850 3c04 	ldr.w	r3, [r0, #-4]
10000c7a:	2300      	movs	r3, #0
10000c7c:	f840 3c04 	str.w	r3, [r0, #-4]
10000c80:	6803      	ldr	r3, [r0, #0]
10000c82:	075b      	lsls	r3, r3, #29
10000c84:	d409      	bmi.n	10000c9a <GLCD_Initialize+0x4ca>
10000c86:	6803      	ldr	r3, [r0, #0]
10000c88:	075b      	lsls	r3, r3, #29
10000c8a:	bf5c      	itt	pl
10000c8c:	6803      	ldrpl	r3, [r0, #0]
10000c8e:	ea5f 7343 	movspl.w	r3, r3, lsl #29
10000c92:	d402      	bmi.n	10000c9a <GLCD_Initialize+0x4ca>
10000c94:	6803      	ldr	r3, [r0, #0]
10000c96:	075b      	lsls	r3, r3, #29
10000c98:	d5f2      	bpl.n	10000c80 <GLCD_Initialize+0x4b0>
10000c9a:	f850 3c04 	ldr.w	r3, [r0, #-4]
10000c9e:	23e8      	movs	r3, #232	@ 0xe8
10000ca0:	f840 3c04 	str.w	r3, [r0, #-4]
10000ca4:	6803      	ldr	r3, [r0, #0]
10000ca6:	075b      	lsls	r3, r3, #29
10000ca8:	d409      	bmi.n	10000cbe <GLCD_Initialize+0x4ee>
10000caa:	6803      	ldr	r3, [r0, #0]
10000cac:	075b      	lsls	r3, r3, #29
10000cae:	bf5c      	itt	pl
10000cb0:	6803      	ldrpl	r3, [r0, #0]
10000cb2:	ea5f 7343 	movspl.w	r3, r3, lsl #29
10000cb6:	d402      	bmi.n	10000cbe <GLCD_Initialize+0x4ee>
10000cb8:	6803      	ldr	r3, [r0, #0]
10000cba:	075b      	lsls	r3, r3, #29
10000cbc:	d5f2      	bpl.n	10000ca4 <GLCD_Initialize+0x4d4>
10000cbe:	f850 3c04 	ldr.w	r3, [r0, #-4]
10000cc2:	680b      	ldr	r3, [r1, #0]
10000cc4:	f043 0301 	orr.w	r3, r3, #1
10000cc8:	600b      	str	r3, [r1, #0]
10000cca:	6813      	ldr	r3, [r2, #0]
10000ccc:	f023 0301 	bic.w	r3, r3, #1
10000cd0:	6013      	str	r3, [r2, #0]
10000cd2:	2372      	movs	r3, #114	@ 0x72
10000cd4:	f840 3c04 	str.w	r3, [r0, #-4]
10000cd8:	6803      	ldr	r3, [r0, #0]
10000cda:	075b      	lsls	r3, r3, #29
10000cdc:	d409      	bmi.n	10000cf2 <GLCD_Initialize+0x522>
10000cde:	6803      	ldr	r3, [r0, #0]
10000ce0:	075b      	lsls	r3, r3, #29
10000ce2:	bf5c      	itt	pl
10000ce4:	6803      	ldrpl	r3, [r0, #0]
10000ce6:	ea5f 7343 	movspl.w	r3, r3, lsl #29
10000cea:	d402      	bmi.n	10000cf2 <GLCD_Initialize+0x522>
10000cec:	6803      	ldr	r3, [r0, #0]
10000cee:	075b      	lsls	r3, r3, #29
10000cf0:	d5f2      	bpl.n	10000cd8 <GLCD_Initialize+0x508>
10000cf2:	f850 3c04 	ldr.w	r3, [r0, #-4]
10000cf6:	2300      	movs	r3, #0
10000cf8:	f840 3c04 	str.w	r3, [r0, #-4]
10000cfc:	6803      	ldr	r3, [r0, #0]
10000cfe:	075b      	lsls	r3, r3, #29
10000d00:	d409      	bmi.n	10000d16 <GLCD_Initialize+0x546>
10000d02:	6803      	ldr	r3, [r0, #0]
10000d04:	075b      	lsls	r3, r3, #29
10000d06:	bf5c      	itt	pl
10000d08:	6803      	ldrpl	r3, [r0, #0]
10000d0a:	ea5f 7343 	movspl.w	r3, r3, lsl #29
10000d0e:	d402      	bmi.n	10000d16 <GLCD_Initialize+0x546>
10000d10:	6803      	ldr	r3, [r0, #0]
10000d12:	075b      	lsls	r3, r3, #29
10000d14:	d5f2      	bpl.n	10000cfc <GLCD_Initialize+0x52c>
10000d16:	f850 3c04 	ldr.w	r3, [r0, #-4]
10000d1a:	2338      	movs	r3, #56	@ 0x38
10000d1c:	f840 3c04 	str.w	r3, [r0, #-4]
10000d20:	6803      	ldr	r3, [r0, #0]
10000d22:	075b      	lsls	r3, r3, #29
10000d24:	d409      	bmi.n	10000d3a <GLCD_Initialize+0x56a>
10000d26:	6803      	ldr	r3, [r0, #0]
10000d28:	075b      	lsls	r3, r3, #29
10000d2a:	bf5c      	itt	pl
10000d2c:	6803      	ldrpl	r3, [r0, #0]
10000d2e:	ea5f 7343 	movspl.w	r3, r3, lsl #29
10000d32:	d402      	bmi.n	10000d3a <GLCD_Initialize+0x56a>
10000d34:	6803      	ldr	r3, [r0, #0]
10000d36:	075b      	lsls	r3, r3, #29
10000d38:	d5f2      	bpl.n	10000d20 <GLCD_Initialize+0x550>
10000d3a:	f850 3c04 	ldr.w	r3, [r0, #-4]
10000d3e:	680b      	ldr	r3, [r1, #0]
10000d40:	f043 0301 	orr.w	r3, r3, #1
10000d44:	600b      	str	r3, [r1, #0]
10000d46:	6813      	ldr	r3, [r2, #0]
10000d48:	f023 0301 	bic.w	r3, r3, #1
10000d4c:	6013      	str	r3, [r2, #0]
10000d4e:	2370      	movs	r3, #112	@ 0x70
10000d50:	f840 3c04 	str.w	r3, [r0, #-4]
10000d54:	6803      	ldr	r3, [r0, #0]
10000d56:	075b      	lsls	r3, r3, #29
10000d58:	d409      	bmi.n	10000d6e <GLCD_Initialize+0x59e>
10000d5a:	6803      	ldr	r3, [r0, #0]
10000d5c:	075b      	lsls	r3, r3, #29
10000d5e:	bf5c      	itt	pl
10000d60:	6803      	ldrpl	r3, [r0, #0]
10000d62:	ea5f 7343 	movspl.w	r3, r3, lsl #29
10000d66:	d402      	bmi.n	10000d6e <GLCD_Initialize+0x59e>
10000d68:	6803      	ldr	r3, [r0, #0]
10000d6a:	075b      	lsls	r3, r3, #29
10000d6c:	d5f2      	bpl.n	10000d54 <GLCD_Initialize+0x584>
10000d6e:	f850 3c04 	ldr.w	r3, [r0, #-4]
10000d72:	2300      	movs	r3, #0
10000d74:	f840 3c04 	str.w	r3, [r0, #-4]
10000d78:	6803      	ldr	r3, [r0, #0]
10000d7a:	075b      	lsls	r3, r3, #29
10000d7c:	d409      	bmi.n	10000d92 <GLCD_Initialize+0x5c2>
10000d7e:	6803      	ldr	r3, [r0, #0]
10000d80:	075b      	lsls	r3, r3, #29
10000d82:	bf5c      	itt	pl
10000d84:	6803      	ldrpl	r3, [r0, #0]
10000d86:	ea5f 7343 	movspl.w	r3, r3, lsl #29
10000d8a:	d402      	bmi.n	10000d92 <GLCD_Initialize+0x5c2>
10000d8c:	6803      	ldr	r3, [r0, #0]
10000d8e:	075b      	lsls	r3, r3, #29
10000d90:	d5f2      	bpl.n	10000d78 <GLCD_Initialize+0x5a8>
10000d92:	f850 3c04 	ldr.w	r3, [r0, #-4]
10000d96:	23e9      	movs	r3, #233	@ 0xe9
10000d98:	f840 3c04 	str.w	r3, [r0, #-4]
10000d9c:	6803      	ldr	r3, [r0, #0]
10000d9e:	075b      	lsls	r3, r3, #29
10000da0:	d409      	bmi.n	10000db6 <GLCD_Initialize+0x5e6>
10000da2:	6803      	ldr	r3, [r0, #0]
10000da4:	075b      	lsls	r3, r3, #29
10000da6:	bf5c      	itt	pl
10000da8:	6803      	ldrpl	r3, [r0, #0]
10000daa:	ea5f 7343 	movspl.w	r3, r3, lsl #29
10000dae:	d402      	bmi.n	10000db6 <GLCD_Initialize+0x5e6>
10000db0:	6803      	ldr	r3, [r0, #0]
10000db2:	075b      	lsls	r3, r3, #29
10000db4:	d5f2      	bpl.n	10000d9c <GLCD_Initialize+0x5cc>
10000db6:	f850 3c04 	ldr.w	r3, [r0, #-4]
10000dba:	680b      	ldr	r3, [r1, #0]
10000dbc:	f043 0301 	orr.w	r3, r3, #1
10000dc0:	600b      	str	r3, [r1, #0]
10000dc2:	6813      	ldr	r3, [r2, #0]
10000dc4:	f023 0301 	bic.w	r3, r3, #1
10000dc8:	6013      	str	r3, [r2, #0]
10000dca:	2372      	movs	r3, #114	@ 0x72
10000dcc:	f840 3c04 	str.w	r3, [r0, #-4]
10000dd0:	6803      	ldr	r3, [r0, #0]
10000dd2:	075b      	lsls	r3, r3, #29
10000dd4:	d409      	bmi.n	10000dea <GLCD_Initialize+0x61a>
10000dd6:	6803      	ldr	r3, [r0, #0]
10000dd8:	075b      	lsls	r3, r3, #29
10000dda:	bf5c      	itt	pl
10000ddc:	6803      	ldrpl	r3, [r0, #0]
10000dde:	ea5f 7343 	movspl.w	r3, r3, lsl #29
10000de2:	d402      	bmi.n	10000dea <GLCD_Initialize+0x61a>
10000de4:	6803      	ldr	r3, [r0, #0]
10000de6:	075b      	lsls	r3, r3, #29
10000de8:	d5f2      	bpl.n	10000dd0 <GLCD_Initialize+0x600>
10000dea:	f850 3c04 	ldr.w	r3, [r0, #-4]
10000dee:	2300      	movs	r3, #0
10000df0:	f840 3c04 	str.w	r3, [r0, #-4]
10000df4:	6803      	ldr	r3, [r0, #0]
10000df6:	075b      	lsls	r3, r3, #29
10000df8:	d409      	bmi.n	10000e0e <GLCD_Initialize+0x63e>
10000dfa:	6803      	ldr	r3, [r0, #0]
10000dfc:	075b      	lsls	r3, r3, #29
10000dfe:	bf5c      	itt	pl
10000e00:	6803      	ldrpl	r3, [r0, #0]
10000e02:	ea5f 7343 	movspl.w	r3, r3, lsl #29
10000e06:	d402      	bmi.n	10000e0e <GLCD_Initialize+0x63e>
10000e08:	6803      	ldr	r3, [r0, #0]
10000e0a:	075b      	lsls	r3, r3, #29
10000e0c:	d5f2      	bpl.n	10000df4 <GLCD_Initialize+0x624>
10000e0e:	f850 3c04 	ldr.w	r3, [r0, #-4]
10000e12:	2310      	movs	r3, #16
10000e14:	f840 3c04 	str.w	r3, [r0, #-4]
10000e18:	6803      	ldr	r3, [r0, #0]
10000e1a:	075b      	lsls	r3, r3, #29
10000e1c:	d409      	bmi.n	10000e32 <GLCD_Initialize+0x662>
10000e1e:	6803      	ldr	r3, [r0, #0]
10000e20:	075b      	lsls	r3, r3, #29
10000e22:	bf5c      	itt	pl
10000e24:	6803      	ldrpl	r3, [r0, #0]
10000e26:	ea5f 7343 	movspl.w	r3, r3, lsl #29
10000e2a:	d402      	bmi.n	10000e32 <GLCD_Initialize+0x662>
10000e2c:	6803      	ldr	r3, [r0, #0]
10000e2e:	075b      	lsls	r3, r3, #29
10000e30:	d5f2      	bpl.n	10000e18 <GLCD_Initialize+0x648>
10000e32:	f850 3c04 	ldr.w	r3, [r0, #-4]
10000e36:	680b      	ldr	r3, [r1, #0]
10000e38:	f043 0301 	orr.w	r3, r3, #1
10000e3c:	600b      	str	r3, [r1, #0]
10000e3e:	6813      	ldr	r3, [r2, #0]
10000e40:	f023 0301 	bic.w	r3, r3, #1
10000e44:	6013      	str	r3, [r2, #0]
10000e46:	2370      	movs	r3, #112	@ 0x70
10000e48:	f840 3c04 	str.w	r3, [r0, #-4]
10000e4c:	6803      	ldr	r3, [r0, #0]
10000e4e:	075b      	lsls	r3, r3, #29
10000e50:	d409      	bmi.n	10000e66 <GLCD_Initialize+0x696>
10000e52:	6803      	ldr	r3, [r0, #0]
10000e54:	075b      	lsls	r3, r3, #29
10000e56:	bf5c      	itt	pl
10000e58:	6803      	ldrpl	r3, [r0, #0]
10000e5a:	ea5f 7343 	movspl.w	r3, r3, lsl #29
10000e5e:	d402      	bmi.n	10000e66 <GLCD_Initialize+0x696>
10000e60:	6803      	ldr	r3, [r0, #0]
10000e62:	075b      	lsls	r3, r3, #29
10000e64:	d5f2      	bpl.n	10000e4c <GLCD_Initialize+0x67c>
10000e66:	f850 3c04 	ldr.w	r3, [r0, #-4]
10000e6a:	2300      	movs	r3, #0
10000e6c:	f840 3c04 	str.w	r3, [r0, #-4]
10000e70:	6803      	ldr	r3, [r0, #0]
10000e72:	075b      	lsls	r3, r3, #29
10000e74:	d409      	bmi.n	10000e8a <GLCD_Initialize+0x6ba>
10000e76:	6803      	ldr	r3, [r0, #0]
10000e78:	075b      	lsls	r3, r3, #29
10000e7a:	bf5c      	itt	pl
10000e7c:	6803      	ldrpl	r3, [r0, #0]
10000e7e:	ea5f 7343 	movspl.w	r3, r3, lsl #29
10000e82:	d402      	bmi.n	10000e8a <GLCD_Initialize+0x6ba>
10000e84:	6803      	ldr	r3, [r0, #0]
10000e86:	075b      	lsls	r3, r3, #29
10000e88:	d5f2      	bpl.n	10000e70 <GLCD_Initialize+0x6a0>
10000e8a:	f850 3c04 	ldr.w	r3, [r0, #-4]
10000e8e:	23f1      	movs	r3, #241	@ 0xf1
10000e90:	f840 3c04 	str.w	r3, [r0, #-4]
10000e94:	6803      	ldr	r3, [r0, #0]
10000e96:	075b      	lsls	r3, r3, #29
10000e98:	d409      	bmi.n	10000eae <GLCD_Initialize+0x6de>
10000e9a:	6803      	ldr	r3, [r0, #0]
10000e9c:	075b      	lsls	r3, r3, #29
10000e9e:	bf5c      	itt	pl
10000ea0:	6803      	ldrpl	r3, [r0, #0]
10000ea2:	ea5f 7343 	movspl.w	r3, r3, lsl #29
10000ea6:	d402      	bmi.n	10000eae <GLCD_Initialize+0x6de>
10000ea8:	6803      	ldr	r3, [r0, #0]
10000eaa:	075b      	lsls	r3, r3, #29
10000eac:	d5f2      	bpl.n	10000e94 <GLCD_Initialize+0x6c4>
10000eae:	f850 3c04 	ldr.w	r3, [r0, #-4]
10000eb2:	680b      	ldr	r3, [r1, #0]
10000eb4:	f043 0301 	orr.w	r3, r3, #1
10000eb8:	600b      	str	r3, [r1, #0]
10000eba:	6813      	ldr	r3, [r2, #0]
10000ebc:	f023 0301 	bic.w	r3, r3, #1
10000ec0:	6013      	str	r3, [r2, #0]
10000ec2:	2372      	movs	r3, #114	@ 0x72
10000ec4:	f840 3c04 	str.w	r3, [r0, #-4]
10000ec8:	6803      	ldr	r3, [r0, #0]
10000eca:	075b      	lsls	r3, r3, #29
10000ecc:	d409      	bmi.n	10000ee2 <GLCD_Initialize+0x712>
10000ece:	6803      	ldr	r3, [r0, #0]
10000ed0:	075b      	lsls	r3, r3, #29
10000ed2:	bf5c      	itt	pl
10000ed4:	6803      	ldrpl	r3, [r0, #0]
10000ed6:	ea5f 7343 	movspl.w	r3, r3, lsl #29
10000eda:	d402      	bmi.n	10000ee2 <GLCD_Initialize+0x712>
10000edc:	6803      	ldr	r3, [r0, #0]
10000ede:	075b      	lsls	r3, r3, #29
10000ee0:	d5f2      	bpl.n	10000ec8 <GLCD_Initialize+0x6f8>
10000ee2:	f850 3c04 	ldr.w	r3, [r0, #-4]
10000ee6:	2300      	movs	r3, #0
10000ee8:	f840 3c04 	str.w	r3, [r0, #-4]
10000eec:	6803      	ldr	r3, [r0, #0]
10000eee:	075b      	lsls	r3, r3, #29
10000ef0:	d409      	bmi.n	10000f06 <GLCD_Initialize+0x736>
10000ef2:	6803      	ldr	r3, [r0, #0]
10000ef4:	075b      	lsls	r3, r3, #29
10000ef6:	bf5c      	itt	pl
10000ef8:	6803      	ldrpl	r3, [r0, #0]
10000efa:	ea5f 7343 	movspl.w	r3, r3, lsl #29
10000efe:	d402      	bmi.n	10000f06 <GLCD_Initialize+0x736>
10000f00:	6803      	ldr	r3, [r0, #0]
10000f02:	075b      	lsls	r3, r3, #29
10000f04:	d5f2      	bpl.n	10000eec <GLCD_Initialize+0x71c>
10000f06:	f850 3c04 	ldr.w	r3, [r0, #-4]
10000f0a:	2301      	movs	r3, #1
10000f0c:	f840 3c04 	str.w	r3, [r0, #-4]
10000f10:	6803      	ldr	r3, [r0, #0]
10000f12:	075b      	lsls	r3, r3, #29
10000f14:	d409      	bmi.n	10000f2a <GLCD_Initialize+0x75a>
10000f16:	6803      	ldr	r3, [r0, #0]
10000f18:	075b      	lsls	r3, r3, #29
10000f1a:	bf5c      	itt	pl
10000f1c:	6803      	ldrpl	r3, [r0, #0]
10000f1e:	ea5f 7343 	movspl.w	r3, r3, lsl #29
10000f22:	d402      	bmi.n	10000f2a <GLCD_Initialize+0x75a>
10000f24:	6803      	ldr	r3, [r0, #0]
10000f26:	075b      	lsls	r3, r3, #29
10000f28:	d5f2      	bpl.n	10000f10 <GLCD_Initialize+0x740>
10000f2a:	f850 3c04 	ldr.w	r3, [r0, #-4]
10000f2e:	680b      	ldr	r3, [r1, #0]
10000f30:	f043 0301 	orr.w	r3, r3, #1
10000f34:	600b      	str	r3, [r1, #0]
10000f36:	6813      	ldr	r3, [r2, #0]
10000f38:	f023 0301 	bic.w	r3, r3, #1
10000f3c:	6013      	str	r3, [r2, #0]
10000f3e:	2370      	movs	r3, #112	@ 0x70
10000f40:	f840 3c04 	str.w	r3, [r0, #-4]
10000f44:	6803      	ldr	r3, [r0, #0]
10000f46:	075b      	lsls	r3, r3, #29
10000f48:	d409      	bmi.n	10000f5e <GLCD_Initialize+0x78e>
10000f4a:	6803      	ldr	r3, [r0, #0]
10000f4c:	075b      	lsls	r3, r3, #29
10000f4e:	bf5c      	itt	pl
10000f50:	6803      	ldrpl	r3, [r0, #0]
10000f52:	ea5f 7343 	movspl.w	r3, r3, lsl #29
10000f56:	d402      	bmi.n	10000f5e <GLCD_Initialize+0x78e>
10000f58:	6803      	ldr	r3, [r0, #0]
10000f5a:	075b      	lsls	r3, r3, #29
10000f5c:	d5f2      	bpl.n	10000f44 <GLCD_Initialize+0x774>
10000f5e:	f850 3c04 	ldr.w	r3, [r0, #-4]
10000f62:	2300      	movs	r3, #0
10000f64:	f840 3c04 	str.w	r3, [r0, #-4]
10000f68:	6803      	ldr	r3, [r0, #0]
10000f6a:	075b      	lsls	r3, r3, #29
10000f6c:	d409      	bmi.n	10000f82 <GLCD_Initialize+0x7b2>
10000f6e:	6803      	ldr	r3, [r0, #0]
10000f70:	075b      	lsls	r3, r3, #29
10000f72:	bf5c      	itt	pl
10000f74:	6803      	ldrpl	r3, [r0, #0]
10000f76:	ea5f 7343 	movspl.w	r3, r3, lsl #29
10000f7a:	d402      	bmi.n	10000f82 <GLCD_Initialize+0x7b2>
10000f7c:	6803      	ldr	r3, [r0, #0]
10000f7e:	075b      	lsls	r3, r3, #29
10000f80:	d5f2      	bpl.n	10000f68 <GLCD_Initialize+0x798>
10000f82:	f850 3c04 	ldr.w	r3, [r0, #-4]
10000f86:	23f2      	movs	r3, #242	@ 0xf2
10000f88:	f840 3c04 	str.w	r3, [r0, #-4]
10000f8c:	6803      	ldr	r3, [r0, #0]
10000f8e:	075b      	lsls	r3, r3, #29
10000f90:	d409      	bmi.n	10000fa6 <GLCD_Initialize+0x7d6>
10000f92:	6803      	ldr	r3, [r0, #0]
10000f94:	075b      	lsls	r3, r3, #29
10000f96:	bf5c      	itt	pl
10000f98:	6803      	ldrpl	r3, [r0, #0]
10000f9a:	ea5f 7343 	movspl.w	r3, r3, lsl #29
10000f9e:	d402      	bmi.n	10000fa6 <GLCD_Initialize+0x7d6>
10000fa0:	6803      	ldr	r3, [r0, #0]
10000fa2:	075b      	lsls	r3, r3, #29
10000fa4:	d5f2      	bpl.n	10000f8c <GLCD_Initialize+0x7bc>
10000fa6:	f850 3c04 	ldr.w	r3, [r0, #-4]
10000faa:	680b      	ldr	r3, [r1, #0]
10000fac:	f043 0301 	orr.w	r3, r3, #1
10000fb0:	600b      	str	r3, [r1, #0]
10000fb2:	6813      	ldr	r3, [r2, #0]
10000fb4:	f023 0301 	bic.w	r3, r3, #1
10000fb8:	6013      	str	r3, [r2, #0]
10000fba:	2372      	movs	r3, #114	@ 0x72
10000fbc:	f840 3c04 	str.w	r3, [r0, #-4]
10000fc0:	6803      	ldr	r3, [r0, #0]
10000fc2:	075b      	lsls	r3, r3, #29
10000fc4:	d409      	bmi.n	10000fda <GLCD_Initialize+0x80a>
10000fc6:	6803      	ldr	r3, [r0, #0]
10000fc8:	075b      	lsls	r3, r3, #29
10000fca:	bf5c      	itt	pl
10000fcc:	6803      	ldrpl	r3, [r0, #0]
10000fce:	ea5f 7343 	movspl.w	r3, r3, lsl #29
10000fd2:	d402      	bmi.n	10000fda <GLCD_Initialize+0x80a>
10000fd4:	6803      	ldr	r3, [r0, #0]
10000fd6:	075b      	lsls	r3, r3, #29
10000fd8:	d5f2      	bpl.n	10000fc0 <GLCD_Initialize+0x7f0>
10000fda:	f850 3c04 	ldr.w	r3, [r0, #-4]
10000fde:	2300      	movs	r3, #0
10000fe0:	f840 3c04 	str.w	r3, [r0, #-4]
10000fe4:	6803      	ldr	r3, [r0, #0]
10000fe6:	075b      	lsls	r3, r3, #29
10000fe8:	d409      	bmi.n	10000ffe <GLCD_Initialize+0x82e>
10000fea:	6803      	ldr	r3, [r0, #0]
10000fec:	075b      	lsls	r3, r3, #29
10000fee:	bf5c      	itt	pl
10000ff0:	6803      	ldrpl	r3, [r0, #0]
10000ff2:	ea5f 7343 	movspl.w	r3, r3, lsl #29
10000ff6:	d402      	bmi.n	10000ffe <GLCD_Initialize+0x82e>
10000ff8:	6803      	ldr	r3, [r0, #0]
10000ffa:	075b      	lsls	r3, r3, #29
10000ffc:	d5f2      	bpl.n	10000fe4 <GLCD_Initialize+0x814>
10000ffe:	f850 3c04 	ldr.w	r3, [r0, #-4]
10001002:	2310      	movs	r3, #16
10001004:	f840 3c04 	str.w	r3, [r0, #-4]
10001008:	6803      	ldr	r3, [r0, #0]
1000100a:	075b      	lsls	r3, r3, #29
1000100c:	d409      	bmi.n	10001022 <GLCD_Initialize+0x852>
1000100e:	6803      	ldr	r3, [r0, #0]
10001010:	075b      	lsls	r3, r3, #29
10001012:	bf5c      	itt	pl
10001014:	6803      	ldrpl	r3, [r0, #0]
10001016:	ea5f 7343 	movspl.w	r3, r3, lsl #29
1000101a:	d402      	bmi.n	10001022 <GLCD_Initialize+0x852>
1000101c:	6803      	ldr	r3, [r0, #0]
1000101e:	075b      	lsls	r3, r3, #29
10001020:	d5f2      	bpl.n	10001008 <GLCD_Initialize+0x838>
10001022:	f850 3c04 	ldr.w	r3, [r0, #-4]
10001026:	680b      	ldr	r3, [r1, #0]
10001028:	f043 0301 	orr.w	r3, r3, #1
1000102c:	600b      	str	r3, [r1, #0]
1000102e:	6813      	ldr	r3, [r2, #0]
10001030:	f023 0301 	bic.w	r3, r3, #1
10001034:	6013      	str	r3, [r2, #0]
10001036:	2370      	movs	r3, #112	@ 0x70
10001038:	f840 3c04 	str.w	r3, [r0, #-4]
1000103c:	6803      	ldr	r3, [r0, #0]
1000103e:	075b      	lsls	r3, r3, #29
10001040:	d409      	bmi.n	10001056 <GLCD_Initialize+0x886>
10001042:	6803      	ldr	r3, [r0, #0]
10001044:	075b      	lsls	r3, r3, #29
10001046:	bf5c      	itt	pl
10001048:	6803      	ldrpl	r3, [r0, #0]
1000104a:	ea5f 7343 	movspl.w	r3, r3, lsl #29
1000104e:	d402      	bmi.n	10001056 <GLCD_Initialize+0x886>
10001050:	6803      	ldr	r3, [r0, #0]
10001052:	075b      	lsls	r3, r3, #29
10001054:	d5f2      	bpl.n	1000103c <GLCD_Initialize+0x86c>
10001056:	f850 3c04 	ldr.w	r3, [r0, #-4]
1000105a:	2300      	movs	r3, #0
1000105c:	f840 3c04 	str.w	r3, [r0, #-4]
10001060:	6803      	ldr	r3, [r0, #0]
10001062:	075b      	lsls	r3, r3, #29
10001064:	d409      	bmi.n	1000107a <GLCD_Initialize+0x8aa>
10001066:	6803      	ldr	r3, [r0, #0]
10001068:	075b      	lsls	r3, r3, #29
1000106a:	bf5c      	itt	pl
1000106c:	6803      	ldrpl	r3, [r0, #0]
1000106e:	ea5f 7343 	movspl.w	r3, r3, lsl #29
10001072:	d402      	bmi.n	1000107a <GLCD_Initialize+0x8aa>
10001074:	6803      	ldr	r3, [r0, #0]
10001076:	075b      	lsls	r3, r3, #29
10001078:	d5f2      	bpl.n	10001060 <GLCD_Initialize+0x890>
1000107a:	f850 3c04 	ldr.w	r3, [r0, #-4]
1000107e:	2340      	movs	r3, #64	@ 0x40
10001080:	f840 3c04 	str.w	r3, [r0, #-4]
10001084:	6803      	ldr	r3, [r0, #0]
10001086:	075b      	lsls	r3, r3, #29
10001088:	d409      	bmi.n	1000109e <GLCD_Initialize+0x8ce>
1000108a:	6803      	ldr	r3, [r0, #0]
1000108c:	075b      	lsls	r3, r3, #29
1000108e:	bf5c      	itt	pl
10001090:	6803      	ldrpl	r3, [r0, #0]
10001092:	ea5f 7343 	movspl.w	r3, r3, lsl #29
10001096:	d402      	bmi.n	1000109e <GLCD_Initialize+0x8ce>
10001098:	6803      	ldr	r3, [r0, #0]
1000109a:	075b      	lsls	r3, r3, #29
1000109c:	d5f2      	bpl.n	10001084 <GLCD_Initialize+0x8b4>
1000109e:	f850 3c04 	ldr.w	r3, [r0, #-4]
100010a2:	680b      	ldr	r3, [r1, #0]
100010a4:	f043 0301 	orr.w	r3, r3, #1
100010a8:	600b      	str	r3, [r1, #0]
100010aa:	6813      	ldr	r3, [r2, #0]
100010ac:	f023 0301 	bic.w	r3, r3, #1
100010b0:	6013      	str	r3, [r2, #0]
100010b2:	2372      	movs	r3, #114	@ 0x72
100010b4:	f840 3c04 	str.w	r3, [r0, #-4]
100010b8:	6803      	ldr	r3, [r0, #0]
100010ba:	075b      	lsls	r3, r3, #29
100010bc:	d409      	bmi.n	100010d2 <GLCD_Initialize+0x902>
100010be:	6803      	ldr	r3, [r0, #0]
100010c0:	075b      	lsls	r3, r3, #29
100010c2:	bf5c      	itt	pl
100010c4:	6803      	ldrpl	r3, [r0, #0]
100010c6:	ea5f 7343 	movspl.w	r3, r3, lsl #29
100010ca:	d402      	bmi.n	100010d2 <GLCD_Initialize+0x902>
100010cc:	6803      	ldr	r3, [r0, #0]
100010ce:	075b      	lsls	r3, r3, #29
100010d0:	d5f2      	bpl.n	100010b8 <GLCD_Initialize+0x8e8>
100010d2:	f850 3c04 	ldr.w	r3, [r0, #-4]
100010d6:	2300      	movs	r3, #0
100010d8:	f840 3c04 	str.w	r3, [r0, #-4]
100010dc:	6803      	ldr	r3, [r0, #0]
100010de:	075b      	lsls	r3, r3, #29
100010e0:	d409      	bmi.n	100010f6 <GLCD_Initialize+0x926>
100010e2:	6803      	ldr	r3, [r0, #0]
100010e4:	075b      	lsls	r3, r3, #29
100010e6:	bf5c      	itt	pl
100010e8:	6803      	ldrpl	r3, [r0, #0]
100010ea:	ea5f 7343 	movspl.w	r3, r3, lsl #29
100010ee:	d402      	bmi.n	100010f6 <GLCD_Initialize+0x926>
100010f0:	6803      	ldr	r3, [r0, #0]
100010f2:	075b      	lsls	r3, r3, #29
100010f4:	d5f2      	bpl.n	100010dc <GLCD_Initialize+0x90c>
100010f6:	f850 3c04 	ldr.w	r3, [r0, #-4]
100010fa:	2301      	movs	r3, #1
100010fc:	f840 3c04 	str.w	r3, [r0, #-4]
10001100:	6803      	ldr	r3, [r0, #0]
10001102:	075b      	lsls	r3, r3, #29
10001104:	d409      	bmi.n	1000111a <GLCD_Initialize+0x94a>
10001106:	6803      	ldr	r3, [r0, #0]
10001108:	075b      	lsls	r3, r3, #29
1000110a:	bf5c      	itt	pl
1000110c:	6803      	ldrpl	r3, [r0, #0]
1000110e:	ea5f 7343 	movspl.w	r3, r3, lsl #29
10001112:	d402      	bmi.n	1000111a <GLCD_Initialize+0x94a>
10001114:	6803      	ldr	r3, [r0, #0]
10001116:	075b      	lsls	r3, r3, #29
10001118:	d5f2      	bpl.n	10001100 <GLCD_Initialize+0x930>
1000111a:	f850 3c04 	ldr.w	r3, [r0, #-4]
1000111e:	680b      	ldr	r3, [r1, #0]
10001120:	f043 0301 	orr.w	r3, r3, #1
10001124:	600b      	str	r3, [r1, #0]
10001126:	6813      	ldr	r3, [r2, #0]
10001128:	f023 0301 	bic.w	r3, r3, #1
1000112c:	6013      	str	r3, [r2, #0]
1000112e:	2370      	movs	r3, #112	@ 0x70
10001130:	f840 3c04 	str.w	r3, [r0, #-4]
10001134:	6803      	ldr	r3, [r0, #0]
10001136:	075b      	lsls	r3, r3, #29
10001138:	d409      	bmi.n	1000114e <GLCD_Initialize+0x97e>
1000113a:	6803      	ldr	r3, [r0, #0]
1000113c:	075b      	lsls	r3, r3, #29
1000113e:	bf5c      	itt	pl
10001140:	6803      	ldrpl	r3, [r0, #0]
10001142:	ea5f 7343 	movspl.w	r3, r3, lsl #29
10001146:	d402      	bmi.n	1000114e <GLCD_Initialize+0x97e>
10001148:	6803      	ldr	r3, [r0, #0]
1000114a:	075b      	lsls	r3, r3, #29
1000114c:	d5f2      	bpl.n	10001134 <GLCD_Initialize+0x964>
1000114e:	f850 3c04 	ldr.w	r3, [r0, #-4]
10001152:	2300      	movs	r3, #0
10001154:	f840 3c04 	str.w	r3, [r0, #-4]
10001158:	6803      	ldr	r3, [r0, #0]
1000115a:	075b      	lsls	r3, r3, #29
1000115c:	d409      	bmi.n	10001172 <GLCD_Initialize+0x9a2>
1000115e:	6803      	ldr	r3, [r0, #0]
10001160:	075b      	lsls	r3, r3, #29
10001162:	bf5c      	itt	pl
10001164:	6803      	ldrpl	r3, [r0, #0]
10001166:	ea5f 7343 	movspl.w	r3, r3, lsl #29
1000116a:	d402      	bmi.n	10001172 <GLCD_Initialize+0x9a2>
1000116c:	6803      	ldr	r3, [r0, #0]
1000116e:	075b      	lsls	r3, r3, #29
10001170:	d5f2      	bpl.n	10001158 <GLCD_Initialize+0x988>
10001172:	f850 3c04 	ldr.w	r3, [r0, #-4]
10001176:	2341      	movs	r3, #65	@ 0x41
10001178:	f840 3c04 	str.w	r3, [r0, #-4]
1000117c:	6803      	ldr	r3, [r0, #0]
1000117e:	075b      	lsls	r3, r3, #29
10001180:	d409      	bmi.n	10001196 <GLCD_Initialize+0x9c6>
10001182:	6803      	ldr	r3, [r0, #0]
10001184:	075b      	lsls	r3, r3, #29
10001186:	bf5c      	itt	pl
10001188:	6803      	ldrpl	r3, [r0, #0]
1000118a:	ea5f 7343 	movspl.w	r3, r3, lsl #29
1000118e:	d402      	bmi.n	10001196 <GLCD_Initialize+0x9c6>
10001190:	6803      	ldr	r3, [r0, #0]
10001192:	075b      	lsls	r3, r3, #29
10001194:	d5f2      	bpl.n	1000117c <GLCD_Initialize+0x9ac>
10001196:	f850 3c04 	ldr.w	r3, [r0, #-4]
1000119a:	680b      	ldr	r3, [r1, #0]
1000119c:	f043 0301 	orr.w	r3, r3, #1
100011a0:	600b      	str	r3, [r1, #0]
100011a2:	6813      	ldr	r3, [r2, #0]
100011a4:	f023 0301 	bic.w	r3, r3, #1
100011a8:	6013      	str	r3, [r2, #0]
100011aa:	2372      	movs	r3, #114	@ 0x72
100011ac:	f840 3c04 	str.w	r3, [r0, #-4]
100011b0:	6803      	ldr	r3, [r0, #0]
100011b2:	075b      	lsls	r3, r3, #29
100011b4:	d409      	bmi.n	100011ca <GLCD_Initialize+0x9fa>
100011b6:	6803      	ldr	r3, [r0, #0]
100011b8:	075b      	lsls	r3, r3, #29
100011ba:	bf5c      	itt	pl
100011bc:	6803      	ldrpl	r3, [r0, #0]
100011be:	ea5f 7343 	movspl.w	r3, r3, lsl #29
100011c2:	d402      	bmi.n	100011ca <GLCD_Initialize+0x9fa>
100011c4:	6803      	ldr	r3, [r0, #0]
100011c6:	075b      	lsls	r3, r3, #29
100011c8:	d5f2      	bpl.n	100011b0 <GLCD_Initialize+0x9e0>
100011ca:	f850 3c04 	ldr.w	r3, [r0, #-4]
100011ce:	2300      	movs	r3, #0
100011d0:	f840 3c04 	str.w	r3, [r0, #-4]
100011d4:	6803      	ldr	r3, [r0, #0]
100011d6:	075b      	lsls	r3, r3, #29
100011d8:	d409      	bmi.n	100011ee <GLCD_Initialize+0xa1e>
100011da:	6803      	ldr	r3, [r0, #0]
100011dc:	075b      	lsls	r3, r3, #29
100011de:	bf5c      	itt	pl
100011e0:	6803      	ldrpl	r3, [r0, #0]
100011e2:	ea5f 7343 	movspl.w	r3, r3, lsl #29
100011e6:	d402      	bmi.n	100011ee <GLCD_Initialize+0xa1e>
100011e8:	6803      	ldr	r3, [r0, #0]
100011ea:	075b      	lsls	r3, r3, #29
100011ec:	d5f2      	bpl.n	100011d4 <GLCD_Initialize+0xa04>
100011ee:	f850 3c04 	ldr.w	r3, [r0, #-4]
100011f2:	2300      	movs	r3, #0
100011f4:	f840 3c04 	str.w	r3, [r0, #-4]
100011f8:	6803      	ldr	r3, [r0, #0]
100011fa:	075b      	lsls	r3, r3, #29
100011fc:	d409      	bmi.n	10001212 <GLCD_Initialize+0xa42>
100011fe:	6803      	ldr	r3, [r0, #0]
10001200:	075b      	lsls	r3, r3, #29
10001202:	bf5c      	itt	pl
10001204:	6803      	ldrpl	r3, [r0, #0]
10001206:	ea5f 7343 	movspl.w	r3, r3, lsl #29
1000120a:	d402      	bmi.n	10001212 <GLCD_Initialize+0xa42>
1000120c:	6803      	ldr	r3, [r0, #0]
1000120e:	075b      	lsls	r3, r3, #29
10001210:	d5f2      	bpl.n	100011f8 <GLCD_Initialize+0xa28>
10001212:	f850 3c04 	ldr.w	r3, [r0, #-4]
10001216:	680b      	ldr	r3, [r1, #0]
10001218:	f043 0301 	orr.w	r3, r3, #1
1000121c:	600b      	str	r3, [r1, #0]
1000121e:	6813      	ldr	r3, [r2, #0]
10001220:	f023 0301 	bic.w	r3, r3, #1
10001224:	6013      	str	r3, [r2, #0]
10001226:	2370      	movs	r3, #112	@ 0x70
10001228:	f840 3c04 	str.w	r3, [r0, #-4]
1000122c:	6803      	ldr	r3, [r0, #0]
1000122e:	075b      	lsls	r3, r3, #29
10001230:	d409      	bmi.n	10001246 <GLCD_Initialize+0xa76>
10001232:	6803      	ldr	r3, [r0, #0]
10001234:	075b      	lsls	r3, r3, #29
10001236:	bf5c      	itt	pl
10001238:	6803      	ldrpl	r3, [r0, #0]
1000123a:	ea5f 7343 	movspl.w	r3, r3, lsl #29
1000123e:	d402      	bmi.n	10001246 <GLCD_Initialize+0xa76>
10001240:	6803      	ldr	r3, [r0, #0]
10001242:	075b      	lsls	r3, r3, #29
10001244:	d5f2      	bpl.n	1000122c <GLCD_Initialize+0xa5c>
10001246:	f850 3c04 	ldr.w	r3, [r0, #-4]
1000124a:	2300      	movs	r3, #0
1000124c:	f840 3c04 	str.w	r3, [r0, #-4]
10001250:	6803      	ldr	r3, [r0, #0]
10001252:	075b      	lsls	r3, r3, #29
10001254:	d409      	bmi.n	1000126a <GLCD_Initialize+0xa9a>
10001256:	6803      	ldr	r3, [r0, #0]
10001258:	075b      	lsls	r3, r3, #29
1000125a:	bf5c      	itt	pl
1000125c:	6803      	ldrpl	r3, [r0, #0]
1000125e:	ea5f 7343 	movspl.w	r3, r3, lsl #29
10001262:	d402      	bmi.n	1000126a <GLCD_Initialize+0xa9a>
10001264:	6803      	ldr	r3, [r0, #0]
10001266:	075b      	lsls	r3, r3, #29
10001268:	d5f2      	bpl.n	10001250 <GLCD_Initialize+0xa80>
1000126a:	f850 3c04 	ldr.w	r3, [r0, #-4]
1000126e:	2342      	movs	r3, #66	@ 0x42
10001270:	f840 3c04 	str.w	r3, [r0, #-4]
10001274:	6803      	ldr	r3, [r0, #0]
10001276:	075b      	lsls	r3, r3, #29
10001278:	d409      	bmi.n	1000128e <GLCD_Initialize+0xabe>
1000127a:	6803      	ldr	r3, [r0, #0]
1000127c:	075b      	lsls	r3, r3, #29
1000127e:	bf5c      	itt	pl
10001280:	6803      	ldrpl	r3, [r0, #0]
10001282:	ea5f 7343 	movspl.w	r3, r3, lsl #29
10001286:	d402      	bmi.n	1000128e <GLCD_Initialize+0xabe>
10001288:	6803      	ldr	r3, [r0, #0]
1000128a:	075b      	lsls	r3, r3, #29
1000128c:	d5f2      	bpl.n	10001274 <GLCD_Initialize+0xaa4>
1000128e:	f850 3c04 	ldr.w	r3, [r0, #-4]
10001292:	680b      	ldr	r3, [r1, #0]
10001294:	f043 0301 	orr.w	r3, r3, #1
10001298:	600b      	str	r3, [r1, #0]
1000129a:	6813      	ldr	r3, [r2, #0]
1000129c:	f023 0301 	bic.w	r3, r3, #1
100012a0:	6013      	str	r3, [r2, #0]
100012a2:	2372      	movs	r3, #114	@ 0x72
100012a4:	f840 3c04 	str.w	r3, [r0, #-4]
100012a8:	6803      	ldr	r3, [r0, #0]
100012aa:	075b      	lsls	r3, r3, #29
100012ac:	d409      	bmi.n	100012c2 <GLCD_Initialize+0xaf2>
100012ae:	6803      	ldr	r3, [r0, #0]
100012b0:	075b      	lsls	r3, r3, #29
100012b2:	bf5c      	itt	pl
100012b4:	6803      	ldrpl	r3, [r0, #0]
100012b6:	ea5f 7343 	movspl.w	r3, r3, lsl #29
100012ba:	d402      	bmi.n	100012c2 <GLCD_Initialize+0xaf2>
100012bc:	6803      	ldr	r3, [r0, #0]
100012be:	075b      	lsls	r3, r3, #29
100012c0:	d5f2      	bpl.n	100012a8 <GLCD_Initialize+0xad8>
100012c2:	f850 3c04 	ldr.w	r3, [r0, #-4]
100012c6:	2300      	movs	r3, #0
100012c8:	f840 3c04 	str.w	r3, [r0, #-4]
100012cc:	6803      	ldr	r3, [r0, #0]
100012ce:	075b      	lsls	r3, r3, #29
100012d0:	d409      	bmi.n	100012e6 <GLCD_Initialize+0xb16>
100012d2:	6803      	ldr	r3, [r0, #0]
100012d4:	075b      	lsls	r3, r3, #29
100012d6:	bf5c      	itt	pl
100012d8:	6803      	ldrpl	r3, [r0, #0]
100012da:	ea5f 7343 	movspl.w	r3, r3, lsl #29
100012de:	d402      	bmi.n	100012e6 <GLCD_Initialize+0xb16>
100012e0:	6803      	ldr	r3, [r0, #0]
100012e2:	075b      	lsls	r3, r3, #29
100012e4:	d5f2      	bpl.n	100012cc <GLCD_Initialize+0xafc>
100012e6:	f850 3c04 	ldr.w	r3, [r0, #-4]
100012ea:	2300      	movs	r3, #0
100012ec:	f840 3c04 	str.w	r3, [r0, #-4]
100012f0:	6803      	ldr	r3, [r0, #0]
100012f2:	075b      	lsls	r3, r3, #29
100012f4:	d409      	bmi.n	1000130a <GLCD_Initialize+0xb3a>
100012f6:	6803      	ldr	r3, [r0, #0]
100012f8:	075b      	lsls	r3, r3, #29
100012fa:	bf5c      	itt	pl
100012fc:	6803      	ldrpl	r3, [r0, #0]
100012fe:	ea5f 7343 	movspl.w	r3, r3, lsl #29
10001302:	d402      	bmi.n	1000130a <GLCD_Initialize+0xb3a>
10001304:	6803      	ldr	r3, [r0, #0]
10001306:	075b      	lsls	r3, r3, #29
10001308:	d5f2      	bpl.n	100012f0 <GLCD_Initialize+0xb20>
1000130a:	f850 3c04 	ldr.w	r3, [r0, #-4]
1000130e:	680b      	ldr	r3, [r1, #0]
10001310:	f043 0301 	orr.w	r3, r3, #1
10001314:	600b      	str	r3, [r1, #0]
10001316:	6813      	ldr	r3, [r2, #0]
10001318:	f023 0301 	bic.w	r3, r3, #1
1000131c:	6013      	str	r3, [r2, #0]
1000131e:	2370      	movs	r3, #112	@ 0x70
10001320:	f840 3c04 	str.w	r3, [r0, #-4]
10001324:	6803      	ldr	r3, [r0, #0]
10001326:	075b      	lsls	r3, r3, #29
10001328:	d409      	bmi.n	1000133e <GLCD_Initialize+0xb6e>
1000132a:	6803      	ldr	r3, [r0, #0]
1000132c:	075b      	lsls	r3, r3, #29
1000132e:	bf5c      	itt	pl
10001330:	6803      	ldrpl	r3, [r0, #0]
10001332:	ea5f 7343 	movspl.w	r3, r3, lsl #29
10001336:	d402      	bmi.n	1000133e <GLCD_Initialize+0xb6e>
10001338:	6803      	ldr	r3, [r0, #0]
1000133a:	075b      	lsls	r3, r3, #29
1000133c:	d5f2      	bpl.n	10001324 <GLCD_Initialize+0xb54>
1000133e:	f850 3c04 	ldr.w	r3, [r0, #-4]
10001342:	2300      	movs	r3, #0
10001344:	f840 3c04 	str.w	r3, [r0, #-4]
10001348:	6803      	ldr	r3, [r0, #0]
1000134a:	075b      	lsls	r3, r3, #29
1000134c:	d409      	bmi.n	10001362 <GLCD_Initialize+0xb92>
1000134e:	6803      	ldr	r3, [r0, #0]
10001350:	075b      	lsls	r3, r3, #29
10001352:	bf5c      	itt	pl
10001354:	6803      	ldrpl	r3, [r0, #0]
10001356:	ea5f 7343 	movspl.w	r3, r3, lsl #29
1000135a:	d402      	bmi.n	10001362 <GLCD_Initialize+0xb92>
1000135c:	6803      	ldr	r3, [r0, #0]
1000135e:	075b      	lsls	r3, r3, #29
10001360:	d5f2      	bpl.n	10001348 <GLCD_Initialize+0xb78>
10001362:	f850 3c04 	ldr.w	r3, [r0, #-4]
10001366:	2343      	movs	r3, #67	@ 0x43
10001368:	f840 3c04 	str.w	r3, [r0, #-4]
1000136c:	6803      	ldr	r3, [r0, #0]
1000136e:	075b      	lsls	r3, r3, #29
10001370:	d409      	bmi.n	10001386 <GLCD_Initialize+0xbb6>
10001372:	6803      	ldr	r3, [r0, #0]
10001374:	075b      	lsls	r3, r3, #29
10001376:	bf5c      	itt	pl
10001378:	6803      	ldrpl	r3, [r0, #0]
1000137a:	ea5f 7343 	movspl.w	r3, r3, lsl #29
1000137e:	d402      	bmi.n	10001386 <GLCD_Initialize+0xbb6>
10001380:	6803      	ldr	r3, [r0, #0]
10001382:	075b      	lsls	r3, r3, #29
10001384:	d5f2      	bpl.n	1000136c <GLCD_Initialize+0xb9c>
10001386:	f850 3c04 	ldr.w	r3, [r0, #-4]
1000138a:	680b      	ldr	r3, [r1, #0]
1000138c:	f043 0301 	orr.w	r3, r3, #1
10001390:	600b      	str	r3, [r1, #0]
10001392:	6813      	ldr	r3, [r2, #0]
10001394:	f023 0301 	bic.w	r3, r3, #1
10001398:	6013      	str	r3, [r2, #0]
1000139a:	2372      	movs	r3, #114	@ 0x72
1000139c:	f840 3c04 	str.w	r3, [r0, #-4]
100013a0:	6803      	ldr	r3, [r0, #0]
100013a2:	075b      	lsls	r3, r3, #29
100013a4:	d409      	bmi.n	100013ba <GLCD_Initialize+0xbea>
100013a6:	6803      	ldr	r3, [r0, #0]
100013a8:	075b      	lsls	r3, r3, #29
100013aa:	bf5c      	itt	pl
100013ac:	6803      	ldrpl	r3, [r0, #0]
100013ae:	ea5f 7343 	movspl.w	r3, r3, lsl #29
100013b2:	d402      	bmi.n	100013ba <GLCD_Initialize+0xbea>
100013b4:	6803      	ldr	r3, [r0, #0]
100013b6:	075b      	lsls	r3, r3, #29
100013b8:	d5f2      	bpl.n	100013a0 <GLCD_Initialize+0xbd0>
100013ba:	f850 3c04 	ldr.w	r3, [r0, #-4]
100013be:	2300      	movs	r3, #0
100013c0:	f840 3c04 	str.w	r3, [r0, #-4]
100013c4:	6803      	ldr	r3, [r0, #0]
100013c6:	075b      	lsls	r3, r3, #29
100013c8:	d409      	bmi.n	100013de <GLCD_Initialize+0xc0e>
100013ca:	6803      	ldr	r3, [r0, #0]
100013cc:	075b      	lsls	r3, r3, #29
100013ce:	bf5c      	itt	pl
100013d0:	6803      	ldrpl	r3, [r0, #0]
100013d2:	ea5f 7343 	movspl.w	r3, r3, lsl #29
100013d6:	d402      	bmi.n	100013de <GLCD_Initialize+0xc0e>
100013d8:	6803      	ldr	r3, [r0, #0]
100013da:	075b      	lsls	r3, r3, #29
100013dc:	d5f2      	bpl.n	100013c4 <GLCD_Initialize+0xbf4>
100013de:	f850 3c04 	ldr.w	r3, [r0, #-4]
100013e2:	2310      	movs	r3, #16
100013e4:	f840 3c04 	str.w	r3, [r0, #-4]
100013e8:	6803      	ldr	r3, [r0, #0]
100013ea:	075b      	lsls	r3, r3, #29
100013ec:	d409      	bmi.n	10001402 <GLCD_Initialize+0xc32>
100013ee:	6803      	ldr	r3, [r0, #0]
100013f0:	075b      	lsls	r3, r3, #29
100013f2:	bf5c      	itt	pl
100013f4:	6803      	ldrpl	r3, [r0, #0]
100013f6:	ea5f 7343 	movspl.w	r3, r3, lsl #29
100013fa:	d402      	bmi.n	10001402 <GLCD_Initialize+0xc32>
100013fc:	6803      	ldr	r3, [r0, #0]
100013fe:	075b      	lsls	r3, r3, #29
10001400:	d5f2      	bpl.n	100013e8 <GLCD_Initialize+0xc18>
10001402:	f850 3c04 	ldr.w	r3, [r0, #-4]
10001406:	680b      	ldr	r3, [r1, #0]
10001408:	f043 0301 	orr.w	r3, r3, #1
1000140c:	600b      	str	r3, [r1, #0]
1000140e:	6813      	ldr	r3, [r2, #0]
10001410:	f023 0301 	bic.w	r3, r3, #1
10001414:	6013      	str	r3, [r2, #0]
10001416:	2370      	movs	r3, #112	@ 0x70
10001418:	f840 3c04 	str.w	r3, [r0, #-4]
1000141c:	6803      	ldr	r3, [r0, #0]
1000141e:	075b      	lsls	r3, r3, #29
10001420:	d409      	bmi.n	10001436 <GLCD_Initialize+0xc66>
10001422:	6803      	ldr	r3, [r0, #0]
10001424:	075b      	lsls	r3, r3, #29
10001426:	bf5c      	itt	pl
10001428:	6803      	ldrpl	r3, [r0, #0]
1000142a:	ea5f 7343 	movspl.w	r3, r3, lsl #29
1000142e:	d402      	bmi.n	10001436 <GLCD_Initialize+0xc66>
10001430:	6803      	ldr	r3, [r0, #0]
10001432:	075b      	lsls	r3, r3, #29
10001434:	d5f2      	bpl.n	1000141c <GLCD_Initialize+0xc4c>
10001436:	f850 3c04 	ldr.w	r3, [r0, #-4]
1000143a:	2300      	movs	r3, #0
1000143c:	f840 3c04 	str.w	r3, [r0, #-4]
10001440:	6803      	ldr	r3, [r0, #0]
10001442:	075b      	lsls	r3, r3, #29
10001444:	d409      	bmi.n	1000145a <GLCD_Initialize+0xc8a>
10001446:	6803      	ldr	r3, [r0, #0]
10001448:	075b      	lsls	r3, r3, #29
1000144a:	bf5c      	itt	pl
1000144c:	6803      	ldrpl	r3, [r0, #0]
1000144e:	ea5f 7343 	movspl.w	r3, r3, lsl #29
10001452:	d402      	bmi.n	1000145a <GLCD_Initialize+0xc8a>
10001454:	6803      	ldr	r3, [r0, #0]
10001456:	075b      	lsls	r3, r3, #29
10001458:	d5f2      	bpl.n	10001440 <GLCD_Initialize+0xc70>
1000145a:	f850 3c04 	ldr.w	r3, [r0, #-4]
1000145e:	2344      	movs	r3, #68	@ 0x44
10001460:	f840 3c04 	str.w	r3, [r0, #-4]
10001464:	6803      	ldr	r3, [r0, #0]
10001466:	075b      	lsls	r3, r3, #29
10001468:	d409      	bmi.n	1000147e <GLCD_Initialize+0xcae>
1000146a:	6803      	ldr	r3, [r0, #0]
1000146c:	075b      	lsls	r3, r3, #29
1000146e:	bf5c      	itt	pl
10001470:	6803      	ldrpl	r3, [r0, #0]
10001472:	ea5f 7343 	movspl.w	r3, r3, lsl #29
10001476:	d402      	bmi.n	1000147e <GLCD_Initialize+0xcae>
10001478:	6803      	ldr	r3, [r0, #0]
1000147a:	075b      	lsls	r3, r3, #29
1000147c:	d5f2      	bpl.n	10001464 <GLCD_Initialize+0xc94>
1000147e:	f850 3c04 	ldr.w	r3, [r0, #-4]
10001482:	680b      	ldr	r3, [r1, #0]
10001484:	f043 0301 	orr.w	r3, r3, #1
10001488:	600b      	str	r3, [r1, #0]
1000148a:	6813      	ldr	r3, [r2, #0]
1000148c:	f023 0301 	bic.w	r3, r3, #1
10001490:	6013      	str	r3, [r2, #0]
10001492:	2372      	movs	r3, #114	@ 0x72
10001494:	f840 3c04 	str.w	r3, [r0, #-4]
10001498:	6803      	ldr	r3, [r0, #0]
1000149a:	075b      	lsls	r3, r3, #29
1000149c:	d409      	bmi.n	100014b2 <GLCD_Initialize+0xce2>
1000149e:	6803      	ldr	r3, [r0, #0]
100014a0:	075b      	lsls	r3, r3, #29
100014a2:	bf5c      	itt	pl
100014a4:	6803      	ldrpl	r3, [r0, #0]
100014a6:	ea5f 7343 	movspl.w	r3, r3, lsl #29
100014aa:	d402      	bmi.n	100014b2 <GLCD_Initialize+0xce2>
100014ac:	6803      	ldr	r3, [r0, #0]
100014ae:	075b      	lsls	r3, r3, #29
100014b0:	d5f2      	bpl.n	10001498 <GLCD_Initialize+0xcc8>
100014b2:	f850 3c04 	ldr.w	r3, [r0, #-4]
100014b6:	2300      	movs	r3, #0
100014b8:	f840 3c04 	str.w	r3, [r0, #-4]
100014bc:	6803      	ldr	r3, [r0, #0]
100014be:	075b      	lsls	r3, r3, #29
100014c0:	d409      	bmi.n	100014d6 <GLCD_Initialize+0xd06>
100014c2:	6803      	ldr	r3, [r0, #0]
100014c4:	075b      	lsls	r3, r3, #29
100014c6:	bf5c      	itt	pl
100014c8:	6803      	ldrpl	r3, [r0, #0]
100014ca:	ea5f 7343 	movspl.w	r3, r3, lsl #29
100014ce:	d402      	bmi.n	100014d6 <GLCD_Initialize+0xd06>
100014d0:	6803      	ldr	r3, [r0, #0]
100014d2:	075b      	lsls	r3, r3, #29
100014d4:	d5f2      	bpl.n	100014bc <GLCD_Initialize+0xcec>
100014d6:	f850 3c04 	ldr.w	r3, [r0, #-4]
100014da:	230e      	movs	r3, #14
100014dc:	f840 3c04 	str.w	r3, [r0, #-4]
100014e0:	6803      	ldr	r3, [r0, #0]
100014e2:	075b      	lsls	r3, r3, #29
100014e4:	d409      	bmi.n	100014fa <GLCD_Initialize+0xd2a>
100014e6:	6803      	ldr	r3, [r0, #0]
100014e8:	075b      	lsls	r3, r3, #29
100014ea:	bf5c      	itt	pl
100014ec:	6803      	ldrpl	r3, [r0, #0]
100014ee:	ea5f 7343 	movspl.w	r3, r3, lsl #29
100014f2:	d402      	bmi.n	100014fa <GLCD_Initialize+0xd2a>
100014f4:	6803      	ldr	r3, [r0, #0]
100014f6:	075b      	lsls	r3, r3, #29
100014f8:	d5f2      	bpl.n	100014e0 <GLCD_Initialize+0xd10>
100014fa:	f850 3c04 	ldr.w	r3, [r0, #-4]
100014fe:	680b      	ldr	r3, [r1, #0]
10001500:	f043 0301 	orr.w	r3, r3, #1
10001504:	600b      	str	r3, [r1, #0]
10001506:	6813      	ldr	r3, [r2, #0]
10001508:	f023 0301 	bic.w	r3, r3, #1
1000150c:	6013      	str	r3, [r2, #0]
1000150e:	2370      	movs	r3, #112	@ 0x70
10001510:	f840 3c04 	str.w	r3, [r0, #-4]
10001514:	6803      	ldr	r3, [r0, #0]
10001516:	075b      	lsls	r3, r3, #29
10001518:	d409      	bmi.n	1000152e <GLCD_Initialize+0xd5e>
1000151a:	6803      	ldr	r3, [r0, #0]
1000151c:	075b      	lsls	r3, r3, #29
1000151e:	bf5c      	itt	pl
10001520:	6803      	ldrpl	r3, [r0, #0]
10001522:	ea5f 7343 	movspl.w	r3, r3, lsl #29
10001526:	d402      	bmi.n	1000152e <GLCD_Initialize+0xd5e>
10001528:	6803      	ldr	r3, [r0, #0]
1000152a:	075b      	lsls	r3, r3, #29
1000152c:	d5f2      	bpl.n	10001514 <GLCD_Initialize+0xd44>
1000152e:	f850 3c04 	ldr.w	r3, [r0, #-4]
10001532:	2300      	movs	r3, #0
10001534:	f840 3c04 	str.w	r3, [r0, #-4]
10001538:	6803      	ldr	r3, [r0, #0]
1000153a:	075b      	lsls	r3, r3, #29
1000153c:	d409      	bmi.n	10001552 <GLCD_Initialize+0xd82>
1000153e:	6803      	ldr	r3, [r0, #0]
10001540:	075b      	lsls	r3, r3, #29
10001542:	bf5c      	itt	pl
10001544:	6803      	ldrpl	r3, [r0, #0]
10001546:	ea5f 7343 	movspl.w	r3, r3, lsl #29
1000154a:	d402      	bmi.n	10001552 <GLCD_Initialize+0xd82>
1000154c:	6803      	ldr	r3, [r0, #0]
1000154e:	075b      	lsls	r3, r3, #29
10001550:	d5f2      	bpl.n	10001538 <GLCD_Initialize+0xd68>
10001552:	f850 3c04 	ldr.w	r3, [r0, #-4]
10001556:	2345      	movs	r3, #69	@ 0x45
10001558:	f840 3c04 	str.w	r3, [r0, #-4]
1000155c:	6803      	ldr	r3, [r0, #0]
1000155e:	075b      	lsls	r3, r3, #29
10001560:	d409      	bmi.n	10001576 <GLCD_Initialize+0xda6>
10001562:	6803      	ldr	r3, [r0, #0]
10001564:	075b      	lsls	r3, r3, #29
10001566:	bf5c      	itt	pl
10001568:	6803      	ldrpl	r3, [r0, #0]
1000156a:	ea5f 7343 	movspl.w	r3, r3, lsl #29
1000156e:	d402      	bmi.n	10001576 <GLCD_Initialize+0xda6>
10001570:	6803      	ldr	r3, [r0, #0]
10001572:	075b      	lsls	r3, r3, #29
10001574:	d5f2      	bpl.n	1000155c <GLCD_Initialize+0xd8c>
10001576:	f850 3c04 	ldr.w	r3, [r0, #-4]
1000157a:	680b      	ldr	r3, [r1, #0]
1000157c:	f043 0301 	orr.w	r3, r3, #1
10001580:	600b      	str	r3, [r1, #0]
10001582:	6813      	ldr	r3, [r2, #0]
10001584:	f023 0301 	bic.w	r3, r3, #1
10001588:	6013      	str	r3, [r2, #0]
1000158a:	2372      	movs	r3, #114	@ 0x72
1000158c:	f840 3c04 	str.w	r3, [r0, #-4]
10001590:	6803      	ldr	r3, [r0, #0]
10001592:	075b      	lsls	r3, r3, #29
10001594:	d409      	bmi.n	100015aa <GLCD_Initialize+0xdda>
10001596:	6803      	ldr	r3, [r0, #0]
10001598:	075b      	lsls	r3, r3, #29
1000159a:	bf5c      	itt	pl
1000159c:	6803      	ldrpl	r3, [r0, #0]
1000159e:	ea5f 7343 	movspl.w	r3, r3, lsl #29
100015a2:	d402      	bmi.n	100015aa <GLCD_Initialize+0xdda>
100015a4:	6803      	ldr	r3, [r0, #0]
100015a6:	075b      	lsls	r3, r3, #29
100015a8:	d5f2      	bpl.n	10001590 <GLCD_Initialize+0xdc0>
100015aa:	f850 3c04 	ldr.w	r3, [r0, #-4]
100015ae:	2300      	movs	r3, #0
100015b0:	f840 3c04 	str.w	r3, [r0, #-4]
100015b4:	6803      	ldr	r3, [r0, #0]
100015b6:	075b      	lsls	r3, r3, #29
100015b8:	d409      	bmi.n	100015ce <GLCD_Initialize+0xdfe>
100015ba:	6803      	ldr	r3, [r0, #0]
100015bc:	075b      	lsls	r3, r3, #29
100015be:	bf5c      	itt	pl
100015c0:	6803      	ldrpl	r3, [r0, #0]
100015c2:	ea5f 7343 	movspl.w	r3, r3, lsl #29
100015c6:	d402      	bmi.n	100015ce <GLCD_Initialize+0xdfe>
100015c8:	6803      	ldr	r3, [r0, #0]
100015ca:	075b      	lsls	r3, r3, #29
100015cc:	d5f2      	bpl.n	100015b4 <GLCD_Initialize+0xde4>
100015ce:	f850 3c04 	ldr.w	r3, [r0, #-4]
100015d2:	2324      	movs	r3, #36	@ 0x24
100015d4:	f840 3c04 	str.w	r3, [r0, #-4]
100015d8:	6803      	ldr	r3, [r0, #0]
100015da:	075b      	lsls	r3, r3, #29
100015dc:	d409      	bmi.n	100015f2 <GLCD_Initialize+0xe22>
100015de:	6803      	ldr	r3, [r0, #0]
100015e0:	075b      	lsls	r3, r3, #29
100015e2:	bf5c      	itt	pl
100015e4:	6803      	ldrpl	r3, [r0, #0]
100015e6:	ea5f 7343 	movspl.w	r3, r3, lsl #29
100015ea:	d402      	bmi.n	100015f2 <GLCD_Initialize+0xe22>
100015ec:	6803      	ldr	r3, [r0, #0]
100015ee:	075b      	lsls	r3, r3, #29
100015f0:	d5f2      	bpl.n	100015d8 <GLCD_Initialize+0xe08>
100015f2:	f850 3c04 	ldr.w	r3, [r0, #-4]
100015f6:	680b      	ldr	r3, [r1, #0]
100015f8:	f043 0301 	orr.w	r3, r3, #1
100015fc:	600b      	str	r3, [r1, #0]
100015fe:	6813      	ldr	r3, [r2, #0]
10001600:	f023 0301 	bic.w	r3, r3, #1
10001604:	6013      	str	r3, [r2, #0]
10001606:	2370      	movs	r3, #112	@ 0x70
10001608:	f840 3c04 	str.w	r3, [r0, #-4]
1000160c:	6803      	ldr	r3, [r0, #0]
1000160e:	075b      	lsls	r3, r3, #29
10001610:	d409      	bmi.n	10001626 <GLCD_Initialize+0xe56>
10001612:	6803      	ldr	r3, [r0, #0]
10001614:	075b      	lsls	r3, r3, #29
10001616:	bf5c      	itt	pl
10001618:	6803      	ldrpl	r3, [r0, #0]
1000161a:	ea5f 7343 	movspl.w	r3, r3, lsl #29
1000161e:	d402      	bmi.n	10001626 <GLCD_Initialize+0xe56>
10001620:	6803      	ldr	r3, [r0, #0]
10001622:	075b      	lsls	r3, r3, #29
10001624:	d5f2      	bpl.n	1000160c <GLCD_Initialize+0xe3c>
10001626:	f850 3c04 	ldr.w	r3, [r0, #-4]
1000162a:	2300      	movs	r3, #0
1000162c:	f840 3c04 	str.w	r3, [r0, #-4]
10001630:	6803      	ldr	r3, [r0, #0]
10001632:	075b      	lsls	r3, r3, #29
10001634:	d409      	bmi.n	1000164a <GLCD_Initialize+0xe7a>
10001636:	6803      	ldr	r3, [r0, #0]
10001638:	075b      	lsls	r3, r3, #29
1000163a:	bf5c      	itt	pl
1000163c:	6803      	ldrpl	r3, [r0, #0]
1000163e:	ea5f 7343 	movspl.w	r3, r3, lsl #29
10001642:	d402      	bmi.n	1000164a <GLCD_Initialize+0xe7a>
10001644:	6803      	ldr	r3, [r0, #0]
10001646:	075b      	lsls	r3, r3, #29
10001648:	d5f2      	bpl.n	10001630 <GLCD_Initialize+0xe60>
1000164a:	f850 3c04 	ldr.w	r3, [r0, #-4]
1000164e:	2346      	movs	r3, #70	@ 0x46
10001650:	f840 3c04 	str.w	r3, [r0, #-4]
10001654:	6803      	ldr	r3, [r0, #0]
10001656:	075b      	lsls	r3, r3, #29
10001658:	d409      	bmi.n	1000166e <GLCD_Initialize+0xe9e>
1000165a:	6803      	ldr	r3, [r0, #0]
1000165c:	075b      	lsls	r3, r3, #29
1000165e:	bf5c      	itt	pl
10001660:	6803      	ldrpl	r3, [r0, #0]
10001662:	ea5f 7343 	movspl.w	r3, r3, lsl #29
10001666:	d402      	bmi.n	1000166e <GLCD_Initialize+0xe9e>
10001668:	6803      	ldr	r3, [r0, #0]
1000166a:	075b      	lsls	r3, r3, #29
1000166c:	d5f2      	bpl.n	10001654 <GLCD_Initialize+0xe84>
1000166e:	f850 3c04 	ldr.w	r3, [r0, #-4]
10001672:	680b      	ldr	r3, [r1, #0]
10001674:	f043 0301 	orr.w	r3, r3, #1
10001678:	600b      	str	r3, [r1, #0]
1000167a:	6813      	ldr	r3, [r2, #0]
1000167c:	f023 0301 	bic.w	r3, r3, #1
10001680:	6013      	str	r3, [r2, #0]
10001682:	2372      	movs	r3, #114	@ 0x72
10001684:	f840 3c04 	str.w	r3, [r0, #-4]
10001688:	6803      	ldr	r3, [r0, #0]
1000168a:	075b      	lsls	r3, r3, #29
1000168c:	d409      	bmi.n	100016a2 <GLCD_Initialize+0xed2>
1000168e:	6803      	ldr	r3, [r0, #0]
10001690:	075b      	lsls	r3, r3, #29
10001692:	bf5c      	itt	pl
10001694:	6803      	ldrpl	r3, [r0, #0]
10001696:	ea5f 7343 	movspl.w	r3, r3, lsl #29
1000169a:	d402      	bmi.n	100016a2 <GLCD_Initialize+0xed2>
1000169c:	6803      	ldr	r3, [r0, #0]
1000169e:	075b      	lsls	r3, r3, #29
100016a0:	d5f2      	bpl.n	10001688 <GLCD_Initialize+0xeb8>
100016a2:	f850 3c04 	ldr.w	r3, [r0, #-4]
100016a6:	2300      	movs	r3, #0
100016a8:	f840 3c04 	str.w	r3, [r0, #-4]
100016ac:	6803      	ldr	r3, [r0, #0]
100016ae:	075b      	lsls	r3, r3, #29
100016b0:	d409      	bmi.n	100016c6 <GLCD_Initialize+0xef6>
100016b2:	6803      	ldr	r3, [r0, #0]
100016b4:	075b      	lsls	r3, r3, #29
100016b6:	bf5c      	itt	pl
100016b8:	6803      	ldrpl	r3, [r0, #0]
100016ba:	ea5f 7343 	movspl.w	r3, r3, lsl #29
100016be:	d402      	bmi.n	100016c6 <GLCD_Initialize+0xef6>
100016c0:	6803      	ldr	r3, [r0, #0]
100016c2:	075b      	lsls	r3, r3, #29
100016c4:	d5f2      	bpl.n	100016ac <GLCD_Initialize+0xedc>
100016c6:	f850 3c04 	ldr.w	r3, [r0, #-4]
100016ca:	2304      	movs	r3, #4
100016cc:	f840 3c04 	str.w	r3, [r0, #-4]
100016d0:	6803      	ldr	r3, [r0, #0]
100016d2:	075b      	lsls	r3, r3, #29
100016d4:	d409      	bmi.n	100016ea <GLCD_Initialize+0xf1a>
100016d6:	6803      	ldr	r3, [r0, #0]
100016d8:	075b      	lsls	r3, r3, #29
100016da:	bf5c      	itt	pl
100016dc:	6803      	ldrpl	r3, [r0, #0]
100016de:	ea5f 7343 	movspl.w	r3, r3, lsl #29
100016e2:	d402      	bmi.n	100016ea <GLCD_Initialize+0xf1a>
100016e4:	6803      	ldr	r3, [r0, #0]
100016e6:	075b      	lsls	r3, r3, #29
100016e8:	d5f2      	bpl.n	100016d0 <GLCD_Initialize+0xf00>
100016ea:	f850 3c04 	ldr.w	r3, [r0, #-4]
100016ee:	680b      	ldr	r3, [r1, #0]
100016f0:	f043 0301 	orr.w	r3, r3, #1
100016f4:	600b      	str	r3, [r1, #0]
100016f6:	6813      	ldr	r3, [r2, #0]
100016f8:	f023 0301 	bic.w	r3, r3, #1
100016fc:	6013      	str	r3, [r2, #0]
100016fe:	2370      	movs	r3, #112	@ 0x70
10001700:	f840 3c04 	str.w	r3, [r0, #-4]
10001704:	6803      	ldr	r3, [r0, #0]
10001706:	075b      	lsls	r3, r3, #29
10001708:	d409      	bmi.n	1000171e <GLCD_Initialize+0xf4e>
1000170a:	6803      	ldr	r3, [r0, #0]
1000170c:	075b      	lsls	r3, r3, #29
1000170e:	bf5c      	itt	pl
10001710:	6803      	ldrpl	r3, [r0, #0]
10001712:	ea5f 7343 	movspl.w	r3, r3, lsl #29
10001716:	d402      	bmi.n	1000171e <GLCD_Initialize+0xf4e>
10001718:	6803      	ldr	r3, [r0, #0]
1000171a:	075b      	lsls	r3, r3, #29
1000171c:	d5f2      	bpl.n	10001704 <GLCD_Initialize+0xf34>
1000171e:	f850 3c04 	ldr.w	r3, [r0, #-4]
10001722:	2300      	movs	r3, #0
10001724:	f840 3c04 	str.w	r3, [r0, #-4]
10001728:	6803      	ldr	r3, [r0, #0]
1000172a:	075b      	lsls	r3, r3, #29
1000172c:	d409      	bmi.n	10001742 <GLCD_Initialize+0xf72>
1000172e:	6803      	ldr	r3, [r0, #0]
10001730:	075b      	lsls	r3, r3, #29
10001732:	bf5c      	itt	pl
10001734:	6803      	ldrpl	r3, [r0, #0]
10001736:	ea5f 7343 	movspl.w	r3, r3, lsl #29
1000173a:	d402      	bmi.n	10001742 <GLCD_Initialize+0xf72>
1000173c:	6803      	ldr	r3, [r0, #0]
1000173e:	075b      	lsls	r3, r3, #29
10001740:	d5f2      	bpl.n	10001728 <GLCD_Initialize+0xf58>
10001742:	f850 3c04 	ldr.w	r3, [r0, #-4]
10001746:	2347      	movs	r3, #71	@ 0x47
10001748:	f840 3c04 	str.w	r3, [r0, #-4]
1000174c:	6803      	ldr	r3, [r0, #0]
1000174e:	075b      	lsls	r3, r3, #29
10001750:	d409      	bmi.n	10001766 <GLCD_Initialize+0xf96>
10001752:	6803      	ldr	r3, [r0, #0]
10001754:	075b      	lsls	r3, r3, #29
10001756:	bf5c      	itt	pl
10001758:	6803      	ldrpl	r3, [r0, #0]
1000175a:	ea5f 7343 	movspl.w	r3, r3, lsl #29
1000175e:	d402      	bmi.n	10001766 <GLCD_Initialize+0xf96>
10001760:	6803      	ldr	r3, [r0, #0]
10001762:	075b      	lsls	r3, r3, #29
10001764:	d5f2      	bpl.n	1000174c <GLCD_Initialize+0xf7c>
10001766:	f850 3c04 	ldr.w	r3, [r0, #-4]
1000176a:	680b      	ldr	r3, [r1, #0]
1000176c:	f043 0301 	orr.w	r3, r3, #1
10001770:	600b      	str	r3, [r1, #0]
10001772:	6813      	ldr	r3, [r2, #0]
10001774:	f023 0301 	bic.w	r3, r3, #1
10001778:	6013      	str	r3, [r2, #0]
1000177a:	2372      	movs	r3, #114	@ 0x72
1000177c:	f840 3c04 	str.w	r3, [r0, #-4]
10001780:	6803      	ldr	r3, [r0, #0]
10001782:	075b      	lsls	r3, r3, #29
10001784:	d409      	bmi.n	1000179a <GLCD_Initialize+0xfca>
10001786:	6803      	ldr	r3, [r0, #0]
10001788:	075b      	lsls	r3, r3, #29
1000178a:	bf5c      	itt	pl
1000178c:	6803      	ldrpl	r3, [r0, #0]
1000178e:	ea5f 7343 	movspl.w	r3, r3, lsl #29
10001792:	d402      	bmi.n	1000179a <GLCD_Initialize+0xfca>
10001794:	6803      	ldr	r3, [r0, #0]
10001796:	075b      	lsls	r3, r3, #29
10001798:	d5f2      	bpl.n	10001780 <GLCD_Initialize+0xfb0>
1000179a:	f850 3c04 	ldr.w	r3, [r0, #-4]
1000179e:	2300      	movs	r3, #0
100017a0:	f840 3c04 	str.w	r3, [r0, #-4]
100017a4:	6803      	ldr	r3, [r0, #0]
100017a6:	075b      	lsls	r3, r3, #29
100017a8:	d409      	bmi.n	100017be <GLCD_Initialize+0xfee>
100017aa:	6803      	ldr	r3, [r0, #0]
100017ac:	075b      	lsls	r3, r3, #29
100017ae:	bf5c      	itt	pl
100017b0:	6803      	ldrpl	r3, [r0, #0]
100017b2:	ea5f 7343 	movspl.w	r3, r3, lsl #29
100017b6:	d402      	bmi.n	100017be <GLCD_Initialize+0xfee>
100017b8:	6803      	ldr	r3, [r0, #0]
100017ba:	075b      	lsls	r3, r3, #29
100017bc:	d5f2      	bpl.n	100017a4 <GLCD_Initialize+0xfd4>
100017be:	f850 3c04 	ldr.w	r3, [r0, #-4]
100017c2:	2350      	movs	r3, #80	@ 0x50
100017c4:	f840 3c04 	str.w	r3, [r0, #-4]
100017c8:	6803      	ldr	r3, [r0, #0]
100017ca:	075b      	lsls	r3, r3, #29
100017cc:	d409      	bmi.n	100017e2 <GLCD_Initialize+0x1012>
100017ce:	6803      	ldr	r3, [r0, #0]
100017d0:	075b      	lsls	r3, r3, #29
100017d2:	bf5c      	itt	pl
100017d4:	6803      	ldrpl	r3, [r0, #0]
100017d6:	ea5f 7343 	movspl.w	r3, r3, lsl #29
100017da:	d402      	bmi.n	100017e2 <GLCD_Initialize+0x1012>
100017dc:	6803      	ldr	r3, [r0, #0]
100017de:	075b      	lsls	r3, r3, #29
100017e0:	d5f2      	bpl.n	100017c8 <GLCD_Initialize+0xff8>
100017e2:	f850 3c04 	ldr.w	r3, [r0, #-4]
100017e6:	680b      	ldr	r3, [r1, #0]
100017e8:	f043 0301 	orr.w	r3, r3, #1
100017ec:	600b      	str	r3, [r1, #0]
100017ee:	6813      	ldr	r3, [r2, #0]
100017f0:	f023 0301 	bic.w	r3, r3, #1
100017f4:	6013      	str	r3, [r2, #0]
100017f6:	2370      	movs	r3, #112	@ 0x70
100017f8:	f840 3c04 	str.w	r3, [r0, #-4]
100017fc:	6803      	ldr	r3, [r0, #0]
100017fe:	075b      	lsls	r3, r3, #29
10001800:	d409      	bmi.n	10001816 <GLCD_Initialize+0x1046>
10001802:	6803      	ldr	r3, [r0, #0]
10001804:	075b      	lsls	r3, r3, #29
10001806:	bf5c      	itt	pl
10001808:	6803      	ldrpl	r3, [r0, #0]
1000180a:	ea5f 7343 	movspl.w	r3, r3, lsl #29
1000180e:	d402      	bmi.n	10001816 <GLCD_Initialize+0x1046>
10001810:	6803      	ldr	r3, [r0, #0]
10001812:	075b      	lsls	r3, r3, #29
10001814:	d5f2      	bpl.n	100017fc <GLCD_Initialize+0x102c>
10001816:	f850 3c04 	ldr.w	r3, [r0, #-4]
1000181a:	2300      	movs	r3, #0
1000181c:	f840 3c04 	str.w	r3, [r0, #-4]
10001820:	6803      	ldr	r3, [r0, #0]
10001822:	075b      	lsls	r3, r3, #29
10001824:	d409      	bmi.n	1000183a <GLCD_Initialize+0x106a>
10001826:	6803      	ldr	r3, [r0, #0]
10001828:	075b      	lsls	r3, r3, #29
1000182a:	bf5c      	itt	pl
1000182c:	6803      	ldrpl	r3, [r0, #0]
1000182e:	ea5f 7343 	movspl.w	r3, r3, lsl #29
10001832:	d402      	bmi.n	1000183a <GLCD_Initialize+0x106a>
10001834:	6803      	ldr	r3, [r0, #0]
10001836:	075b      	lsls	r3, r3, #29
10001838:	d5f2      	bpl.n	10001820 <GLCD_Initialize+0x1050>
1000183a:	f850 3c04 	ldr.w	r3, [r0, #-4]
1000183e:	2348      	movs	r3, #72	@ 0x48
10001840:	f840 3c04 	str.w	r3, [r0, #-4]
10001844:	6803      	ldr	r3, [r0, #0]
10001846:	075b      	lsls	r3, r3, #29
10001848:	d409      	bmi.n	1000185e <GLCD_Initialize+0x108e>
1000184a:	6803      	ldr	r3, [r0, #0]
1000184c:	075b      	lsls	r3, r3, #29
1000184e:	bf5c      	itt	pl
10001850:	6803      	ldrpl	r3, [r0, #0]
10001852:	ea5f 7343 	movspl.w	r3, r3, lsl #29
10001856:	d402      	bmi.n	1000185e <GLCD_Initialize+0x108e>
10001858:	6803      	ldr	r3, [r0, #0]
1000185a:	075b      	lsls	r3, r3, #29
1000185c:	d5f2      	bpl.n	10001844 <GLCD_Initialize+0x1074>
1000185e:	f850 3c04 	ldr.w	r3, [r0, #-4]
10001862:	680b      	ldr	r3, [r1, #0]
10001864:	f043 0301 	orr.w	r3, r3, #1
10001868:	600b      	str	r3, [r1, #0]
1000186a:	6813      	ldr	r3, [r2, #0]
1000186c:	f023 0301 	bic.w	r3, r3, #1
10001870:	6013      	str	r3, [r2, #0]
10001872:	2372      	movs	r3, #114	@ 0x72
10001874:	f840 3c04 	str.w	r3, [r0, #-4]
10001878:	6803      	ldr	r3, [r0, #0]
1000187a:	075b      	lsls	r3, r3, #29
1000187c:	d409      	bmi.n	10001892 <GLCD_Initialize+0x10c2>
1000187e:	6803      	ldr	r3, [r0, #0]
10001880:	075b      	lsls	r3, r3, #29
10001882:	bf5c      	itt	pl
10001884:	6803      	ldrpl	r3, [r0, #0]
10001886:	ea5f 7343 	movspl.w	r3, r3, lsl #29
1000188a:	d402      	bmi.n	10001892 <GLCD_Initialize+0x10c2>
1000188c:	6803      	ldr	r3, [r0, #0]
1000188e:	075b      	lsls	r3, r3, #29
10001890:	d5f2      	bpl.n	10001878 <GLCD_Initialize+0x10a8>
10001892:	f850 3c04 	ldr.w	r3, [r0, #-4]
10001896:	2300      	movs	r3, #0
10001898:	f840 3c04 	str.w	r3, [r0, #-4]
1000189c:	6803      	ldr	r3, [r0, #0]
1000189e:	075b      	lsls	r3, r3, #29
100018a0:	d409      	bmi.n	100018b6 <GLCD_Initialize+0x10e6>
100018a2:	6803      	ldr	r3, [r0, #0]
100018a4:	075b      	lsls	r3, r3, #29
100018a6:	bf5c      	itt	pl
100018a8:	6803      	ldrpl	r3, [r0, #0]
100018aa:	ea5f 7343 	movspl.w	r3, r3, lsl #29
100018ae:	d402      	bmi.n	100018b6 <GLCD_Initialize+0x10e6>
100018b0:	6803      	ldr	r3, [r0, #0]
100018b2:	075b      	lsls	r3, r3, #29
100018b4:	d5f2      	bpl.n	1000189c <GLCD_Initialize+0x10cc>
100018b6:	f850 3c04 	ldr.w	r3, [r0, #-4]
100018ba:	2302      	movs	r3, #2
100018bc:	f840 3c04 	str.w	r3, [r0, #-4]
100018c0:	6803      	ldr	r3, [r0, #0]
100018c2:	075b      	lsls	r3, r3, #29
100018c4:	d409      	bmi.n	100018da <GLCD_Initialize+0x110a>
100018c6:	6803      	ldr	r3, [r0, #0]
100018c8:	075b      	lsls	r3, r3, #29
100018ca:	bf5c      	itt	pl
100018cc:	6803      	ldrpl	r3, [r0, #0]
100018ce:	ea5f 7343 	movspl.w	r3, r3, lsl #29
100018d2:	d402      	bmi.n	100018da <GLCD_Initialize+0x110a>
100018d4:	6803      	ldr	r3, [r0, #0]
100018d6:	075b      	lsls	r3, r3, #29
100018d8:	d5f2      	bpl.n	100018c0 <GLCD_Initialize+0x10f0>
100018da:	f850 3c04 	ldr.w	r3, [r0, #-4]
100018de:	680b      	ldr	r3, [r1, #0]
100018e0:	f043 0301 	orr.w	r3, r3, #1
100018e4:	600b      	str	r3, [r1, #0]
100018e6:	6813      	ldr	r3, [r2, #0]
100018e8:	f023 0301 	bic.w	r3, r3, #1
100018ec:	6013      	str	r3, [r2, #0]
100018ee:	2370      	movs	r3, #112	@ 0x70
100018f0:	f840 3c04 	str.w	r3, [r0, #-4]
100018f4:	6803      	ldr	r3, [r0, #0]
100018f6:	075b      	lsls	r3, r3, #29
100018f8:	d409      	bmi.n	1000190e <GLCD_Initialize+0x113e>
100018fa:	6803      	ldr	r3, [r0, #0]
100018fc:	075b      	lsls	r3, r3, #29
100018fe:	bf5c      	itt	pl
10001900:	6803      	ldrpl	r3, [r0, #0]
10001902:	ea5f 7343 	movspl.w	r3, r3, lsl #29
10001906:	d402      	bmi.n	1000190e <GLCD_Initialize+0x113e>
10001908:	6803      	ldr	r3, [r0, #0]
1000190a:	075b      	lsls	r3, r3, #29
1000190c:	d5f2      	bpl.n	100018f4 <GLCD_Initialize+0x1124>
1000190e:	f850 3c04 	ldr.w	r3, [r0, #-4]
10001912:	2300      	movs	r3, #0
10001914:	f840 3c04 	str.w	r3, [r0, #-4]
10001918:	6803      	ldr	r3, [r0, #0]
1000191a:	075b      	lsls	r3, r3, #29
1000191c:	d409      	bmi.n	10001932 <GLCD_Initialize+0x1162>
1000191e:	6803      	ldr	r3, [r0, #0]
10001920:	075b      	lsls	r3, r3, #29
10001922:	bf5c      	itt	pl
10001924:	6803      	ldrpl	r3, [r0, #0]
10001926:	ea5f 7343 	movspl.w	r3, r3, lsl #29
1000192a:	d402      	bmi.n	10001932 <GLCD_Initialize+0x1162>
1000192c:	6803      	ldr	r3, [r0, #0]
1000192e:	075b      	lsls	r3, r3, #29
10001930:	d5f2      	bpl.n	10001918 <GLCD_Initialize+0x1148>
10001932:	f850 3c04 	ldr.w	r3, [r0, #-4]
10001936:	2349      	movs	r3, #73	@ 0x49
10001938:	f840 3c04 	str.w	r3, [r0, #-4]
1000193c:	6803      	ldr	r3, [r0, #0]
1000193e:	075b      	lsls	r3, r3, #29
10001940:	d409      	bmi.n	10001956 <GLCD_Initialize+0x1186>
10001942:	6803      	ldr	r3, [r0, #0]
10001944:	075b      	lsls	r3, r3, #29
10001946:	bf5c      	itt	pl
10001948:	6803      	ldrpl	r3, [r0, #0]
1000194a:	ea5f 7343 	movspl.w	r3, r3, lsl #29
1000194e:	d402      	bmi.n	10001956 <GLCD_Initialize+0x1186>
10001950:	6803      	ldr	r3, [r0, #0]
10001952:	075b      	lsls	r3, r3, #29
10001954:	d5f2      	bpl.n	1000193c <GLCD_Initialize+0x116c>
10001956:	f850 3c04 	ldr.w	r3, [r0, #-4]
1000195a:	680b      	ldr	r3, [r1, #0]
1000195c:	f043 0301 	orr.w	r3, r3, #1
10001960:	600b      	str	r3, [r1, #0]
10001962:	6813      	ldr	r3, [r2, #0]
10001964:	f023 0301 	bic.w	r3, r3, #1
10001968:	6013      	str	r3, [r2, #0]
1000196a:	2372      	movs	r3, #114	@ 0x72
1000196c:	f840 3c04 	str.w	r3, [r0, #-4]
10001970:	6803      	ldr	r3, [r0, #0]
10001972:	075b      	lsls	r3, r3, #29
10001974:	d409      	bmi.n	1000198a <GLCD_Initialize+0x11ba>
10001976:	6803      	ldr	r3, [r0, #0]
10001978:	075b      	lsls	r3, r3, #29
1000197a:	bf5c      	itt	pl
1000197c:	6803      	ldrpl	r3, [r0, #0]
1000197e:	ea5f 7343 	movspl.w	r3, r3, lsl #29
10001982:	d402      	bmi.n	1000198a <GLCD_Initialize+0x11ba>
10001984:	6803      	ldr	r3, [r0, #0]
10001986:	075b      	lsls	r3, r3, #29
10001988:	d5f2      	bpl.n	10001970 <GLCD_Initialize+0x11a0>
1000198a:	f850 3c04 	ldr.w	r3, [r0, #-4]
1000198e:	2300      	movs	r3, #0
10001990:	f840 3c04 	str.w	r3, [r0, #-4]
10001994:	6803      	ldr	r3, [r0, #0]
10001996:	075b      	lsls	r3, r3, #29
10001998:	d409      	bmi.n	100019ae <GLCD_Initialize+0x11de>
1000199a:	6803      	ldr	r3, [r0, #0]
1000199c:	075b      	lsls	r3, r3, #29
1000199e:	bf5c      	itt	pl
100019a0:	6803      	ldrpl	r3, [r0, #0]
100019a2:	ea5f 7343 	movspl.w	r3, r3, lsl #29
100019a6:	d402      	bmi.n	100019ae <GLCD_Initialize+0x11de>
100019a8:	6803      	ldr	r3, [r0, #0]
100019aa:	075b      	lsls	r3, r3, #29
100019ac:	d5f2      	bpl.n	10001994 <GLCD_Initialize+0x11c4>
100019ae:	f850 3c04 	ldr.w	r3, [r0, #-4]
100019b2:	2313      	movs	r3, #19
100019b4:	f840 3c04 	str.w	r3, [r0, #-4]
100019b8:	6803      	ldr	r3, [r0, #0]
100019ba:	075b      	lsls	r3, r3, #29
100019bc:	d409      	bmi.n	100019d2 <GLCD_Initialize+0x1202>
100019be:	6803      	ldr	r3, [r0, #0]
100019c0:	075b      	lsls	r3, r3, #29
100019c2:	bf5c      	itt	pl
100019c4:	6803      	ldrpl	r3, [r0, #0]
100019c6:	ea5f 7343 	movspl.w	r3, r3, lsl #29
100019ca:	d402      	bmi.n	100019d2 <GLCD_Initialize+0x1202>
100019cc:	6803      	ldr	r3, [r0, #0]
100019ce:	075b      	lsls	r3, r3, #29
100019d0:	d5f2      	bpl.n	100019b8 <GLCD_Initialize+0x11e8>
100019d2:	f850 3c04 	ldr.w	r3, [r0, #-4]
100019d6:	680b      	ldr	r3, [r1, #0]
100019d8:	f043 0301 	orr.w	r3, r3, #1
100019dc:	600b      	str	r3, [r1, #0]
100019de:	6813      	ldr	r3, [r2, #0]
100019e0:	f023 0301 	bic.w	r3, r3, #1
100019e4:	6013      	str	r3, [r2, #0]
100019e6:	2370      	movs	r3, #112	@ 0x70
100019e8:	f840 3c04 	str.w	r3, [r0, #-4]
100019ec:	6803      	ldr	r3, [r0, #0]
100019ee:	075b      	lsls	r3, r3, #29
100019f0:	d409      	bmi.n	10001a06 <GLCD_Initialize+0x1236>
100019f2:	6803      	ldr	r3, [r0, #0]
100019f4:	075b      	lsls	r3, r3, #29
100019f6:	bf5c      	itt	pl
100019f8:	6803      	ldrpl	r3, [r0, #0]
100019fa:	ea5f 7343 	movspl.w	r3, r3, lsl #29
100019fe:	d402      	bmi.n	10001a06 <GLCD_Initialize+0x1236>
10001a00:	6803      	ldr	r3, [r0, #0]
10001a02:	075b      	lsls	r3, r3, #29
10001a04:	d5f2      	bpl.n	100019ec <GLCD_Initialize+0x121c>
10001a06:	f850 3c04 	ldr.w	r3, [r0, #-4]
10001a0a:	2300      	movs	r3, #0
10001a0c:	f840 3c04 	str.w	r3, [r0, #-4]
10001a10:	6803      	ldr	r3, [r0, #0]
10001a12:	075b      	lsls	r3, r3, #29
10001a14:	d409      	bmi.n	10001a2a <GLCD_Initialize+0x125a>
10001a16:	6803      	ldr	r3, [r0, #0]
10001a18:	075b      	lsls	r3, r3, #29
10001a1a:	bf5c      	itt	pl
10001a1c:	6803      	ldrpl	r3, [r0, #0]
10001a1e:	ea5f 7343 	movspl.w	r3, r3, lsl #29
10001a22:	d402      	bmi.n	10001a2a <GLCD_Initialize+0x125a>
10001a24:	6803      	ldr	r3, [r0, #0]
10001a26:	075b      	lsls	r3, r3, #29
10001a28:	d5f2      	bpl.n	10001a10 <GLCD_Initialize+0x1240>
10001a2a:	f850 3c04 	ldr.w	r3, [r0, #-4]
10001a2e:	234a      	movs	r3, #74	@ 0x4a
10001a30:	f840 3c04 	str.w	r3, [r0, #-4]
10001a34:	6803      	ldr	r3, [r0, #0]
10001a36:	075b      	lsls	r3, r3, #29
10001a38:	d409      	bmi.n	10001a4e <GLCD_Initialize+0x127e>
10001a3a:	6803      	ldr	r3, [r0, #0]
10001a3c:	075b      	lsls	r3, r3, #29
10001a3e:	bf5c      	itt	pl
10001a40:	6803      	ldrpl	r3, [r0, #0]
10001a42:	ea5f 7343 	movspl.w	r3, r3, lsl #29
10001a46:	d402      	bmi.n	10001a4e <GLCD_Initialize+0x127e>
10001a48:	6803      	ldr	r3, [r0, #0]
10001a4a:	075b      	lsls	r3, r3, #29
10001a4c:	d5f2      	bpl.n	10001a34 <GLCD_Initialize+0x1264>
10001a4e:	f850 3c04 	ldr.w	r3, [r0, #-4]
10001a52:	680b      	ldr	r3, [r1, #0]
10001a54:	f043 0301 	orr.w	r3, r3, #1
10001a58:	600b      	str	r3, [r1, #0]
10001a5a:	6813      	ldr	r3, [r2, #0]
10001a5c:	f023 0301 	bic.w	r3, r3, #1
10001a60:	6013      	str	r3, [r2, #0]
10001a62:	2372      	movs	r3, #114	@ 0x72
10001a64:	f840 3c04 	str.w	r3, [r0, #-4]
10001a68:	6803      	ldr	r3, [r0, #0]
10001a6a:	075b      	lsls	r3, r3, #29
10001a6c:	d409      	bmi.n	10001a82 <GLCD_Initialize+0x12b2>
10001a6e:	6803      	ldr	r3, [r0, #0]
10001a70:	075b      	lsls	r3, r3, #29
10001a72:	bf5c      	itt	pl
10001a74:	6803      	ldrpl	r3, [r0, #0]
10001a76:	ea5f 7343 	movspl.w	r3, r3, lsl #29
10001a7a:	d402      	bmi.n	10001a82 <GLCD_Initialize+0x12b2>
10001a7c:	6803      	ldr	r3, [r0, #0]
10001a7e:	075b      	lsls	r3, r3, #29
10001a80:	d5f2      	bpl.n	10001a68 <GLCD_Initialize+0x1298>
10001a82:	f850 3c04 	ldr.w	r3, [r0, #-4]
10001a86:	2300      	movs	r3, #0
10001a88:	f840 3c04 	str.w	r3, [r0, #-4]
10001a8c:	6803      	ldr	r3, [r0, #0]
10001a8e:	075b      	lsls	r3, r3, #29
10001a90:	d409      	bmi.n	10001aa6 <GLCD_Initialize+0x12d6>
10001a92:	6803      	ldr	r3, [r0, #0]
10001a94:	075b      	lsls	r3, r3, #29
10001a96:	bf5c      	itt	pl
10001a98:	6803      	ldrpl	r3, [r0, #0]
10001a9a:	ea5f 7343 	movspl.w	r3, r3, lsl #29
10001a9e:	d402      	bmi.n	10001aa6 <GLCD_Initialize+0x12d6>
10001aa0:	6803      	ldr	r3, [r0, #0]
10001aa2:	075b      	lsls	r3, r3, #29
10001aa4:	d5f2      	bpl.n	10001a8c <GLCD_Initialize+0x12bc>
10001aa6:	f850 3c04 	ldr.w	r3, [r0, #-4]
10001aaa:	2319      	movs	r3, #25
10001aac:	f840 3c04 	str.w	r3, [r0, #-4]
10001ab0:	6803      	ldr	r3, [r0, #0]
10001ab2:	075b      	lsls	r3, r3, #29
10001ab4:	d409      	bmi.n	10001aca <GLCD_Initialize+0x12fa>
10001ab6:	6803      	ldr	r3, [r0, #0]
10001ab8:	075b      	lsls	r3, r3, #29
10001aba:	bf5c      	itt	pl
10001abc:	6803      	ldrpl	r3, [r0, #0]
10001abe:	ea5f 7343 	movspl.w	r3, r3, lsl #29
10001ac2:	d402      	bmi.n	10001aca <GLCD_Initialize+0x12fa>
10001ac4:	6803      	ldr	r3, [r0, #0]
10001ac6:	075b      	lsls	r3, r3, #29
10001ac8:	d5f2      	bpl.n	10001ab0 <GLCD_Initialize+0x12e0>
10001aca:	f850 3c04 	ldr.w	r3, [r0, #-4]
10001ace:	680b      	ldr	r3, [r1, #0]
10001ad0:	f043 0301 	orr.w	r3, r3, #1
10001ad4:	600b      	str	r3, [r1, #0]
10001ad6:	6813      	ldr	r3, [r2, #0]
10001ad8:	f023 0301 	bic.w	r3, r3, #1
10001adc:	6013      	str	r3, [r2, #0]
10001ade:	2370      	movs	r3, #112	@ 0x70
10001ae0:	f840 3c04 	str.w	r3, [r0, #-4]
10001ae4:	6803      	ldr	r3, [r0, #0]
10001ae6:	075b      	lsls	r3, r3, #29
10001ae8:	d409      	bmi.n	10001afe <GLCD_Initialize+0x132e>
10001aea:	6803      	ldr	r3, [r0, #0]
10001aec:	075b      	lsls	r3, r3, #29
10001aee:	bf5c      	itt	pl
10001af0:	6803      	ldrpl	r3, [r0, #0]
10001af2:	ea5f 7343 	movspl.w	r3, r3, lsl #29
10001af6:	d402      	bmi.n	10001afe <GLCD_Initialize+0x132e>
10001af8:	6803      	ldr	r3, [r0, #0]
10001afa:	075b      	lsls	r3, r3, #29
10001afc:	d5f2      	bpl.n	10001ae4 <GLCD_Initialize+0x1314>
10001afe:	f850 3c04 	ldr.w	r3, [r0, #-4]
10001b02:	2300      	movs	r3, #0
10001b04:	f840 3c04 	str.w	r3, [r0, #-4]
10001b08:	6803      	ldr	r3, [r0, #0]
10001b0a:	075b      	lsls	r3, r3, #29
10001b0c:	d409      	bmi.n	10001b22 <GLCD_Initialize+0x1352>
10001b0e:	6803      	ldr	r3, [r0, #0]
10001b10:	075b      	lsls	r3, r3, #29
10001b12:	bf5c      	itt	pl
10001b14:	6803      	ldrpl	r3, [r0, #0]
10001b16:	ea5f 7343 	movspl.w	r3, r3, lsl #29
10001b1a:	d402      	bmi.n	10001b22 <GLCD_Initialize+0x1352>
10001b1c:	6803      	ldr	r3, [r0, #0]
10001b1e:	075b      	lsls	r3, r3, #29
10001b20:	d5f2      	bpl.n	10001b08 <GLCD_Initialize+0x1338>
10001b22:	f850 3c04 	ldr.w	r3, [r0, #-4]
10001b26:	234b      	movs	r3, #75	@ 0x4b
10001b28:	f840 3c04 	str.w	r3, [r0, #-4]
10001b2c:	6803      	ldr	r3, [r0, #0]
10001b2e:	075b      	lsls	r3, r3, #29
10001b30:	d409      	bmi.n	10001b46 <GLCD_Initialize+0x1376>
10001b32:	6803      	ldr	r3, [r0, #0]
10001b34:	075b      	lsls	r3, r3, #29
10001b36:	bf5c      	itt	pl
10001b38:	6803      	ldrpl	r3, [r0, #0]
10001b3a:	ea5f 7343 	movspl.w	r3, r3, lsl #29
10001b3e:	d402      	bmi.n	10001b46 <GLCD_Initialize+0x1376>
10001b40:	6803      	ldr	r3, [r0, #0]
10001b42:	075b      	lsls	r3, r3, #29
10001b44:	d5f2      	bpl.n	10001b2c <GLCD_Initialize+0x135c>
10001b46:	f850 3c04 	ldr.w	r3, [r0, #-4]
10001b4a:	680b      	ldr	r3, [r1, #0]
10001b4c:	f043 0301 	orr.w	r3, r3, #1
10001b50:	600b      	str	r3, [r1, #0]
10001b52:	6813      	ldr	r3, [r2, #0]
10001b54:	f023 0301 	bic.w	r3, r3, #1
10001b58:	6013      	str	r3, [r2, #0]
10001b5a:	2372      	movs	r3, #114	@ 0x72
10001b5c:	f840 3c04 	str.w	r3, [r0, #-4]
10001b60:	6803      	ldr	r3, [r0, #0]
10001b62:	075b      	lsls	r3, r3, #29
10001b64:	d409      	bmi.n	10001b7a <GLCD_Initialize+0x13aa>
10001b66:	6803      	ldr	r3, [r0, #0]
10001b68:	075b      	lsls	r3, r3, #29
10001b6a:	bf5c      	itt	pl
10001b6c:	6803      	ldrpl	r3, [r0, #0]
10001b6e:	ea5f 7343 	movspl.w	r3, r3, lsl #29
10001b72:	d402      	bmi.n	10001b7a <GLCD_Initialize+0x13aa>
10001b74:	6803      	ldr	r3, [r0, #0]
10001b76:	075b      	lsls	r3, r3, #29
10001b78:	d5f2      	bpl.n	10001b60 <GLCD_Initialize+0x1390>
10001b7a:	f850 3c04 	ldr.w	r3, [r0, #-4]
10001b7e:	2300      	movs	r3, #0
10001b80:	f840 3c04 	str.w	r3, [r0, #-4]
10001b84:	6803      	ldr	r3, [r0, #0]
10001b86:	075b      	lsls	r3, r3, #29
10001b88:	d409      	bmi.n	10001b9e <GLCD_Initialize+0x13ce>
10001b8a:	6803      	ldr	r3, [r0, #0]
10001b8c:	075b      	lsls	r3, r3, #29
10001b8e:	bf5c      	itt	pl
10001b90:	6803      	ldrpl	r3, [r0, #0]
10001b92:	ea5f 7343 	movspl.w	r3, r3, lsl #29
10001b96:	d402      	bmi.n	10001b9e <GLCD_Initialize+0x13ce>
10001b98:	6803      	ldr	r3, [r0, #0]
10001b9a:	075b      	lsls	r3, r3, #29
10001b9c:	d5f2      	bpl.n	10001b84 <GLCD_Initialize+0x13b4>
10001b9e:	f850 3c04 	ldr.w	r3, [r0, #-4]
10001ba2:	2319      	movs	r3, #25
10001ba4:	f840 3c04 	str.w	r3, [r0, #-4]
10001ba8:	6803      	ldr	r3, [r0, #0]
10001baa:	075b      	lsls	r3, r3, #29
10001bac:	d409      	bmi.n	10001bc2 <GLCD_Initialize+0x13f2>
10001bae:	6803      	ldr	r3, [r0, #0]
10001bb0:	075b      	lsls	r3, r3, #29
10001bb2:	bf5c      	itt	pl
10001bb4:	6803      	ldrpl	r3, [r0, #0]
10001bb6:	ea5f 7343 	movspl.w	r3, r3, lsl #29
10001bba:	d402      	bmi.n	10001bc2 <GLCD_Initialize+0x13f2>
10001bbc:	6803      	ldr	r3, [r0, #0]
10001bbe:	075b      	lsls	r3, r3, #29
10001bc0:	d5f2      	bpl.n	10001ba8 <GLCD_Initialize+0x13d8>
10001bc2:	f850 3c04 	ldr.w	r3, [r0, #-4]
10001bc6:	680b      	ldr	r3, [r1, #0]
10001bc8:	f043 0301 	orr.w	r3, r3, #1
10001bcc:	600b      	str	r3, [r1, #0]
10001bce:	6813      	ldr	r3, [r2, #0]
10001bd0:	f023 0301 	bic.w	r3, r3, #1
10001bd4:	6013      	str	r3, [r2, #0]
10001bd6:	2370      	movs	r3, #112	@ 0x70
10001bd8:	f840 3c04 	str.w	r3, [r0, #-4]
10001bdc:	6803      	ldr	r3, [r0, #0]
10001bde:	075b      	lsls	r3, r3, #29
10001be0:	d409      	bmi.n	10001bf6 <GLCD_Initialize+0x1426>
10001be2:	6803      	ldr	r3, [r0, #0]
10001be4:	075b      	lsls	r3, r3, #29
10001be6:	bf5c      	itt	pl
10001be8:	6803      	ldrpl	r3, [r0, #0]
10001bea:	ea5f 7343 	movspl.w	r3, r3, lsl #29
10001bee:	d402      	bmi.n	10001bf6 <GLCD_Initialize+0x1426>
10001bf0:	6803      	ldr	r3, [r0, #0]
10001bf2:	075b      	lsls	r3, r3, #29
10001bf4:	d5f2      	bpl.n	10001bdc <GLCD_Initialize+0x140c>
10001bf6:	f850 3c04 	ldr.w	r3, [r0, #-4]
10001bfa:	2300      	movs	r3, #0
10001bfc:	f840 3c04 	str.w	r3, [r0, #-4]
10001c00:	6803      	ldr	r3, [r0, #0]
10001c02:	075b      	lsls	r3, r3, #29
10001c04:	d409      	bmi.n	10001c1a <GLCD_Initialize+0x144a>
10001c06:	6803      	ldr	r3, [r0, #0]
10001c08:	075b      	lsls	r3, r3, #29
10001c0a:	bf5c      	itt	pl
10001c0c:	6803      	ldrpl	r3, [r0, #0]
10001c0e:	ea5f 7343 	movspl.w	r3, r3, lsl #29
10001c12:	d402      	bmi.n	10001c1a <GLCD_Initialize+0x144a>
10001c14:	6803      	ldr	r3, [r0, #0]
10001c16:	075b      	lsls	r3, r3, #29
10001c18:	d5f2      	bpl.n	10001c00 <GLCD_Initialize+0x1430>
10001c1a:	f850 3c04 	ldr.w	r3, [r0, #-4]
10001c1e:	234c      	movs	r3, #76	@ 0x4c
10001c20:	f840 3c04 	str.w	r3, [r0, #-4]
10001c24:	6803      	ldr	r3, [r0, #0]
10001c26:	075b      	lsls	r3, r3, #29
10001c28:	d409      	bmi.n	10001c3e <GLCD_Initialize+0x146e>
10001c2a:	6803      	ldr	r3, [r0, #0]
10001c2c:	075b      	lsls	r3, r3, #29
10001c2e:	bf5c      	itt	pl
10001c30:	6803      	ldrpl	r3, [r0, #0]
10001c32:	ea5f 7343 	movspl.w	r3, r3, lsl #29
10001c36:	d402      	bmi.n	10001c3e <GLCD_Initialize+0x146e>
10001c38:	6803      	ldr	r3, [r0, #0]
10001c3a:	075b      	lsls	r3, r3, #29
10001c3c:	d5f2      	bpl.n	10001c24 <GLCD_Initialize+0x1454>
10001c3e:	f850 3c04 	ldr.w	r3, [r0, #-4]
10001c42:	680b      	ldr	r3, [r1, #0]
10001c44:	f043 0301 	orr.w	r3, r3, #1
10001c48:	600b      	str	r3, [r1, #0]
10001c4a:	6813      	ldr	r3, [r2, #0]
10001c4c:	f023 0301 	bic.w	r3, r3, #1
10001c50:	6013      	str	r3, [r2, #0]
10001c52:	2372      	movs	r3, #114	@ 0x72
10001c54:	f840 3c04 	str.w	r3, [r0, #-4]
10001c58:	6803      	ldr	r3, [r0, #0]
10001c5a:	075b      	lsls	r3, r3, #29
10001c5c:	d409      	bmi.n	10001c72 <GLCD_Initialize+0x14a2>
10001c5e:	6803      	ldr	r3, [r0, #0]
10001c60:	075b      	lsls	r3, r3, #29
10001c62:	bf5c      	itt	pl
10001c64:	6803      	ldrpl	r3, [r0, #0]
10001c66:	ea5f 7343 	movspl.w	r3, r3, lsl #29
10001c6a:	d402      	bmi.n	10001c72 <GLCD_Initialize+0x14a2>
10001c6c:	6803      	ldr	r3, [r0, #0]
10001c6e:	075b      	lsls	r3, r3, #29
10001c70:	d5f2      	bpl.n	10001c58 <GLCD_Initialize+0x1488>
10001c72:	f850 3c04 	ldr.w	r3, [r0, #-4]
10001c76:	2300      	movs	r3, #0
10001c78:	f840 3c04 	str.w	r3, [r0, #-4]
10001c7c:	6803      	ldr	r3, [r0, #0]
10001c7e:	075b      	lsls	r3, r3, #29
10001c80:	d409      	bmi.n	10001c96 <GLCD_Initialize+0x14c6>
10001c82:	6803      	ldr	r3, [r0, #0]
10001c84:	075b      	lsls	r3, r3, #29
10001c86:	bf5c      	itt	pl
10001c88:	6803      	ldrpl	r3, [r0, #0]
10001c8a:	ea5f 7343 	movspl.w	r3, r3, lsl #29
10001c8e:	d402      	bmi.n	10001c96 <GLCD_Initialize+0x14c6>
10001c90:	6803      	ldr	r3, [r0, #0]
10001c92:	075b      	lsls	r3, r3, #29
10001c94:	d5f2      	bpl.n	10001c7c <GLCD_Initialize+0x14ac>
10001c96:	f850 3c04 	ldr.w	r3, [r0, #-4]
10001c9a:	2316      	movs	r3, #22
10001c9c:	f840 3c04 	str.w	r3, [r0, #-4]
10001ca0:	6803      	ldr	r3, [r0, #0]
10001ca2:	075b      	lsls	r3, r3, #29
10001ca4:	d409      	bmi.n	10001cba <GLCD_Initialize+0x14ea>
10001ca6:	6803      	ldr	r3, [r0, #0]
10001ca8:	075b      	lsls	r3, r3, #29
10001caa:	bf5c      	itt	pl
10001cac:	6803      	ldrpl	r3, [r0, #0]
10001cae:	ea5f 7343 	movspl.w	r3, r3, lsl #29
10001cb2:	d402      	bmi.n	10001cba <GLCD_Initialize+0x14ea>
10001cb4:	6803      	ldr	r3, [r0, #0]
10001cb6:	075b      	lsls	r3, r3, #29
10001cb8:	d5f2      	bpl.n	10001ca0 <GLCD_Initialize+0x14d0>
10001cba:	f850 3c04 	ldr.w	r3, [r0, #-4]
10001cbe:	680b      	ldr	r3, [r1, #0]
10001cc0:	f043 0301 	orr.w	r3, r3, #1
10001cc4:	600b      	str	r3, [r1, #0]
10001cc6:	6813      	ldr	r3, [r2, #0]
10001cc8:	f023 0301 	bic.w	r3, r3, #1
10001ccc:	6013      	str	r3, [r2, #0]
10001cce:	2370      	movs	r3, #112	@ 0x70
10001cd0:	f840 3c04 	str.w	r3, [r0, #-4]
10001cd4:	6803      	ldr	r3, [r0, #0]
10001cd6:	075b      	lsls	r3, r3, #29
10001cd8:	d409      	bmi.n	10001cee <GLCD_Initialize+0x151e>
10001cda:	6803      	ldr	r3, [r0, #0]
10001cdc:	075b      	lsls	r3, r3, #29
10001cde:	bf5c      	itt	pl
10001ce0:	6803      	ldrpl	r3, [r0, #0]
10001ce2:	ea5f 7343 	movspl.w	r3, r3, lsl #29
10001ce6:	d402      	bmi.n	10001cee <GLCD_Initialize+0x151e>
10001ce8:	6803      	ldr	r3, [r0, #0]
10001cea:	075b      	lsls	r3, r3, #29
10001cec:	d5f2      	bpl.n	10001cd4 <GLCD_Initialize+0x1504>
10001cee:	f850 3c04 	ldr.w	r3, [r0, #-4]
10001cf2:	2300      	movs	r3, #0
10001cf4:	f840 3c04 	str.w	r3, [r0, #-4]
10001cf8:	6803      	ldr	r3, [r0, #0]
10001cfa:	075b      	lsls	r3, r3, #29
10001cfc:	d409      	bmi.n	10001d12 <GLCD_Initialize+0x1542>
10001cfe:	6803      	ldr	r3, [r0, #0]
10001d00:	075b      	lsls	r3, r3, #29
10001d02:	bf5c      	itt	pl
10001d04:	6803      	ldrpl	r3, [r0, #0]
10001d06:	ea5f 7343 	movspl.w	r3, r3, lsl #29
10001d0a:	d402      	bmi.n	10001d12 <GLCD_Initialize+0x1542>
10001d0c:	6803      	ldr	r3, [r0, #0]
10001d0e:	075b      	lsls	r3, r3, #29
10001d10:	d5f2      	bpl.n	10001cf8 <GLCD_Initialize+0x1528>
10001d12:	f850 3c04 	ldr.w	r3, [r0, #-4]
10001d16:	2350      	movs	r3, #80	@ 0x50
10001d18:	f840 3c04 	str.w	r3, [r0, #-4]
10001d1c:	6803      	ldr	r3, [r0, #0]
10001d1e:	075b      	lsls	r3, r3, #29
10001d20:	d409      	bmi.n	10001d36 <GLCD_Initialize+0x1566>
10001d22:	6803      	ldr	r3, [r0, #0]
10001d24:	075b      	lsls	r3, r3, #29
10001d26:	bf5c      	itt	pl
10001d28:	6803      	ldrpl	r3, [r0, #0]
10001d2a:	ea5f 7343 	movspl.w	r3, r3, lsl #29
10001d2e:	d402      	bmi.n	10001d36 <GLCD_Initialize+0x1566>
10001d30:	6803      	ldr	r3, [r0, #0]
10001d32:	075b      	lsls	r3, r3, #29
10001d34:	d5f2      	bpl.n	10001d1c <GLCD_Initialize+0x154c>
10001d36:	f850 3c04 	ldr.w	r3, [r0, #-4]
10001d3a:	680b      	ldr	r3, [r1, #0]
10001d3c:	f043 0301 	orr.w	r3, r3, #1
10001d40:	600b      	str	r3, [r1, #0]
10001d42:	6813      	ldr	r3, [r2, #0]
10001d44:	f023 0301 	bic.w	r3, r3, #1
10001d48:	6013      	str	r3, [r2, #0]
10001d4a:	2372      	movs	r3, #114	@ 0x72
10001d4c:	f840 3c04 	str.w	r3, [r0, #-4]
10001d50:	6803      	ldr	r3, [r0, #0]
10001d52:	075b      	lsls	r3, r3, #29
10001d54:	d409      	bmi.n	10001d6a <GLCD_Initialize+0x159a>
10001d56:	6803      	ldr	r3, [r0, #0]
10001d58:	075b      	lsls	r3, r3, #29
10001d5a:	bf5c      	itt	pl
10001d5c:	6803      	ldrpl	r3, [r0, #0]
10001d5e:	ea5f 7343 	movspl.w	r3, r3, lsl #29
10001d62:	d402      	bmi.n	10001d6a <GLCD_Initialize+0x159a>
10001d64:	6803      	ldr	r3, [r0, #0]
10001d66:	075b      	lsls	r3, r3, #29
10001d68:	d5f2      	bpl.n	10001d50 <GLCD_Initialize+0x1580>
10001d6a:	f850 3c04 	ldr.w	r3, [r0, #-4]
10001d6e:	2300      	movs	r3, #0
10001d70:	f840 3c04 	str.w	r3, [r0, #-4]
10001d74:	6803      	ldr	r3, [r0, #0]
10001d76:	075b      	lsls	r3, r3, #29
10001d78:	d409      	bmi.n	10001d8e <GLCD_Initialize+0x15be>
10001d7a:	6803      	ldr	r3, [r0, #0]
10001d7c:	075b      	lsls	r3, r3, #29
10001d7e:	bf5c      	itt	pl
10001d80:	6803      	ldrpl	r3, [r0, #0]
10001d82:	ea5f 7343 	movspl.w	r3, r3, lsl #29
10001d86:	d402      	bmi.n	10001d8e <GLCD_Initialize+0x15be>
10001d88:	6803      	ldr	r3, [r0, #0]
10001d8a:	075b      	lsls	r3, r3, #29
10001d8c:	d5f2      	bpl.n	10001d74 <GLCD_Initialize+0x15a4>
10001d8e:	f850 3c04 	ldr.w	r3, [r0, #-4]
10001d92:	231b      	movs	r3, #27
10001d94:	f840 3c04 	str.w	r3, [r0, #-4]
10001d98:	6803      	ldr	r3, [r0, #0]
10001d9a:	075b      	lsls	r3, r3, #29
10001d9c:	d409      	bmi.n	10001db2 <GLCD_Initialize+0x15e2>
10001d9e:	6803      	ldr	r3, [r0, #0]
10001da0:	075b      	lsls	r3, r3, #29
10001da2:	bf5c      	itt	pl
10001da4:	6803      	ldrpl	r3, [r0, #0]
10001da6:	ea5f 7343 	movspl.w	r3, r3, lsl #29
10001daa:	d402      	bmi.n	10001db2 <GLCD_Initialize+0x15e2>
10001dac:	6803      	ldr	r3, [r0, #0]
10001dae:	075b      	lsls	r3, r3, #29
10001db0:	d5f2      	bpl.n	10001d98 <GLCD_Initialize+0x15c8>
10001db2:	f850 3c04 	ldr.w	r3, [r0, #-4]
10001db6:	680b      	ldr	r3, [r1, #0]
10001db8:	f043 0301 	orr.w	r3, r3, #1
10001dbc:	600b      	str	r3, [r1, #0]
10001dbe:	6813      	ldr	r3, [r2, #0]
10001dc0:	f023 0301 	bic.w	r3, r3, #1
10001dc4:	6013      	str	r3, [r2, #0]
10001dc6:	2370      	movs	r3, #112	@ 0x70
10001dc8:	f840 3c04 	str.w	r3, [r0, #-4]
10001dcc:	6803      	ldr	r3, [r0, #0]
10001dce:	075b      	lsls	r3, r3, #29
10001dd0:	d409      	bmi.n	10001de6 <GLCD_Initialize+0x1616>
10001dd2:	6803      	ldr	r3, [r0, #0]
10001dd4:	075b      	lsls	r3, r3, #29
10001dd6:	bf5c      	itt	pl
10001dd8:	6803      	ldrpl	r3, [r0, #0]
10001dda:	ea5f 7343 	movspl.w	r3, r3, lsl #29
10001dde:	d402      	bmi.n	10001de6 <GLCD_Initialize+0x1616>
10001de0:	6803      	ldr	r3, [r0, #0]
10001de2:	075b      	lsls	r3, r3, #29
10001de4:	d5f2      	bpl.n	10001dcc <GLCD_Initialize+0x15fc>
10001de6:	f850 3c04 	ldr.w	r3, [r0, #-4]
10001dea:	2300      	movs	r3, #0
10001dec:	f840 3c04 	str.w	r3, [r0, #-4]
10001df0:	6803      	ldr	r3, [r0, #0]
10001df2:	075b      	lsls	r3, r3, #29
10001df4:	d409      	bmi.n	10001e0a <GLCD_Initialize+0x163a>
10001df6:	6803      	ldr	r3, [r0, #0]
10001df8:	075b      	lsls	r3, r3, #29
10001dfa:	bf5c      	itt	pl
10001dfc:	6803      	ldrpl	r3, [r0, #0]
10001dfe:	ea5f 7343 	movspl.w	r3, r3, lsl #29
10001e02:	d402      	bmi.n	10001e0a <GLCD_Initialize+0x163a>
10001e04:	6803      	ldr	r3, [r0, #0]
10001e06:	075b      	lsls	r3, r3, #29
10001e08:	d5f2      	bpl.n	10001df0 <GLCD_Initialize+0x1620>
10001e0a:	f850 3c04 	ldr.w	r3, [r0, #-4]
10001e0e:	2351      	movs	r3, #81	@ 0x51
10001e10:	f840 3c04 	str.w	r3, [r0, #-4]
10001e14:	6803      	ldr	r3, [r0, #0]
10001e16:	075b      	lsls	r3, r3, #29
10001e18:	d409      	bmi.n	10001e2e <GLCD_Initialize+0x165e>
10001e1a:	6803      	ldr	r3, [r0, #0]
10001e1c:	075b      	lsls	r3, r3, #29
10001e1e:	bf5c      	itt	pl
10001e20:	6803      	ldrpl	r3, [r0, #0]
10001e22:	ea5f 7343 	movspl.w	r3, r3, lsl #29
10001e26:	d402      	bmi.n	10001e2e <GLCD_Initialize+0x165e>
10001e28:	6803      	ldr	r3, [r0, #0]
10001e2a:	075b      	lsls	r3, r3, #29
10001e2c:	d5f2      	bpl.n	10001e14 <GLCD_Initialize+0x1644>
10001e2e:	f850 3c04 	ldr.w	r3, [r0, #-4]
10001e32:	680b      	ldr	r3, [r1, #0]
10001e34:	f043 0301 	orr.w	r3, r3, #1
10001e38:	600b      	str	r3, [r1, #0]
10001e3a:	6813      	ldr	r3, [r2, #0]
10001e3c:	f023 0301 	bic.w	r3, r3, #1
10001e40:	6013      	str	r3, [r2, #0]
10001e42:	2372      	movs	r3, #114	@ 0x72
10001e44:	f840 3c04 	str.w	r3, [r0, #-4]
10001e48:	6803      	ldr	r3, [r0, #0]
10001e4a:	075b      	lsls	r3, r3, #29
10001e4c:	d409      	bmi.n	10001e62 <GLCD_Initialize+0x1692>
10001e4e:	6803      	ldr	r3, [r0, #0]
10001e50:	075b      	lsls	r3, r3, #29
10001e52:	bf5c      	itt	pl
10001e54:	6803      	ldrpl	r3, [r0, #0]
10001e56:	ea5f 7343 	movspl.w	r3, r3, lsl #29
10001e5a:	d402      	bmi.n	10001e62 <GLCD_Initialize+0x1692>
10001e5c:	6803      	ldr	r3, [r0, #0]
10001e5e:	075b      	lsls	r3, r3, #29
10001e60:	d5f2      	bpl.n	10001e48 <GLCD_Initialize+0x1678>
10001e62:	f850 3c04 	ldr.w	r3, [r0, #-4]
10001e66:	2300      	movs	r3, #0
10001e68:	f840 3c04 	str.w	r3, [r0, #-4]
10001e6c:	6803      	ldr	r3, [r0, #0]
10001e6e:	075b      	lsls	r3, r3, #29
10001e70:	d409      	bmi.n	10001e86 <GLCD_Initialize+0x16b6>
10001e72:	6803      	ldr	r3, [r0, #0]
10001e74:	075b      	lsls	r3, r3, #29
10001e76:	bf5c      	itt	pl
10001e78:	6803      	ldrpl	r3, [r0, #0]
10001e7a:	ea5f 7343 	movspl.w	r3, r3, lsl #29
10001e7e:	d402      	bmi.n	10001e86 <GLCD_Initialize+0x16b6>
10001e80:	6803      	ldr	r3, [r0, #0]
10001e82:	075b      	lsls	r3, r3, #29
10001e84:	d5f2      	bpl.n	10001e6c <GLCD_Initialize+0x169c>
10001e86:	f850 3c04 	ldr.w	r3, [r0, #-4]
10001e8a:	2331      	movs	r3, #49	@ 0x31
10001e8c:	f840 3c04 	str.w	r3, [r0, #-4]
10001e90:	6803      	ldr	r3, [r0, #0]
10001e92:	075b      	lsls	r3, r3, #29
10001e94:	d409      	bmi.n	10001eaa <GLCD_Initialize+0x16da>
10001e96:	6803      	ldr	r3, [r0, #0]
10001e98:	075b      	lsls	r3, r3, #29
10001e9a:	bf5c      	itt	pl
10001e9c:	6803      	ldrpl	r3, [r0, #0]
10001e9e:	ea5f 7343 	movspl.w	r3, r3, lsl #29
10001ea2:	d402      	bmi.n	10001eaa <GLCD_Initialize+0x16da>
10001ea4:	6803      	ldr	r3, [r0, #0]
10001ea6:	075b      	lsls	r3, r3, #29
10001ea8:	d5f2      	bpl.n	10001e90 <GLCD_Initialize+0x16c0>
10001eaa:	f850 3c04 	ldr.w	r3, [r0, #-4]
10001eae:	680b      	ldr	r3, [r1, #0]
10001eb0:	f043 0301 	orr.w	r3, r3, #1
10001eb4:	600b      	str	r3, [r1, #0]
10001eb6:	6813      	ldr	r3, [r2, #0]
10001eb8:	f023 0301 	bic.w	r3, r3, #1
10001ebc:	6013      	str	r3, [r2, #0]
10001ebe:	2370      	movs	r3, #112	@ 0x70
10001ec0:	f840 3c04 	str.w	r3, [r0, #-4]
10001ec4:	6803      	ldr	r3, [r0, #0]
10001ec6:	075b      	lsls	r3, r3, #29
10001ec8:	d409      	bmi.n	10001ede <GLCD_Initialize+0x170e>
10001eca:	6803      	ldr	r3, [r0, #0]
10001ecc:	075b      	lsls	r3, r3, #29
10001ece:	bf5c      	itt	pl
10001ed0:	6803      	ldrpl	r3, [r0, #0]
10001ed2:	ea5f 7343 	movspl.w	r3, r3, lsl #29
10001ed6:	d402      	bmi.n	10001ede <GLCD_Initialize+0x170e>
10001ed8:	6803      	ldr	r3, [r0, #0]
10001eda:	075b      	lsls	r3, r3, #29
10001edc:	d5f2      	bpl.n	10001ec4 <GLCD_Initialize+0x16f4>
10001ede:	f850 3c04 	ldr.w	r3, [r0, #-4]
10001ee2:	2300      	movs	r3, #0
10001ee4:	f840 3c04 	str.w	r3, [r0, #-4]
10001ee8:	6803      	ldr	r3, [r0, #0]
10001eea:	075b      	lsls	r3, r3, #29
10001eec:	d409      	bmi.n	10001f02 <GLCD_Initialize+0x1732>
10001eee:	6803      	ldr	r3, [r0, #0]
10001ef0:	075b      	lsls	r3, r3, #29
10001ef2:	bf5c      	itt	pl
10001ef4:	6803      	ldrpl	r3, [r0, #0]
10001ef6:	ea5f 7343 	movspl.w	r3, r3, lsl #29
10001efa:	d402      	bmi.n	10001f02 <GLCD_Initialize+0x1732>
10001efc:	6803      	ldr	r3, [r0, #0]
10001efe:	075b      	lsls	r3, r3, #29
10001f00:	d5f2      	bpl.n	10001ee8 <GLCD_Initialize+0x1718>
10001f02:	f850 3c04 	ldr.w	r3, [r0, #-4]
10001f06:	2352      	movs	r3, #82	@ 0x52
10001f08:	f840 3c04 	str.w	r3, [r0, #-4]
10001f0c:	6803      	ldr	r3, [r0, #0]
10001f0e:	075b      	lsls	r3, r3, #29
10001f10:	d409      	bmi.n	10001f26 <GLCD_Initialize+0x1756>
10001f12:	6803      	ldr	r3, [r0, #0]
10001f14:	075b      	lsls	r3, r3, #29
10001f16:	bf5c      	itt	pl
10001f18:	6803      	ldrpl	r3, [r0, #0]
10001f1a:	ea5f 7343 	movspl.w	r3, r3, lsl #29
10001f1e:	d402      	bmi.n	10001f26 <GLCD_Initialize+0x1756>
10001f20:	6803      	ldr	r3, [r0, #0]
10001f22:	075b      	lsls	r3, r3, #29
10001f24:	d5f2      	bpl.n	10001f0c <GLCD_Initialize+0x173c>
10001f26:	f850 3c04 	ldr.w	r3, [r0, #-4]
10001f2a:	680b      	ldr	r3, [r1, #0]
10001f2c:	f043 0301 	orr.w	r3, r3, #1
10001f30:	600b      	str	r3, [r1, #0]
10001f32:	6813      	ldr	r3, [r2, #0]
10001f34:	f023 0301 	bic.w	r3, r3, #1
10001f38:	6013      	str	r3, [r2, #0]
10001f3a:	2372      	movs	r3, #114	@ 0x72
10001f3c:	f840 3c04 	str.w	r3, [r0, #-4]
10001f40:	6803      	ldr	r3, [r0, #0]
10001f42:	075b      	lsls	r3, r3, #29
10001f44:	d409      	bmi.n	10001f5a <GLCD_Initialize+0x178a>
10001f46:	6803      	ldr	r3, [r0, #0]
10001f48:	075b      	lsls	r3, r3, #29
10001f4a:	bf5c      	itt	pl
10001f4c:	6803      	ldrpl	r3, [r0, #0]
10001f4e:	ea5f 7343 	movspl.w	r3, r3, lsl #29
10001f52:	d402      	bmi.n	10001f5a <GLCD_Initialize+0x178a>
10001f54:	6803      	ldr	r3, [r0, #0]
10001f56:	075b      	lsls	r3, r3, #29
10001f58:	d5f2      	bpl.n	10001f40 <GLCD_Initialize+0x1770>
10001f5a:	f850 3c04 	ldr.w	r3, [r0, #-4]
10001f5e:	2300      	movs	r3, #0
10001f60:	f840 3c04 	str.w	r3, [r0, #-4]
10001f64:	6803      	ldr	r3, [r0, #0]
10001f66:	075b      	lsls	r3, r3, #29
10001f68:	d409      	bmi.n	10001f7e <GLCD_Initialize+0x17ae>
10001f6a:	6803      	ldr	r3, [r0, #0]
10001f6c:	075b      	lsls	r3, r3, #29
10001f6e:	bf5c      	itt	pl
10001f70:	6803      	ldrpl	r3, [r0, #0]
10001f72:	ea5f 7343 	movspl.w	r3, r3, lsl #29
10001f76:	d402      	bmi.n	10001f7e <GLCD_Initialize+0x17ae>
10001f78:	6803      	ldr	r3, [r0, #0]
10001f7a:	075b      	lsls	r3, r3, #29
10001f7c:	d5f2      	bpl.n	10001f64 <GLCD_Initialize+0x1794>
10001f7e:	f850 3c04 	ldr.w	r3, [r0, #-4]
10001f82:	232f      	movs	r3, #47	@ 0x2f
10001f84:	f840 3c04 	str.w	r3, [r0, #-4]
10001f88:	6803      	ldr	r3, [r0, #0]
10001f8a:	075b      	lsls	r3, r3, #29
10001f8c:	d409      	bmi.n	10001fa2 <GLCD_Initialize+0x17d2>
10001f8e:	6803      	ldr	r3, [r0, #0]
10001f90:	075b      	lsls	r3, r3, #29
10001f92:	bf5c      	itt	pl
10001f94:	6803      	ldrpl	r3, [r0, #0]
10001f96:	ea5f 7343 	movspl.w	r3, r3, lsl #29
10001f9a:	d402      	bmi.n	10001fa2 <GLCD_Initialize+0x17d2>
10001f9c:	6803      	ldr	r3, [r0, #0]
10001f9e:	075b      	lsls	r3, r3, #29
10001fa0:	d5f2      	bpl.n	10001f88 <GLCD_Initialize+0x17b8>
10001fa2:	f850 3c04 	ldr.w	r3, [r0, #-4]
10001fa6:	680b      	ldr	r3, [r1, #0]
10001fa8:	f043 0301 	orr.w	r3, r3, #1
10001fac:	600b      	str	r3, [r1, #0]
10001fae:	6813      	ldr	r3, [r2, #0]
10001fb0:	f023 0301 	bic.w	r3, r3, #1
10001fb4:	6013      	str	r3, [r2, #0]
10001fb6:	2370      	movs	r3, #112	@ 0x70
10001fb8:	f840 3c04 	str.w	r3, [r0, #-4]
10001fbc:	6803      	ldr	r3, [r0, #0]
10001fbe:	075b      	lsls	r3, r3, #29
10001fc0:	d409      	bmi.n	10001fd6 <GLCD_Initialize+0x1806>
10001fc2:	6803      	ldr	r3, [r0, #0]
10001fc4:	075b      	lsls	r3, r3, #29
10001fc6:	bf5c      	itt	pl
10001fc8:	6803      	ldrpl	r3, [r0, #0]
10001fca:	ea5f 7343 	movspl.w	r3, r3, lsl #29
10001fce:	d402      	bmi.n	10001fd6 <GLCD_Initialize+0x1806>
10001fd0:	6803      	ldr	r3, [r0, #0]
10001fd2:	075b      	lsls	r3, r3, #29
10001fd4:	d5f2      	bpl.n	10001fbc <GLCD_Initialize+0x17ec>
10001fd6:	f850 3c04 	ldr.w	r3, [r0, #-4]
10001fda:	2300      	movs	r3, #0
10001fdc:	f840 3c04 	str.w	r3, [r0, #-4]
10001fe0:	6803      	ldr	r3, [r0, #0]
10001fe2:	075b      	lsls	r3, r3, #29
10001fe4:	d409      	bmi.n	10001ffa <GLCD_Initialize+0x182a>
10001fe6:	6803      	ldr	r3, [r0, #0]
10001fe8:	075b      	lsls	r3, r3, #29
10001fea:	bf5c      	itt	pl
10001fec:	6803      	ldrpl	r3, [r0, #0]
10001fee:	ea5f 7343 	movspl.w	r3, r3, lsl #29
10001ff2:	d402      	bmi.n	10001ffa <GLCD_Initialize+0x182a>
10001ff4:	6803      	ldr	r3, [r0, #0]
10001ff6:	075b      	lsls	r3, r3, #29
10001ff8:	d5f2      	bpl.n	10001fe0 <GLCD_Initialize+0x1810>
10001ffa:	f850 3c04 	ldr.w	r3, [r0, #-4]
10001ffe:	2353      	movs	r3, #83	@ 0x53
10002000:	f840 3c04 	str.w	r3, [r0, #-4]
10002004:	6803      	ldr	r3, [r0, #0]
10002006:	075b      	lsls	r3, r3, #29
10002008:	d409      	bmi.n	1000201e <GLCD_Initialize+0x184e>
1000200a:	6803      	ldr	r3, [r0, #0]
1000200c:	075b      	lsls	r3, r3, #29
1000200e:	bf5c      	itt	pl
10002010:	6803      	ldrpl	r3, [r0, #0]
10002012:	ea5f 7343 	movspl.w	r3, r3, lsl #29
10002016:	d402      	bmi.n	1000201e <GLCD_Initialize+0x184e>
10002018:	6803      	ldr	r3, [r0, #0]
1000201a:	075b      	lsls	r3, r3, #29
1000201c:	d5f2      	bpl.n	10002004 <GLCD_Initialize+0x1834>
1000201e:	f850 3c04 	ldr.w	r3, [r0, #-4]
10002022:	680b      	ldr	r3, [r1, #0]
10002024:	f043 0301 	orr.w	r3, r3, #1
10002028:	600b      	str	r3, [r1, #0]
1000202a:	6813      	ldr	r3, [r2, #0]
1000202c:	f023 0301 	bic.w	r3, r3, #1
10002030:	6013      	str	r3, [r2, #0]
10002032:	2372      	movs	r3, #114	@ 0x72
10002034:	f840 3c04 	str.w	r3, [r0, #-4]
10002038:	6803      	ldr	r3, [r0, #0]
1000203a:	075b      	lsls	r3, r3, #29
1000203c:	d409      	bmi.n	10002052 <GLCD_Initialize+0x1882>
1000203e:	6803      	ldr	r3, [r0, #0]
10002040:	075b      	lsls	r3, r3, #29
10002042:	bf5c      	itt	pl
10002044:	6803      	ldrpl	r3, [r0, #0]
10002046:	ea5f 7343 	movspl.w	r3, r3, lsl #29
1000204a:	d402      	bmi.n	10002052 <GLCD_Initialize+0x1882>
1000204c:	6803      	ldr	r3, [r0, #0]
1000204e:	075b      	lsls	r3, r3, #29
10002050:	d5f2      	bpl.n	10002038 <GLCD_Initialize+0x1868>
10002052:	f850 3c04 	ldr.w	r3, [r0, #-4]
10002056:	2300      	movs	r3, #0
10002058:	f840 3c04 	str.w	r3, [r0, #-4]
1000205c:	6803      	ldr	r3, [r0, #0]
1000205e:	075b      	lsls	r3, r3, #29
10002060:	d409      	bmi.n	10002076 <GLCD_Initialize+0x18a6>
10002062:	6803      	ldr	r3, [r0, #0]
10002064:	075b      	lsls	r3, r3, #29
10002066:	bf5c      	itt	pl
10002068:	6803      	ldrpl	r3, [r0, #0]
1000206a:	ea5f 7343 	movspl.w	r3, r3, lsl #29
1000206e:	d402      	bmi.n	10002076 <GLCD_Initialize+0x18a6>
10002070:	6803      	ldr	r3, [r0, #0]
10002072:	075b      	lsls	r3, r3, #29
10002074:	d5f2      	bpl.n	1000205c <GLCD_Initialize+0x188c>
10002076:	f850 3c04 	ldr.w	r3, [r0, #-4]
1000207a:	233f      	movs	r3, #63	@ 0x3f
1000207c:	f840 3c04 	str.w	r3, [r0, #-4]
10002080:	6803      	ldr	r3, [r0, #0]
10002082:	075b      	lsls	r3, r3, #29
10002084:	d409      	bmi.n	1000209a <GLCD_Initialize+0x18ca>
10002086:	6803      	ldr	r3, [r0, #0]
10002088:	075b      	lsls	r3, r3, #29
1000208a:	bf5c      	itt	pl
1000208c:	6803      	ldrpl	r3, [r0, #0]
1000208e:	ea5f 7343 	movspl.w	r3, r3, lsl #29
10002092:	d402      	bmi.n	1000209a <GLCD_Initialize+0x18ca>
10002094:	6803      	ldr	r3, [r0, #0]
10002096:	075b      	lsls	r3, r3, #29
10002098:	d5f2      	bpl.n	10002080 <GLCD_Initialize+0x18b0>
1000209a:	f850 3c04 	ldr.w	r3, [r0, #-4]
1000209e:	680b      	ldr	r3, [r1, #0]
100020a0:	f043 0301 	orr.w	r3, r3, #1
100020a4:	600b      	str	r3, [r1, #0]
100020a6:	6813      	ldr	r3, [r2, #0]
100020a8:	f023 0301 	bic.w	r3, r3, #1
100020ac:	6013      	str	r3, [r2, #0]
100020ae:	2370      	movs	r3, #112	@ 0x70
100020b0:	f840 3c04 	str.w	r3, [r0, #-4]
100020b4:	6803      	ldr	r3, [r0, #0]
100020b6:	075b      	lsls	r3, r3, #29
100020b8:	d409      	bmi.n	100020ce <GLCD_Initialize+0x18fe>
100020ba:	6803      	ldr	r3, [r0, #0]
100020bc:	075b      	lsls	r3, r3, #29
100020be:	bf5c      	itt	pl
100020c0:	6803      	ldrpl	r3, [r0, #0]
100020c2:	ea5f 7343 	movspl.w	r3, r3, lsl #29
100020c6:	d402      	bmi.n	100020ce <GLCD_Initialize+0x18fe>
100020c8:	6803      	ldr	r3, [r0, #0]
100020ca:	075b      	lsls	r3, r3, #29
100020cc:	d5f2      	bpl.n	100020b4 <GLCD_Initialize+0x18e4>
100020ce:	f850 3c04 	ldr.w	r3, [r0, #-4]
100020d2:	2300      	movs	r3, #0
100020d4:	f840 3c04 	str.w	r3, [r0, #-4]
100020d8:	6803      	ldr	r3, [r0, #0]
100020da:	075b      	lsls	r3, r3, #29
100020dc:	d409      	bmi.n	100020f2 <GLCD_Initialize+0x1922>
100020de:	6803      	ldr	r3, [r0, #0]
100020e0:	075b      	lsls	r3, r3, #29
100020e2:	bf5c      	itt	pl
100020e4:	6803      	ldrpl	r3, [r0, #0]
100020e6:	ea5f 7343 	movspl.w	r3, r3, lsl #29
100020ea:	d402      	bmi.n	100020f2 <GLCD_Initialize+0x1922>
100020ec:	6803      	ldr	r3, [r0, #0]
100020ee:	075b      	lsls	r3, r3, #29
100020f0:	d5f2      	bpl.n	100020d8 <GLCD_Initialize+0x1908>
100020f2:	f850 3c04 	ldr.w	r3, [r0, #-4]
100020f6:	2354      	movs	r3, #84	@ 0x54
100020f8:	f840 3c04 	str.w	r3, [r0, #-4]
100020fc:	6803      	ldr	r3, [r0, #0]
100020fe:	075b      	lsls	r3, r3, #29
10002100:	d409      	bmi.n	10002116 <GLCD_Initialize+0x1946>
10002102:	6803      	ldr	r3, [r0, #0]
10002104:	075b      	lsls	r3, r3, #29
10002106:	bf5c      	itt	pl
10002108:	6803      	ldrpl	r3, [r0, #0]
1000210a:	ea5f 7343 	movspl.w	r3, r3, lsl #29
1000210e:	d402      	bmi.n	10002116 <GLCD_Initialize+0x1946>
10002110:	6803      	ldr	r3, [r0, #0]
10002112:	075b      	lsls	r3, r3, #29
10002114:	d5f2      	bpl.n	100020fc <GLCD_Initialize+0x192c>
10002116:	f850 3c04 	ldr.w	r3, [r0, #-4]
1000211a:	680b      	ldr	r3, [r1, #0]
1000211c:	f043 0301 	orr.w	r3, r3, #1
10002120:	600b      	str	r3, [r1, #0]
10002122:	6813      	ldr	r3, [r2, #0]
10002124:	f023 0301 	bic.w	r3, r3, #1
10002128:	6013      	str	r3, [r2, #0]
1000212a:	2372      	movs	r3, #114	@ 0x72
1000212c:	f840 3c04 	str.w	r3, [r0, #-4]
10002130:	6803      	ldr	r3, [r0, #0]
10002132:	075b      	lsls	r3, r3, #29
10002134:	d409      	bmi.n	1000214a <GLCD_Initialize+0x197a>
10002136:	6803      	ldr	r3, [r0, #0]
10002138:	075b      	lsls	r3, r3, #29
1000213a:	bf5c      	itt	pl
1000213c:	6803      	ldrpl	r3, [r0, #0]
1000213e:	ea5f 7343 	movspl.w	r3, r3, lsl #29
10002142:	d402      	bmi.n	1000214a <GLCD_Initialize+0x197a>
10002144:	6803      	ldr	r3, [r0, #0]
10002146:	075b      	lsls	r3, r3, #29
10002148:	d5f2      	bpl.n	10002130 <GLCD_Initialize+0x1960>
1000214a:	f850 3c04 	ldr.w	r3, [r0, #-4]
1000214e:	2300      	movs	r3, #0
10002150:	f840 3c04 	str.w	r3, [r0, #-4]
10002154:	6803      	ldr	r3, [r0, #0]
10002156:	075b      	lsls	r3, r3, #29
10002158:	d409      	bmi.n	1000216e <GLCD_Initialize+0x199e>
1000215a:	6803      	ldr	r3, [r0, #0]
1000215c:	075b      	lsls	r3, r3, #29
1000215e:	bf5c      	itt	pl
10002160:	6803      	ldrpl	r3, [r0, #0]
10002162:	ea5f 7343 	movspl.w	r3, r3, lsl #29
10002166:	d402      	bmi.n	1000216e <GLCD_Initialize+0x199e>
10002168:	6803      	ldr	r3, [r0, #0]
1000216a:	075b      	lsls	r3, r3, #29
1000216c:	d5f2      	bpl.n	10002154 <GLCD_Initialize+0x1984>
1000216e:	f850 3c04 	ldr.w	r3, [r0, #-4]
10002172:	233f      	movs	r3, #63	@ 0x3f
10002174:	f840 3c04 	str.w	r3, [r0, #-4]
10002178:	6803      	ldr	r3, [r0, #0]
1000217a:	075b      	lsls	r3, r3, #29
1000217c:	d409      	bmi.n	10002192 <GLCD_Initialize+0x19c2>
1000217e:	6803      	ldr	r3, [r0, #0]
10002180:	075b      	lsls	r3, r3, #29
10002182:	bf5c      	itt	pl
10002184:	6803      	ldrpl	r3, [r0, #0]
10002186:	ea5f 7343 	movspl.w	r3, r3, lsl #29
1000218a:	d402      	bmi.n	10002192 <GLCD_Initialize+0x19c2>
1000218c:	6803      	ldr	r3, [r0, #0]
1000218e:	075b      	lsls	r3, r3, #29
10002190:	d5f2      	bpl.n	10002178 <GLCD_Initialize+0x19a8>
10002192:	f850 3c04 	ldr.w	r3, [r0, #-4]
10002196:	680b      	ldr	r3, [r1, #0]
10002198:	f043 0301 	orr.w	r3, r3, #1
1000219c:	600b      	str	r3, [r1, #0]
1000219e:	6813      	ldr	r3, [r2, #0]
100021a0:	f023 0301 	bic.w	r3, r3, #1
100021a4:	6013      	str	r3, [r2, #0]
100021a6:	2370      	movs	r3, #112	@ 0x70
100021a8:	f840 3c04 	str.w	r3, [r0, #-4]
100021ac:	6803      	ldr	r3, [r0, #0]
100021ae:	075b      	lsls	r3, r3, #29
100021b0:	d409      	bmi.n	100021c6 <GLCD_Initialize+0x19f6>
100021b2:	6803      	ldr	r3, [r0, #0]
100021b4:	075b      	lsls	r3, r3, #29
100021b6:	bf5c      	itt	pl
100021b8:	6803      	ldrpl	r3, [r0, #0]
100021ba:	ea5f 7343 	movspl.w	r3, r3, lsl #29
100021be:	d402      	bmi.n	100021c6 <GLCD_Initialize+0x19f6>
100021c0:	6803      	ldr	r3, [r0, #0]
100021c2:	075b      	lsls	r3, r3, #29
100021c4:	d5f2      	bpl.n	100021ac <GLCD_Initialize+0x19dc>
100021c6:	f850 3c04 	ldr.w	r3, [r0, #-4]
100021ca:	2300      	movs	r3, #0
100021cc:	f840 3c04 	str.w	r3, [r0, #-4]
100021d0:	6803      	ldr	r3, [r0, #0]
100021d2:	075b      	lsls	r3, r3, #29
100021d4:	d409      	bmi.n	100021ea <GLCD_Initialize+0x1a1a>
100021d6:	6803      	ldr	r3, [r0, #0]
100021d8:	075b      	lsls	r3, r3, #29
100021da:	bf5c      	itt	pl
100021dc:	6803      	ldrpl	r3, [r0, #0]
100021de:	ea5f 7343 	movspl.w	r3, r3, lsl #29
100021e2:	d402      	bmi.n	100021ea <GLCD_Initialize+0x1a1a>
100021e4:	6803      	ldr	r3, [r0, #0]
100021e6:	075b      	lsls	r3, r3, #29
100021e8:	d5f2      	bpl.n	100021d0 <GLCD_Initialize+0x1a00>
100021ea:	f850 3c04 	ldr.w	r3, [r0, #-4]
100021ee:	2355      	movs	r3, #85	@ 0x55
100021f0:	f840 3c04 	str.w	r3, [r0, #-4]
100021f4:	6803      	ldr	r3, [r0, #0]
100021f6:	075b      	lsls	r3, r3, #29
100021f8:	d409      	bmi.n	1000220e <GLCD_Initialize+0x1a3e>
100021fa:	6803      	ldr	r3, [r0, #0]
100021fc:	075b      	lsls	r3, r3, #29
100021fe:	bf5c      	itt	pl
10002200:	6803      	ldrpl	r3, [r0, #0]
10002202:	ea5f 7343 	movspl.w	r3, r3, lsl #29
10002206:	d402      	bmi.n	1000220e <GLCD_Initialize+0x1a3e>
10002208:	6803      	ldr	r3, [r0, #0]
1000220a:	075b      	lsls	r3, r3, #29
1000220c:	d5f2      	bpl.n	100021f4 <GLCD_Initialize+0x1a24>
1000220e:	f850 3c04 	ldr.w	r3, [r0, #-4]
10002212:	680b      	ldr	r3, [r1, #0]
10002214:	f043 0301 	orr.w	r3, r3, #1
10002218:	600b      	str	r3, [r1, #0]
1000221a:	6813      	ldr	r3, [r2, #0]
1000221c:	f023 0301 	bic.w	r3, r3, #1
10002220:	6013      	str	r3, [r2, #0]
10002222:	2372      	movs	r3, #114	@ 0x72
10002224:	f840 3c04 	str.w	r3, [r0, #-4]
10002228:	6803      	ldr	r3, [r0, #0]
1000222a:	075b      	lsls	r3, r3, #29
1000222c:	d409      	bmi.n	10002242 <GLCD_Initialize+0x1a72>
1000222e:	6803      	ldr	r3, [r0, #0]
10002230:	075b      	lsls	r3, r3, #29
10002232:	bf5c      	itt	pl
10002234:	6803      	ldrpl	r3, [r0, #0]
10002236:	ea5f 7343 	movspl.w	r3, r3, lsl #29
1000223a:	d402      	bmi.n	10002242 <GLCD_Initialize+0x1a72>
1000223c:	6803      	ldr	r3, [r0, #0]
1000223e:	075b      	lsls	r3, r3, #29
10002240:	d5f2      	bpl.n	10002228 <GLCD_Initialize+0x1a58>
10002242:	f850 3c04 	ldr.w	r3, [r0, #-4]
10002246:	2300      	movs	r3, #0
10002248:	f840 3c04 	str.w	r3, [r0, #-4]
1000224c:	6803      	ldr	r3, [r0, #0]
1000224e:	075b      	lsls	r3, r3, #29
10002250:	d409      	bmi.n	10002266 <GLCD_Initialize+0x1a96>
10002252:	6803      	ldr	r3, [r0, #0]
10002254:	075b      	lsls	r3, r3, #29
10002256:	bf5c      	itt	pl
10002258:	6803      	ldrpl	r3, [r0, #0]
1000225a:	ea5f 7343 	movspl.w	r3, r3, lsl #29
1000225e:	d402      	bmi.n	10002266 <GLCD_Initialize+0x1a96>
10002260:	6803      	ldr	r3, [r0, #0]
10002262:	075b      	lsls	r3, r3, #29
10002264:	d5f2      	bpl.n	1000224c <GLCD_Initialize+0x1a7c>
10002266:	f850 3c04 	ldr.w	r3, [r0, #-4]
1000226a:	233e      	movs	r3, #62	@ 0x3e
1000226c:	f840 3c04 	str.w	r3, [r0, #-4]
10002270:	6803      	ldr	r3, [r0, #0]
10002272:	075b      	lsls	r3, r3, #29
10002274:	d409      	bmi.n	1000228a <GLCD_Initialize+0x1aba>
10002276:	6803      	ldr	r3, [r0, #0]
10002278:	075b      	lsls	r3, r3, #29
1000227a:	bf5c      	itt	pl
1000227c:	6803      	ldrpl	r3, [r0, #0]
1000227e:	ea5f 7343 	movspl.w	r3, r3, lsl #29
10002282:	d402      	bmi.n	1000228a <GLCD_Initialize+0x1aba>
10002284:	6803      	ldr	r3, [r0, #0]
10002286:	075b      	lsls	r3, r3, #29
10002288:	d5f2      	bpl.n	10002270 <GLCD_Initialize+0x1aa0>
1000228a:	f850 3c04 	ldr.w	r3, [r0, #-4]
1000228e:	680b      	ldr	r3, [r1, #0]
10002290:	f043 0301 	orr.w	r3, r3, #1
10002294:	600b      	str	r3, [r1, #0]
10002296:	6813      	ldr	r3, [r2, #0]
10002298:	f023 0301 	bic.w	r3, r3, #1
1000229c:	6013      	str	r3, [r2, #0]
1000229e:	2370      	movs	r3, #112	@ 0x70
100022a0:	f840 3c04 	str.w	r3, [r0, #-4]
100022a4:	6803      	ldr	r3, [r0, #0]
100022a6:	075b      	lsls	r3, r3, #29
100022a8:	d409      	bmi.n	100022be <GLCD_Initialize+0x1aee>
100022aa:	6803      	ldr	r3, [r0, #0]
100022ac:	075b      	lsls	r3, r3, #29
100022ae:	bf5c      	itt	pl
100022b0:	6803      	ldrpl	r3, [r0, #0]
100022b2:	ea5f 7343 	movspl.w	r3, r3, lsl #29
100022b6:	d402      	bmi.n	100022be <GLCD_Initialize+0x1aee>
100022b8:	6803      	ldr	r3, [r0, #0]
100022ba:	075b      	lsls	r3, r3, #29
100022bc:	d5f2      	bpl.n	100022a4 <GLCD_Initialize+0x1ad4>
100022be:	f850 3c04 	ldr.w	r3, [r0, #-4]
100022c2:	2300      	movs	r3, #0
100022c4:	f840 3c04 	str.w	r3, [r0, #-4]
100022c8:	6803      	ldr	r3, [r0, #0]
100022ca:	075b      	lsls	r3, r3, #29
100022cc:	d409      	bmi.n	100022e2 <GLCD_Initialize+0x1b12>
100022ce:	6803      	ldr	r3, [r0, #0]
100022d0:	075b      	lsls	r3, r3, #29
100022d2:	bf5c      	itt	pl
100022d4:	6803      	ldrpl	r3, [r0, #0]
100022d6:	ea5f 7343 	movspl.w	r3, r3, lsl #29
100022da:	d402      	bmi.n	100022e2 <GLCD_Initialize+0x1b12>
100022dc:	6803      	ldr	r3, [r0, #0]
100022de:	075b      	lsls	r3, r3, #29
100022e0:	d5f2      	bpl.n	100022c8 <GLCD_Initialize+0x1af8>
100022e2:	f850 3c04 	ldr.w	r3, [r0, #-4]
100022e6:	2356      	movs	r3, #86	@ 0x56
100022e8:	f840 3c04 	str.w	r3, [r0, #-4]
100022ec:	6803      	ldr	r3, [r0, #0]
100022ee:	075b      	lsls	r3, r3, #29
100022f0:	d409      	bmi.n	10002306 <GLCD_Initialize+0x1b36>
100022f2:	6803      	ldr	r3, [r0, #0]
100022f4:	075b      	lsls	r3, r3, #29
100022f6:	bf5c      	itt	pl
100022f8:	6803      	ldrpl	r3, [r0, #0]
100022fa:	ea5f 7343 	movspl.w	r3, r3, lsl #29
100022fe:	d402      	bmi.n	10002306 <GLCD_Initialize+0x1b36>
10002300:	6803      	ldr	r3, [r0, #0]
10002302:	075b      	lsls	r3, r3, #29
10002304:	d5f2      	bpl.n	100022ec <GLCD_Initialize+0x1b1c>
10002306:	f850 3c04 	ldr.w	r3, [r0, #-4]
1000230a:	680b      	ldr	r3, [r1, #0]
1000230c:	f043 0301 	orr.w	r3, r3, #1
10002310:	600b      	str	r3, [r1, #0]
10002312:	6813      	ldr	r3, [r2, #0]
10002314:	f023 0301 	bic.w	r3, r3, #1
10002318:	6013      	str	r3, [r2, #0]
1000231a:	2372      	movs	r3, #114	@ 0x72
1000231c:	f840 3c04 	str.w	r3, [r0, #-4]
10002320:	6803      	ldr	r3, [r0, #0]
10002322:	075b      	lsls	r3, r3, #29
10002324:	d409      	bmi.n	1000233a <GLCD_Initialize+0x1b6a>
10002326:	6803      	ldr	r3, [r0, #0]
10002328:	075b      	lsls	r3, r3, #29
1000232a:	bf5c      	itt	pl
1000232c:	6803      	ldrpl	r3, [r0, #0]
1000232e:	ea5f 7343 	movspl.w	r3, r3, lsl #29
10002332:	d402      	bmi.n	1000233a <GLCD_Initialize+0x1b6a>
10002334:	6803      	ldr	r3, [r0, #0]
10002336:	075b      	lsls	r3, r3, #29
10002338:	d5f2      	bpl.n	10002320 <GLCD_Initialize+0x1b50>
1000233a:	f850 3c04 	ldr.w	r3, [r0, #-4]
1000233e:	2300      	movs	r3, #0
10002340:	f840 3c04 	str.w	r3, [r0, #-4]
10002344:	6803      	ldr	r3, [r0, #0]
10002346:	075b      	lsls	r3, r3, #29
10002348:	d409      	bmi.n	1000235e <GLCD_Initialize+0x1b8e>
1000234a:	6803      	ldr	r3, [r0, #0]
1000234c:	075b      	lsls	r3, r3, #29
1000234e:	bf5c      	itt	pl
10002350:	6803      	ldrpl	r3, [r0, #0]
10002352:	ea5f 7343 	movspl.w	r3, r3, lsl #29
10002356:	d402      	bmi.n	1000235e <GLCD_Initialize+0x1b8e>
10002358:	6803      	ldr	r3, [r0, #0]
1000235a:	075b      	lsls	r3, r3, #29
1000235c:	d5f2      	bpl.n	10002344 <GLCD_Initialize+0x1b74>
1000235e:	f850 3c04 	ldr.w	r3, [r0, #-4]
10002362:	232f      	movs	r3, #47	@ 0x2f
10002364:	f840 3c04 	str.w	r3, [r0, #-4]
10002368:	6803      	ldr	r3, [r0, #0]
1000236a:	075b      	lsls	r3, r3, #29
1000236c:	d409      	bmi.n	10002382 <GLCD_Initialize+0x1bb2>
1000236e:	6803      	ldr	r3, [r0, #0]
10002370:	075b      	lsls	r3, r3, #29
10002372:	bf5c      	itt	pl
10002374:	6803      	ldrpl	r3, [r0, #0]
10002376:	ea5f 7343 	movspl.w	r3, r3, lsl #29
1000237a:	d402      	bmi.n	10002382 <GLCD_Initialize+0x1bb2>
1000237c:	6803      	ldr	r3, [r0, #0]
1000237e:	075b      	lsls	r3, r3, #29
10002380:	d5f2      	bpl.n	10002368 <GLCD_Initialize+0x1b98>
10002382:	f850 3c04 	ldr.w	r3, [r0, #-4]
10002386:	680b      	ldr	r3, [r1, #0]
10002388:	f043 0301 	orr.w	r3, r3, #1
1000238c:	600b      	str	r3, [r1, #0]
1000238e:	6813      	ldr	r3, [r2, #0]
10002390:	f023 0301 	bic.w	r3, r3, #1
10002394:	6013      	str	r3, [r2, #0]
10002396:	2370      	movs	r3, #112	@ 0x70
10002398:	f840 3c04 	str.w	r3, [r0, #-4]
1000239c:	6803      	ldr	r3, [r0, #0]
1000239e:	075b      	lsls	r3, r3, #29
100023a0:	d409      	bmi.n	100023b6 <GLCD_Initialize+0x1be6>
100023a2:	6803      	ldr	r3, [r0, #0]
100023a4:	075b      	lsls	r3, r3, #29
100023a6:	bf5c      	itt	pl
100023a8:	6803      	ldrpl	r3, [r0, #0]
100023aa:	ea5f 7343 	movspl.w	r3, r3, lsl #29
100023ae:	d402      	bmi.n	100023b6 <GLCD_Initialize+0x1be6>
100023b0:	6803      	ldr	r3, [r0, #0]
100023b2:	075b      	lsls	r3, r3, #29
100023b4:	d5f2      	bpl.n	1000239c <GLCD_Initialize+0x1bcc>
100023b6:	f850 3c04 	ldr.w	r3, [r0, #-4]
100023ba:	2300      	movs	r3, #0
100023bc:	f840 3c04 	str.w	r3, [r0, #-4]
100023c0:	6803      	ldr	r3, [r0, #0]
100023c2:	075b      	lsls	r3, r3, #29
100023c4:	d409      	bmi.n	100023da <GLCD_Initialize+0x1c0a>
100023c6:	6803      	ldr	r3, [r0, #0]
100023c8:	075b      	lsls	r3, r3, #29
100023ca:	bf5c      	itt	pl
100023cc:	6803      	ldrpl	r3, [r0, #0]
100023ce:	ea5f 7343 	movspl.w	r3, r3, lsl #29
100023d2:	d402      	bmi.n	100023da <GLCD_Initialize+0x1c0a>
100023d4:	6803      	ldr	r3, [r0, #0]
100023d6:	075b      	lsls	r3, r3, #29
100023d8:	d5f2      	bpl.n	100023c0 <GLCD_Initialize+0x1bf0>
100023da:	f850 3c04 	ldr.w	r3, [r0, #-4]
100023de:	2357      	movs	r3, #87	@ 0x57
100023e0:	f840 3c04 	str.w	r3, [r0, #-4]
100023e4:	6803      	ldr	r3, [r0, #0]
100023e6:	075b      	lsls	r3, r3, #29
100023e8:	d409      	bmi.n	100023fe <GLCD_Initialize+0x1c2e>
100023ea:	6803      	ldr	r3, [r0, #0]
100023ec:	075b      	lsls	r3, r3, #29
100023ee:	bf5c      	itt	pl
100023f0:	6803      	ldrpl	r3, [r0, #0]
100023f2:	ea5f 7343 	movspl.w	r3, r3, lsl #29
100023f6:	d402      	bmi.n	100023fe <GLCD_Initialize+0x1c2e>
100023f8:	6803      	ldr	r3, [r0, #0]
100023fa:	075b      	lsls	r3, r3, #29
100023fc:	d5f2      	bpl.n	100023e4 <GLCD_Initialize+0x1c14>
100023fe:	f850 3c04 	ldr.w	r3, [r0, #-4]
10002402:	680b      	ldr	r3, [r1, #0]
10002404:	f043 0301 	orr.w	r3, r3, #1
10002408:	600b      	str	r3, [r1, #0]
1000240a:	6813      	ldr	r3, [r2, #0]
1000240c:	f023 0301 	bic.w	r3, r3, #1
10002410:	6013      	str	r3, [r2, #0]
10002412:	2372      	movs	r3, #114	@ 0x72
10002414:	f840 3c04 	str.w	r3, [r0, #-4]
10002418:	6803      	ldr	r3, [r0, #0]
1000241a:	075b      	lsls	r3, r3, #29
1000241c:	d409      	bmi.n	10002432 <GLCD_Initialize+0x1c62>
1000241e:	6803      	ldr	r3, [r0, #0]
10002420:	075b      	lsls	r3, r3, #29
10002422:	bf5c      	itt	pl
10002424:	6803      	ldrpl	r3, [r0, #0]
10002426:	ea5f 7343 	movspl.w	r3, r3, lsl #29
1000242a:	d402      	bmi.n	10002432 <GLCD_Initialize+0x1c62>
1000242c:	6803      	ldr	r3, [r0, #0]
1000242e:	075b      	lsls	r3, r3, #29
10002430:	d5f2      	bpl.n	10002418 <GLCD_Initialize+0x1c48>
10002432:	f850 3c04 	ldr.w	r3, [r0, #-4]
10002436:	2300      	movs	r3, #0
10002438:	f840 3c04 	str.w	r3, [r0, #-4]
1000243c:	6803      	ldr	r3, [r0, #0]
1000243e:	075b      	lsls	r3, r3, #29
10002440:	d409      	bmi.n	10002456 <GLCD_Initialize+0x1c86>
10002442:	6803      	ldr	r3, [r0, #0]
10002444:	075b      	lsls	r3, r3, #29
10002446:	bf5c      	itt	pl
10002448:	6803      	ldrpl	r3, [r0, #0]
1000244a:	ea5f 7343 	movspl.w	r3, r3, lsl #29
1000244e:	d402      	bmi.n	10002456 <GLCD_Initialize+0x1c86>
10002450:	6803      	ldr	r3, [r0, #0]
10002452:	075b      	lsls	r3, r3, #29
10002454:	d5f2      	bpl.n	1000243c <GLCD_Initialize+0x1c6c>
10002456:	f850 3c04 	ldr.w	r3, [r0, #-4]
1000245a:	237b      	movs	r3, #123	@ 0x7b
1000245c:	f840 3c04 	str.w	r3, [r0, #-4]
10002460:	6803      	ldr	r3, [r0, #0]
10002462:	075b      	lsls	r3, r3, #29
10002464:	d409      	bmi.n	1000247a <GLCD_Initialize+0x1caa>
10002466:	6803      	ldr	r3, [r0, #0]
10002468:	075b      	lsls	r3, r3, #29
1000246a:	bf5c      	itt	pl
1000246c:	6803      	ldrpl	r3, [r0, #0]
1000246e:	ea5f 7343 	movspl.w	r3, r3, lsl #29
10002472:	d402      	bmi.n	1000247a <GLCD_Initialize+0x1caa>
10002474:	6803      	ldr	r3, [r0, #0]
10002476:	075b      	lsls	r3, r3, #29
10002478:	d5f2      	bpl.n	10002460 <GLCD_Initialize+0x1c90>
1000247a:	f850 3c04 	ldr.w	r3, [r0, #-4]
1000247e:	680b      	ldr	r3, [r1, #0]
10002480:	f043 0301 	orr.w	r3, r3, #1
10002484:	600b      	str	r3, [r1, #0]
10002486:	6813      	ldr	r3, [r2, #0]
10002488:	f023 0301 	bic.w	r3, r3, #1
1000248c:	6013      	str	r3, [r2, #0]
1000248e:	2370      	movs	r3, #112	@ 0x70
10002490:	f840 3c04 	str.w	r3, [r0, #-4]
10002494:	6803      	ldr	r3, [r0, #0]
10002496:	075b      	lsls	r3, r3, #29
10002498:	d409      	bmi.n	100024ae <GLCD_Initialize+0x1cde>
1000249a:	6803      	ldr	r3, [r0, #0]
1000249c:	075b      	lsls	r3, r3, #29
1000249e:	bf5c      	itt	pl
100024a0:	6803      	ldrpl	r3, [r0, #0]
100024a2:	ea5f 7343 	movspl.w	r3, r3, lsl #29
100024a6:	d402      	bmi.n	100024ae <GLCD_Initialize+0x1cde>
100024a8:	6803      	ldr	r3, [r0, #0]
100024aa:	075b      	lsls	r3, r3, #29
100024ac:	d5f2      	bpl.n	10002494 <GLCD_Initialize+0x1cc4>
100024ae:	f850 3c04 	ldr.w	r3, [r0, #-4]
100024b2:	2300      	movs	r3, #0
100024b4:	f840 3c04 	str.w	r3, [r0, #-4]
100024b8:	6803      	ldr	r3, [r0, #0]
100024ba:	075b      	lsls	r3, r3, #29
100024bc:	d409      	bmi.n	100024d2 <GLCD_Initialize+0x1d02>
100024be:	6803      	ldr	r3, [r0, #0]
100024c0:	075b      	lsls	r3, r3, #29
100024c2:	bf5c      	itt	pl
100024c4:	6803      	ldrpl	r3, [r0, #0]
100024c6:	ea5f 7343 	movspl.w	r3, r3, lsl #29
100024ca:	d402      	bmi.n	100024d2 <GLCD_Initialize+0x1d02>
100024cc:	6803      	ldr	r3, [r0, #0]
100024ce:	075b      	lsls	r3, r3, #29
100024d0:	d5f2      	bpl.n	100024b8 <GLCD_Initialize+0x1ce8>
100024d2:	f850 3c04 	ldr.w	r3, [r0, #-4]
100024d6:	2358      	movs	r3, #88	@ 0x58
100024d8:	f840 3c04 	str.w	r3, [r0, #-4]
100024dc:	6803      	ldr	r3, [r0, #0]
100024de:	075b      	lsls	r3, r3, #29
100024e0:	d409      	bmi.n	100024f6 <GLCD_Initialize+0x1d26>
100024e2:	6803      	ldr	r3, [r0, #0]
100024e4:	075b      	lsls	r3, r3, #29
100024e6:	bf5c      	itt	pl
100024e8:	6803      	ldrpl	r3, [r0, #0]
100024ea:	ea5f 7343 	movspl.w	r3, r3, lsl #29
100024ee:	d402      	bmi.n	100024f6 <GLCD_Initialize+0x1d26>
100024f0:	6803      	ldr	r3, [r0, #0]
100024f2:	075b      	lsls	r3, r3, #29
100024f4:	d5f2      	bpl.n	100024dc <GLCD_Initialize+0x1d0c>
100024f6:	f850 3c04 	ldr.w	r3, [r0, #-4]
100024fa:	680b      	ldr	r3, [r1, #0]
100024fc:	f043 0301 	orr.w	r3, r3, #1
10002500:	600b      	str	r3, [r1, #0]
10002502:	6813      	ldr	r3, [r2, #0]
10002504:	f023 0301 	bic.w	r3, r3, #1
10002508:	6013      	str	r3, [r2, #0]
1000250a:	2372      	movs	r3, #114	@ 0x72
1000250c:	f840 3c04 	str.w	r3, [r0, #-4]
10002510:	6803      	ldr	r3, [r0, #0]
10002512:	075b      	lsls	r3, r3, #29
10002514:	d409      	bmi.n	1000252a <GLCD_Initialize+0x1d5a>
10002516:	6803      	ldr	r3, [r0, #0]
10002518:	075b      	lsls	r3, r3, #29
1000251a:	bf5c      	itt	pl
1000251c:	6803      	ldrpl	r3, [r0, #0]
1000251e:	ea5f 7343 	movspl.w	r3, r3, lsl #29
10002522:	d402      	bmi.n	1000252a <GLCD_Initialize+0x1d5a>
10002524:	6803      	ldr	r3, [r0, #0]
10002526:	075b      	lsls	r3, r3, #29
10002528:	d5f2      	bpl.n	10002510 <GLCD_Initialize+0x1d40>
1000252a:	f850 3c04 	ldr.w	r3, [r0, #-4]
1000252e:	2300      	movs	r3, #0
10002530:	f840 3c04 	str.w	r3, [r0, #-4]
10002534:	6803      	ldr	r3, [r0, #0]
10002536:	075b      	lsls	r3, r3, #29
10002538:	d409      	bmi.n	1000254e <GLCD_Initialize+0x1d7e>
1000253a:	6803      	ldr	r3, [r0, #0]
1000253c:	075b      	lsls	r3, r3, #29
1000253e:	bf5c      	itt	pl
10002540:	6803      	ldrpl	r3, [r0, #0]
10002542:	ea5f 7343 	movspl.w	r3, r3, lsl #29
10002546:	d402      	bmi.n	1000254e <GLCD_Initialize+0x1d7e>
10002548:	6803      	ldr	r3, [r0, #0]
1000254a:	075b      	lsls	r3, r3, #29
1000254c:	d5f2      	bpl.n	10002534 <GLCD_Initialize+0x1d64>
1000254e:	f850 3c04 	ldr.w	r3, [r0, #-4]
10002552:	2309      	movs	r3, #9
10002554:	f840 3c04 	str.w	r3, [r0, #-4]
10002558:	6803      	ldr	r3, [r0, #0]
1000255a:	075b      	lsls	r3, r3, #29
1000255c:	d409      	bmi.n	10002572 <GLCD_Initialize+0x1da2>
1000255e:	6803      	ldr	r3, [r0, #0]
10002560:	075b      	lsls	r3, r3, #29
10002562:	bf5c      	itt	pl
10002564:	6803      	ldrpl	r3, [r0, #0]
10002566:	ea5f 7343 	movspl.w	r3, r3, lsl #29
1000256a:	d402      	bmi.n	10002572 <GLCD_Initialize+0x1da2>
1000256c:	6803      	ldr	r3, [r0, #0]
1000256e:	075b      	lsls	r3, r3, #29
10002570:	d5f2      	bpl.n	10002558 <GLCD_Initialize+0x1d88>
10002572:	f850 3c04 	ldr.w	r3, [r0, #-4]
10002576:	680b      	ldr	r3, [r1, #0]
10002578:	f043 0301 	orr.w	r3, r3, #1
1000257c:	600b      	str	r3, [r1, #0]
1000257e:	6813      	ldr	r3, [r2, #0]
10002580:	f023 0301 	bic.w	r3, r3, #1
10002584:	6013      	str	r3, [r2, #0]
10002586:	2370      	movs	r3, #112	@ 0x70
10002588:	f840 3c04 	str.w	r3, [r0, #-4]
1000258c:	6803      	ldr	r3, [r0, #0]
1000258e:	075b      	lsls	r3, r3, #29
10002590:	d409      	bmi.n	100025a6 <GLCD_Initialize+0x1dd6>
10002592:	6803      	ldr	r3, [r0, #0]
10002594:	075b      	lsls	r3, r3, #29
10002596:	bf5c      	itt	pl
10002598:	6803      	ldrpl	r3, [r0, #0]
1000259a:	ea5f 7343 	movspl.w	r3, r3, lsl #29
1000259e:	d402      	bmi.n	100025a6 <GLCD_Initialize+0x1dd6>
100025a0:	6803      	ldr	r3, [r0, #0]
100025a2:	075b      	lsls	r3, r3, #29
100025a4:	d5f2      	bpl.n	1000258c <GLCD_Initialize+0x1dbc>
100025a6:	f850 3c04 	ldr.w	r3, [r0, #-4]
100025aa:	2300      	movs	r3, #0
100025ac:	f840 3c04 	str.w	r3, [r0, #-4]
100025b0:	6803      	ldr	r3, [r0, #0]
100025b2:	075b      	lsls	r3, r3, #29
100025b4:	d409      	bmi.n	100025ca <GLCD_Initialize+0x1dfa>
100025b6:	6803      	ldr	r3, [r0, #0]
100025b8:	075b      	lsls	r3, r3, #29
100025ba:	bf5c      	itt	pl
100025bc:	6803      	ldrpl	r3, [r0, #0]
100025be:	ea5f 7343 	movspl.w	r3, r3, lsl #29
100025c2:	d402      	bmi.n	100025ca <GLCD_Initialize+0x1dfa>
100025c4:	6803      	ldr	r3, [r0, #0]
100025c6:	075b      	lsls	r3, r3, #29
100025c8:	d5f2      	bpl.n	100025b0 <GLCD_Initialize+0x1de0>
100025ca:	f850 3c04 	ldr.w	r3, [r0, #-4]
100025ce:	2359      	movs	r3, #89	@ 0x59
100025d0:	f840 3c04 	str.w	r3, [r0, #-4]
100025d4:	6803      	ldr	r3, [r0, #0]
100025d6:	075b      	lsls	r3, r3, #29
100025d8:	d409      	bmi.n	100025ee <GLCD_Initialize+0x1e1e>
100025da:	6803      	ldr	r3, [r0, #0]
100025dc:	075b      	lsls	r3, r3, #29
100025de:	bf5c      	itt	pl
100025e0:	6803      	ldrpl	r3, [r0, #0]
100025e2:	ea5f 7343 	movspl.w	r3, r3, lsl #29
100025e6:	d402      	bmi.n	100025ee <GLCD_Initialize+0x1e1e>
100025e8:	6803      	ldr	r3, [r0, #0]
100025ea:	075b      	lsls	r3, r3, #29
100025ec:	d5f2      	bpl.n	100025d4 <GLCD_Initialize+0x1e04>
100025ee:	f850 3c04 	ldr.w	r3, [r0, #-4]
100025f2:	680b      	ldr	r3, [r1, #0]
100025f4:	f043 0301 	orr.w	r3, r3, #1
100025f8:	600b      	str	r3, [r1, #0]
100025fa:	6813      	ldr	r3, [r2, #0]
100025fc:	f023 0301 	bic.w	r3, r3, #1
10002600:	6013      	str	r3, [r2, #0]
10002602:	2372      	movs	r3, #114	@ 0x72
10002604:	f840 3c04 	str.w	r3, [r0, #-4]
10002608:	6803      	ldr	r3, [r0, #0]
1000260a:	075b      	lsls	r3, r3, #29
1000260c:	d409      	bmi.n	10002622 <GLCD_Initialize+0x1e52>
1000260e:	6803      	ldr	r3, [r0, #0]
10002610:	075b      	lsls	r3, r3, #29
10002612:	bf5c      	itt	pl
10002614:	6803      	ldrpl	r3, [r0, #0]
10002616:	ea5f 7343 	movspl.w	r3, r3, lsl #29
1000261a:	d402      	bmi.n	10002622 <GLCD_Initialize+0x1e52>
1000261c:	6803      	ldr	r3, [r0, #0]
1000261e:	075b      	lsls	r3, r3, #29
10002620:	d5f2      	bpl.n	10002608 <GLCD_Initialize+0x1e38>
10002622:	f850 3c04 	ldr.w	r3, [r0, #-4]
10002626:	2300      	movs	r3, #0
10002628:	f840 3c04 	str.w	r3, [r0, #-4]
1000262c:	6803      	ldr	r3, [r0, #0]
1000262e:	075b      	lsls	r3, r3, #29
10002630:	d409      	bmi.n	10002646 <GLCD_Initialize+0x1e76>
10002632:	6803      	ldr	r3, [r0, #0]
10002634:	075b      	lsls	r3, r3, #29
10002636:	bf5c      	itt	pl
10002638:	6803      	ldrpl	r3, [r0, #0]
1000263a:	ea5f 7343 	movspl.w	r3, r3, lsl #29
1000263e:	d402      	bmi.n	10002646 <GLCD_Initialize+0x1e76>
10002640:	6803      	ldr	r3, [r0, #0]
10002642:	075b      	lsls	r3, r3, #29
10002644:	d5f2      	bpl.n	1000262c <GLCD_Initialize+0x1e5c>
10002646:	f850 3c04 	ldr.w	r3, [r0, #-4]
1000264a:	2306      	movs	r3, #6
1000264c:	f840 3c04 	str.w	r3, [r0, #-4]
10002650:	6803      	ldr	r3, [r0, #0]
10002652:	075b      	lsls	r3, r3, #29
10002654:	d409      	bmi.n	1000266a <GLCD_Initialize+0x1e9a>
10002656:	6803      	ldr	r3, [r0, #0]
10002658:	075b      	lsls	r3, r3, #29
1000265a:	bf5c      	itt	pl
1000265c:	6803      	ldrpl	r3, [r0, #0]
1000265e:	ea5f 7343 	movspl.w	r3, r3, lsl #29
10002662:	d402      	bmi.n	1000266a <GLCD_Initialize+0x1e9a>
10002664:	6803      	ldr	r3, [r0, #0]
10002666:	075b      	lsls	r3, r3, #29
10002668:	d5f2      	bpl.n	10002650 <GLCD_Initialize+0x1e80>
1000266a:	f850 3c04 	ldr.w	r3, [r0, #-4]
1000266e:	680b      	ldr	r3, [r1, #0]
10002670:	f043 0301 	orr.w	r3, r3, #1
10002674:	600b      	str	r3, [r1, #0]
10002676:	6813      	ldr	r3, [r2, #0]
10002678:	f023 0301 	bic.w	r3, r3, #1
1000267c:	6013      	str	r3, [r2, #0]
1000267e:	2370      	movs	r3, #112	@ 0x70
10002680:	f840 3c04 	str.w	r3, [r0, #-4]
10002684:	6803      	ldr	r3, [r0, #0]
10002686:	075b      	lsls	r3, r3, #29
10002688:	d409      	bmi.n	1000269e <GLCD_Initialize+0x1ece>
1000268a:	6803      	ldr	r3, [r0, #0]
1000268c:	075b      	lsls	r3, r3, #29
1000268e:	bf5c      	itt	pl
10002690:	6803      	ldrpl	r3, [r0, #0]
10002692:	ea5f 7343 	movspl.w	r3, r3, lsl #29
10002696:	d402      	bmi.n	1000269e <GLCD_Initialize+0x1ece>
10002698:	6803      	ldr	r3, [r0, #0]
1000269a:	075b      	lsls	r3, r3, #29
1000269c:	d5f2      	bpl.n	10002684 <GLCD_Initialize+0x1eb4>
1000269e:	f850 3c04 	ldr.w	r3, [r0, #-4]
100026a2:	2300      	movs	r3, #0
100026a4:	f840 3c04 	str.w	r3, [r0, #-4]
100026a8:	6803      	ldr	r3, [r0, #0]
100026aa:	075b      	lsls	r3, r3, #29
100026ac:	d409      	bmi.n	100026c2 <GLCD_Initialize+0x1ef2>
100026ae:	6803      	ldr	r3, [r0, #0]
100026b0:	075b      	lsls	r3, r3, #29
100026b2:	bf5c      	itt	pl
100026b4:	6803      	ldrpl	r3, [r0, #0]
100026b6:	ea5f 7343 	movspl.w	r3, r3, lsl #29
100026ba:	d402      	bmi.n	100026c2 <GLCD_Initialize+0x1ef2>
100026bc:	6803      	ldr	r3, [r0, #0]
100026be:	075b      	lsls	r3, r3, #29
100026c0:	d5f2      	bpl.n	100026a8 <GLCD_Initialize+0x1ed8>
100026c2:	f850 3c04 	ldr.w	r3, [r0, #-4]
100026c6:	235a      	movs	r3, #90	@ 0x5a
100026c8:	f840 3c04 	str.w	r3, [r0, #-4]
100026cc:	6803      	ldr	r3, [r0, #0]
100026ce:	075b      	lsls	r3, r3, #29
100026d0:	d409      	bmi.n	100026e6 <GLCD_Initialize+0x1f16>
100026d2:	6803      	ldr	r3, [r0, #0]
100026d4:	075b      	lsls	r3, r3, #29
100026d6:	bf5c      	itt	pl
100026d8:	6803      	ldrpl	r3, [r0, #0]
100026da:	ea5f 7343 	movspl.w	r3, r3, lsl #29
100026de:	d402      	bmi.n	100026e6 <GLCD_Initialize+0x1f16>
100026e0:	6803      	ldr	r3, [r0, #0]
100026e2:	075b      	lsls	r3, r3, #29
100026e4:	d5f2      	bpl.n	100026cc <GLCD_Initialize+0x1efc>
100026e6:	f850 3c04 	ldr.w	r3, [r0, #-4]
100026ea:	680b      	ldr	r3, [r1, #0]
100026ec:	f043 0301 	orr.w	r3, r3, #1
100026f0:	600b      	str	r3, [r1, #0]
100026f2:	6813      	ldr	r3, [r2, #0]
100026f4:	f023 0301 	bic.w	r3, r3, #1
100026f8:	6013      	str	r3, [r2, #0]
100026fa:	2372      	movs	r3, #114	@ 0x72
100026fc:	f840 3c04 	str.w	r3, [r0, #-4]
10002700:	6803      	ldr	r3, [r0, #0]
10002702:	075b      	lsls	r3, r3, #29
10002704:	d409      	bmi.n	1000271a <GLCD_Initialize+0x1f4a>
10002706:	6803      	ldr	r3, [r0, #0]
10002708:	075b      	lsls	r3, r3, #29
1000270a:	bf5c      	itt	pl
1000270c:	6803      	ldrpl	r3, [r0, #0]
1000270e:	ea5f 7343 	movspl.w	r3, r3, lsl #29
10002712:	d402      	bmi.n	1000271a <GLCD_Initialize+0x1f4a>
10002714:	6803      	ldr	r3, [r0, #0]
10002716:	075b      	lsls	r3, r3, #29
10002718:	d5f2      	bpl.n	10002700 <GLCD_Initialize+0x1f30>
1000271a:	f850 3c04 	ldr.w	r3, [r0, #-4]
1000271e:	2300      	movs	r3, #0
10002720:	f840 3c04 	str.w	r3, [r0, #-4]
10002724:	6803      	ldr	r3, [r0, #0]
10002726:	075b      	lsls	r3, r3, #29
10002728:	d409      	bmi.n	1000273e <GLCD_Initialize+0x1f6e>
1000272a:	6803      	ldr	r3, [r0, #0]
1000272c:	075b      	lsls	r3, r3, #29
1000272e:	bf5c      	itt	pl
10002730:	6803      	ldrpl	r3, [r0, #0]
10002732:	ea5f 7343 	movspl.w	r3, r3, lsl #29
10002736:	d402      	bmi.n	1000273e <GLCD_Initialize+0x1f6e>
10002738:	6803      	ldr	r3, [r0, #0]
1000273a:	075b      	lsls	r3, r3, #29
1000273c:	d5f2      	bpl.n	10002724 <GLCD_Initialize+0x1f54>
1000273e:	f850 3c04 	ldr.w	r3, [r0, #-4]
10002742:	2306      	movs	r3, #6
10002744:	f840 3c04 	str.w	r3, [r0, #-4]
10002748:	6803      	ldr	r3, [r0, #0]
1000274a:	075b      	lsls	r3, r3, #29
1000274c:	d409      	bmi.n	10002762 <GLCD_Initialize+0x1f92>
1000274e:	6803      	ldr	r3, [r0, #0]
10002750:	075b      	lsls	r3, r3, #29
10002752:	bf5c      	itt	pl
10002754:	6803      	ldrpl	r3, [r0, #0]
10002756:	ea5f 7343 	movspl.w	r3, r3, lsl #29
1000275a:	d402      	bmi.n	10002762 <GLCD_Initialize+0x1f92>
1000275c:	6803      	ldr	r3, [r0, #0]
1000275e:	075b      	lsls	r3, r3, #29
10002760:	d5f2      	bpl.n	10002748 <GLCD_Initialize+0x1f78>
10002762:	f850 3c04 	ldr.w	r3, [r0, #-4]
10002766:	680b      	ldr	r3, [r1, #0]
10002768:	f043 0301 	orr.w	r3, r3, #1
1000276c:	600b      	str	r3, [r1, #0]
1000276e:	6813      	ldr	r3, [r2, #0]
10002770:	f023 0301 	bic.w	r3, r3, #1
10002774:	6013      	str	r3, [r2, #0]
10002776:	2370      	movs	r3, #112	@ 0x70
10002778:	f840 3c04 	str.w	r3, [r0, #-4]
1000277c:	6803      	ldr	r3, [r0, #0]
1000277e:	075b      	lsls	r3, r3, #29
10002780:	d409      	bmi.n	10002796 <GLCD_Initialize+0x1fc6>
10002782:	6803      	ldr	r3, [r0, #0]
10002784:	075b      	lsls	r3, r3, #29
10002786:	bf5c      	itt	pl
10002788:	6803      	ldrpl	r3, [r0, #0]
1000278a:	ea5f 7343 	movspl.w	r3, r3, lsl #29
1000278e:	d402      	bmi.n	10002796 <GLCD_Initialize+0x1fc6>
10002790:	6803      	ldr	r3, [r0, #0]
10002792:	075b      	lsls	r3, r3, #29
10002794:	d5f2      	bpl.n	1000277c <GLCD_Initialize+0x1fac>
10002796:	f850 3c04 	ldr.w	r3, [r0, #-4]
1000279a:	2300      	movs	r3, #0
1000279c:	f840 3c04 	str.w	r3, [r0, #-4]
100027a0:	6803      	ldr	r3, [r0, #0]
100027a2:	075b      	lsls	r3, r3, #29
100027a4:	d409      	bmi.n	100027ba <GLCD_Initialize+0x1fea>
100027a6:	6803      	ldr	r3, [r0, #0]
100027a8:	075b      	lsls	r3, r3, #29
100027aa:	bf5c      	itt	pl
100027ac:	6803      	ldrpl	r3, [r0, #0]
100027ae:	ea5f 7343 	movspl.w	r3, r3, lsl #29
100027b2:	d402      	bmi.n	100027ba <GLCD_Initialize+0x1fea>
100027b4:	6803      	ldr	r3, [r0, #0]
100027b6:	075b      	lsls	r3, r3, #29
100027b8:	d5f2      	bpl.n	100027a0 <GLCD_Initialize+0x1fd0>
100027ba:	f850 3c04 	ldr.w	r3, [r0, #-4]
100027be:	235b      	movs	r3, #91	@ 0x5b
100027c0:	f840 3c04 	str.w	r3, [r0, #-4]
100027c4:	6803      	ldr	r3, [r0, #0]
100027c6:	075b      	lsls	r3, r3, #29
100027c8:	d409      	bmi.n	100027de <GLCD_Initialize+0x200e>
100027ca:	6803      	ldr	r3, [r0, #0]
100027cc:	075b      	lsls	r3, r3, #29
100027ce:	bf5c      	itt	pl
100027d0:	6803      	ldrpl	r3, [r0, #0]
100027d2:	ea5f 7343 	movspl.w	r3, r3, lsl #29
100027d6:	d402      	bmi.n	100027de <GLCD_Initialize+0x200e>
100027d8:	6803      	ldr	r3, [r0, #0]
100027da:	075b      	lsls	r3, r3, #29
100027dc:	d5f2      	bpl.n	100027c4 <GLCD_Initialize+0x1ff4>
100027de:	f850 3c04 	ldr.w	r3, [r0, #-4]
100027e2:	680b      	ldr	r3, [r1, #0]
100027e4:	f043 0301 	orr.w	r3, r3, #1
100027e8:	600b      	str	r3, [r1, #0]
100027ea:	6813      	ldr	r3, [r2, #0]
100027ec:	f023 0301 	bic.w	r3, r3, #1
100027f0:	6013      	str	r3, [r2, #0]
100027f2:	2372      	movs	r3, #114	@ 0x72
100027f4:	f840 3c04 	str.w	r3, [r0, #-4]
100027f8:	6803      	ldr	r3, [r0, #0]
100027fa:	075b      	lsls	r3, r3, #29
100027fc:	d409      	bmi.n	10002812 <GLCD_Initialize+0x2042>
100027fe:	6803      	ldr	r3, [r0, #0]
10002800:	075b      	lsls	r3, r3, #29
10002802:	bf5c      	itt	pl
10002804:	6803      	ldrpl	r3, [r0, #0]
10002806:	ea5f 7343 	movspl.w	r3, r3, lsl #29
1000280a:	d402      	bmi.n	10002812 <GLCD_Initialize+0x2042>
1000280c:	6803      	ldr	r3, [r0, #0]
1000280e:	075b      	lsls	r3, r3, #29
10002810:	d5f2      	bpl.n	100027f8 <GLCD_Initialize+0x2028>
10002812:	f850 3c04 	ldr.w	r3, [r0, #-4]
10002816:	2300      	movs	r3, #0
10002818:	f840 3c04 	str.w	r3, [r0, #-4]
1000281c:	6803      	ldr	r3, [r0, #0]
1000281e:	075b      	lsls	r3, r3, #29
10002820:	d409      	bmi.n	10002836 <GLCD_Initialize+0x2066>
10002822:	6803      	ldr	r3, [r0, #0]
10002824:	075b      	lsls	r3, r3, #29
10002826:	bf5c      	itt	pl
10002828:	6803      	ldrpl	r3, [r0, #0]
1000282a:	ea5f 7343 	movspl.w	r3, r3, lsl #29
1000282e:	d402      	bmi.n	10002836 <GLCD_Initialize+0x2066>
10002830:	6803      	ldr	r3, [r0, #0]
10002832:	075b      	lsls	r3, r3, #29
10002834:	d5f2      	bpl.n	1000281c <GLCD_Initialize+0x204c>
10002836:	f850 3c04 	ldr.w	r3, [r0, #-4]
1000283a:	230c      	movs	r3, #12
1000283c:	f840 3c04 	str.w	r3, [r0, #-4]
10002840:	6803      	ldr	r3, [r0, #0]
10002842:	075b      	lsls	r3, r3, #29
10002844:	d409      	bmi.n	1000285a <GLCD_Initialize+0x208a>
10002846:	6803      	ldr	r3, [r0, #0]
10002848:	075b      	lsls	r3, r3, #29
1000284a:	bf5c      	itt	pl
1000284c:	6803      	ldrpl	r3, [r0, #0]
1000284e:	ea5f 7343 	movspl.w	r3, r3, lsl #29
10002852:	d402      	bmi.n	1000285a <GLCD_Initialize+0x208a>
10002854:	6803      	ldr	r3, [r0, #0]
10002856:	075b      	lsls	r3, r3, #29
10002858:	d5f2      	bpl.n	10002840 <GLCD_Initialize+0x2070>
1000285a:	f850 3c04 	ldr.w	r3, [r0, #-4]
1000285e:	680b      	ldr	r3, [r1, #0]
10002860:	f043 0301 	orr.w	r3, r3, #1
10002864:	600b      	str	r3, [r1, #0]
10002866:	6813      	ldr	r3, [r2, #0]
10002868:	f023 0301 	bic.w	r3, r3, #1
1000286c:	6013      	str	r3, [r2, #0]
1000286e:	2370      	movs	r3, #112	@ 0x70
10002870:	f840 3c04 	str.w	r3, [r0, #-4]
10002874:	6803      	ldr	r3, [r0, #0]
10002876:	075b      	lsls	r3, r3, #29
10002878:	d409      	bmi.n	1000288e <GLCD_Initialize+0x20be>
1000287a:	6803      	ldr	r3, [r0, #0]
1000287c:	075b      	lsls	r3, r3, #29
1000287e:	bf5c      	itt	pl
10002880:	6803      	ldrpl	r3, [r0, #0]
10002882:	ea5f 7343 	movspl.w	r3, r3, lsl #29
10002886:	d402      	bmi.n	1000288e <GLCD_Initialize+0x20be>
10002888:	6803      	ldr	r3, [r0, #0]
1000288a:	075b      	lsls	r3, r3, #29
1000288c:	d5f2      	bpl.n	10002874 <GLCD_Initialize+0x20a4>
1000288e:	f850 3c04 	ldr.w	r3, [r0, #-4]
10002892:	2300      	movs	r3, #0
10002894:	f840 3c04 	str.w	r3, [r0, #-4]
10002898:	6803      	ldr	r3, [r0, #0]
1000289a:	075b      	lsls	r3, r3, #29
1000289c:	d409      	bmi.n	100028b2 <GLCD_Initialize+0x20e2>
1000289e:	6803      	ldr	r3, [r0, #0]
100028a0:	075b      	lsls	r3, r3, #29
100028a2:	bf5c      	itt	pl
100028a4:	6803      	ldrpl	r3, [r0, #0]
100028a6:	ea5f 7343 	movspl.w	r3, r3, lsl #29
100028aa:	d402      	bmi.n	100028b2 <GLCD_Initialize+0x20e2>
100028ac:	6803      	ldr	r3, [r0, #0]
100028ae:	075b      	lsls	r3, r3, #29
100028b0:	d5f2      	bpl.n	10002898 <GLCD_Initialize+0x20c8>
100028b2:	f850 3c04 	ldr.w	r3, [r0, #-4]
100028b6:	235c      	movs	r3, #92	@ 0x5c
100028b8:	f840 3c04 	str.w	r3, [r0, #-4]
100028bc:	6803      	ldr	r3, [r0, #0]
100028be:	075b      	lsls	r3, r3, #29
100028c0:	d409      	bmi.n	100028d6 <GLCD_Initialize+0x2106>
100028c2:	6803      	ldr	r3, [r0, #0]
100028c4:	075b      	lsls	r3, r3, #29
100028c6:	bf5c      	itt	pl
100028c8:	6803      	ldrpl	r3, [r0, #0]
100028ca:	ea5f 7343 	movspl.w	r3, r3, lsl #29
100028ce:	d402      	bmi.n	100028d6 <GLCD_Initialize+0x2106>
100028d0:	6803      	ldr	r3, [r0, #0]
100028d2:	075b      	lsls	r3, r3, #29
100028d4:	d5f2      	bpl.n	100028bc <GLCD_Initialize+0x20ec>
100028d6:	f850 3c04 	ldr.w	r3, [r0, #-4]
100028da:	680b      	ldr	r3, [r1, #0]
100028dc:	f043 0301 	orr.w	r3, r3, #1
100028e0:	600b      	str	r3, [r1, #0]
100028e2:	6813      	ldr	r3, [r2, #0]
100028e4:	f023 0301 	bic.w	r3, r3, #1
100028e8:	6013      	str	r3, [r2, #0]
100028ea:	2372      	movs	r3, #114	@ 0x72
100028ec:	f840 3c04 	str.w	r3, [r0, #-4]
100028f0:	6803      	ldr	r3, [r0, #0]
100028f2:	075b      	lsls	r3, r3, #29
100028f4:	d409      	bmi.n	1000290a <GLCD_Initialize+0x213a>
100028f6:	6803      	ldr	r3, [r0, #0]
100028f8:	075b      	lsls	r3, r3, #29
100028fa:	bf5c      	itt	pl
100028fc:	6803      	ldrpl	r3, [r0, #0]
100028fe:	ea5f 7343 	movspl.w	r3, r3, lsl #29
10002902:	d402      	bmi.n	1000290a <GLCD_Initialize+0x213a>
10002904:	6803      	ldr	r3, [r0, #0]
10002906:	075b      	lsls	r3, r3, #29
10002908:	d5f2      	bpl.n	100028f0 <GLCD_Initialize+0x2120>
1000290a:	f850 3c04 	ldr.w	r3, [r0, #-4]
1000290e:	2300      	movs	r3, #0
10002910:	f840 3c04 	str.w	r3, [r0, #-4]
10002914:	6803      	ldr	r3, [r0, #0]
10002916:	075b      	lsls	r3, r3, #29
10002918:	d409      	bmi.n	1000292e <GLCD_Initialize+0x215e>
1000291a:	6803      	ldr	r3, [r0, #0]
1000291c:	075b      	lsls	r3, r3, #29
1000291e:	bf5c      	itt	pl
10002920:	6803      	ldrpl	r3, [r0, #0]
10002922:	ea5f 7343 	movspl.w	r3, r3, lsl #29
10002926:	d402      	bmi.n	1000292e <GLCD_Initialize+0x215e>
10002928:	6803      	ldr	r3, [r0, #0]
1000292a:	075b      	lsls	r3, r3, #29
1000292c:	d5f2      	bpl.n	10002914 <GLCD_Initialize+0x2144>
1000292e:	f850 3c04 	ldr.w	r3, [r0, #-4]
10002932:	231d      	movs	r3, #29
10002934:	f840 3c04 	str.w	r3, [r0, #-4]
10002938:	6803      	ldr	r3, [r0, #0]
1000293a:	075b      	lsls	r3, r3, #29
1000293c:	d409      	bmi.n	10002952 <GLCD_Initialize+0x2182>
1000293e:	6803      	ldr	r3, [r0, #0]
10002940:	075b      	lsls	r3, r3, #29
10002942:	bf5c      	itt	pl
10002944:	6803      	ldrpl	r3, [r0, #0]
10002946:	ea5f 7343 	movspl.w	r3, r3, lsl #29
1000294a:	d402      	bmi.n	10002952 <GLCD_Initialize+0x2182>
1000294c:	6803      	ldr	r3, [r0, #0]
1000294e:	075b      	lsls	r3, r3, #29
10002950:	d5f2      	bpl.n	10002938 <GLCD_Initialize+0x2168>
10002952:	f850 3c04 	ldr.w	r3, [r0, #-4]
10002956:	680b      	ldr	r3, [r1, #0]
10002958:	f043 0301 	orr.w	r3, r3, #1
1000295c:	600b      	str	r3, [r1, #0]
1000295e:	6813      	ldr	r3, [r2, #0]
10002960:	f023 0301 	bic.w	r3, r3, #1
10002964:	6013      	str	r3, [r2, #0]
10002966:	2370      	movs	r3, #112	@ 0x70
10002968:	f840 3c04 	str.w	r3, [r0, #-4]
1000296c:	6803      	ldr	r3, [r0, #0]
1000296e:	075b      	lsls	r3, r3, #29
10002970:	d409      	bmi.n	10002986 <GLCD_Initialize+0x21b6>
10002972:	6803      	ldr	r3, [r0, #0]
10002974:	075b      	lsls	r3, r3, #29
10002976:	bf5c      	itt	pl
10002978:	6803      	ldrpl	r3, [r0, #0]
1000297a:	ea5f 7343 	movspl.w	r3, r3, lsl #29
1000297e:	d402      	bmi.n	10002986 <GLCD_Initialize+0x21b6>
10002980:	6803      	ldr	r3, [r0, #0]
10002982:	075b      	lsls	r3, r3, #29
10002984:	d5f2      	bpl.n	1000296c <GLCD_Initialize+0x219c>
10002986:	f850 3c04 	ldr.w	r3, [r0, #-4]
1000298a:	2300      	movs	r3, #0
1000298c:	f840 3c04 	str.w	r3, [r0, #-4]
10002990:	6803      	ldr	r3, [r0, #0]
10002992:	075b      	lsls	r3, r3, #29
10002994:	d409      	bmi.n	100029aa <GLCD_Initialize+0x21da>
10002996:	6803      	ldr	r3, [r0, #0]
10002998:	075b      	lsls	r3, r3, #29
1000299a:	bf5c      	itt	pl
1000299c:	6803      	ldrpl	r3, [r0, #0]
1000299e:	ea5f 7343 	movspl.w	r3, r3, lsl #29
100029a2:	d402      	bmi.n	100029aa <GLCD_Initialize+0x21da>
100029a4:	6803      	ldr	r3, [r0, #0]
100029a6:	075b      	lsls	r3, r3, #29
100029a8:	d5f2      	bpl.n	10002990 <GLCD_Initialize+0x21c0>
100029aa:	f850 3c04 	ldr.w	r3, [r0, #-4]
100029ae:	235d      	movs	r3, #93	@ 0x5d
100029b0:	f840 3c04 	str.w	r3, [r0, #-4]
100029b4:	6803      	ldr	r3, [r0, #0]
100029b6:	075b      	lsls	r3, r3, #29
100029b8:	d409      	bmi.n	100029ce <GLCD_Initialize+0x21fe>
100029ba:	6803      	ldr	r3, [r0, #0]
100029bc:	075b      	lsls	r3, r3, #29
100029be:	bf5c      	itt	pl
100029c0:	6803      	ldrpl	r3, [r0, #0]
100029c2:	ea5f 7343 	movspl.w	r3, r3, lsl #29
100029c6:	d402      	bmi.n	100029ce <GLCD_Initialize+0x21fe>
100029c8:	6803      	ldr	r3, [r0, #0]
100029ca:	075b      	lsls	r3, r3, #29
100029cc:	d5f2      	bpl.n	100029b4 <GLCD_Initialize+0x21e4>
100029ce:	f850 3c04 	ldr.w	r3, [r0, #-4]
100029d2:	680b      	ldr	r3, [r1, #0]
100029d4:	f043 0301 	orr.w	r3, r3, #1
100029d8:	600b      	str	r3, [r1, #0]
100029da:	6813      	ldr	r3, [r2, #0]
100029dc:	f023 0301 	bic.w	r3, r3, #1
100029e0:	6013      	str	r3, [r2, #0]
100029e2:	2372      	movs	r3, #114	@ 0x72
100029e4:	f840 3c04 	str.w	r3, [r0, #-4]
100029e8:	6803      	ldr	r3, [r0, #0]
100029ea:	075b      	lsls	r3, r3, #29
100029ec:	d409      	bmi.n	10002a02 <GLCD_Initialize+0x2232>
100029ee:	6803      	ldr	r3, [r0, #0]
100029f0:	075b      	lsls	r3, r3, #29
100029f2:	bf5c      	itt	pl
100029f4:	6803      	ldrpl	r3, [r0, #0]
100029f6:	ea5f 7343 	movspl.w	r3, r3, lsl #29
100029fa:	d402      	bmi.n	10002a02 <GLCD_Initialize+0x2232>
100029fc:	6803      	ldr	r3, [r0, #0]
100029fe:	075b      	lsls	r3, r3, #29
10002a00:	d5f2      	bpl.n	100029e8 <GLCD_Initialize+0x2218>
10002a02:	f850 3c04 	ldr.w	r3, [r0, #-4]
10002a06:	2300      	movs	r3, #0
10002a08:	f840 3c04 	str.w	r3, [r0, #-4]
10002a0c:	6803      	ldr	r3, [r0, #0]
10002a0e:	075b      	lsls	r3, r3, #29
10002a10:	d409      	bmi.n	10002a26 <GLCD_Initialize+0x2256>
10002a12:	6803      	ldr	r3, [r0, #0]
10002a14:	075b      	lsls	r3, r3, #29
10002a16:	bf5c      	itt	pl
10002a18:	6803      	ldrpl	r3, [r0, #0]
10002a1a:	ea5f 7343 	movspl.w	r3, r3, lsl #29
10002a1e:	d402      	bmi.n	10002a26 <GLCD_Initialize+0x2256>
10002a20:	6803      	ldr	r3, [r0, #0]
10002a22:	075b      	lsls	r3, r3, #29
10002a24:	d5f2      	bpl.n	10002a0c <GLCD_Initialize+0x223c>
10002a26:	f850 3c04 	ldr.w	r3, [r0, #-4]
10002a2a:	23cc      	movs	r3, #204	@ 0xcc
10002a2c:	f840 3c04 	str.w	r3, [r0, #-4]
10002a30:	6803      	ldr	r3, [r0, #0]
10002a32:	075b      	lsls	r3, r3, #29
10002a34:	d409      	bmi.n	10002a4a <GLCD_Initialize+0x227a>
10002a36:	6803      	ldr	r3, [r0, #0]
10002a38:	075b      	lsls	r3, r3, #29
10002a3a:	bf5c      	itt	pl
10002a3c:	6803      	ldrpl	r3, [r0, #0]
10002a3e:	ea5f 7343 	movspl.w	r3, r3, lsl #29
10002a42:	d402      	bmi.n	10002a4a <GLCD_Initialize+0x227a>
10002a44:	6803      	ldr	r3, [r0, #0]
10002a46:	075b      	lsls	r3, r3, #29
10002a48:	d5f2      	bpl.n	10002a30 <GLCD_Initialize+0x2260>
10002a4a:	f850 3c04 	ldr.w	r3, [r0, #-4]
10002a4e:	680b      	ldr	r3, [r1, #0]
10002a50:	f043 0301 	orr.w	r3, r3, #1
10002a54:	600b      	str	r3, [r1, #0]
10002a56:	6813      	ldr	r3, [r2, #0]
10002a58:	f023 0301 	bic.w	r3, r3, #1
10002a5c:	6013      	str	r3, [r2, #0]
10002a5e:	2370      	movs	r3, #112	@ 0x70
10002a60:	f840 3c04 	str.w	r3, [r0, #-4]
10002a64:	6803      	ldr	r3, [r0, #0]
10002a66:	075b      	lsls	r3, r3, #29
10002a68:	d409      	bmi.n	10002a7e <GLCD_Initialize+0x22ae>
10002a6a:	6803      	ldr	r3, [r0, #0]
10002a6c:	075b      	lsls	r3, r3, #29
10002a6e:	bf5c      	itt	pl
10002a70:	6803      	ldrpl	r3, [r0, #0]
10002a72:	ea5f 7343 	movspl.w	r3, r3, lsl #29
10002a76:	d402      	bmi.n	10002a7e <GLCD_Initialize+0x22ae>
10002a78:	6803      	ldr	r3, [r0, #0]
10002a7a:	075b      	lsls	r3, r3, #29
10002a7c:	d5f2      	bpl.n	10002a64 <GLCD_Initialize+0x2294>
10002a7e:	f850 3c04 	ldr.w	r3, [r0, #-4]
10002a82:	2300      	movs	r3, #0
10002a84:	f840 3c04 	str.w	r3, [r0, #-4]
10002a88:	6803      	ldr	r3, [r0, #0]
10002a8a:	075b      	lsls	r3, r3, #29
10002a8c:	d409      	bmi.n	10002aa2 <GLCD_Initialize+0x22d2>
10002a8e:	6803      	ldr	r3, [r0, #0]
10002a90:	075b      	lsls	r3, r3, #29
10002a92:	bf5c      	itt	pl
10002a94:	6803      	ldrpl	r3, [r0, #0]
10002a96:	ea5f 7343 	movspl.w	r3, r3, lsl #29
10002a9a:	d402      	bmi.n	10002aa2 <GLCD_Initialize+0x22d2>
10002a9c:	6803      	ldr	r3, [r0, #0]
10002a9e:	075b      	lsls	r3, r3, #29
10002aa0:	d5f2      	bpl.n	10002a88 <GLCD_Initialize+0x22b8>
10002aa2:	f850 3c04 	ldr.w	r3, [r0, #-4]
10002aa6:	231b      	movs	r3, #27
10002aa8:	f840 3c04 	str.w	r3, [r0, #-4]
10002aac:	6803      	ldr	r3, [r0, #0]
10002aae:	075b      	lsls	r3, r3, #29
10002ab0:	d409      	bmi.n	10002ac6 <GLCD_Initialize+0x22f6>
10002ab2:	6803      	ldr	r3, [r0, #0]
10002ab4:	075b      	lsls	r3, r3, #29
10002ab6:	bf5c      	itt	pl
10002ab8:	6803      	ldrpl	r3, [r0, #0]
10002aba:	ea5f 7343 	movspl.w	r3, r3, lsl #29
10002abe:	d402      	bmi.n	10002ac6 <GLCD_Initialize+0x22f6>
10002ac0:	6803      	ldr	r3, [r0, #0]
10002ac2:	075b      	lsls	r3, r3, #29
10002ac4:	d5f2      	bpl.n	10002aac <GLCD_Initialize+0x22dc>
10002ac6:	f850 3c04 	ldr.w	r3, [r0, #-4]
10002aca:	680b      	ldr	r3, [r1, #0]
10002acc:	f043 0301 	orr.w	r3, r3, #1
10002ad0:	600b      	str	r3, [r1, #0]
10002ad2:	6813      	ldr	r3, [r2, #0]
10002ad4:	f023 0301 	bic.w	r3, r3, #1
10002ad8:	6013      	str	r3, [r2, #0]
10002ada:	2372      	movs	r3, #114	@ 0x72
10002adc:	f840 3c04 	str.w	r3, [r0, #-4]
10002ae0:	6803      	ldr	r3, [r0, #0]
10002ae2:	075b      	lsls	r3, r3, #29
10002ae4:	d409      	bmi.n	10002afa <GLCD_Initialize+0x232a>
10002ae6:	6803      	ldr	r3, [r0, #0]
10002ae8:	075b      	lsls	r3, r3, #29
10002aea:	bf5c      	itt	pl
10002aec:	6803      	ldrpl	r3, [r0, #0]
10002aee:	ea5f 7343 	movspl.w	r3, r3, lsl #29
10002af2:	d402      	bmi.n	10002afa <GLCD_Initialize+0x232a>
10002af4:	6803      	ldr	r3, [r0, #0]
10002af6:	075b      	lsls	r3, r3, #29
10002af8:	d5f2      	bpl.n	10002ae0 <GLCD_Initialize+0x2310>
10002afa:	f850 3c04 	ldr.w	r3, [r0, #-4]
10002afe:	2300      	movs	r3, #0
10002b00:	f840 3c04 	str.w	r3, [r0, #-4]
10002b04:	6803      	ldr	r3, [r0, #0]
10002b06:	075b      	lsls	r3, r3, #29
10002b08:	d409      	bmi.n	10002b1e <GLCD_Initialize+0x234e>
10002b0a:	6803      	ldr	r3, [r0, #0]
10002b0c:	075b      	lsls	r3, r3, #29
10002b0e:	bf5c      	itt	pl
10002b10:	6803      	ldrpl	r3, [r0, #0]
10002b12:	ea5f 7343 	movspl.w	r3, r3, lsl #29
10002b16:	d402      	bmi.n	10002b1e <GLCD_Initialize+0x234e>
10002b18:	6803      	ldr	r3, [r0, #0]
10002b1a:	075b      	lsls	r3, r3, #29
10002b1c:	d5f2      	bpl.n	10002b04 <GLCD_Initialize+0x2334>
10002b1e:	f850 3c04 	ldr.w	r3, [r0, #-4]
10002b22:	231b      	movs	r3, #27
10002b24:	f840 3c04 	str.w	r3, [r0, #-4]
10002b28:	6803      	ldr	r3, [r0, #0]
10002b2a:	075b      	lsls	r3, r3, #29
10002b2c:	d409      	bmi.n	10002b42 <GLCD_Initialize+0x2372>
10002b2e:	6803      	ldr	r3, [r0, #0]
10002b30:	075b      	lsls	r3, r3, #29
10002b32:	bf5c      	itt	pl
10002b34:	6803      	ldrpl	r3, [r0, #0]
10002b36:	ea5f 7343 	movspl.w	r3, r3, lsl #29
10002b3a:	d402      	bmi.n	10002b42 <GLCD_Initialize+0x2372>
10002b3c:	6803      	ldr	r3, [r0, #0]
10002b3e:	075b      	lsls	r3, r3, #29
10002b40:	d5f2      	bpl.n	10002b28 <GLCD_Initialize+0x2358>
10002b42:	f850 3c04 	ldr.w	r3, [r0, #-4]
10002b46:	680b      	ldr	r3, [r1, #0]
10002b48:	f043 0301 	orr.w	r3, r3, #1
10002b4c:	600b      	str	r3, [r1, #0]
10002b4e:	6813      	ldr	r3, [r2, #0]
10002b50:	f023 0301 	bic.w	r3, r3, #1
10002b54:	6013      	str	r3, [r2, #0]
10002b56:	2370      	movs	r3, #112	@ 0x70
10002b58:	f840 3c04 	str.w	r3, [r0, #-4]
10002b5c:	6803      	ldr	r3, [r0, #0]
10002b5e:	075b      	lsls	r3, r3, #29
10002b60:	d409      	bmi.n	10002b76 <GLCD_Initialize+0x23a6>
10002b62:	6803      	ldr	r3, [r0, #0]
10002b64:	075b      	lsls	r3, r3, #29
10002b66:	bf5c      	itt	pl
10002b68:	6803      	ldrpl	r3, [r0, #0]
10002b6a:	ea5f 7343 	movspl.w	r3, r3, lsl #29
10002b6e:	d402      	bmi.n	10002b76 <GLCD_Initialize+0x23a6>
10002b70:	6803      	ldr	r3, [r0, #0]
10002b72:	075b      	lsls	r3, r3, #29
10002b74:	d5f2      	bpl.n	10002b5c <GLCD_Initialize+0x238c>
10002b76:	f850 3c04 	ldr.w	r3, [r0, #-4]
10002b7a:	2300      	movs	r3, #0
10002b7c:	f840 3c04 	str.w	r3, [r0, #-4]
10002b80:	6803      	ldr	r3, [r0, #0]
10002b82:	075b      	lsls	r3, r3, #29
10002b84:	d409      	bmi.n	10002b9a <GLCD_Initialize+0x23ca>
10002b86:	6803      	ldr	r3, [r0, #0]
10002b88:	075b      	lsls	r3, r3, #29
10002b8a:	bf5c      	itt	pl
10002b8c:	6803      	ldrpl	r3, [r0, #0]
10002b8e:	ea5f 7343 	movspl.w	r3, r3, lsl #29
10002b92:	d402      	bmi.n	10002b9a <GLCD_Initialize+0x23ca>
10002b94:	6803      	ldr	r3, [r0, #0]
10002b96:	075b      	lsls	r3, r3, #29
10002b98:	d5f2      	bpl.n	10002b80 <GLCD_Initialize+0x23b0>
10002b9a:	f850 3c04 	ldr.w	r3, [r0, #-4]
10002b9e:	231a      	movs	r3, #26
10002ba0:	f840 3c04 	str.w	r3, [r0, #-4]
10002ba4:	6803      	ldr	r3, [r0, #0]
10002ba6:	075b      	lsls	r3, r3, #29
10002ba8:	d409      	bmi.n	10002bbe <GLCD_Initialize+0x23ee>
10002baa:	6803      	ldr	r3, [r0, #0]
10002bac:	075b      	lsls	r3, r3, #29
10002bae:	bf5c      	itt	pl
10002bb0:	6803      	ldrpl	r3, [r0, #0]
10002bb2:	ea5f 7343 	movspl.w	r3, r3, lsl #29
10002bb6:	d402      	bmi.n	10002bbe <GLCD_Initialize+0x23ee>
10002bb8:	6803      	ldr	r3, [r0, #0]
10002bba:	075b      	lsls	r3, r3, #29
10002bbc:	d5f2      	bpl.n	10002ba4 <GLCD_Initialize+0x23d4>
10002bbe:	f850 3c04 	ldr.w	r3, [r0, #-4]
10002bc2:	680b      	ldr	r3, [r1, #0]
10002bc4:	f043 0301 	orr.w	r3, r3, #1
10002bc8:	600b      	str	r3, [r1, #0]
10002bca:	6813      	ldr	r3, [r2, #0]
10002bcc:	f023 0301 	bic.w	r3, r3, #1
10002bd0:	6013      	str	r3, [r2, #0]
10002bd2:	2372      	movs	r3, #114	@ 0x72
10002bd4:	f840 3c04 	str.w	r3, [r0, #-4]
10002bd8:	6803      	ldr	r3, [r0, #0]
10002bda:	075b      	lsls	r3, r3, #29
10002bdc:	d409      	bmi.n	10002bf2 <GLCD_Initialize+0x2422>
10002bde:	6803      	ldr	r3, [r0, #0]
10002be0:	075b      	lsls	r3, r3, #29
10002be2:	bf5c      	itt	pl
10002be4:	6803      	ldrpl	r3, [r0, #0]
10002be6:	ea5f 7343 	movspl.w	r3, r3, lsl #29
10002bea:	d402      	bmi.n	10002bf2 <GLCD_Initialize+0x2422>
10002bec:	6803      	ldr	r3, [r0, #0]
10002bee:	075b      	lsls	r3, r3, #29
10002bf0:	d5f2      	bpl.n	10002bd8 <GLCD_Initialize+0x2408>
10002bf2:	f850 3c04 	ldr.w	r3, [r0, #-4]
10002bf6:	2300      	movs	r3, #0
10002bf8:	f840 3c04 	str.w	r3, [r0, #-4]
10002bfc:	6803      	ldr	r3, [r0, #0]
10002bfe:	075b      	lsls	r3, r3, #29
10002c00:	d409      	bmi.n	10002c16 <GLCD_Initialize+0x2446>
10002c02:	6803      	ldr	r3, [r0, #0]
10002c04:	075b      	lsls	r3, r3, #29
10002c06:	bf5c      	itt	pl
10002c08:	6803      	ldrpl	r3, [r0, #0]
10002c0a:	ea5f 7343 	movspl.w	r3, r3, lsl #29
10002c0e:	d402      	bmi.n	10002c16 <GLCD_Initialize+0x2446>
10002c10:	6803      	ldr	r3, [r0, #0]
10002c12:	075b      	lsls	r3, r3, #29
10002c14:	d5f2      	bpl.n	10002bfc <GLCD_Initialize+0x242c>
10002c16:	f850 3c04 	ldr.w	r3, [r0, #-4]
10002c1a:	2301      	movs	r3, #1
10002c1c:	f840 3c04 	str.w	r3, [r0, #-4]
10002c20:	6803      	ldr	r3, [r0, #0]
10002c22:	075b      	lsls	r3, r3, #29
10002c24:	d409      	bmi.n	10002c3a <GLCD_Initialize+0x246a>
10002c26:	6803      	ldr	r3, [r0, #0]
10002c28:	075b      	lsls	r3, r3, #29
10002c2a:	bf5c      	itt	pl
10002c2c:	6803      	ldrpl	r3, [r0, #0]
10002c2e:	ea5f 7343 	movspl.w	r3, r3, lsl #29
10002c32:	d402      	bmi.n	10002c3a <GLCD_Initialize+0x246a>
10002c34:	6803      	ldr	r3, [r0, #0]
10002c36:	075b      	lsls	r3, r3, #29
10002c38:	d5f2      	bpl.n	10002c20 <GLCD_Initialize+0x2450>
10002c3a:	f850 3c04 	ldr.w	r3, [r0, #-4]
10002c3e:	680b      	ldr	r3, [r1, #0]
10002c40:	f043 0301 	orr.w	r3, r3, #1
10002c44:	600b      	str	r3, [r1, #0]
10002c46:	6813      	ldr	r3, [r2, #0]
10002c48:	f023 0301 	bic.w	r3, r3, #1
10002c4c:	6013      	str	r3, [r2, #0]
10002c4e:	2370      	movs	r3, #112	@ 0x70
10002c50:	f840 3c04 	str.w	r3, [r0, #-4]
10002c54:	6803      	ldr	r3, [r0, #0]
10002c56:	075b      	lsls	r3, r3, #29
10002c58:	d409      	bmi.n	10002c6e <GLCD_Initialize+0x249e>
10002c5a:	6803      	ldr	r3, [r0, #0]
10002c5c:	075b      	lsls	r3, r3, #29
10002c5e:	bf5c      	itt	pl
10002c60:	6803      	ldrpl	r3, [r0, #0]
10002c62:	ea5f 7343 	movspl.w	r3, r3, lsl #29
10002c66:	d402      	bmi.n	10002c6e <GLCD_Initialize+0x249e>
10002c68:	6803      	ldr	r3, [r0, #0]
10002c6a:	075b      	lsls	r3, r3, #29
10002c6c:	d5f2      	bpl.n	10002c54 <GLCD_Initialize+0x2484>
10002c6e:	f850 3c04 	ldr.w	r3, [r0, #-4]
10002c72:	2300      	movs	r3, #0
10002c74:	f840 3c04 	str.w	r3, [r0, #-4]
10002c78:	6803      	ldr	r3, [r0, #0]
10002c7a:	075b      	lsls	r3, r3, #29
10002c7c:	d409      	bmi.n	10002c92 <GLCD_Initialize+0x24c2>
10002c7e:	6803      	ldr	r3, [r0, #0]
10002c80:	075b      	lsls	r3, r3, #29
10002c82:	bf5c      	itt	pl
10002c84:	6803      	ldrpl	r3, [r0, #0]
10002c86:	ea5f 7343 	movspl.w	r3, r3, lsl #29
10002c8a:	d402      	bmi.n	10002c92 <GLCD_Initialize+0x24c2>
10002c8c:	6803      	ldr	r3, [r0, #0]
10002c8e:	075b      	lsls	r3, r3, #29
10002c90:	d5f2      	bpl.n	10002c78 <GLCD_Initialize+0x24a8>
10002c92:	f850 3c04 	ldr.w	r3, [r0, #-4]
10002c96:	2324      	movs	r3, #36	@ 0x24
10002c98:	f840 3c04 	str.w	r3, [r0, #-4]
10002c9c:	6803      	ldr	r3, [r0, #0]
10002c9e:	075b      	lsls	r3, r3, #29
10002ca0:	d409      	bmi.n	10002cb6 <GLCD_Initialize+0x24e6>
10002ca2:	6803      	ldr	r3, [r0, #0]
10002ca4:	075b      	lsls	r3, r3, #29
10002ca6:	bf5c      	itt	pl
10002ca8:	6803      	ldrpl	r3, [r0, #0]
10002caa:	ea5f 7343 	movspl.w	r3, r3, lsl #29
10002cae:	d402      	bmi.n	10002cb6 <GLCD_Initialize+0x24e6>
10002cb0:	6803      	ldr	r3, [r0, #0]
10002cb2:	075b      	lsls	r3, r3, #29
10002cb4:	d5f2      	bpl.n	10002c9c <GLCD_Initialize+0x24cc>
10002cb6:	f850 3c04 	ldr.w	r3, [r0, #-4]
10002cba:	680b      	ldr	r3, [r1, #0]
10002cbc:	f043 0301 	orr.w	r3, r3, #1
10002cc0:	600b      	str	r3, [r1, #0]
10002cc2:	6813      	ldr	r3, [r2, #0]
10002cc4:	f023 0301 	bic.w	r3, r3, #1
10002cc8:	6013      	str	r3, [r2, #0]
10002cca:	2372      	movs	r3, #114	@ 0x72
10002ccc:	f840 3c04 	str.w	r3, [r0, #-4]
10002cd0:	6803      	ldr	r3, [r0, #0]
10002cd2:	075b      	lsls	r3, r3, #29
10002cd4:	d409      	bmi.n	10002cea <GLCD_Initialize+0x251a>
10002cd6:	6803      	ldr	r3, [r0, #0]
10002cd8:	075b      	lsls	r3, r3, #29
10002cda:	bf5c      	itt	pl
10002cdc:	6803      	ldrpl	r3, [r0, #0]
10002cde:	ea5f 7343 	movspl.w	r3, r3, lsl #29
10002ce2:	d402      	bmi.n	10002cea <GLCD_Initialize+0x251a>
10002ce4:	6803      	ldr	r3, [r0, #0]
10002ce6:	075b      	lsls	r3, r3, #29
10002ce8:	d5f2      	bpl.n	10002cd0 <GLCD_Initialize+0x2500>
10002cea:	f850 3c04 	ldr.w	r3, [r0, #-4]
10002cee:	2300      	movs	r3, #0
10002cf0:	f840 3c04 	str.w	r3, [r0, #-4]
10002cf4:	6803      	ldr	r3, [r0, #0]
10002cf6:	075b      	lsls	r3, r3, #29
10002cf8:	d409      	bmi.n	10002d0e <GLCD_Initialize+0x253e>
10002cfa:	6803      	ldr	r3, [r0, #0]
10002cfc:	075b      	lsls	r3, r3, #29
10002cfe:	bf5c      	itt	pl
10002d00:	6803      	ldrpl	r3, [r0, #0]
10002d02:	ea5f 7343 	movspl.w	r3, r3, lsl #29
10002d06:	d402      	bmi.n	10002d0e <GLCD_Initialize+0x253e>
10002d08:	6803      	ldr	r3, [r0, #0]
10002d0a:	075b      	lsls	r3, r3, #29
10002d0c:	d5f2      	bpl.n	10002cf4 <GLCD_Initialize+0x2524>
10002d0e:	f850 3c04 	ldr.w	r3, [r0, #-4]
10002d12:	232f      	movs	r3, #47	@ 0x2f
10002d14:	f840 3c04 	str.w	r3, [r0, #-4]
10002d18:	6803      	ldr	r3, [r0, #0]
10002d1a:	075b      	lsls	r3, r3, #29
10002d1c:	d409      	bmi.n	10002d32 <GLCD_Initialize+0x2562>
10002d1e:	6803      	ldr	r3, [r0, #0]
10002d20:	075b      	lsls	r3, r3, #29
10002d22:	bf5c      	itt	pl
10002d24:	6803      	ldrpl	r3, [r0, #0]
10002d26:	ea5f 7343 	movspl.w	r3, r3, lsl #29
10002d2a:	d402      	bmi.n	10002d32 <GLCD_Initialize+0x2562>
10002d2c:	6803      	ldr	r3, [r0, #0]
10002d2e:	075b      	lsls	r3, r3, #29
10002d30:	d5f2      	bpl.n	10002d18 <GLCD_Initialize+0x2548>
10002d32:	f850 3c04 	ldr.w	r3, [r0, #-4]
10002d36:	680b      	ldr	r3, [r1, #0]
10002d38:	f043 0301 	orr.w	r3, r3, #1
10002d3c:	600b      	str	r3, [r1, #0]
10002d3e:	6813      	ldr	r3, [r2, #0]
10002d40:	f023 0301 	bic.w	r3, r3, #1
10002d44:	6013      	str	r3, [r2, #0]
10002d46:	2370      	movs	r3, #112	@ 0x70
10002d48:	f840 3c04 	str.w	r3, [r0, #-4]
10002d4c:	6803      	ldr	r3, [r0, #0]
10002d4e:	075b      	lsls	r3, r3, #29
10002d50:	d409      	bmi.n	10002d66 <GLCD_Initialize+0x2596>
10002d52:	6803      	ldr	r3, [r0, #0]
10002d54:	075b      	lsls	r3, r3, #29
10002d56:	bf5c      	itt	pl
10002d58:	6803      	ldrpl	r3, [r0, #0]
10002d5a:	ea5f 7343 	movspl.w	r3, r3, lsl #29
10002d5e:	d402      	bmi.n	10002d66 <GLCD_Initialize+0x2596>
10002d60:	6803      	ldr	r3, [r0, #0]
10002d62:	075b      	lsls	r3, r3, #29
10002d64:	d5f2      	bpl.n	10002d4c <GLCD_Initialize+0x257c>
10002d66:	f850 3c04 	ldr.w	r3, [r0, #-4]
10002d6a:	2300      	movs	r3, #0
10002d6c:	f840 3c04 	str.w	r3, [r0, #-4]
10002d70:	6803      	ldr	r3, [r0, #0]
10002d72:	075b      	lsls	r3, r3, #29
10002d74:	d409      	bmi.n	10002d8a <GLCD_Initialize+0x25ba>
10002d76:	6803      	ldr	r3, [r0, #0]
10002d78:	075b      	lsls	r3, r3, #29
10002d7a:	bf5c      	itt	pl
10002d7c:	6803      	ldrpl	r3, [r0, #0]
10002d7e:	ea5f 7343 	movspl.w	r3, r3, lsl #29
10002d82:	d402      	bmi.n	10002d8a <GLCD_Initialize+0x25ba>
10002d84:	6803      	ldr	r3, [r0, #0]
10002d86:	075b      	lsls	r3, r3, #29
10002d88:	d5f2      	bpl.n	10002d70 <GLCD_Initialize+0x25a0>
10002d8a:	f850 3c04 	ldr.w	r3, [r0, #-4]
10002d8e:	2325      	movs	r3, #37	@ 0x25
10002d90:	f840 3c04 	str.w	r3, [r0, #-4]
10002d94:	6803      	ldr	r3, [r0, #0]
10002d96:	075b      	lsls	r3, r3, #29
10002d98:	d409      	bmi.n	10002dae <GLCD_Initialize+0x25de>
10002d9a:	6803      	ldr	r3, [r0, #0]
10002d9c:	075b      	lsls	r3, r3, #29
10002d9e:	bf5c      	itt	pl
10002da0:	6803      	ldrpl	r3, [r0, #0]
10002da2:	ea5f 7343 	movspl.w	r3, r3, lsl #29
10002da6:	d402      	bmi.n	10002dae <GLCD_Initialize+0x25de>
10002da8:	6803      	ldr	r3, [r0, #0]
10002daa:	075b      	lsls	r3, r3, #29
10002dac:	d5f2      	bpl.n	10002d94 <GLCD_Initialize+0x25c4>
10002dae:	f850 3c04 	ldr.w	r3, [r0, #-4]
10002db2:	680b      	ldr	r3, [r1, #0]
10002db4:	f043 0301 	orr.w	r3, r3, #1
10002db8:	600b      	str	r3, [r1, #0]
10002dba:	6813      	ldr	r3, [r2, #0]
10002dbc:	f023 0301 	bic.w	r3, r3, #1
10002dc0:	6013      	str	r3, [r2, #0]
10002dc2:	2372      	movs	r3, #114	@ 0x72
10002dc4:	f840 3c04 	str.w	r3, [r0, #-4]
10002dc8:	6803      	ldr	r3, [r0, #0]
10002dca:	075b      	lsls	r3, r3, #29
10002dcc:	d409      	bmi.n	10002de2 <GLCD_Initialize+0x2612>
10002dce:	6803      	ldr	r3, [r0, #0]
10002dd0:	075b      	lsls	r3, r3, #29
10002dd2:	bf5c      	itt	pl
10002dd4:	6803      	ldrpl	r3, [r0, #0]
10002dd6:	ea5f 7343 	movspl.w	r3, r3, lsl #29
10002dda:	d402      	bmi.n	10002de2 <GLCD_Initialize+0x2612>
10002ddc:	6803      	ldr	r3, [r0, #0]
10002dde:	075b      	lsls	r3, r3, #29
10002de0:	d5f2      	bpl.n	10002dc8 <GLCD_Initialize+0x25f8>
10002de2:	f850 3c04 	ldr.w	r3, [r0, #-4]
10002de6:	2300      	movs	r3, #0
10002de8:	f840 3c04 	str.w	r3, [r0, #-4]
10002dec:	6803      	ldr	r3, [r0, #0]
10002dee:	075b      	lsls	r3, r3, #29
10002df0:	d409      	bmi.n	10002e06 <GLCD_Initialize+0x2636>
10002df2:	6803      	ldr	r3, [r0, #0]
10002df4:	075b      	lsls	r3, r3, #29
10002df6:	bf5c      	itt	pl
10002df8:	6803      	ldrpl	r3, [r0, #0]
10002dfa:	ea5f 7343 	movspl.w	r3, r3, lsl #29
10002dfe:	d402      	bmi.n	10002e06 <GLCD_Initialize+0x2636>
10002e00:	6803      	ldr	r3, [r0, #0]
10002e02:	075b      	lsls	r3, r3, #29
10002e04:	d5f2      	bpl.n	10002dec <GLCD_Initialize+0x261c>
10002e06:	f850 3c04 	ldr.w	r3, [r0, #-4]
10002e0a:	2357      	movs	r3, #87	@ 0x57
10002e0c:	f840 3c04 	str.w	r3, [r0, #-4]
10002e10:	6803      	ldr	r3, [r0, #0]
10002e12:	075b      	lsls	r3, r3, #29
10002e14:	d409      	bmi.n	10002e2a <GLCD_Initialize+0x265a>
10002e16:	6803      	ldr	r3, [r0, #0]
10002e18:	075b      	lsls	r3, r3, #29
10002e1a:	bf5c      	itt	pl
10002e1c:	6803      	ldrpl	r3, [r0, #0]
10002e1e:	ea5f 7343 	movspl.w	r3, r3, lsl #29
10002e22:	d402      	bmi.n	10002e2a <GLCD_Initialize+0x265a>
10002e24:	6803      	ldr	r3, [r0, #0]
10002e26:	075b      	lsls	r3, r3, #29
10002e28:	d5f2      	bpl.n	10002e10 <GLCD_Initialize+0x2640>
10002e2a:	f850 3c04 	ldr.w	r3, [r0, #-4]
10002e2e:	680b      	ldr	r3, [r1, #0]
10002e30:	f043 0301 	orr.w	r3, r3, #1
10002e34:	600b      	str	r3, [r1, #0]
10002e36:	6813      	ldr	r3, [r2, #0]
10002e38:	f023 0301 	bic.w	r3, r3, #1
10002e3c:	6013      	str	r3, [r2, #0]
10002e3e:	2370      	movs	r3, #112	@ 0x70
10002e40:	f840 3c04 	str.w	r3, [r0, #-4]
10002e44:	6803      	ldr	r3, [r0, #0]
10002e46:	075b      	lsls	r3, r3, #29
10002e48:	d409      	bmi.n	10002e5e <GLCD_Initialize+0x268e>
10002e4a:	6803      	ldr	r3, [r0, #0]
10002e4c:	075b      	lsls	r3, r3, #29
10002e4e:	bf5c      	itt	pl
10002e50:	6803      	ldrpl	r3, [r0, #0]
10002e52:	ea5f 7343 	movspl.w	r3, r3, lsl #29
10002e56:	d402      	bmi.n	10002e5e <GLCD_Initialize+0x268e>
10002e58:	6803      	ldr	r3, [r0, #0]
10002e5a:	075b      	lsls	r3, r3, #29
10002e5c:	d5f2      	bpl.n	10002e44 <GLCD_Initialize+0x2674>
10002e5e:	f850 3c04 	ldr.w	r3, [r0, #-4]
10002e62:	2300      	movs	r3, #0
10002e64:	f840 3c04 	str.w	r3, [r0, #-4]
10002e68:	6803      	ldr	r3, [r0, #0]
10002e6a:	075b      	lsls	r3, r3, #29
10002e6c:	d409      	bmi.n	10002e82 <GLCD_Initialize+0x26b2>
10002e6e:	6803      	ldr	r3, [r0, #0]
10002e70:	075b      	lsls	r3, r3, #29
10002e72:	bf5c      	itt	pl
10002e74:	6803      	ldrpl	r3, [r0, #0]
10002e76:	ea5f 7343 	movspl.w	r3, r3, lsl #29
10002e7a:	d402      	bmi.n	10002e82 <GLCD_Initialize+0x26b2>
10002e7c:	6803      	ldr	r3, [r0, #0]
10002e7e:	075b      	lsls	r3, r3, #29
10002e80:	d5f2      	bpl.n	10002e68 <GLCD_Initialize+0x2698>
10002e82:	f850 3c04 	ldr.w	r3, [r0, #-4]
10002e86:	2323      	movs	r3, #35	@ 0x23
10002e88:	f840 3c04 	str.w	r3, [r0, #-4]
10002e8c:	6803      	ldr	r3, [r0, #0]
10002e8e:	075b      	lsls	r3, r3, #29
10002e90:	d409      	bmi.n	10002ea6 <GLCD_Initialize+0x26d6>
10002e92:	6803      	ldr	r3, [r0, #0]
10002e94:	075b      	lsls	r3, r3, #29
10002e96:	bf5c      	itt	pl
10002e98:	6803      	ldrpl	r3, [r0, #0]
10002e9a:	ea5f 7343 	movspl.w	r3, r3, lsl #29
10002e9e:	d402      	bmi.n	10002ea6 <GLCD_Initialize+0x26d6>
10002ea0:	6803      	ldr	r3, [r0, #0]
10002ea2:	075b      	lsls	r3, r3, #29
10002ea4:	d5f2      	bpl.n	10002e8c <GLCD_Initialize+0x26bc>
10002ea6:	f850 3c04 	ldr.w	r3, [r0, #-4]
10002eaa:	680b      	ldr	r3, [r1, #0]
10002eac:	f043 0301 	orr.w	r3, r3, #1
10002eb0:	600b      	str	r3, [r1, #0]
10002eb2:	6813      	ldr	r3, [r2, #0]
10002eb4:	f023 0301 	bic.w	r3, r3, #1
10002eb8:	6013      	str	r3, [r2, #0]
10002eba:	2372      	movs	r3, #114	@ 0x72
10002ebc:	f840 3c04 	str.w	r3, [r0, #-4]
10002ec0:	6803      	ldr	r3, [r0, #0]
10002ec2:	075b      	lsls	r3, r3, #29
10002ec4:	d409      	bmi.n	10002eda <GLCD_Initialize+0x270a>
10002ec6:	6803      	ldr	r3, [r0, #0]
10002ec8:	075b      	lsls	r3, r3, #29
10002eca:	bf5c      	itt	pl
10002ecc:	6803      	ldrpl	r3, [r0, #0]
10002ece:	ea5f 7343 	movspl.w	r3, r3, lsl #29
10002ed2:	d402      	bmi.n	10002eda <GLCD_Initialize+0x270a>
10002ed4:	6803      	ldr	r3, [r0, #0]
10002ed6:	075b      	lsls	r3, r3, #29
10002ed8:	d5f2      	bpl.n	10002ec0 <GLCD_Initialize+0x26f0>
10002eda:	f850 3c04 	ldr.w	r3, [r0, #-4]
10002ede:	2300      	movs	r3, #0
10002ee0:	f840 3c04 	str.w	r3, [r0, #-4]
10002ee4:	6803      	ldr	r3, [r0, #0]
10002ee6:	075b      	lsls	r3, r3, #29
10002ee8:	d409      	bmi.n	10002efe <GLCD_Initialize+0x272e>
10002eea:	6803      	ldr	r3, [r0, #0]
10002eec:	075b      	lsls	r3, r3, #29
10002eee:	bf5c      	itt	pl
10002ef0:	6803      	ldrpl	r3, [r0, #0]
10002ef2:	ea5f 7343 	movspl.w	r3, r3, lsl #29
10002ef6:	d402      	bmi.n	10002efe <GLCD_Initialize+0x272e>
10002ef8:	6803      	ldr	r3, [r0, #0]
10002efa:	075b      	lsls	r3, r3, #29
10002efc:	d5f2      	bpl.n	10002ee4 <GLCD_Initialize+0x2714>
10002efe:	f850 3c04 	ldr.w	r3, [r0, #-4]
10002f02:	2388      	movs	r3, #136	@ 0x88
10002f04:	f840 3c04 	str.w	r3, [r0, #-4]
10002f08:	6803      	ldr	r3, [r0, #0]
10002f0a:	075b      	lsls	r3, r3, #29
10002f0c:	d409      	bmi.n	10002f22 <GLCD_Initialize+0x2752>
10002f0e:	6803      	ldr	r3, [r0, #0]
10002f10:	075b      	lsls	r3, r3, #29
10002f12:	bf5c      	itt	pl
10002f14:	6803      	ldrpl	r3, [r0, #0]
10002f16:	ea5f 7343 	movspl.w	r3, r3, lsl #29
10002f1a:	d402      	bmi.n	10002f22 <GLCD_Initialize+0x2752>
10002f1c:	6803      	ldr	r3, [r0, #0]
10002f1e:	075b      	lsls	r3, r3, #29
10002f20:	d5f2      	bpl.n	10002f08 <GLCD_Initialize+0x2738>
10002f22:	f850 3c04 	ldr.w	r3, [r0, #-4]
10002f26:	680b      	ldr	r3, [r1, #0]
10002f28:	f043 0301 	orr.w	r3, r3, #1
10002f2c:	600b      	str	r3, [r1, #0]
10002f2e:	6813      	ldr	r3, [r2, #0]
10002f30:	f023 0301 	bic.w	r3, r3, #1
10002f34:	6013      	str	r3, [r2, #0]
10002f36:	2370      	movs	r3, #112	@ 0x70
10002f38:	f840 3c04 	str.w	r3, [r0, #-4]
10002f3c:	6803      	ldr	r3, [r0, #0]
10002f3e:	075b      	lsls	r3, r3, #29
10002f40:	d409      	bmi.n	10002f56 <GLCD_Initialize+0x2786>
10002f42:	6803      	ldr	r3, [r0, #0]
10002f44:	075b      	lsls	r3, r3, #29
10002f46:	bf5c      	itt	pl
10002f48:	6803      	ldrpl	r3, [r0, #0]
10002f4a:	ea5f 7343 	movspl.w	r3, r3, lsl #29
10002f4e:	d402      	bmi.n	10002f56 <GLCD_Initialize+0x2786>
10002f50:	6803      	ldr	r3, [r0, #0]
10002f52:	075b      	lsls	r3, r3, #29
10002f54:	d5f2      	bpl.n	10002f3c <GLCD_Initialize+0x276c>
10002f56:	f850 3c04 	ldr.w	r3, [r0, #-4]
10002f5a:	2300      	movs	r3, #0
10002f5c:	f840 3c04 	str.w	r3, [r0, #-4]
10002f60:	6803      	ldr	r3, [r0, #0]
10002f62:	075b      	lsls	r3, r3, #29
10002f64:	d409      	bmi.n	10002f7a <GLCD_Initialize+0x27aa>
10002f66:	6803      	ldr	r3, [r0, #0]
10002f68:	075b      	lsls	r3, r3, #29
10002f6a:	bf5c      	itt	pl
10002f6c:	6803      	ldrpl	r3, [r0, #0]
10002f6e:	ea5f 7343 	movspl.w	r3, r3, lsl #29
10002f72:	d402      	bmi.n	10002f7a <GLCD_Initialize+0x27aa>
10002f74:	6803      	ldr	r3, [r0, #0]
10002f76:	075b      	lsls	r3, r3, #29
10002f78:	d5f2      	bpl.n	10002f60 <GLCD_Initialize+0x2790>
10002f7a:	f850 3c04 	ldr.w	r3, [r0, #-4]
10002f7e:	2318      	movs	r3, #24
10002f80:	f840 3c04 	str.w	r3, [r0, #-4]
10002f84:	6803      	ldr	r3, [r0, #0]
10002f86:	075b      	lsls	r3, r3, #29
10002f88:	d409      	bmi.n	10002f9e <GLCD_Initialize+0x27ce>
10002f8a:	6803      	ldr	r3, [r0, #0]
10002f8c:	075b      	lsls	r3, r3, #29
10002f8e:	bf5c      	itt	pl
10002f90:	6803      	ldrpl	r3, [r0, #0]
10002f92:	ea5f 7343 	movspl.w	r3, r3, lsl #29
10002f96:	d402      	bmi.n	10002f9e <GLCD_Initialize+0x27ce>
10002f98:	6803      	ldr	r3, [r0, #0]
10002f9a:	075b      	lsls	r3, r3, #29
10002f9c:	d5f2      	bpl.n	10002f84 <GLCD_Initialize+0x27b4>
10002f9e:	f850 3c04 	ldr.w	r3, [r0, #-4]
10002fa2:	680b      	ldr	r3, [r1, #0]
10002fa4:	f043 0301 	orr.w	r3, r3, #1
10002fa8:	600b      	str	r3, [r1, #0]
10002faa:	6813      	ldr	r3, [r2, #0]
10002fac:	f023 0301 	bic.w	r3, r3, #1
10002fb0:	6013      	str	r3, [r2, #0]
10002fb2:	2372      	movs	r3, #114	@ 0x72
10002fb4:	f840 3c04 	str.w	r3, [r0, #-4]
10002fb8:	6803      	ldr	r3, [r0, #0]
10002fba:	075b      	lsls	r3, r3, #29
10002fbc:	d409      	bmi.n	10002fd2 <GLCD_Initialize+0x2802>
10002fbe:	6803      	ldr	r3, [r0, #0]
10002fc0:	075b      	lsls	r3, r3, #29
10002fc2:	bf5c      	itt	pl
10002fc4:	6803      	ldrpl	r3, [r0, #0]
10002fc6:	ea5f 7343 	movspl.w	r3, r3, lsl #29
10002fca:	d402      	bmi.n	10002fd2 <GLCD_Initialize+0x2802>
10002fcc:	6803      	ldr	r3, [r0, #0]
10002fce:	075b      	lsls	r3, r3, #29
10002fd0:	d5f2      	bpl.n	10002fb8 <GLCD_Initialize+0x27e8>
10002fd2:	f850 3c04 	ldr.w	r3, [r0, #-4]
10002fd6:	2300      	movs	r3, #0
10002fd8:	f840 3c04 	str.w	r3, [r0, #-4]
10002fdc:	6803      	ldr	r3, [r0, #0]
10002fde:	075b      	lsls	r3, r3, #29
10002fe0:	d409      	bmi.n	10002ff6 <GLCD_Initialize+0x2826>
10002fe2:	6803      	ldr	r3, [r0, #0]
10002fe4:	075b      	lsls	r3, r3, #29
10002fe6:	bf5c      	itt	pl
10002fe8:	6803      	ldrpl	r3, [r0, #0]
10002fea:	ea5f 7343 	movspl.w	r3, r3, lsl #29
10002fee:	d402      	bmi.n	10002ff6 <GLCD_Initialize+0x2826>
10002ff0:	6803      	ldr	r3, [r0, #0]
10002ff2:	075b      	lsls	r3, r3, #29
10002ff4:	d5f2      	bpl.n	10002fdc <GLCD_Initialize+0x280c>
10002ff6:	f850 3c04 	ldr.w	r3, [r0, #-4]
10002ffa:	2336      	movs	r3, #54	@ 0x36
10002ffc:	f840 3c04 	str.w	r3, [r0, #-4]
10003000:	6803      	ldr	r3, [r0, #0]
10003002:	075b      	lsls	r3, r3, #29
10003004:	d409      	bmi.n	1000301a <GLCD_Initialize+0x284a>
10003006:	6803      	ldr	r3, [r0, #0]
10003008:	075b      	lsls	r3, r3, #29
1000300a:	bf5c      	itt	pl
1000300c:	6803      	ldrpl	r3, [r0, #0]
1000300e:	ea5f 7343 	movspl.w	r3, r3, lsl #29
10003012:	d402      	bmi.n	1000301a <GLCD_Initialize+0x284a>
10003014:	6803      	ldr	r3, [r0, #0]
10003016:	075b      	lsls	r3, r3, #29
10003018:	d5f2      	bpl.n	10003000 <GLCD_Initialize+0x2830>
1000301a:	f850 3c04 	ldr.w	r3, [r0, #-4]
1000301e:	680b      	ldr	r3, [r1, #0]
10003020:	f043 0301 	orr.w	r3, r3, #1
10003024:	600b      	str	r3, [r1, #0]
10003026:	6813      	ldr	r3, [r2, #0]
10003028:	f023 0301 	bic.w	r3, r3, #1
1000302c:	6013      	str	r3, [r2, #0]
1000302e:	2370      	movs	r3, #112	@ 0x70
10003030:	f840 3c04 	str.w	r3, [r0, #-4]
10003034:	6803      	ldr	r3, [r0, #0]
10003036:	075b      	lsls	r3, r3, #29
10003038:	d409      	bmi.n	1000304e <GLCD_Initialize+0x287e>
1000303a:	6803      	ldr	r3, [r0, #0]
1000303c:	075b      	lsls	r3, r3, #29
1000303e:	bf5c      	itt	pl
10003040:	6803      	ldrpl	r3, [r0, #0]
10003042:	ea5f 7343 	movspl.w	r3, r3, lsl #29
10003046:	d402      	bmi.n	1000304e <GLCD_Initialize+0x287e>
10003048:	6803      	ldr	r3, [r0, #0]
1000304a:	075b      	lsls	r3, r3, #29
1000304c:	d5f2      	bpl.n	10003034 <GLCD_Initialize+0x2864>
1000304e:	f850 3c04 	ldr.w	r3, [r0, #-4]
10003052:	2300      	movs	r3, #0
10003054:	f840 3c04 	str.w	r3, [r0, #-4]
10003058:	6803      	ldr	r3, [r0, #0]
1000305a:	075b      	lsls	r3, r3, #29
1000305c:	d409      	bmi.n	10003072 <GLCD_Initialize+0x28a2>
1000305e:	6803      	ldr	r3, [r0, #0]
10003060:	075b      	lsls	r3, r3, #29
10003062:	bf5c      	itt	pl
10003064:	6803      	ldrpl	r3, [r0, #0]
10003066:	ea5f 7343 	movspl.w	r3, r3, lsl #29
1000306a:	d402      	bmi.n	10003072 <GLCD_Initialize+0x28a2>
1000306c:	6803      	ldr	r3, [r0, #0]
1000306e:	075b      	lsls	r3, r3, #29
10003070:	d5f2      	bpl.n	10003058 <GLCD_Initialize+0x2888>
10003072:	f850 3c04 	ldr.w	r3, [r0, #-4]
10003076:	2319      	movs	r3, #25
10003078:	f840 3c04 	str.w	r3, [r0, #-4]
1000307c:	6803      	ldr	r3, [r0, #0]
1000307e:	075b      	lsls	r3, r3, #29
10003080:	d409      	bmi.n	10003096 <GLCD_Initialize+0x28c6>
10003082:	6803      	ldr	r3, [r0, #0]
10003084:	075b      	lsls	r3, r3, #29
10003086:	bf5c      	itt	pl
10003088:	6803      	ldrpl	r3, [r0, #0]
1000308a:	ea5f 7343 	movspl.w	r3, r3, lsl #29
1000308e:	d402      	bmi.n	10003096 <GLCD_Initialize+0x28c6>
10003090:	6803      	ldr	r3, [r0, #0]
10003092:	075b      	lsls	r3, r3, #29
10003094:	d5f2      	bpl.n	1000307c <GLCD_Initialize+0x28ac>
10003096:	f850 3c04 	ldr.w	r3, [r0, #-4]
1000309a:	680b      	ldr	r3, [r1, #0]
1000309c:	f043 0301 	orr.w	r3, r3, #1
100030a0:	600b      	str	r3, [r1, #0]
100030a2:	6813      	ldr	r3, [r2, #0]
100030a4:	f023 0301 	bic.w	r3, r3, #1
100030a8:	6013      	str	r3, [r2, #0]
100030aa:	2372      	movs	r3, #114	@ 0x72
100030ac:	f840 3c04 	str.w	r3, [r0, #-4]
100030b0:	6803      	ldr	r3, [r0, #0]
100030b2:	075b      	lsls	r3, r3, #29
100030b4:	d409      	bmi.n	100030ca <GLCD_Initialize+0x28fa>
100030b6:	6803      	ldr	r3, [r0, #0]
100030b8:	075b      	lsls	r3, r3, #29
100030ba:	bf5c      	itt	pl
100030bc:	6803      	ldrpl	r3, [r0, #0]
100030be:	ea5f 7343 	movspl.w	r3, r3, lsl #29
100030c2:	d402      	bmi.n	100030ca <GLCD_Initialize+0x28fa>
100030c4:	6803      	ldr	r3, [r0, #0]
100030c6:	075b      	lsls	r3, r3, #29
100030c8:	d5f2      	bpl.n	100030b0 <GLCD_Initialize+0x28e0>
100030ca:	f850 3c04 	ldr.w	r3, [r0, #-4]
100030ce:	2300      	movs	r3, #0
100030d0:	f840 3c04 	str.w	r3, [r0, #-4]
100030d4:	6803      	ldr	r3, [r0, #0]
100030d6:	075b      	lsls	r3, r3, #29
100030d8:	d409      	bmi.n	100030ee <GLCD_Initialize+0x291e>
100030da:	6803      	ldr	r3, [r0, #0]
100030dc:	075b      	lsls	r3, r3, #29
100030de:	bf5c      	itt	pl
100030e0:	6803      	ldrpl	r3, [r0, #0]
100030e2:	ea5f 7343 	movspl.w	r3, r3, lsl #29
100030e6:	d402      	bmi.n	100030ee <GLCD_Initialize+0x291e>
100030e8:	6803      	ldr	r3, [r0, #0]
100030ea:	075b      	lsls	r3, r3, #29
100030ec:	d5f2      	bpl.n	100030d4 <GLCD_Initialize+0x2904>
100030ee:	f850 3c04 	ldr.w	r3, [r0, #-4]
100030f2:	2301      	movs	r3, #1
100030f4:	f840 3c04 	str.w	r3, [r0, #-4]
100030f8:	6803      	ldr	r3, [r0, #0]
100030fa:	075b      	lsls	r3, r3, #29
100030fc:	d409      	bmi.n	10003112 <GLCD_Initialize+0x2942>
100030fe:	6803      	ldr	r3, [r0, #0]
10003100:	075b      	lsls	r3, r3, #29
10003102:	bf5c      	itt	pl
10003104:	6803      	ldrpl	r3, [r0, #0]
10003106:	ea5f 7343 	movspl.w	r3, r3, lsl #29
1000310a:	d402      	bmi.n	10003112 <GLCD_Initialize+0x2942>
1000310c:	6803      	ldr	r3, [r0, #0]
1000310e:	075b      	lsls	r3, r3, #29
10003110:	d5f2      	bpl.n	100030f8 <GLCD_Initialize+0x2928>
10003112:	f850 3c04 	ldr.w	r3, [r0, #-4]
10003116:	680b      	ldr	r3, [r1, #0]
10003118:	f043 0301 	orr.w	r3, r3, #1
1000311c:	600b      	str	r3, [r1, #0]
1000311e:	6813      	ldr	r3, [r2, #0]
10003120:	f023 0301 	bic.w	r3, r3, #1
10003124:	6013      	str	r3, [r2, #0]
10003126:	2370      	movs	r3, #112	@ 0x70
10003128:	f840 3c04 	str.w	r3, [r0, #-4]
1000312c:	6803      	ldr	r3, [r0, #0]
1000312e:	075b      	lsls	r3, r3, #29
10003130:	d409      	bmi.n	10003146 <GLCD_Initialize+0x2976>
10003132:	6803      	ldr	r3, [r0, #0]
10003134:	075b      	lsls	r3, r3, #29
10003136:	bf5c      	itt	pl
10003138:	6803      	ldrpl	r3, [r0, #0]
1000313a:	ea5f 7343 	movspl.w	r3, r3, lsl #29
1000313e:	d402      	bmi.n	10003146 <GLCD_Initialize+0x2976>
10003140:	6803      	ldr	r3, [r0, #0]
10003142:	075b      	lsls	r3, r3, #29
10003144:	d5f2      	bpl.n	1000312c <GLCD_Initialize+0x295c>
10003146:	f850 3c04 	ldr.w	r3, [r0, #-4]
1000314a:	2300      	movs	r3, #0
1000314c:	f840 3c04 	str.w	r3, [r0, #-4]
10003150:	6803      	ldr	r3, [r0, #0]
10003152:	075b      	lsls	r3, r3, #29
10003154:	d409      	bmi.n	1000316a <GLCD_Initialize+0x299a>
10003156:	6803      	ldr	r3, [r0, #0]
10003158:	075b      	lsls	r3, r3, #29
1000315a:	bf5c      	itt	pl
1000315c:	6803      	ldrpl	r3, [r0, #0]
1000315e:	ea5f 7343 	movspl.w	r3, r3, lsl #29
10003162:	d402      	bmi.n	1000316a <GLCD_Initialize+0x299a>
10003164:	6803      	ldr	r3, [r0, #0]
10003166:	075b      	lsls	r3, r3, #29
10003168:	d5f2      	bpl.n	10003150 <GLCD_Initialize+0x2980>
1000316a:	f850 3c04 	ldr.w	r3, [r0, #-4]
1000316e:	2301      	movs	r3, #1
10003170:	f840 3c04 	str.w	r3, [r0, #-4]
10003174:	6803      	ldr	r3, [r0, #0]
10003176:	075b      	lsls	r3, r3, #29
10003178:	d409      	bmi.n	1000318e <GLCD_Initialize+0x29be>
1000317a:	6803      	ldr	r3, [r0, #0]
1000317c:	075b      	lsls	r3, r3, #29
1000317e:	bf5c      	itt	pl
10003180:	6803      	ldrpl	r3, [r0, #0]
10003182:	ea5f 7343 	movspl.w	r3, r3, lsl #29
10003186:	d402      	bmi.n	1000318e <GLCD_Initialize+0x29be>
10003188:	6803      	ldr	r3, [r0, #0]
1000318a:	075b      	lsls	r3, r3, #29
1000318c:	d5f2      	bpl.n	10003174 <GLCD_Initialize+0x29a4>
1000318e:	f850 3c04 	ldr.w	r3, [r0, #-4]
10003192:	680b      	ldr	r3, [r1, #0]
10003194:	f043 0301 	orr.w	r3, r3, #1
10003198:	600b      	str	r3, [r1, #0]
1000319a:	6813      	ldr	r3, [r2, #0]
1000319c:	f023 0301 	bic.w	r3, r3, #1
100031a0:	6013      	str	r3, [r2, #0]
100031a2:	2372      	movs	r3, #114	@ 0x72
100031a4:	f840 3c04 	str.w	r3, [r0, #-4]
100031a8:	6803      	ldr	r3, [r0, #0]
100031aa:	075b      	lsls	r3, r3, #29
100031ac:	d409      	bmi.n	100031c2 <GLCD_Initialize+0x29f2>
100031ae:	6803      	ldr	r3, [r0, #0]
100031b0:	075b      	lsls	r3, r3, #29
100031b2:	bf5c      	itt	pl
100031b4:	6803      	ldrpl	r3, [r0, #0]
100031b6:	ea5f 7343 	movspl.w	r3, r3, lsl #29
100031ba:	d402      	bmi.n	100031c2 <GLCD_Initialize+0x29f2>
100031bc:	6803      	ldr	r3, [r0, #0]
100031be:	075b      	lsls	r3, r3, #29
100031c0:	d5f2      	bpl.n	100031a8 <GLCD_Initialize+0x29d8>
100031c2:	f850 3c04 	ldr.w	r3, [r0, #-4]
100031c6:	2300      	movs	r3, #0
100031c8:	f840 3c04 	str.w	r3, [r0, #-4]
100031cc:	6803      	ldr	r3, [r0, #0]
100031ce:	075b      	lsls	r3, r3, #29
100031d0:	d409      	bmi.n	100031e6 <GLCD_Initialize+0x2a16>
100031d2:	6803      	ldr	r3, [r0, #0]
100031d4:	075b      	lsls	r3, r3, #29
100031d6:	bf5c      	itt	pl
100031d8:	6803      	ldrpl	r3, [r0, #0]
100031da:	ea5f 7343 	movspl.w	r3, r3, lsl #29
100031de:	d402      	bmi.n	100031e6 <GLCD_Initialize+0x2a16>
100031e0:	6803      	ldr	r3, [r0, #0]
100031e2:	075b      	lsls	r3, r3, #29
100031e4:	d5f2      	bpl.n	100031cc <GLCD_Initialize+0x29fc>
100031e6:	f850 3c04 	ldr.w	r3, [r0, #-4]
100031ea:	2300      	movs	r3, #0
100031ec:	f840 3c04 	str.w	r3, [r0, #-4]
100031f0:	6803      	ldr	r3, [r0, #0]
100031f2:	075b      	lsls	r3, r3, #29
100031f4:	d409      	bmi.n	1000320a <GLCD_Initialize+0x2a3a>
100031f6:	6803      	ldr	r3, [r0, #0]
100031f8:	075b      	lsls	r3, r3, #29
100031fa:	bf5c      	itt	pl
100031fc:	6803      	ldrpl	r3, [r0, #0]
100031fe:	ea5f 7343 	movspl.w	r3, r3, lsl #29
10003202:	d402      	bmi.n	1000320a <GLCD_Initialize+0x2a3a>
10003204:	6803      	ldr	r3, [r0, #0]
10003206:	075b      	lsls	r3, r3, #29
10003208:	d5f2      	bpl.n	100031f0 <GLCD_Initialize+0x2a20>
1000320a:	f850 3c04 	ldr.w	r3, [r0, #-4]
1000320e:	680b      	ldr	r3, [r1, #0]
10003210:	f043 0301 	orr.w	r3, r3, #1
10003214:	600b      	str	r3, [r1, #0]
10003216:	6813      	ldr	r3, [r2, #0]
10003218:	f023 0301 	bic.w	r3, r3, #1
1000321c:	6013      	str	r3, [r2, #0]
1000321e:	2370      	movs	r3, #112	@ 0x70
10003220:	f840 3c04 	str.w	r3, [r0, #-4]
10003224:	6803      	ldr	r3, [r0, #0]
10003226:	075b      	lsls	r3, r3, #29
10003228:	d409      	bmi.n	1000323e <GLCD_Initialize+0x2a6e>
1000322a:	6803      	ldr	r3, [r0, #0]
1000322c:	075b      	lsls	r3, r3, #29
1000322e:	bf5c      	itt	pl
10003230:	6803      	ldrpl	r3, [r0, #0]
10003232:	ea5f 7343 	movspl.w	r3, r3, lsl #29
10003236:	d402      	bmi.n	1000323e <GLCD_Initialize+0x2a6e>
10003238:	6803      	ldr	r3, [r0, #0]
1000323a:	075b      	lsls	r3, r3, #29
1000323c:	d5f2      	bpl.n	10003224 <GLCD_Initialize+0x2a54>
1000323e:	f850 3c04 	ldr.w	r3, [r0, #-4]
10003242:	2300      	movs	r3, #0
10003244:	f840 3c04 	str.w	r3, [r0, #-4]
10003248:	6803      	ldr	r3, [r0, #0]
1000324a:	075b      	lsls	r3, r3, #29
1000324c:	d409      	bmi.n	10003262 <GLCD_Initialize+0x2a92>
1000324e:	6803      	ldr	r3, [r0, #0]
10003250:	075b      	lsls	r3, r3, #29
10003252:	bf5c      	itt	pl
10003254:	6803      	ldrpl	r3, [r0, #0]
10003256:	ea5f 7343 	movspl.w	r3, r3, lsl #29
1000325a:	d402      	bmi.n	10003262 <GLCD_Initialize+0x2a92>
1000325c:	6803      	ldr	r3, [r0, #0]
1000325e:	075b      	lsls	r3, r3, #29
10003260:	d5f2      	bpl.n	10003248 <GLCD_Initialize+0x2a78>
10003262:	f850 3c04 	ldr.w	r3, [r0, #-4]
10003266:	231f      	movs	r3, #31
10003268:	f840 3c04 	str.w	r3, [r0, #-4]
1000326c:	6803      	ldr	r3, [r0, #0]
1000326e:	075b      	lsls	r3, r3, #29
10003270:	d409      	bmi.n	10003286 <GLCD_Initialize+0x2ab6>
10003272:	6803      	ldr	r3, [r0, #0]
10003274:	075b      	lsls	r3, r3, #29
10003276:	bf5c      	itt	pl
10003278:	6803      	ldrpl	r3, [r0, #0]
1000327a:	ea5f 7343 	movspl.w	r3, r3, lsl #29
1000327e:	d402      	bmi.n	10003286 <GLCD_Initialize+0x2ab6>
10003280:	6803      	ldr	r3, [r0, #0]
10003282:	075b      	lsls	r3, r3, #29
10003284:	d5f2      	bpl.n	1000326c <GLCD_Initialize+0x2a9c>
10003286:	f850 3c04 	ldr.w	r3, [r0, #-4]
1000328a:	680b      	ldr	r3, [r1, #0]
1000328c:	f043 0301 	orr.w	r3, r3, #1
10003290:	600b      	str	r3, [r1, #0]
10003292:	6813      	ldr	r3, [r2, #0]
10003294:	f023 0301 	bic.w	r3, r3, #1
10003298:	6013      	str	r3, [r2, #0]
1000329a:	2372      	movs	r3, #114	@ 0x72
1000329c:	f840 3c04 	str.w	r3, [r0, #-4]
100032a0:	6803      	ldr	r3, [r0, #0]
100032a2:	075b      	lsls	r3, r3, #29
100032a4:	d409      	bmi.n	100032ba <GLCD_Initialize+0x2aea>
100032a6:	6803      	ldr	r3, [r0, #0]
100032a8:	075b      	lsls	r3, r3, #29
100032aa:	bf5c      	itt	pl
100032ac:	6803      	ldrpl	r3, [r0, #0]
100032ae:	ea5f 7343 	movspl.w	r3, r3, lsl #29
100032b2:	d402      	bmi.n	100032ba <GLCD_Initialize+0x2aea>
100032b4:	6803      	ldr	r3, [r0, #0]
100032b6:	075b      	lsls	r3, r3, #29
100032b8:	d5f2      	bpl.n	100032a0 <GLCD_Initialize+0x2ad0>
100032ba:	f850 3c04 	ldr.w	r3, [r0, #-4]
100032be:	2300      	movs	r3, #0
100032c0:	f840 3c04 	str.w	r3, [r0, #-4]
100032c4:	6803      	ldr	r3, [r0, #0]
100032c6:	075b      	lsls	r3, r3, #29
100032c8:	d409      	bmi.n	100032de <GLCD_Initialize+0x2b0e>
100032ca:	6803      	ldr	r3, [r0, #0]
100032cc:	075b      	lsls	r3, r3, #29
100032ce:	bf5c      	itt	pl
100032d0:	6803      	ldrpl	r3, [r0, #0]
100032d2:	ea5f 7343 	movspl.w	r3, r3, lsl #29
100032d6:	d402      	bmi.n	100032de <GLCD_Initialize+0x2b0e>
100032d8:	6803      	ldr	r3, [r0, #0]
100032da:	075b      	lsls	r3, r3, #29
100032dc:	d5f2      	bpl.n	100032c4 <GLCD_Initialize+0x2af4>
100032de:	f850 3c04 	ldr.w	r3, [r0, #-4]
100032e2:	2388      	movs	r3, #136	@ 0x88
100032e4:	f840 3c04 	str.w	r3, [r0, #-4]
100032e8:	6803      	ldr	r3, [r0, #0]
100032ea:	075b      	lsls	r3, r3, #29
100032ec:	d409      	bmi.n	10003302 <GLCD_Initialize+0x2b32>
100032ee:	6803      	ldr	r3, [r0, #0]
100032f0:	075b      	lsls	r3, r3, #29
100032f2:	bf5c      	itt	pl
100032f4:	6803      	ldrpl	r3, [r0, #0]
100032f6:	ea5f 7343 	movspl.w	r3, r3, lsl #29
100032fa:	d402      	bmi.n	10003302 <GLCD_Initialize+0x2b32>
100032fc:	6803      	ldr	r3, [r0, #0]
100032fe:	075b      	lsls	r3, r3, #29
10003300:	d5f2      	bpl.n	100032e8 <GLCD_Initialize+0x2b18>
10003302:	f850 3c04 	ldr.w	r3, [r0, #-4]
10003306:	680b      	ldr	r3, [r1, #0]
10003308:	f043 0301 	orr.w	r3, r3, #1
1000330c:	600b      	str	r3, [r1, #0]
1000330e:	f8de 3000 	ldr.w	r3, [lr]
10003312:	f5b3 7f7a 	cmp.w	r3, #1000	@ 0x3e8
10003316:	d308      	bcc.n	1000332a <GLCD_Initialize+0x2b5a>
10003318:	fba3 340c 	umull	r3, r4, r3, ip
1000331c:	09a3      	lsrs	r3, r4, #6
1000331e:	f06f 0431 	mvn.w	r4, #49	@ 0x31
10003322:	4363      	muls	r3, r4
10003324:	3301      	adds	r3, #1
10003326:	bf00      	nop
10003328:	d3fc      	bcc.n	10003324 <GLCD_Initialize+0x2b54>
1000332a:	6813      	ldr	r3, [r2, #0]
1000332c:	f023 0301 	bic.w	r3, r3, #1
10003330:	6013      	str	r3, [r2, #0]
10003332:	2370      	movs	r3, #112	@ 0x70
10003334:	f840 3c04 	str.w	r3, [r0, #-4]
10003338:	6803      	ldr	r3, [r0, #0]
1000333a:	075b      	lsls	r3, r3, #29
1000333c:	d409      	bmi.n	10003352 <GLCD_Initialize+0x2b82>
1000333e:	6803      	ldr	r3, [r0, #0]
10003340:	075b      	lsls	r3, r3, #29
10003342:	bf5c      	itt	pl
10003344:	6803      	ldrpl	r3, [r0, #0]
10003346:	ea5f 7343 	movspl.w	r3, r3, lsl #29
1000334a:	d402      	bmi.n	10003352 <GLCD_Initialize+0x2b82>
1000334c:	6803      	ldr	r3, [r0, #0]
1000334e:	075b      	lsls	r3, r3, #29
10003350:	d5f2      	bpl.n	10003338 <GLCD_Initialize+0x2b68>
10003352:	f850 3c04 	ldr.w	r3, [r0, #-4]
10003356:	2300      	movs	r3, #0
10003358:	f840 3c04 	str.w	r3, [r0, #-4]
1000335c:	6803      	ldr	r3, [r0, #0]
1000335e:	075b      	lsls	r3, r3, #29
10003360:	d409      	bmi.n	10003376 <GLCD_Initialize+0x2ba6>
10003362:	6803      	ldr	r3, [r0, #0]
10003364:	075b      	lsls	r3, r3, #29
10003366:	bf5c      	itt	pl
10003368:	6803      	ldrpl	r3, [r0, #0]
1000336a:	ea5f 7343 	movspl.w	r3, r3, lsl #29
1000336e:	d402      	bmi.n	10003376 <GLCD_Initialize+0x2ba6>
10003370:	6803      	ldr	r3, [r0, #0]
10003372:	075b      	lsls	r3, r3, #29
10003374:	d5f2      	bpl.n	1000335c <GLCD_Initialize+0x2b8c>
10003376:	f850 3c04 	ldr.w	r3, [r0, #-4]
1000337a:	231f      	movs	r3, #31
1000337c:	f840 3c04 	str.w	r3, [r0, #-4]
10003380:	6803      	ldr	r3, [r0, #0]
10003382:	075b      	lsls	r3, r3, #29
10003384:	d409      	bmi.n	1000339a <GLCD_Initialize+0x2bca>
10003386:	6803      	ldr	r3, [r0, #0]
10003388:	075b      	lsls	r3, r3, #29
1000338a:	bf5c      	itt	pl
1000338c:	6803      	ldrpl	r3, [r0, #0]
1000338e:	ea5f 7343 	movspl.w	r3, r3, lsl #29
10003392:	d402      	bmi.n	1000339a <GLCD_Initialize+0x2bca>
10003394:	6803      	ldr	r3, [r0, #0]
10003396:	075b      	lsls	r3, r3, #29
10003398:	d5f2      	bpl.n	10003380 <GLCD_Initialize+0x2bb0>
1000339a:	f850 3c04 	ldr.w	r3, [r0, #-4]
1000339e:	680b      	ldr	r3, [r1, #0]
100033a0:	f043 0301 	orr.w	r3, r3, #1
100033a4:	600b      	str	r3, [r1, #0]
100033a6:	6813      	ldr	r3, [r2, #0]
100033a8:	f023 0301 	bic.w	r3, r3, #1
100033ac:	6013      	str	r3, [r2, #0]
100033ae:	2372      	movs	r3, #114	@ 0x72
100033b0:	f840 3c04 	str.w	r3, [r0, #-4]
100033b4:	6803      	ldr	r3, [r0, #0]
100033b6:	075b      	lsls	r3, r3, #29
100033b8:	d409      	bmi.n	100033ce <GLCD_Initialize+0x2bfe>
100033ba:	6803      	ldr	r3, [r0, #0]
100033bc:	075b      	lsls	r3, r3, #29
100033be:	bf5c      	itt	pl
100033c0:	6803      	ldrpl	r3, [r0, #0]
100033c2:	ea5f 7343 	movspl.w	r3, r3, lsl #29
100033c6:	d402      	bmi.n	100033ce <GLCD_Initialize+0x2bfe>
100033c8:	6803      	ldr	r3, [r0, #0]
100033ca:	075b      	lsls	r3, r3, #29
100033cc:	d5f2      	bpl.n	100033b4 <GLCD_Initialize+0x2be4>
100033ce:	f850 3c04 	ldr.w	r3, [r0, #-4]
100033d2:	2300      	movs	r3, #0
100033d4:	f840 3c04 	str.w	r3, [r0, #-4]
100033d8:	6803      	ldr	r3, [r0, #0]
100033da:	075b      	lsls	r3, r3, #29
100033dc:	d409      	bmi.n	100033f2 <GLCD_Initialize+0x2c22>
100033de:	6803      	ldr	r3, [r0, #0]
100033e0:	075b      	lsls	r3, r3, #29
100033e2:	bf5c      	itt	pl
100033e4:	6803      	ldrpl	r3, [r0, #0]
100033e6:	ea5f 7343 	movspl.w	r3, r3, lsl #29
100033ea:	d402      	bmi.n	100033f2 <GLCD_Initialize+0x2c22>
100033ec:	6803      	ldr	r3, [r0, #0]
100033ee:	075b      	lsls	r3, r3, #29
100033f0:	d5f2      	bpl.n	100033d8 <GLCD_Initialize+0x2c08>
100033f2:	f850 3c04 	ldr.w	r3, [r0, #-4]
100033f6:	2382      	movs	r3, #130	@ 0x82
100033f8:	f840 3c04 	str.w	r3, [r0, #-4]
100033fc:	6803      	ldr	r3, [r0, #0]
100033fe:	075b      	lsls	r3, r3, #29
10003400:	d409      	bmi.n	10003416 <GLCD_Initialize+0x2c46>
10003402:	6803      	ldr	r3, [r0, #0]
10003404:	075b      	lsls	r3, r3, #29
10003406:	bf5c      	itt	pl
10003408:	6803      	ldrpl	r3, [r0, #0]
1000340a:	ea5f 7343 	movspl.w	r3, r3, lsl #29
1000340e:	d402      	bmi.n	10003416 <GLCD_Initialize+0x2c46>
10003410:	6803      	ldr	r3, [r0, #0]
10003412:	075b      	lsls	r3, r3, #29
10003414:	d5f2      	bpl.n	100033fc <GLCD_Initialize+0x2c2c>
10003416:	f850 3c04 	ldr.w	r3, [r0, #-4]
1000341a:	680b      	ldr	r3, [r1, #0]
1000341c:	f043 0301 	orr.w	r3, r3, #1
10003420:	600b      	str	r3, [r1, #0]
10003422:	f8de 3000 	ldr.w	r3, [lr]
10003426:	f5b3 7f7a 	cmp.w	r3, #1000	@ 0x3e8
1000342a:	d30a      	bcc.n	10003442 <GLCD_Initialize+0x2c72>
1000342c:	fba3 340c 	umull	r3, r4, r3, ip
10003430:	09a3      	lsrs	r3, r4, #6
10003432:	eb03 0383 	add.w	r3, r3, r3, lsl #2
10003436:	425b      	negs	r3, r3
10003438:	005b      	lsls	r3, r3, #1
1000343a:	bf00      	nop
1000343c:	3301      	adds	r3, #1
1000343e:	bf00      	nop
10003440:	d3fc      	bcc.n	1000343c <GLCD_Initialize+0x2c6c>
10003442:	6813      	ldr	r3, [r2, #0]
10003444:	f023 0301 	bic.w	r3, r3, #1
10003448:	6013      	str	r3, [r2, #0]
1000344a:	2370      	movs	r3, #112	@ 0x70
1000344c:	f840 3c04 	str.w	r3, [r0, #-4]
10003450:	6803      	ldr	r3, [r0, #0]
10003452:	075b      	lsls	r3, r3, #29
10003454:	d409      	bmi.n	1000346a <GLCD_Initialize+0x2c9a>
10003456:	6803      	ldr	r3, [r0, #0]
10003458:	075b      	lsls	r3, r3, #29
1000345a:	bf5c      	itt	pl
1000345c:	6803      	ldrpl	r3, [r0, #0]
1000345e:	ea5f 7343 	movspl.w	r3, r3, lsl #29
10003462:	d402      	bmi.n	1000346a <GLCD_Initialize+0x2c9a>
10003464:	6803      	ldr	r3, [r0, #0]
10003466:	075b      	lsls	r3, r3, #29
10003468:	d5f2      	bpl.n	10003450 <GLCD_Initialize+0x2c80>
1000346a:	f850 3c04 	ldr.w	r3, [r0, #-4]
1000346e:	2300      	movs	r3, #0
10003470:	f840 3c04 	str.w	r3, [r0, #-4]
10003474:	6803      	ldr	r3, [r0, #0]
10003476:	075b      	lsls	r3, r3, #29
10003478:	d409      	bmi.n	1000348e <GLCD_Initialize+0x2cbe>
1000347a:	6803      	ldr	r3, [r0, #0]
1000347c:	075b      	lsls	r3, r3, #29
1000347e:	bf5c      	itt	pl
10003480:	6803      	ldrpl	r3, [r0, #0]
10003482:	ea5f 7343 	movspl.w	r3, r3, lsl #29
10003486:	d402      	bmi.n	1000348e <GLCD_Initialize+0x2cbe>
10003488:	6803      	ldr	r3, [r0, #0]
1000348a:	075b      	lsls	r3, r3, #29
1000348c:	d5f2      	bpl.n	10003474 <GLCD_Initialize+0x2ca4>
1000348e:	f850 3c04 	ldr.w	r3, [r0, #-4]
10003492:	231f      	movs	r3, #31
10003494:	f840 3c04 	str.w	r3, [r0, #-4]
10003498:	6803      	ldr	r3, [r0, #0]
1000349a:	075b      	lsls	r3, r3, #29
1000349c:	d409      	bmi.n	100034b2 <GLCD_Initialize+0x2ce2>
1000349e:	6803      	ldr	r3, [r0, #0]
100034a0:	075b      	lsls	r3, r3, #29
100034a2:	bf5c      	itt	pl
100034a4:	6803      	ldrpl	r3, [r0, #0]
100034a6:	ea5f 7343 	movspl.w	r3, r3, lsl #29
100034aa:	d402      	bmi.n	100034b2 <GLCD_Initialize+0x2ce2>
100034ac:	6803      	ldr	r3, [r0, #0]
100034ae:	075b      	lsls	r3, r3, #29
100034b0:	d5f2      	bpl.n	10003498 <GLCD_Initialize+0x2cc8>
100034b2:	f850 3c04 	ldr.w	r3, [r0, #-4]
100034b6:	680b      	ldr	r3, [r1, #0]
100034b8:	f043 0301 	orr.w	r3, r3, #1
100034bc:	600b      	str	r3, [r1, #0]
100034be:	6813      	ldr	r3, [r2, #0]
100034c0:	f023 0301 	bic.w	r3, r3, #1
100034c4:	6013      	str	r3, [r2, #0]
100034c6:	2372      	movs	r3, #114	@ 0x72
100034c8:	f840 3c04 	str.w	r3, [r0, #-4]
100034cc:	6803      	ldr	r3, [r0, #0]
100034ce:	075b      	lsls	r3, r3, #29
100034d0:	d409      	bmi.n	100034e6 <GLCD_Initialize+0x2d16>
100034d2:	6803      	ldr	r3, [r0, #0]
100034d4:	075b      	lsls	r3, r3, #29
100034d6:	bf5c      	itt	pl
100034d8:	6803      	ldrpl	r3, [r0, #0]
100034da:	ea5f 7343 	movspl.w	r3, r3, lsl #29
100034de:	d402      	bmi.n	100034e6 <GLCD_Initialize+0x2d16>
100034e0:	6803      	ldr	r3, [r0, #0]
100034e2:	075b      	lsls	r3, r3, #29
100034e4:	d5f2      	bpl.n	100034cc <GLCD_Initialize+0x2cfc>
100034e6:	f850 3c04 	ldr.w	r3, [r0, #-4]
100034ea:	2300      	movs	r3, #0
100034ec:	f840 3c04 	str.w	r3, [r0, #-4]
100034f0:	6803      	ldr	r3, [r0, #0]
100034f2:	075b      	lsls	r3, r3, #29
100034f4:	d409      	bmi.n	1000350a <GLCD_Initialize+0x2d3a>
100034f6:	6803      	ldr	r3, [r0, #0]
100034f8:	075b      	lsls	r3, r3, #29
100034fa:	bf5c      	itt	pl
100034fc:	6803      	ldrpl	r3, [r0, #0]
100034fe:	ea5f 7343 	movspl.w	r3, r3, lsl #29
10003502:	d402      	bmi.n	1000350a <GLCD_Initialize+0x2d3a>
10003504:	6803      	ldr	r3, [r0, #0]
10003506:	075b      	lsls	r3, r3, #29
10003508:	d5f2      	bpl.n	100034f0 <GLCD_Initialize+0x2d20>
1000350a:	f850 3c04 	ldr.w	r3, [r0, #-4]
1000350e:	2392      	movs	r3, #146	@ 0x92
10003510:	f840 3c04 	str.w	r3, [r0, #-4]
10003514:	6803      	ldr	r3, [r0, #0]
10003516:	075b      	lsls	r3, r3, #29
10003518:	d409      	bmi.n	1000352e <GLCD_Initialize+0x2d5e>
1000351a:	6803      	ldr	r3, [r0, #0]
1000351c:	075b      	lsls	r3, r3, #29
1000351e:	bf5c      	itt	pl
10003520:	6803      	ldrpl	r3, [r0, #0]
10003522:	ea5f 7343 	movspl.w	r3, r3, lsl #29
10003526:	d402      	bmi.n	1000352e <GLCD_Initialize+0x2d5e>
10003528:	6803      	ldr	r3, [r0, #0]
1000352a:	075b      	lsls	r3, r3, #29
1000352c:	d5f2      	bpl.n	10003514 <GLCD_Initialize+0x2d44>
1000352e:	f850 3c04 	ldr.w	r3, [r0, #-4]
10003532:	680b      	ldr	r3, [r1, #0]
10003534:	f043 0301 	orr.w	r3, r3, #1
10003538:	600b      	str	r3, [r1, #0]
1000353a:	f8de 3000 	ldr.w	r3, [lr]
1000353e:	f5b3 7f7a 	cmp.w	r3, #1000	@ 0x3e8
10003542:	d30a      	bcc.n	1000355a <GLCD_Initialize+0x2d8a>
10003544:	fba3 340c 	umull	r3, r4, r3, ip
10003548:	09a3      	lsrs	r3, r4, #6
1000354a:	eb03 0383 	add.w	r3, r3, r3, lsl #2
1000354e:	425b      	negs	r3, r3
10003550:	005b      	lsls	r3, r3, #1
10003552:	bf00      	nop
10003554:	3301      	adds	r3, #1
10003556:	bf00      	nop
10003558:	d3fc      	bcc.n	10003554 <GLCD_Initialize+0x2d84>
1000355a:	6813      	ldr	r3, [r2, #0]
1000355c:	f023 0301 	bic.w	r3, r3, #1
10003560:	6013      	str	r3, [r2, #0]
10003562:	2370      	movs	r3, #112	@ 0x70
10003564:	f840 3c04 	str.w	r3, [r0, #-4]
10003568:	6803      	ldr	r3, [r0, #0]
1000356a:	075b      	lsls	r3, r3, #29
1000356c:	d409      	bmi.n	10003582 <GLCD_Initialize+0x2db2>
1000356e:	6803      	ldr	r3, [r0, #0]
10003570:	075b      	lsls	r3, r3, #29
10003572:	bf5c      	itt	pl
10003574:	6803      	ldrpl	r3, [r0, #0]
10003576:	ea5f 7343 	movspl.w	r3, r3, lsl #29
1000357a:	d402      	bmi.n	10003582 <GLCD_Initialize+0x2db2>
1000357c:	6803      	ldr	r3, [r0, #0]
1000357e:	075b      	lsls	r3, r3, #29
10003580:	d5f2      	bpl.n	10003568 <GLCD_Initialize+0x2d98>
10003582:	f850 3c04 	ldr.w	r3, [r0, #-4]
10003586:	2300      	movs	r3, #0
10003588:	f840 3c04 	str.w	r3, [r0, #-4]
1000358c:	6803      	ldr	r3, [r0, #0]
1000358e:	075b      	lsls	r3, r3, #29
10003590:	d409      	bmi.n	100035a6 <GLCD_Initialize+0x2dd6>
10003592:	6803      	ldr	r3, [r0, #0]
10003594:	075b      	lsls	r3, r3, #29
10003596:	bf5c      	itt	pl
10003598:	6803      	ldrpl	r3, [r0, #0]
1000359a:	ea5f 7343 	movspl.w	r3, r3, lsl #29
1000359e:	d402      	bmi.n	100035a6 <GLCD_Initialize+0x2dd6>
100035a0:	6803      	ldr	r3, [r0, #0]
100035a2:	075b      	lsls	r3, r3, #29
100035a4:	d5f2      	bpl.n	1000358c <GLCD_Initialize+0x2dbc>
100035a6:	f850 3c04 	ldr.w	r3, [r0, #-4]
100035aa:	231f      	movs	r3, #31
100035ac:	f840 3c04 	str.w	r3, [r0, #-4]
100035b0:	6803      	ldr	r3, [r0, #0]
100035b2:	075b      	lsls	r3, r3, #29
100035b4:	d409      	bmi.n	100035ca <GLCD_Initialize+0x2dfa>
100035b6:	6803      	ldr	r3, [r0, #0]
100035b8:	075b      	lsls	r3, r3, #29
100035ba:	bf5c      	itt	pl
100035bc:	6803      	ldrpl	r3, [r0, #0]
100035be:	ea5f 7343 	movspl.w	r3, r3, lsl #29
100035c2:	d402      	bmi.n	100035ca <GLCD_Initialize+0x2dfa>
100035c4:	6803      	ldr	r3, [r0, #0]
100035c6:	075b      	lsls	r3, r3, #29
100035c8:	d5f2      	bpl.n	100035b0 <GLCD_Initialize+0x2de0>
100035ca:	f850 3c04 	ldr.w	r3, [r0, #-4]
100035ce:	680b      	ldr	r3, [r1, #0]
100035d0:	f043 0301 	orr.w	r3, r3, #1
100035d4:	600b      	str	r3, [r1, #0]
100035d6:	6813      	ldr	r3, [r2, #0]
100035d8:	f023 0301 	bic.w	r3, r3, #1
100035dc:	6013      	str	r3, [r2, #0]
100035de:	2372      	movs	r3, #114	@ 0x72
100035e0:	f840 3c04 	str.w	r3, [r0, #-4]
100035e4:	6803      	ldr	r3, [r0, #0]
100035e6:	075b      	lsls	r3, r3, #29
100035e8:	d409      	bmi.n	100035fe <GLCD_Initialize+0x2e2e>
100035ea:	6803      	ldr	r3, [r0, #0]
100035ec:	075b      	lsls	r3, r3, #29
100035ee:	bf5c      	itt	pl
100035f0:	6803      	ldrpl	r3, [r0, #0]
100035f2:	ea5f 7343 	movspl.w	r3, r3, lsl #29
100035f6:	d402      	bmi.n	100035fe <GLCD_Initialize+0x2e2e>
100035f8:	6803      	ldr	r3, [r0, #0]
100035fa:	075b      	lsls	r3, r3, #29
100035fc:	d5f2      	bpl.n	100035e4 <GLCD_Initialize+0x2e14>
100035fe:	f850 3c04 	ldr.w	r3, [r0, #-4]
10003602:	2300      	movs	r3, #0
10003604:	f840 3c04 	str.w	r3, [r0, #-4]
10003608:	6803      	ldr	r3, [r0, #0]
1000360a:	075b      	lsls	r3, r3, #29
1000360c:	d409      	bmi.n	10003622 <GLCD_Initialize+0x2e52>
1000360e:	6803      	ldr	r3, [r0, #0]
10003610:	075b      	lsls	r3, r3, #29
10003612:	bf5c      	itt	pl
10003614:	6803      	ldrpl	r3, [r0, #0]
10003616:	ea5f 7343 	movspl.w	r3, r3, lsl #29
1000361a:	d402      	bmi.n	10003622 <GLCD_Initialize+0x2e52>
1000361c:	6803      	ldr	r3, [r0, #0]
1000361e:	075b      	lsls	r3, r3, #29
10003620:	d5f2      	bpl.n	10003608 <GLCD_Initialize+0x2e38>
10003622:	f850 3c04 	ldr.w	r3, [r0, #-4]
10003626:	23d2      	movs	r3, #210	@ 0xd2
10003628:	f840 3c04 	str.w	r3, [r0, #-4]
1000362c:	6803      	ldr	r3, [r0, #0]
1000362e:	075b      	lsls	r3, r3, #29
10003630:	d409      	bmi.n	10003646 <GLCD_Initialize+0x2e76>
10003632:	6803      	ldr	r3, [r0, #0]
10003634:	075b      	lsls	r3, r3, #29
10003636:	bf5c      	itt	pl
10003638:	6803      	ldrpl	r3, [r0, #0]
1000363a:	ea5f 7343 	movspl.w	r3, r3, lsl #29
1000363e:	d402      	bmi.n	10003646 <GLCD_Initialize+0x2e76>
10003640:	6803      	ldr	r3, [r0, #0]
10003642:	075b      	lsls	r3, r3, #29
10003644:	d5f2      	bpl.n	1000362c <GLCD_Initialize+0x2e5c>
10003646:	f850 3c04 	ldr.w	r3, [r0, #-4]
1000364a:	680b      	ldr	r3, [r1, #0]
1000364c:	f043 0301 	orr.w	r3, r3, #1
10003650:	600b      	str	r3, [r1, #0]
10003652:	f8de 3000 	ldr.w	r3, [lr]
10003656:	f5b3 7f7a 	cmp.w	r3, #1000	@ 0x3e8
1000365a:	d30a      	bcc.n	10003672 <GLCD_Initialize+0x2ea2>
1000365c:	fba3 340c 	umull	r3, r4, r3, ip
10003660:	09a3      	lsrs	r3, r4, #6
10003662:	eb03 0383 	add.w	r3, r3, r3, lsl #2
10003666:	425b      	negs	r3, r3
10003668:	005b      	lsls	r3, r3, #1
1000366a:	bf00      	nop
1000366c:	3301      	adds	r3, #1
1000366e:	bf00      	nop
10003670:	d3fc      	bcc.n	1000366c <GLCD_Initialize+0x2e9c>
10003672:	6813      	ldr	r3, [r2, #0]
10003674:	f023 0301 	bic.w	r3, r3, #1
10003678:	6013      	str	r3, [r2, #0]
1000367a:	2370      	movs	r3, #112	@ 0x70
1000367c:	f840 3c04 	str.w	r3, [r0, #-4]
10003680:	6803      	ldr	r3, [r0, #0]
10003682:	075b      	lsls	r3, r3, #29
10003684:	d409      	bmi.n	1000369a <GLCD_Initialize+0x2eca>
10003686:	6803      	ldr	r3, [r0, #0]
10003688:	075b      	lsls	r3, r3, #29
1000368a:	bf5c      	itt	pl
1000368c:	6803      	ldrpl	r3, [r0, #0]
1000368e:	ea5f 7343 	movspl.w	r3, r3, lsl #29
10003692:	d402      	bmi.n	1000369a <GLCD_Initialize+0x2eca>
10003694:	6803      	ldr	r3, [r0, #0]
10003696:	075b      	lsls	r3, r3, #29
10003698:	d5f2      	bpl.n	10003680 <GLCD_Initialize+0x2eb0>
1000369a:	f850 3c04 	ldr.w	r3, [r0, #-4]
1000369e:	2300      	movs	r3, #0
100036a0:	f840 3c04 	str.w	r3, [r0, #-4]
100036a4:	6803      	ldr	r3, [r0, #0]
100036a6:	075b      	lsls	r3, r3, #29
100036a8:	d409      	bmi.n	100036be <GLCD_Initialize+0x2eee>
100036aa:	6803      	ldr	r3, [r0, #0]
100036ac:	075b      	lsls	r3, r3, #29
100036ae:	bf5c      	itt	pl
100036b0:	6803      	ldrpl	r3, [r0, #0]
100036b2:	ea5f 7343 	movspl.w	r3, r3, lsl #29
100036b6:	d402      	bmi.n	100036be <GLCD_Initialize+0x2eee>
100036b8:	6803      	ldr	r3, [r0, #0]
100036ba:	075b      	lsls	r3, r3, #29
100036bc:	d5f2      	bpl.n	100036a4 <GLCD_Initialize+0x2ed4>
100036be:	f850 3c04 	ldr.w	r3, [r0, #-4]
100036c2:	2317      	movs	r3, #23
100036c4:	f840 3c04 	str.w	r3, [r0, #-4]
100036c8:	6803      	ldr	r3, [r0, #0]
100036ca:	075b      	lsls	r3, r3, #29
100036cc:	d409      	bmi.n	100036e2 <GLCD_Initialize+0x2f12>
100036ce:	6803      	ldr	r3, [r0, #0]
100036d0:	075b      	lsls	r3, r3, #29
100036d2:	bf5c      	itt	pl
100036d4:	6803      	ldrpl	r3, [r0, #0]
100036d6:	ea5f 7343 	movspl.w	r3, r3, lsl #29
100036da:	d402      	bmi.n	100036e2 <GLCD_Initialize+0x2f12>
100036dc:	6803      	ldr	r3, [r0, #0]
100036de:	075b      	lsls	r3, r3, #29
100036e0:	d5f2      	bpl.n	100036c8 <GLCD_Initialize+0x2ef8>
100036e2:	f850 3c04 	ldr.w	r3, [r0, #-4]
100036e6:	680b      	ldr	r3, [r1, #0]
100036e8:	f043 0301 	orr.w	r3, r3, #1
100036ec:	600b      	str	r3, [r1, #0]
100036ee:	6813      	ldr	r3, [r2, #0]
100036f0:	f023 0301 	bic.w	r3, r3, #1
100036f4:	6013      	str	r3, [r2, #0]
100036f6:	2372      	movs	r3, #114	@ 0x72
100036f8:	f840 3c04 	str.w	r3, [r0, #-4]
100036fc:	6803      	ldr	r3, [r0, #0]
100036fe:	075b      	lsls	r3, r3, #29
10003700:	d409      	bmi.n	10003716 <GLCD_Initialize+0x2f46>
10003702:	6803      	ldr	r3, [r0, #0]
10003704:	075b      	lsls	r3, r3, #29
10003706:	bf5c      	itt	pl
10003708:	6803      	ldrpl	r3, [r0, #0]
1000370a:	ea5f 7343 	movspl.w	r3, r3, lsl #29
1000370e:	d402      	bmi.n	10003716 <GLCD_Initialize+0x2f46>
10003710:	6803      	ldr	r3, [r0, #0]
10003712:	075b      	lsls	r3, r3, #29
10003714:	d5f2      	bpl.n	100036fc <GLCD_Initialize+0x2f2c>
10003716:	f850 3c04 	ldr.w	r3, [r0, #-4]
1000371a:	2300      	movs	r3, #0
1000371c:	f840 3c04 	str.w	r3, [r0, #-4]
10003720:	6803      	ldr	r3, [r0, #0]
10003722:	075b      	lsls	r3, r3, #29
10003724:	d409      	bmi.n	1000373a <GLCD_Initialize+0x2f6a>
10003726:	6803      	ldr	r3, [r0, #0]
10003728:	075b      	lsls	r3, r3, #29
1000372a:	bf5c      	itt	pl
1000372c:	6803      	ldrpl	r3, [r0, #0]
1000372e:	ea5f 7343 	movspl.w	r3, r3, lsl #29
10003732:	d402      	bmi.n	1000373a <GLCD_Initialize+0x2f6a>
10003734:	6803      	ldr	r3, [r0, #0]
10003736:	075b      	lsls	r3, r3, #29
10003738:	d5f2      	bpl.n	10003720 <GLCD_Initialize+0x2f50>
1000373a:	f850 3c04 	ldr.w	r3, [r0, #-4]
1000373e:	2355      	movs	r3, #85	@ 0x55
10003740:	f840 3c04 	str.w	r3, [r0, #-4]
10003744:	6803      	ldr	r3, [r0, #0]
10003746:	075b      	lsls	r3, r3, #29
10003748:	d409      	bmi.n	1000375e <GLCD_Initialize+0x2f8e>
1000374a:	6803      	ldr	r3, [r0, #0]
1000374c:	075b      	lsls	r3, r3, #29
1000374e:	bf5c      	itt	pl
10003750:	6803      	ldrpl	r3, [r0, #0]
10003752:	ea5f 7343 	movspl.w	r3, r3, lsl #29
10003756:	d402      	bmi.n	1000375e <GLCD_Initialize+0x2f8e>
10003758:	6803      	ldr	r3, [r0, #0]
1000375a:	075b      	lsls	r3, r3, #29
1000375c:	d5f2      	bpl.n	10003744 <GLCD_Initialize+0x2f74>
1000375e:	f850 3c04 	ldr.w	r3, [r0, #-4]
10003762:	680b      	ldr	r3, [r1, #0]
10003764:	f043 0301 	orr.w	r3, r3, #1
10003768:	600b      	str	r3, [r1, #0]
1000376a:	6813      	ldr	r3, [r2, #0]
1000376c:	f023 0301 	bic.w	r3, r3, #1
10003770:	6013      	str	r3, [r2, #0]
10003772:	2370      	movs	r3, #112	@ 0x70
10003774:	f840 3c04 	str.w	r3, [r0, #-4]
10003778:	6803      	ldr	r3, [r0, #0]
1000377a:	075b      	lsls	r3, r3, #29
1000377c:	d409      	bmi.n	10003792 <GLCD_Initialize+0x2fc2>
1000377e:	6803      	ldr	r3, [r0, #0]
10003780:	075b      	lsls	r3, r3, #29
10003782:	bf5c      	itt	pl
10003784:	6803      	ldrpl	r3, [r0, #0]
10003786:	ea5f 7343 	movspl.w	r3, r3, lsl #29
1000378a:	d402      	bmi.n	10003792 <GLCD_Initialize+0x2fc2>
1000378c:	6803      	ldr	r3, [r0, #0]
1000378e:	075b      	lsls	r3, r3, #29
10003790:	d5f2      	bpl.n	10003778 <GLCD_Initialize+0x2fa8>
10003792:	f850 3c04 	ldr.w	r3, [r0, #-4]
10003796:	2300      	movs	r3, #0
10003798:	f840 3c04 	str.w	r3, [r0, #-4]
1000379c:	6803      	ldr	r3, [r0, #0]
1000379e:	075b      	lsls	r3, r3, #29
100037a0:	d409      	bmi.n	100037b6 <GLCD_Initialize+0x2fe6>
100037a2:	6803      	ldr	r3, [r0, #0]
100037a4:	075b      	lsls	r3, r3, #29
100037a6:	bf5c      	itt	pl
100037a8:	6803      	ldrpl	r3, [r0, #0]
100037aa:	ea5f 7343 	movspl.w	r3, r3, lsl #29
100037ae:	d402      	bmi.n	100037b6 <GLCD_Initialize+0x2fe6>
100037b0:	6803      	ldr	r3, [r0, #0]
100037b2:	075b      	lsls	r3, r3, #29
100037b4:	d5f2      	bpl.n	1000379c <GLCD_Initialize+0x2fcc>
100037b6:	f850 3c04 	ldr.w	r3, [r0, #-4]
100037ba:	2300      	movs	r3, #0
100037bc:	f840 3c04 	str.w	r3, [r0, #-4]
100037c0:	6803      	ldr	r3, [r0, #0]
100037c2:	075b      	lsls	r3, r3, #29
100037c4:	d409      	bmi.n	100037da <GLCD_Initialize+0x300a>
100037c6:	6803      	ldr	r3, [r0, #0]
100037c8:	075b      	lsls	r3, r3, #29
100037ca:	bf5c      	itt	pl
100037cc:	6803      	ldrpl	r3, [r0, #0]
100037ce:	ea5f 7343 	movspl.w	r3, r3, lsl #29
100037d2:	d402      	bmi.n	100037da <GLCD_Initialize+0x300a>
100037d4:	6803      	ldr	r3, [r0, #0]
100037d6:	075b      	lsls	r3, r3, #29
100037d8:	d5f2      	bpl.n	100037c0 <GLCD_Initialize+0x2ff0>
100037da:	f850 3c04 	ldr.w	r3, [r0, #-4]
100037de:	680b      	ldr	r3, [r1, #0]
100037e0:	f043 0301 	orr.w	r3, r3, #1
100037e4:	600b      	str	r3, [r1, #0]
100037e6:	6813      	ldr	r3, [r2, #0]
100037e8:	f023 0301 	bic.w	r3, r3, #1
100037ec:	6013      	str	r3, [r2, #0]
100037ee:	2372      	movs	r3, #114	@ 0x72
100037f0:	f840 3c04 	str.w	r3, [r0, #-4]
100037f4:	6803      	ldr	r3, [r0, #0]
100037f6:	075b      	lsls	r3, r3, #29
100037f8:	d409      	bmi.n	1000380e <GLCD_Initialize+0x303e>
100037fa:	6803      	ldr	r3, [r0, #0]
100037fc:	075b      	lsls	r3, r3, #29
100037fe:	bf5c      	itt	pl
10003800:	6803      	ldrpl	r3, [r0, #0]
10003802:	ea5f 7343 	movspl.w	r3, r3, lsl #29
10003806:	d402      	bmi.n	1000380e <GLCD_Initialize+0x303e>
10003808:	6803      	ldr	r3, [r0, #0]
1000380a:	075b      	lsls	r3, r3, #29
1000380c:	d5f2      	bpl.n	100037f4 <GLCD_Initialize+0x3024>
1000380e:	f850 3c04 	ldr.w	r3, [r0, #-4]
10003812:	2300      	movs	r3, #0
10003814:	f840 3c04 	str.w	r3, [r0, #-4]
10003818:	6803      	ldr	r3, [r0, #0]
1000381a:	075b      	lsls	r3, r3, #29
1000381c:	d409      	bmi.n	10003832 <GLCD_Initialize+0x3062>
1000381e:	6803      	ldr	r3, [r0, #0]
10003820:	075b      	lsls	r3, r3, #29
10003822:	bf5c      	itt	pl
10003824:	6803      	ldrpl	r3, [r0, #0]
10003826:	ea5f 7343 	movspl.w	r3, r3, lsl #29
1000382a:	d402      	bmi.n	10003832 <GLCD_Initialize+0x3062>
1000382c:	6803      	ldr	r3, [r0, #0]
1000382e:	075b      	lsls	r3, r3, #29
10003830:	d5f2      	bpl.n	10003818 <GLCD_Initialize+0x3048>
10003832:	f850 3c04 	ldr.w	r3, [r0, #-4]
10003836:	2300      	movs	r3, #0
10003838:	f840 3c04 	str.w	r3, [r0, #-4]
1000383c:	6803      	ldr	r3, [r0, #0]
1000383e:	075b      	lsls	r3, r3, #29
10003840:	d409      	bmi.n	10003856 <GLCD_Initialize+0x3086>
10003842:	6803      	ldr	r3, [r0, #0]
10003844:	075b      	lsls	r3, r3, #29
10003846:	bf5c      	itt	pl
10003848:	6803      	ldrpl	r3, [r0, #0]
1000384a:	ea5f 7343 	movspl.w	r3, r3, lsl #29
1000384e:	d402      	bmi.n	10003856 <GLCD_Initialize+0x3086>
10003850:	6803      	ldr	r3, [r0, #0]
10003852:	075b      	lsls	r3, r3, #29
10003854:	d5f2      	bpl.n	1000383c <GLCD_Initialize+0x306c>
10003856:	f850 3c04 	ldr.w	r3, [r0, #-4]
1000385a:	680b      	ldr	r3, [r1, #0]
1000385c:	f043 0301 	orr.w	r3, r3, #1
10003860:	600b      	str	r3, [r1, #0]
10003862:	6813      	ldr	r3, [r2, #0]
10003864:	f023 0301 	bic.w	r3, r3, #1
10003868:	6013      	str	r3, [r2, #0]
1000386a:	2370      	movs	r3, #112	@ 0x70
1000386c:	f840 3c04 	str.w	r3, [r0, #-4]
10003870:	6803      	ldr	r3, [r0, #0]
10003872:	075b      	lsls	r3, r3, #29
10003874:	d409      	bmi.n	1000388a <GLCD_Initialize+0x30ba>
10003876:	6803      	ldr	r3, [r0, #0]
10003878:	075b      	lsls	r3, r3, #29
1000387a:	bf5c      	itt	pl
1000387c:	6803      	ldrpl	r3, [r0, #0]
1000387e:	ea5f 7343 	movspl.w	r3, r3, lsl #29
10003882:	d402      	bmi.n	1000388a <GLCD_Initialize+0x30ba>
10003884:	6803      	ldr	r3, [r0, #0]
10003886:	075b      	lsls	r3, r3, #29
10003888:	d5f2      	bpl.n	10003870 <GLCD_Initialize+0x30a0>
1000388a:	f850 3c04 	ldr.w	r3, [r0, #-4]
1000388e:	2300      	movs	r3, #0
10003890:	f840 3c04 	str.w	r3, [r0, #-4]
10003894:	6803      	ldr	r3, [r0, #0]
10003896:	075b      	lsls	r3, r3, #29
10003898:	d409      	bmi.n	100038ae <GLCD_Initialize+0x30de>
1000389a:	6803      	ldr	r3, [r0, #0]
1000389c:	075b      	lsls	r3, r3, #29
1000389e:	bf5c      	itt	pl
100038a0:	6803      	ldrpl	r3, [r0, #0]
100038a2:	ea5f 7343 	movspl.w	r3, r3, lsl #29
100038a6:	d402      	bmi.n	100038ae <GLCD_Initialize+0x30de>
100038a8:	6803      	ldr	r3, [r0, #0]
100038aa:	075b      	lsls	r3, r3, #29
100038ac:	d5f2      	bpl.n	10003894 <GLCD_Initialize+0x30c4>
100038ae:	f850 3c04 	ldr.w	r3, [r0, #-4]
100038b2:	232f      	movs	r3, #47	@ 0x2f
100038b4:	f840 3c04 	str.w	r3, [r0, #-4]
100038b8:	6803      	ldr	r3, [r0, #0]
100038ba:	075b      	lsls	r3, r3, #29
100038bc:	d409      	bmi.n	100038d2 <GLCD_Initialize+0x3102>
100038be:	6803      	ldr	r3, [r0, #0]
100038c0:	075b      	lsls	r3, r3, #29
100038c2:	bf5c      	itt	pl
100038c4:	6803      	ldrpl	r3, [r0, #0]
100038c6:	ea5f 7343 	movspl.w	r3, r3, lsl #29
100038ca:	d402      	bmi.n	100038d2 <GLCD_Initialize+0x3102>
100038cc:	6803      	ldr	r3, [r0, #0]
100038ce:	075b      	lsls	r3, r3, #29
100038d0:	d5f2      	bpl.n	100038b8 <GLCD_Initialize+0x30e8>
100038d2:	f850 3c04 	ldr.w	r3, [r0, #-4]
100038d6:	680b      	ldr	r3, [r1, #0]
100038d8:	f043 0301 	orr.w	r3, r3, #1
100038dc:	600b      	str	r3, [r1, #0]
100038de:	6813      	ldr	r3, [r2, #0]
100038e0:	f023 0301 	bic.w	r3, r3, #1
100038e4:	6013      	str	r3, [r2, #0]
100038e6:	2372      	movs	r3, #114	@ 0x72
100038e8:	f840 3c04 	str.w	r3, [r0, #-4]
100038ec:	6803      	ldr	r3, [r0, #0]
100038ee:	075b      	lsls	r3, r3, #29
100038f0:	d409      	bmi.n	10003906 <GLCD_Initialize+0x3136>
100038f2:	6803      	ldr	r3, [r0, #0]
100038f4:	075b      	lsls	r3, r3, #29
100038f6:	bf5c      	itt	pl
100038f8:	6803      	ldrpl	r3, [r0, #0]
100038fa:	ea5f 7343 	movspl.w	r3, r3, lsl #29
100038fe:	d402      	bmi.n	10003906 <GLCD_Initialize+0x3136>
10003900:	6803      	ldr	r3, [r0, #0]
10003902:	075b      	lsls	r3, r3, #29
10003904:	d5f2      	bpl.n	100038ec <GLCD_Initialize+0x311c>
10003906:	f850 3c04 	ldr.w	r3, [r0, #-4]
1000390a:	2300      	movs	r3, #0
1000390c:	f840 3c04 	str.w	r3, [r0, #-4]
10003910:	6803      	ldr	r3, [r0, #0]
10003912:	075b      	lsls	r3, r3, #29
10003914:	d409      	bmi.n	1000392a <GLCD_Initialize+0x315a>
10003916:	6803      	ldr	r3, [r0, #0]
10003918:	075b      	lsls	r3, r3, #29
1000391a:	bf5c      	itt	pl
1000391c:	6803      	ldrpl	r3, [r0, #0]
1000391e:	ea5f 7343 	movspl.w	r3, r3, lsl #29
10003922:	d402      	bmi.n	1000392a <GLCD_Initialize+0x315a>
10003924:	6803      	ldr	r3, [r0, #0]
10003926:	075b      	lsls	r3, r3, #29
10003928:	d5f2      	bpl.n	10003910 <GLCD_Initialize+0x3140>
1000392a:	f850 3c04 	ldr.w	r3, [r0, #-4]
1000392e:	2311      	movs	r3, #17
10003930:	f840 3c04 	str.w	r3, [r0, #-4]
10003934:	6803      	ldr	r3, [r0, #0]
10003936:	075b      	lsls	r3, r3, #29
10003938:	d409      	bmi.n	1000394e <GLCD_Initialize+0x317e>
1000393a:	6803      	ldr	r3, [r0, #0]
1000393c:	075b      	lsls	r3, r3, #29
1000393e:	bf5c      	itt	pl
10003940:	6803      	ldrpl	r3, [r0, #0]
10003942:	ea5f 7343 	movspl.w	r3, r3, lsl #29
10003946:	d402      	bmi.n	1000394e <GLCD_Initialize+0x317e>
10003948:	6803      	ldr	r3, [r0, #0]
1000394a:	075b      	lsls	r3, r3, #29
1000394c:	d5f2      	bpl.n	10003934 <GLCD_Initialize+0x3164>
1000394e:	f850 3c04 	ldr.w	r3, [r0, #-4]
10003952:	680b      	ldr	r3, [r1, #0]
10003954:	f043 0301 	orr.w	r3, r3, #1
10003958:	600b      	str	r3, [r1, #0]
1000395a:	6813      	ldr	r3, [r2, #0]
1000395c:	f023 0301 	bic.w	r3, r3, #1
10003960:	6013      	str	r3, [r2, #0]
10003962:	2370      	movs	r3, #112	@ 0x70
10003964:	f840 3c04 	str.w	r3, [r0, #-4]
10003968:	6803      	ldr	r3, [r0, #0]
1000396a:	075b      	lsls	r3, r3, #29
1000396c:	d409      	bmi.n	10003982 <GLCD_Initialize+0x31b2>
1000396e:	6803      	ldr	r3, [r0, #0]
10003970:	075b      	lsls	r3, r3, #29
10003972:	bf5c      	itt	pl
10003974:	6803      	ldrpl	r3, [r0, #0]
10003976:	ea5f 7343 	movspl.w	r3, r3, lsl #29
1000397a:	d402      	bmi.n	10003982 <GLCD_Initialize+0x31b2>
1000397c:	6803      	ldr	r3, [r0, #0]
1000397e:	075b      	lsls	r3, r3, #29
10003980:	d5f2      	bpl.n	10003968 <GLCD_Initialize+0x3198>
10003982:	f850 3c04 	ldr.w	r3, [r0, #-4]
10003986:	2300      	movs	r3, #0
10003988:	f840 3c04 	str.w	r3, [r0, #-4]
1000398c:	6803      	ldr	r3, [r0, #0]
1000398e:	075b      	lsls	r3, r3, #29
10003990:	d409      	bmi.n	100039a6 <GLCD_Initialize+0x31d6>
10003992:	6803      	ldr	r3, [r0, #0]
10003994:	075b      	lsls	r3, r3, #29
10003996:	bf5c      	itt	pl
10003998:	6803      	ldrpl	r3, [r0, #0]
1000399a:	ea5f 7343 	movspl.w	r3, r3, lsl #29
1000399e:	d402      	bmi.n	100039a6 <GLCD_Initialize+0x31d6>
100039a0:	6803      	ldr	r3, [r0, #0]
100039a2:	075b      	lsls	r3, r3, #29
100039a4:	d5f2      	bpl.n	1000398c <GLCD_Initialize+0x31bc>
100039a6:	f850 3c04 	ldr.w	r3, [r0, #-4]
100039aa:	2331      	movs	r3, #49	@ 0x31
100039ac:	f840 3c04 	str.w	r3, [r0, #-4]
100039b0:	6803      	ldr	r3, [r0, #0]
100039b2:	075b      	lsls	r3, r3, #29
100039b4:	d409      	bmi.n	100039ca <GLCD_Initialize+0x31fa>
100039b6:	6803      	ldr	r3, [r0, #0]
100039b8:	075b      	lsls	r3, r3, #29
100039ba:	bf5c      	itt	pl
100039bc:	6803      	ldrpl	r3, [r0, #0]
100039be:	ea5f 7343 	movspl.w	r3, r3, lsl #29
100039c2:	d402      	bmi.n	100039ca <GLCD_Initialize+0x31fa>
100039c4:	6803      	ldr	r3, [r0, #0]
100039c6:	075b      	lsls	r3, r3, #29
100039c8:	d5f2      	bpl.n	100039b0 <GLCD_Initialize+0x31e0>
100039ca:	f850 3c04 	ldr.w	r3, [r0, #-4]
100039ce:	680b      	ldr	r3, [r1, #0]
100039d0:	f043 0301 	orr.w	r3, r3, #1
100039d4:	600b      	str	r3, [r1, #0]
100039d6:	6813      	ldr	r3, [r2, #0]
100039d8:	f023 0301 	bic.w	r3, r3, #1
100039dc:	6013      	str	r3, [r2, #0]
100039de:	2372      	movs	r3, #114	@ 0x72
100039e0:	f840 3c04 	str.w	r3, [r0, #-4]
100039e4:	6803      	ldr	r3, [r0, #0]
100039e6:	075b      	lsls	r3, r3, #29
100039e8:	d409      	bmi.n	100039fe <GLCD_Initialize+0x322e>
100039ea:	6803      	ldr	r3, [r0, #0]
100039ec:	075b      	lsls	r3, r3, #29
100039ee:	bf5c      	itt	pl
100039f0:	6803      	ldrpl	r3, [r0, #0]
100039f2:	ea5f 7343 	movspl.w	r3, r3, lsl #29
100039f6:	d402      	bmi.n	100039fe <GLCD_Initialize+0x322e>
100039f8:	6803      	ldr	r3, [r0, #0]
100039fa:	075b      	lsls	r3, r3, #29
100039fc:	d5f2      	bpl.n	100039e4 <GLCD_Initialize+0x3214>
100039fe:	f850 3c04 	ldr.w	r3, [r0, #-4]
10003a02:	2300      	movs	r3, #0
10003a04:	f840 3c04 	str.w	r3, [r0, #-4]
10003a08:	6803      	ldr	r3, [r0, #0]
10003a0a:	075b      	lsls	r3, r3, #29
10003a0c:	d409      	bmi.n	10003a22 <GLCD_Initialize+0x3252>
10003a0e:	6803      	ldr	r3, [r0, #0]
10003a10:	075b      	lsls	r3, r3, #29
10003a12:	bf5c      	itt	pl
10003a14:	6803      	ldrpl	r3, [r0, #0]
10003a16:	ea5f 7343 	movspl.w	r3, r3, lsl #29
10003a1a:	d402      	bmi.n	10003a22 <GLCD_Initialize+0x3252>
10003a1c:	6803      	ldr	r3, [r0, #0]
10003a1e:	075b      	lsls	r3, r3, #29
10003a20:	d5f2      	bpl.n	10003a08 <GLCD_Initialize+0x3238>
10003a22:	f850 3c04 	ldr.w	r3, [r0, #-4]
10003a26:	2300      	movs	r3, #0
10003a28:	f840 3c04 	str.w	r3, [r0, #-4]
10003a2c:	6803      	ldr	r3, [r0, #0]
10003a2e:	075b      	lsls	r3, r3, #29
10003a30:	d409      	bmi.n	10003a46 <GLCD_Initialize+0x3276>
10003a32:	6803      	ldr	r3, [r0, #0]
10003a34:	075b      	lsls	r3, r3, #29
10003a36:	bf5c      	itt	pl
10003a38:	6803      	ldrpl	r3, [r0, #0]
10003a3a:	ea5f 7343 	movspl.w	r3, r3, lsl #29
10003a3e:	d402      	bmi.n	10003a46 <GLCD_Initialize+0x3276>
10003a40:	6803      	ldr	r3, [r0, #0]
10003a42:	075b      	lsls	r3, r3, #29
10003a44:	d5f2      	bpl.n	10003a2c <GLCD_Initialize+0x325c>
10003a46:	f850 3c04 	ldr.w	r3, [r0, #-4]
10003a4a:	680b      	ldr	r3, [r1, #0]
10003a4c:	f043 0301 	orr.w	r3, r3, #1
10003a50:	600b      	str	r3, [r1, #0]
10003a52:	6813      	ldr	r3, [r2, #0]
10003a54:	f023 0301 	bic.w	r3, r3, #1
10003a58:	6013      	str	r3, [r2, #0]
10003a5a:	2370      	movs	r3, #112	@ 0x70
10003a5c:	f840 3c04 	str.w	r3, [r0, #-4]
10003a60:	6803      	ldr	r3, [r0, #0]
10003a62:	075b      	lsls	r3, r3, #29
10003a64:	d409      	bmi.n	10003a7a <GLCD_Initialize+0x32aa>
10003a66:	6803      	ldr	r3, [r0, #0]
10003a68:	075b      	lsls	r3, r3, #29
10003a6a:	bf5c      	itt	pl
10003a6c:	6803      	ldrpl	r3, [r0, #0]
10003a6e:	ea5f 7343 	movspl.w	r3, r3, lsl #29
10003a72:	d402      	bmi.n	10003a7a <GLCD_Initialize+0x32aa>
10003a74:	6803      	ldr	r3, [r0, #0]
10003a76:	075b      	lsls	r3, r3, #29
10003a78:	d5f2      	bpl.n	10003a60 <GLCD_Initialize+0x3290>
10003a7a:	f850 3c04 	ldr.w	r3, [r0, #-4]
10003a7e:	2300      	movs	r3, #0
10003a80:	f840 3c04 	str.w	r3, [r0, #-4]
10003a84:	6803      	ldr	r3, [r0, #0]
10003a86:	075b      	lsls	r3, r3, #29
10003a88:	d409      	bmi.n	10003a9e <GLCD_Initialize+0x32ce>
10003a8a:	6803      	ldr	r3, [r0, #0]
10003a8c:	075b      	lsls	r3, r3, #29
10003a8e:	bf5c      	itt	pl
10003a90:	6803      	ldrpl	r3, [r0, #0]
10003a92:	ea5f 7343 	movspl.w	r3, r3, lsl #29
10003a96:	d402      	bmi.n	10003a9e <GLCD_Initialize+0x32ce>
10003a98:	6803      	ldr	r3, [r0, #0]
10003a9a:	075b      	lsls	r3, r3, #29
10003a9c:	d5f2      	bpl.n	10003a84 <GLCD_Initialize+0x32b4>
10003a9e:	f850 3c04 	ldr.w	r3, [r0, #-4]
10003aa2:	2332      	movs	r3, #50	@ 0x32
10003aa4:	f840 3c04 	str.w	r3, [r0, #-4]
10003aa8:	6803      	ldr	r3, [r0, #0]
10003aaa:	075b      	lsls	r3, r3, #29
10003aac:	d409      	bmi.n	10003ac2 <GLCD_Initialize+0x32f2>
10003aae:	6803      	ldr	r3, [r0, #0]
10003ab0:	075b      	lsls	r3, r3, #29
10003ab2:	bf5c      	itt	pl
10003ab4:	6803      	ldrpl	r3, [r0, #0]
10003ab6:	ea5f 7343 	movspl.w	r3, r3, lsl #29
10003aba:	d402      	bmi.n	10003ac2 <GLCD_Initialize+0x32f2>
10003abc:	6803      	ldr	r3, [r0, #0]
10003abe:	075b      	lsls	r3, r3, #29
10003ac0:	d5f2      	bpl.n	10003aa8 <GLCD_Initialize+0x32d8>
10003ac2:	f850 3c04 	ldr.w	r3, [r0, #-4]
10003ac6:	680b      	ldr	r3, [r1, #0]
10003ac8:	f043 0301 	orr.w	r3, r3, #1
10003acc:	600b      	str	r3, [r1, #0]
10003ace:	6813      	ldr	r3, [r2, #0]
10003ad0:	f023 0301 	bic.w	r3, r3, #1
10003ad4:	6013      	str	r3, [r2, #0]
10003ad6:	2372      	movs	r3, #114	@ 0x72
10003ad8:	f840 3c04 	str.w	r3, [r0, #-4]
10003adc:	6803      	ldr	r3, [r0, #0]
10003ade:	075b      	lsls	r3, r3, #29
10003ae0:	d409      	bmi.n	10003af6 <GLCD_Initialize+0x3326>
10003ae2:	6803      	ldr	r3, [r0, #0]
10003ae4:	075b      	lsls	r3, r3, #29
10003ae6:	bf5c      	itt	pl
10003ae8:	6803      	ldrpl	r3, [r0, #0]
10003aea:	ea5f 7343 	movspl.w	r3, r3, lsl #29
10003aee:	d402      	bmi.n	10003af6 <GLCD_Initialize+0x3326>
10003af0:	6803      	ldr	r3, [r0, #0]
10003af2:	075b      	lsls	r3, r3, #29
10003af4:	d5f2      	bpl.n	10003adc <GLCD_Initialize+0x330c>
10003af6:	f850 3c04 	ldr.w	r3, [r0, #-4]
10003afa:	2300      	movs	r3, #0
10003afc:	f840 3c04 	str.w	r3, [r0, #-4]
10003b00:	6803      	ldr	r3, [r0, #0]
10003b02:	075b      	lsls	r3, r3, #29
10003b04:	d409      	bmi.n	10003b1a <GLCD_Initialize+0x334a>
10003b06:	6803      	ldr	r3, [r0, #0]
10003b08:	075b      	lsls	r3, r3, #29
10003b0a:	bf5c      	itt	pl
10003b0c:	6803      	ldrpl	r3, [r0, #0]
10003b0e:	ea5f 7343 	movspl.w	r3, r3, lsl #29
10003b12:	d402      	bmi.n	10003b1a <GLCD_Initialize+0x334a>
10003b14:	6803      	ldr	r3, [r0, #0]
10003b16:	075b      	lsls	r3, r3, #29
10003b18:	d5f2      	bpl.n	10003b00 <GLCD_Initialize+0x3330>
10003b1a:	f850 3c04 	ldr.w	r3, [r0, #-4]
10003b1e:	2300      	movs	r3, #0
10003b20:	f840 3c04 	str.w	r3, [r0, #-4]
10003b24:	6803      	ldr	r3, [r0, #0]
10003b26:	075b      	lsls	r3, r3, #29
10003b28:	d409      	bmi.n	10003b3e <GLCD_Initialize+0x336e>
10003b2a:	6803      	ldr	r3, [r0, #0]
10003b2c:	075b      	lsls	r3, r3, #29
10003b2e:	bf5c      	itt	pl
10003b30:	6803      	ldrpl	r3, [r0, #0]
10003b32:	ea5f 7343 	movspl.w	r3, r3, lsl #29
10003b36:	d402      	bmi.n	10003b3e <GLCD_Initialize+0x336e>
10003b38:	6803      	ldr	r3, [r0, #0]
10003b3a:	075b      	lsls	r3, r3, #29
10003b3c:	d5f2      	bpl.n	10003b24 <GLCD_Initialize+0x3354>
10003b3e:	f850 3c04 	ldr.w	r3, [r0, #-4]
10003b42:	680b      	ldr	r3, [r1, #0]
10003b44:	f043 0301 	orr.w	r3, r3, #1
10003b48:	600b      	str	r3, [r1, #0]
10003b4a:	6813      	ldr	r3, [r2, #0]
10003b4c:	f023 0301 	bic.w	r3, r3, #1
10003b50:	6013      	str	r3, [r2, #0]
10003b52:	2370      	movs	r3, #112	@ 0x70
10003b54:	f840 3c04 	str.w	r3, [r0, #-4]
10003b58:	6803      	ldr	r3, [r0, #0]
10003b5a:	075b      	lsls	r3, r3, #29
10003b5c:	d409      	bmi.n	10003b72 <GLCD_Initialize+0x33a2>
10003b5e:	6803      	ldr	r3, [r0, #0]
10003b60:	075b      	lsls	r3, r3, #29
10003b62:	bf5c      	itt	pl
10003b64:	6803      	ldrpl	r3, [r0, #0]
10003b66:	ea5f 7343 	movspl.w	r3, r3, lsl #29
10003b6a:	d402      	bmi.n	10003b72 <GLCD_Initialize+0x33a2>
10003b6c:	6803      	ldr	r3, [r0, #0]
10003b6e:	075b      	lsls	r3, r3, #29
10003b70:	d5f2      	bpl.n	10003b58 <GLCD_Initialize+0x3388>
10003b72:	f850 3c04 	ldr.w	r3, [r0, #-4]
10003b76:	2300      	movs	r3, #0
10003b78:	f840 3c04 	str.w	r3, [r0, #-4]
10003b7c:	6803      	ldr	r3, [r0, #0]
10003b7e:	075b      	lsls	r3, r3, #29
10003b80:	d409      	bmi.n	10003b96 <GLCD_Initialize+0x33c6>
10003b82:	6803      	ldr	r3, [r0, #0]
10003b84:	075b      	lsls	r3, r3, #29
10003b86:	bf5c      	itt	pl
10003b88:	6803      	ldrpl	r3, [r0, #0]
10003b8a:	ea5f 7343 	movspl.w	r3, r3, lsl #29
10003b8e:	d402      	bmi.n	10003b96 <GLCD_Initialize+0x33c6>
10003b90:	6803      	ldr	r3, [r0, #0]
10003b92:	075b      	lsls	r3, r3, #29
10003b94:	d5f2      	bpl.n	10003b7c <GLCD_Initialize+0x33ac>
10003b96:	f850 3c04 	ldr.w	r3, [r0, #-4]
10003b9a:	2328      	movs	r3, #40	@ 0x28
10003b9c:	f840 3c04 	str.w	r3, [r0, #-4]
10003ba0:	6803      	ldr	r3, [r0, #0]
10003ba2:	075b      	lsls	r3, r3, #29
10003ba4:	d409      	bmi.n	10003bba <GLCD_Initialize+0x33ea>
10003ba6:	6803      	ldr	r3, [r0, #0]
10003ba8:	075b      	lsls	r3, r3, #29
10003baa:	bf5c      	itt	pl
10003bac:	6803      	ldrpl	r3, [r0, #0]
10003bae:	ea5f 7343 	movspl.w	r3, r3, lsl #29
10003bb2:	d402      	bmi.n	10003bba <GLCD_Initialize+0x33ea>
10003bb4:	6803      	ldr	r3, [r0, #0]
10003bb6:	075b      	lsls	r3, r3, #29
10003bb8:	d5f2      	bpl.n	10003ba0 <GLCD_Initialize+0x33d0>
10003bba:	f850 3c04 	ldr.w	r3, [r0, #-4]
10003bbe:	680b      	ldr	r3, [r1, #0]
10003bc0:	f043 0301 	orr.w	r3, r3, #1
10003bc4:	600b      	str	r3, [r1, #0]
10003bc6:	6813      	ldr	r3, [r2, #0]
10003bc8:	f023 0301 	bic.w	r3, r3, #1
10003bcc:	6013      	str	r3, [r2, #0]
10003bce:	2372      	movs	r3, #114	@ 0x72
10003bd0:	f840 3c04 	str.w	r3, [r0, #-4]
10003bd4:	6803      	ldr	r3, [r0, #0]
10003bd6:	075b      	lsls	r3, r3, #29
10003bd8:	d409      	bmi.n	10003bee <GLCD_Initialize+0x341e>
10003bda:	6803      	ldr	r3, [r0, #0]
10003bdc:	075b      	lsls	r3, r3, #29
10003bde:	bf5c      	itt	pl
10003be0:	6803      	ldrpl	r3, [r0, #0]
10003be2:	ea5f 7343 	movspl.w	r3, r3, lsl #29
10003be6:	d402      	bmi.n	10003bee <GLCD_Initialize+0x341e>
10003be8:	6803      	ldr	r3, [r0, #0]
10003bea:	075b      	lsls	r3, r3, #29
10003bec:	d5f2      	bpl.n	10003bd4 <GLCD_Initialize+0x3404>
10003bee:	f850 3c04 	ldr.w	r3, [r0, #-4]
10003bf2:	2300      	movs	r3, #0
10003bf4:	f840 3c04 	str.w	r3, [r0, #-4]
10003bf8:	6803      	ldr	r3, [r0, #0]
10003bfa:	075b      	lsls	r3, r3, #29
10003bfc:	d409      	bmi.n	10003c12 <GLCD_Initialize+0x3442>
10003bfe:	6803      	ldr	r3, [r0, #0]
10003c00:	075b      	lsls	r3, r3, #29
10003c02:	bf5c      	itt	pl
10003c04:	6803      	ldrpl	r3, [r0, #0]
10003c06:	ea5f 7343 	movspl.w	r3, r3, lsl #29
10003c0a:	d402      	bmi.n	10003c12 <GLCD_Initialize+0x3442>
10003c0c:	6803      	ldr	r3, [r0, #0]
10003c0e:	075b      	lsls	r3, r3, #29
10003c10:	d5f2      	bpl.n	10003bf8 <GLCD_Initialize+0x3428>
10003c12:	f850 3c04 	ldr.w	r3, [r0, #-4]
10003c16:	2338      	movs	r3, #56	@ 0x38
10003c18:	f840 3c04 	str.w	r3, [r0, #-4]
10003c1c:	6803      	ldr	r3, [r0, #0]
10003c1e:	075b      	lsls	r3, r3, #29
10003c20:	d409      	bmi.n	10003c36 <GLCD_Initialize+0x3466>
10003c22:	6803      	ldr	r3, [r0, #0]
10003c24:	075b      	lsls	r3, r3, #29
10003c26:	bf5c      	itt	pl
10003c28:	6803      	ldrpl	r3, [r0, #0]
10003c2a:	ea5f 7343 	movspl.w	r3, r3, lsl #29
10003c2e:	d402      	bmi.n	10003c36 <GLCD_Initialize+0x3466>
10003c30:	6803      	ldr	r3, [r0, #0]
10003c32:	075b      	lsls	r3, r3, #29
10003c34:	d5f2      	bpl.n	10003c1c <GLCD_Initialize+0x344c>
10003c36:	f850 3c04 	ldr.w	r3, [r0, #-4]
10003c3a:	680b      	ldr	r3, [r1, #0]
10003c3c:	f043 0301 	orr.w	r3, r3, #1
10003c40:	600b      	str	r3, [r1, #0]
10003c42:	f8de 3000 	ldr.w	r3, [lr]
10003c46:	f5b3 7f7a 	cmp.w	r3, #1000	@ 0x3e8
10003c4a:	d308      	bcc.n	10003c5e <GLCD_Initialize+0x348e>
10003c4c:	fba3 340c 	umull	r3, r4, r3, ip
10003c50:	09a3      	lsrs	r3, r4, #6
10003c52:	f06f 04c7 	mvn.w	r4, #199	@ 0xc7
10003c56:	4363      	muls	r3, r4
10003c58:	3301      	adds	r3, #1
10003c5a:	bf00      	nop
10003c5c:	d3fc      	bcc.n	10003c58 <GLCD_Initialize+0x3488>
10003c5e:	6813      	ldr	r3, [r2, #0]
10003c60:	f023 0301 	bic.w	r3, r3, #1
10003c64:	6013      	str	r3, [r2, #0]
10003c66:	2370      	movs	r3, #112	@ 0x70
10003c68:	f840 3c04 	str.w	r3, [r0, #-4]
10003c6c:	6803      	ldr	r3, [r0, #0]
10003c6e:	075b      	lsls	r3, r3, #29
10003c70:	d409      	bmi.n	10003c86 <GLCD_Initialize+0x34b6>
10003c72:	6803      	ldr	r3, [r0, #0]
10003c74:	075b      	lsls	r3, r3, #29
10003c76:	bf5c      	itt	pl
10003c78:	6803      	ldrpl	r3, [r0, #0]
10003c7a:	ea5f 7343 	movspl.w	r3, r3, lsl #29
10003c7e:	d402      	bmi.n	10003c86 <GLCD_Initialize+0x34b6>
10003c80:	6803      	ldr	r3, [r0, #0]
10003c82:	075b      	lsls	r3, r3, #29
10003c84:	d5f2      	bpl.n	10003c6c <GLCD_Initialize+0x349c>
10003c86:	f850 3c04 	ldr.w	r3, [r0, #-4]
10003c8a:	2300      	movs	r3, #0
10003c8c:	f840 3c04 	str.w	r3, [r0, #-4]
10003c90:	6803      	ldr	r3, [r0, #0]
10003c92:	075b      	lsls	r3, r3, #29
10003c94:	d409      	bmi.n	10003caa <GLCD_Initialize+0x34da>
10003c96:	6803      	ldr	r3, [r0, #0]
10003c98:	075b      	lsls	r3, r3, #29
10003c9a:	bf5c      	itt	pl
10003c9c:	6803      	ldrpl	r3, [r0, #0]
10003c9e:	ea5f 7343 	movspl.w	r3, r3, lsl #29
10003ca2:	d402      	bmi.n	10003caa <GLCD_Initialize+0x34da>
10003ca4:	6803      	ldr	r3, [r0, #0]
10003ca6:	075b      	lsls	r3, r3, #29
10003ca8:	d5f2      	bpl.n	10003c90 <GLCD_Initialize+0x34c0>
10003caa:	f850 3c04 	ldr.w	r3, [r0, #-4]
10003cae:	2328      	movs	r3, #40	@ 0x28
10003cb0:	f840 3c04 	str.w	r3, [r0, #-4]
10003cb4:	6803      	ldr	r3, [r0, #0]
10003cb6:	075b      	lsls	r3, r3, #29
10003cb8:	d409      	bmi.n	10003cce <GLCD_Initialize+0x34fe>
10003cba:	6803      	ldr	r3, [r0, #0]
10003cbc:	075b      	lsls	r3, r3, #29
10003cbe:	bf5c      	itt	pl
10003cc0:	6803      	ldrpl	r3, [r0, #0]
10003cc2:	ea5f 7343 	movspl.w	r3, r3, lsl #29
10003cc6:	d402      	bmi.n	10003cce <GLCD_Initialize+0x34fe>
10003cc8:	6803      	ldr	r3, [r0, #0]
10003cca:	075b      	lsls	r3, r3, #29
10003ccc:	d5f2      	bpl.n	10003cb4 <GLCD_Initialize+0x34e4>
10003cce:	f850 3c04 	ldr.w	r3, [r0, #-4]
10003cd2:	680b      	ldr	r3, [r1, #0]
10003cd4:	f043 0301 	orr.w	r3, r3, #1
10003cd8:	600b      	str	r3, [r1, #0]
10003cda:	6813      	ldr	r3, [r2, #0]
10003cdc:	f023 0301 	bic.w	r3, r3, #1
10003ce0:	6013      	str	r3, [r2, #0]
10003ce2:	2372      	movs	r3, #114	@ 0x72
10003ce4:	f840 3c04 	str.w	r3, [r0, #-4]
10003ce8:	6803      	ldr	r3, [r0, #0]
10003cea:	075b      	lsls	r3, r3, #29
10003cec:	d409      	bmi.n	10003d02 <GLCD_Initialize+0x3532>
10003cee:	6803      	ldr	r3, [r0, #0]
10003cf0:	075b      	lsls	r3, r3, #29
10003cf2:	bf5c      	itt	pl
10003cf4:	6803      	ldrpl	r3, [r0, #0]
10003cf6:	ea5f 7343 	movspl.w	r3, r3, lsl #29
10003cfa:	d402      	bmi.n	10003d02 <GLCD_Initialize+0x3532>
10003cfc:	6803      	ldr	r3, [r0, #0]
10003cfe:	075b      	lsls	r3, r3, #29
10003d00:	d5f2      	bpl.n	10003ce8 <GLCD_Initialize+0x3518>
10003d02:	f850 3c04 	ldr.w	r3, [r0, #-4]
10003d06:	2300      	movs	r3, #0
10003d08:	f840 3c04 	str.w	r3, [r0, #-4]
10003d0c:	6803      	ldr	r3, [r0, #0]
10003d0e:	075b      	lsls	r3, r3, #29
10003d10:	d409      	bmi.n	10003d26 <GLCD_Initialize+0x3556>
10003d12:	6803      	ldr	r3, [r0, #0]
10003d14:	075b      	lsls	r3, r3, #29
10003d16:	bf5c      	itt	pl
10003d18:	6803      	ldrpl	r3, [r0, #0]
10003d1a:	ea5f 7343 	movspl.w	r3, r3, lsl #29
10003d1e:	d402      	bmi.n	10003d26 <GLCD_Initialize+0x3556>
10003d20:	6803      	ldr	r3, [r0, #0]
10003d22:	075b      	lsls	r3, r3, #29
10003d24:	d5f2      	bpl.n	10003d0c <GLCD_Initialize+0x353c>
10003d26:	f850 3c04 	ldr.w	r3, [r0, #-4]
10003d2a:	233c      	movs	r3, #60	@ 0x3c
10003d2c:	f840 3c04 	str.w	r3, [r0, #-4]
10003d30:	6803      	ldr	r3, [r0, #0]
10003d32:	075b      	lsls	r3, r3, #29
10003d34:	d409      	bmi.n	10003d4a <GLCD_Initialize+0x357a>
10003d36:	6803      	ldr	r3, [r0, #0]
10003d38:	075b      	lsls	r3, r3, #29
10003d3a:	bf5c      	itt	pl
10003d3c:	6803      	ldrpl	r3, [r0, #0]
10003d3e:	ea5f 7343 	movspl.w	r3, r3, lsl #29
10003d42:	d402      	bmi.n	10003d4a <GLCD_Initialize+0x357a>
10003d44:	6803      	ldr	r3, [r0, #0]
10003d46:	075b      	lsls	r3, r3, #29
10003d48:	d5f2      	bpl.n	10003d30 <GLCD_Initialize+0x3560>
10003d4a:	f850 3c04 	ldr.w	r3, [r0, #-4]
10003d4e:	680b      	ldr	r3, [r1, #0]
10003d50:	f043 0301 	orr.w	r3, r3, #1
10003d54:	600b      	str	r3, [r1, #0]
10003d56:	6813      	ldr	r3, [r2, #0]
10003d58:	f023 0301 	bic.w	r3, r3, #1
10003d5c:	6013      	str	r3, [r2, #0]
10003d5e:	2370      	movs	r3, #112	@ 0x70
10003d60:	f840 3c04 	str.w	r3, [r0, #-4]
10003d64:	6803      	ldr	r3, [r0, #0]
10003d66:	075b      	lsls	r3, r3, #29
10003d68:	d409      	bmi.n	10003d7e <GLCD_Initialize+0x35ae>
10003d6a:	6803      	ldr	r3, [r0, #0]
10003d6c:	075b      	lsls	r3, r3, #29
10003d6e:	bf5c      	itt	pl
10003d70:	6803      	ldrpl	r3, [r0, #0]
10003d72:	ea5f 7343 	movspl.w	r3, r3, lsl #29
10003d76:	d402      	bmi.n	10003d7e <GLCD_Initialize+0x35ae>
10003d78:	6803      	ldr	r3, [r0, #0]
10003d7a:	075b      	lsls	r3, r3, #29
10003d7c:	d5f2      	bpl.n	10003d64 <GLCD_Initialize+0x3594>
10003d7e:	f850 3c04 	ldr.w	r3, [r0, #-4]
10003d82:	2300      	movs	r3, #0
10003d84:	f840 3c04 	str.w	r3, [r0, #-4]
10003d88:	6803      	ldr	r3, [r0, #0]
10003d8a:	075b      	lsls	r3, r3, #29
10003d8c:	d409      	bmi.n	10003da2 <GLCD_Initialize+0x35d2>
10003d8e:	6803      	ldr	r3, [r0, #0]
10003d90:	075b      	lsls	r3, r3, #29
10003d92:	bf5c      	itt	pl
10003d94:	6803      	ldrpl	r3, [r0, #0]
10003d96:	ea5f 7343 	movspl.w	r3, r3, lsl #29
10003d9a:	d402      	bmi.n	10003da2 <GLCD_Initialize+0x35d2>
10003d9c:	6803      	ldr	r3, [r0, #0]
10003d9e:	075b      	lsls	r3, r3, #29
10003da0:	d5f2      	bpl.n	10003d88 <GLCD_Initialize+0x35b8>
10003da2:	f850 3c04 	ldr.w	r3, [r0, #-4]
10003da6:	2316      	movs	r3, #22
10003da8:	f840 3c04 	str.w	r3, [r0, #-4]
10003dac:	6803      	ldr	r3, [r0, #0]
10003dae:	075b      	lsls	r3, r3, #29
10003db0:	d409      	bmi.n	10003dc6 <GLCD_Initialize+0x35f6>
10003db2:	6803      	ldr	r3, [r0, #0]
10003db4:	075b      	lsls	r3, r3, #29
10003db6:	bf5c      	itt	pl
10003db8:	6803      	ldrpl	r3, [r0, #0]
10003dba:	ea5f 7343 	movspl.w	r3, r3, lsl #29
10003dbe:	d402      	bmi.n	10003dc6 <GLCD_Initialize+0x35f6>
10003dc0:	6803      	ldr	r3, [r0, #0]
10003dc2:	075b      	lsls	r3, r3, #29
10003dc4:	d5f2      	bpl.n	10003dac <GLCD_Initialize+0x35dc>
10003dc6:	f850 3c04 	ldr.w	r3, [r0, #-4]
10003dca:	680b      	ldr	r3, [r1, #0]
10003dcc:	f043 0301 	orr.w	r3, r3, #1
10003dd0:	600b      	str	r3, [r1, #0]
10003dd2:	6813      	ldr	r3, [r2, #0]
10003dd4:	f023 0301 	bic.w	r3, r3, #1
10003dd8:	6013      	str	r3, [r2, #0]
10003dda:	2372      	movs	r3, #114	@ 0x72
10003ddc:	f840 3c04 	str.w	r3, [r0, #-4]
10003de0:	6803      	ldr	r3, [r0, #0]
10003de2:	075b      	lsls	r3, r3, #29
10003de4:	d409      	bmi.n	10003dfa <GLCD_Initialize+0x362a>
10003de6:	6803      	ldr	r3, [r0, #0]
10003de8:	075b      	lsls	r3, r3, #29
10003dea:	bf5c      	itt	pl
10003dec:	6803      	ldrpl	r3, [r0, #0]
10003dee:	ea5f 7343 	movspl.w	r3, r3, lsl #29
10003df2:	d402      	bmi.n	10003dfa <GLCD_Initialize+0x362a>
10003df4:	6803      	ldr	r3, [r0, #0]
10003df6:	075b      	lsls	r3, r3, #29
10003df8:	d5f2      	bpl.n	10003de0 <GLCD_Initialize+0x3610>
10003dfa:	f850 3c04 	ldr.w	r3, [r0, #-4]
10003dfe:	2300      	movs	r3, #0
10003e00:	f840 3c04 	str.w	r3, [r0, #-4]
10003e04:	6803      	ldr	r3, [r0, #0]
10003e06:	075b      	lsls	r3, r3, #29
10003e08:	d409      	bmi.n	10003e1e <GLCD_Initialize+0x364e>
10003e0a:	6803      	ldr	r3, [r0, #0]
10003e0c:	075b      	lsls	r3, r3, #29
10003e0e:	bf5c      	itt	pl
10003e10:	6803      	ldrpl	r3, [r0, #0]
10003e12:	ea5f 7343 	movspl.w	r3, r3, lsl #29
10003e16:	d402      	bmi.n	10003e1e <GLCD_Initialize+0x364e>
10003e18:	6803      	ldr	r3, [r0, #0]
10003e1a:	075b      	lsls	r3, r3, #29
10003e1c:	d5f2      	bpl.n	10003e04 <GLCD_Initialize+0x3634>
10003e1e:	f850 3c04 	ldr.w	r3, [r0, #-4]
10003e22:	23a8      	movs	r3, #168	@ 0xa8
10003e24:	f840 3c04 	str.w	r3, [r0, #-4]
10003e28:	6803      	ldr	r3, [r0, #0]
10003e2a:	075b      	lsls	r3, r3, #29
10003e2c:	d409      	bmi.n	10003e42 <GLCD_Initialize+0x3672>
10003e2e:	6803      	ldr	r3, [r0, #0]
10003e30:	075b      	lsls	r3, r3, #29
10003e32:	bf5c      	itt	pl
10003e34:	6803      	ldrpl	r3, [r0, #0]
10003e36:	ea5f 7343 	movspl.w	r3, r3, lsl #29
10003e3a:	d402      	bmi.n	10003e42 <GLCD_Initialize+0x3672>
10003e3c:	6803      	ldr	r3, [r0, #0]
10003e3e:	075b      	lsls	r3, r3, #29
10003e40:	d5f2      	bpl.n	10003e28 <GLCD_Initialize+0x3658>
10003e42:	f850 3c04 	ldr.w	r3, [r0, #-4]
10003e46:	680b      	ldr	r3, [r1, #0]
10003e48:	f043 0301 	orr.w	r3, r3, #1
10003e4c:	600b      	str	r3, [r1, #0]
10003e4e:	6813      	ldr	r3, [r2, #0]
10003e50:	f023 0301 	bic.w	r3, r3, #1
10003e54:	6013      	str	r3, [r2, #0]
10003e56:	2370      	movs	r3, #112	@ 0x70
10003e58:	f840 3c04 	str.w	r3, [r0, #-4]
10003e5c:	6803      	ldr	r3, [r0, #0]
10003e5e:	075b      	lsls	r3, r3, #29
10003e60:	d409      	bmi.n	10003e76 <GLCD_Initialize+0x36a6>
10003e62:	6803      	ldr	r3, [r0, #0]
10003e64:	075b      	lsls	r3, r3, #29
10003e66:	bf5c      	itt	pl
10003e68:	6803      	ldrpl	r3, [r0, #0]
10003e6a:	ea5f 7343 	movspl.w	r3, r3, lsl #29
10003e6e:	d402      	bmi.n	10003e76 <GLCD_Initialize+0x36a6>
10003e70:	6803      	ldr	r3, [r0, #0]
10003e72:	075b      	lsls	r3, r3, #29
10003e74:	d5f2      	bpl.n	10003e5c <GLCD_Initialize+0x368c>
10003e76:	f850 3c04 	ldr.w	r3, [r0, #-4]
10003e7a:	2300      	movs	r3, #0
10003e7c:	f840 3c04 	str.w	r3, [r0, #-4]
10003e80:	6803      	ldr	r3, [r0, #0]
10003e82:	075b      	lsls	r3, r3, #29
10003e84:	d409      	bmi.n	10003e9a <GLCD_Initialize+0x36ca>
10003e86:	6803      	ldr	r3, [r0, #0]
10003e88:	075b      	lsls	r3, r3, #29
10003e8a:	bf5c      	itt	pl
10003e8c:	6803      	ldrpl	r3, [r0, #0]
10003e8e:	ea5f 7343 	movspl.w	r3, r3, lsl #29
10003e92:	d402      	bmi.n	10003e9a <GLCD_Initialize+0x36ca>
10003e94:	6803      	ldr	r3, [r0, #0]
10003e96:	075b      	lsls	r3, r3, #29
10003e98:	d5f2      	bpl.n	10003e80 <GLCD_Initialize+0x36b0>
10003e9a:	f850 3c04 	ldr.w	r3, [r0, #-4]
10003e9e:	230e      	movs	r3, #14
10003ea0:	f840 3c04 	str.w	r3, [r0, #-4]
10003ea4:	6803      	ldr	r3, [r0, #0]
10003ea6:	075b      	lsls	r3, r3, #29
10003ea8:	d409      	bmi.n	10003ebe <GLCD_Initialize+0x36ee>
10003eaa:	6803      	ldr	r3, [r0, #0]
10003eac:	075b      	lsls	r3, r3, #29
10003eae:	bf5c      	itt	pl
10003eb0:	6803      	ldrpl	r3, [r0, #0]
10003eb2:	ea5f 7343 	movspl.w	r3, r3, lsl #29
10003eb6:	d402      	bmi.n	10003ebe <GLCD_Initialize+0x36ee>
10003eb8:	6803      	ldr	r3, [r0, #0]
10003eba:	075b      	lsls	r3, r3, #29
10003ebc:	d5f2      	bpl.n	10003ea4 <GLCD_Initialize+0x36d4>
10003ebe:	f850 3c04 	ldr.w	r3, [r0, #-4]
10003ec2:	680b      	ldr	r3, [r1, #0]
10003ec4:	f043 0301 	orr.w	r3, r3, #1
10003ec8:	600b      	str	r3, [r1, #0]
10003eca:	6813      	ldr	r3, [r2, #0]
10003ecc:	f023 0301 	bic.w	r3, r3, #1
10003ed0:	6013      	str	r3, [r2, #0]
10003ed2:	2372      	movs	r3, #114	@ 0x72
10003ed4:	f840 3c04 	str.w	r3, [r0, #-4]
10003ed8:	6803      	ldr	r3, [r0, #0]
10003eda:	075b      	lsls	r3, r3, #29
10003edc:	d409      	bmi.n	10003ef2 <GLCD_Initialize+0x3722>
10003ede:	6803      	ldr	r3, [r0, #0]
10003ee0:	075b      	lsls	r3, r3, #29
10003ee2:	bf5c      	itt	pl
10003ee4:	6803      	ldrpl	r3, [r0, #0]
10003ee6:	ea5f 7343 	movspl.w	r3, r3, lsl #29
10003eea:	d402      	bmi.n	10003ef2 <GLCD_Initialize+0x3722>
10003eec:	6803      	ldr	r3, [r0, #0]
10003eee:	075b      	lsls	r3, r3, #29
10003ef0:	d5f2      	bpl.n	10003ed8 <GLCD_Initialize+0x3708>
10003ef2:	f850 3c04 	ldr.w	r3, [r0, #-4]
10003ef6:	2300      	movs	r3, #0
10003ef8:	f840 3c04 	str.w	r3, [r0, #-4]
10003efc:	6803      	ldr	r3, [r0, #0]
10003efe:	075b      	lsls	r3, r3, #29
10003f00:	d409      	bmi.n	10003f16 <GLCD_Initialize+0x3746>
10003f02:	6803      	ldr	r3, [r0, #0]
10003f04:	075b      	lsls	r3, r3, #29
10003f06:	bf5c      	itt	pl
10003f08:	6803      	ldrpl	r3, [r0, #0]
10003f0a:	ea5f 7343 	movspl.w	r3, r3, lsl #29
10003f0e:	d402      	bmi.n	10003f16 <GLCD_Initialize+0x3746>
10003f10:	6803      	ldr	r3, [r0, #0]
10003f12:	075b      	lsls	r3, r3, #29
10003f14:	d5f2      	bpl.n	10003efc <GLCD_Initialize+0x372c>
10003f16:	f850 3c04 	ldr.w	r3, [r0, #-4]
10003f1a:	2300      	movs	r3, #0
10003f1c:	f840 3c04 	str.w	r3, [r0, #-4]
10003f20:	6803      	ldr	r3, [r0, #0]
10003f22:	075b      	lsls	r3, r3, #29
10003f24:	d409      	bmi.n	10003f3a <GLCD_Initialize+0x376a>
10003f26:	6803      	ldr	r3, [r0, #0]
10003f28:	075b      	lsls	r3, r3, #29
10003f2a:	bf5c      	itt	pl
10003f2c:	6803      	ldrpl	r3, [r0, #0]
10003f2e:	ea5f 7343 	movspl.w	r3, r3, lsl #29
10003f32:	d402      	bmi.n	10003f3a <GLCD_Initialize+0x376a>
10003f34:	6803      	ldr	r3, [r0, #0]
10003f36:	075b      	lsls	r3, r3, #29
10003f38:	d5f2      	bpl.n	10003f20 <GLCD_Initialize+0x3750>
10003f3a:	f850 3c04 	ldr.w	r3, [r0, #-4]
10003f3e:	680b      	ldr	r3, [r1, #0]
10003f40:	f043 0301 	orr.w	r3, r3, #1
10003f44:	600b      	str	r3, [r1, #0]
10003f46:	6813      	ldr	r3, [r2, #0]
10003f48:	f023 0301 	bic.w	r3, r3, #1
10003f4c:	6013      	str	r3, [r2, #0]
10003f4e:	2370      	movs	r3, #112	@ 0x70
10003f50:	f840 3c04 	str.w	r3, [r0, #-4]
10003f54:	6803      	ldr	r3, [r0, #0]
10003f56:	075b      	lsls	r3, r3, #29
10003f58:	d409      	bmi.n	10003f6e <GLCD_Initialize+0x379e>
10003f5a:	6803      	ldr	r3, [r0, #0]
10003f5c:	075b      	lsls	r3, r3, #29
10003f5e:	bf5c      	itt	pl
10003f60:	6803      	ldrpl	r3, [r0, #0]
10003f62:	ea5f 7343 	movspl.w	r3, r3, lsl #29
10003f66:	d402      	bmi.n	10003f6e <GLCD_Initialize+0x379e>
10003f68:	6803      	ldr	r3, [r0, #0]
10003f6a:	075b      	lsls	r3, r3, #29
10003f6c:	d5f2      	bpl.n	10003f54 <GLCD_Initialize+0x3784>
10003f6e:	f850 3c04 	ldr.w	r3, [r0, #-4]
10003f72:	2300      	movs	r3, #0
10003f74:	f840 3c04 	str.w	r3, [r0, #-4]
10003f78:	6803      	ldr	r3, [r0, #0]
10003f7a:	075b      	lsls	r3, r3, #29
10003f7c:	d409      	bmi.n	10003f92 <GLCD_Initialize+0x37c2>
10003f7e:	6803      	ldr	r3, [r0, #0]
10003f80:	075b      	lsls	r3, r3, #29
10003f82:	bf5c      	itt	pl
10003f84:	6803      	ldrpl	r3, [r0, #0]
10003f86:	ea5f 7343 	movspl.w	r3, r3, lsl #29
10003f8a:	d402      	bmi.n	10003f92 <GLCD_Initialize+0x37c2>
10003f8c:	6803      	ldr	r3, [r0, #0]
10003f8e:	075b      	lsls	r3, r3, #29
10003f90:	d5f2      	bpl.n	10003f78 <GLCD_Initialize+0x37a8>
10003f92:	f850 3c04 	ldr.w	r3, [r0, #-4]
10003f96:	230f      	movs	r3, #15
10003f98:	f840 3c04 	str.w	r3, [r0, #-4]
10003f9c:	6803      	ldr	r3, [r0, #0]
10003f9e:	075b      	lsls	r3, r3, #29
10003fa0:	d409      	bmi.n	10003fb6 <GLCD_Initialize+0x37e6>
10003fa2:	6803      	ldr	r3, [r0, #0]
10003fa4:	075b      	lsls	r3, r3, #29
10003fa6:	bf5c      	itt	pl
10003fa8:	6803      	ldrpl	r3, [r0, #0]
10003faa:	ea5f 7343 	movspl.w	r3, r3, lsl #29
10003fae:	d402      	bmi.n	10003fb6 <GLCD_Initialize+0x37e6>
10003fb0:	6803      	ldr	r3, [r0, #0]
10003fb2:	075b      	lsls	r3, r3, #29
10003fb4:	d5f2      	bpl.n	10003f9c <GLCD_Initialize+0x37cc>
10003fb6:	f850 3c04 	ldr.w	r3, [r0, #-4]
10003fba:	680b      	ldr	r3, [r1, #0]
10003fbc:	f043 0301 	orr.w	r3, r3, #1
10003fc0:	600b      	str	r3, [r1, #0]
10003fc2:	6813      	ldr	r3, [r2, #0]
10003fc4:	f023 0301 	bic.w	r3, r3, #1
10003fc8:	6013      	str	r3, [r2, #0]
10003fca:	2372      	movs	r3, #114	@ 0x72
10003fcc:	f840 3c04 	str.w	r3, [r0, #-4]
10003fd0:	6803      	ldr	r3, [r0, #0]
10003fd2:	075b      	lsls	r3, r3, #29
10003fd4:	d409      	bmi.n	10003fea <GLCD_Initialize+0x381a>
10003fd6:	6803      	ldr	r3, [r0, #0]
10003fd8:	075b      	lsls	r3, r3, #29
10003fda:	bf5c      	itt	pl
10003fdc:	6803      	ldrpl	r3, [r0, #0]
10003fde:	ea5f 7343 	movspl.w	r3, r3, lsl #29
10003fe2:	d402      	bmi.n	10003fea <GLCD_Initialize+0x381a>
10003fe4:	6803      	ldr	r3, [r0, #0]
10003fe6:	075b      	lsls	r3, r3, #29
10003fe8:	d5f2      	bpl.n	10003fd0 <GLCD_Initialize+0x3800>
10003fea:	f850 3c04 	ldr.w	r3, [r0, #-4]
10003fee:	2300      	movs	r3, #0
10003ff0:	f840 3c04 	str.w	r3, [r0, #-4]
10003ff4:	6803      	ldr	r3, [r0, #0]
10003ff6:	075b      	lsls	r3, r3, #29
10003ff8:	d409      	bmi.n	1000400e <GLCD_Initialize+0x383e>
10003ffa:	6803      	ldr	r3, [r0, #0]
10003ffc:	075b      	lsls	r3, r3, #29
10003ffe:	bf5c      	itt	pl
10004000:	6803      	ldrpl	r3, [r0, #0]
10004002:	ea5f 7343 	movspl.w	r3, r3, lsl #29
10004006:	d402      	bmi.n	1000400e <GLCD_Initialize+0x383e>
10004008:	6803      	ldr	r3, [r0, #0]
1000400a:	075b      	lsls	r3, r3, #29
1000400c:	d5f2      	bpl.n	10003ff4 <GLCD_Initialize+0x3824>
1000400e:	f850 3c04 	ldr.w	r3, [r0, #-4]
10004012:	2300      	movs	r3, #0
10004014:	f840 3c04 	str.w	r3, [r0, #-4]
10004018:	6803      	ldr	r3, [r0, #0]
1000401a:	075b      	lsls	r3, r3, #29
1000401c:	d409      	bmi.n	10004032 <GLCD_Initialize+0x3862>
1000401e:	6803      	ldr	r3, [r0, #0]
10004020:	075b      	lsls	r3, r3, #29
10004022:	bf5c      	itt	pl
10004024:	6803      	ldrpl	r3, [r0, #0]
10004026:	ea5f 7343 	movspl.w	r3, r3, lsl #29
1000402a:	d402      	bmi.n	10004032 <GLCD_Initialize+0x3862>
1000402c:	6803      	ldr	r3, [r0, #0]
1000402e:	075b      	lsls	r3, r3, #29
10004030:	d5f2      	bpl.n	10004018 <GLCD_Initialize+0x3848>
10004032:	f850 3c04 	ldr.w	r3, [r0, #-4]
10004036:	680b      	ldr	r3, [r1, #0]
10004038:	f043 0301 	orr.w	r3, r3, #1
1000403c:	600b      	str	r3, [r1, #0]
1000403e:	6813      	ldr	r3, [r2, #0]
10004040:	f023 0301 	bic.w	r3, r3, #1
10004044:	6013      	str	r3, [r2, #0]
10004046:	2370      	movs	r3, #112	@ 0x70
10004048:	f840 3c04 	str.w	r3, [r0, #-4]
1000404c:	6803      	ldr	r3, [r0, #0]
1000404e:	075b      	lsls	r3, r3, #29
10004050:	d409      	bmi.n	10004066 <GLCD_Initialize+0x3896>
10004052:	6803      	ldr	r3, [r0, #0]
10004054:	075b      	lsls	r3, r3, #29
10004056:	bf5c      	itt	pl
10004058:	6803      	ldrpl	r3, [r0, #0]
1000405a:	ea5f 7343 	movspl.w	r3, r3, lsl #29
1000405e:	d402      	bmi.n	10004066 <GLCD_Initialize+0x3896>
10004060:	6803      	ldr	r3, [r0, #0]
10004062:	075b      	lsls	r3, r3, #29
10004064:	d5f2      	bpl.n	1000404c <GLCD_Initialize+0x387c>
10004066:	f850 3c04 	ldr.w	r3, [r0, #-4]
1000406a:	2300      	movs	r3, #0
1000406c:	f840 3c04 	str.w	r3, [r0, #-4]
10004070:	6803      	ldr	r3, [r0, #0]
10004072:	075b      	lsls	r3, r3, #29
10004074:	d409      	bmi.n	1000408a <GLCD_Initialize+0x38ba>
10004076:	6803      	ldr	r3, [r0, #0]
10004078:	075b      	lsls	r3, r3, #29
1000407a:	bf5c      	itt	pl
1000407c:	6803      	ldrpl	r3, [r0, #0]
1000407e:	ea5f 7343 	movspl.w	r3, r3, lsl #29
10004082:	d402      	bmi.n	1000408a <GLCD_Initialize+0x38ba>
10004084:	6803      	ldr	r3, [r0, #0]
10004086:	075b      	lsls	r3, r3, #29
10004088:	d5f2      	bpl.n	10004070 <GLCD_Initialize+0x38a0>
1000408a:	f850 3c04 	ldr.w	r3, [r0, #-4]
1000408e:	2310      	movs	r3, #16
10004090:	f840 3c04 	str.w	r3, [r0, #-4]
10004094:	6803      	ldr	r3, [r0, #0]
10004096:	075b      	lsls	r3, r3, #29
10004098:	d409      	bmi.n	100040ae <GLCD_Initialize+0x38de>
1000409a:	6803      	ldr	r3, [r0, #0]
1000409c:	075b      	lsls	r3, r3, #29
1000409e:	bf5c      	itt	pl
100040a0:	6803      	ldrpl	r3, [r0, #0]
100040a2:	ea5f 7343 	movspl.w	r3, r3, lsl #29
100040a6:	d402      	bmi.n	100040ae <GLCD_Initialize+0x38de>
100040a8:	6803      	ldr	r3, [r0, #0]
100040aa:	075b      	lsls	r3, r3, #29
100040ac:	d5f2      	bpl.n	10004094 <GLCD_Initialize+0x38c4>
100040ae:	f850 3c04 	ldr.w	r3, [r0, #-4]
100040b2:	680b      	ldr	r3, [r1, #0]
100040b4:	f043 0301 	orr.w	r3, r3, #1
100040b8:	600b      	str	r3, [r1, #0]
100040ba:	6813      	ldr	r3, [r2, #0]
100040bc:	f023 0301 	bic.w	r3, r3, #1
100040c0:	6013      	str	r3, [r2, #0]
100040c2:	2372      	movs	r3, #114	@ 0x72
100040c4:	f840 3c04 	str.w	r3, [r0, #-4]
100040c8:	6803      	ldr	r3, [r0, #0]
100040ca:	075b      	lsls	r3, r3, #29
100040cc:	d409      	bmi.n	100040e2 <GLCD_Initialize+0x3912>
100040ce:	6803      	ldr	r3, [r0, #0]
100040d0:	075b      	lsls	r3, r3, #29
100040d2:	bf5c      	itt	pl
100040d4:	6803      	ldrpl	r3, [r0, #0]
100040d6:	ea5f 7343 	movspl.w	r3, r3, lsl #29
100040da:	d402      	bmi.n	100040e2 <GLCD_Initialize+0x3912>
100040dc:	6803      	ldr	r3, [r0, #0]
100040de:	075b      	lsls	r3, r3, #29
100040e0:	d5f2      	bpl.n	100040c8 <GLCD_Initialize+0x38f8>
100040e2:	f850 3c04 	ldr.w	r3, [r0, #-4]
100040e6:	2300      	movs	r3, #0
100040e8:	f840 3c04 	str.w	r3, [r0, #-4]
100040ec:	6803      	ldr	r3, [r0, #0]
100040ee:	075b      	lsls	r3, r3, #29
100040f0:	d409      	bmi.n	10004106 <GLCD_Initialize+0x3936>
100040f2:	6803      	ldr	r3, [r0, #0]
100040f4:	075b      	lsls	r3, r3, #29
100040f6:	bf5c      	itt	pl
100040f8:	6803      	ldrpl	r3, [r0, #0]
100040fa:	ea5f 7343 	movspl.w	r3, r3, lsl #29
100040fe:	d402      	bmi.n	10004106 <GLCD_Initialize+0x3936>
10004100:	6803      	ldr	r3, [r0, #0]
10004102:	075b      	lsls	r3, r3, #29
10004104:	d5f2      	bpl.n	100040ec <GLCD_Initialize+0x391c>
10004106:	f850 3c04 	ldr.w	r3, [r0, #-4]
1000410a:	2301      	movs	r3, #1
1000410c:	f840 3c04 	str.w	r3, [r0, #-4]
10004110:	6803      	ldr	r3, [r0, #0]
10004112:	075b      	lsls	r3, r3, #29
10004114:	d409      	bmi.n	1000412a <GLCD_Initialize+0x395a>
10004116:	6803      	ldr	r3, [r0, #0]
10004118:	075b      	lsls	r3, r3, #29
1000411a:	bf5c      	itt	pl
1000411c:	6803      	ldrpl	r3, [r0, #0]
1000411e:	ea5f 7343 	movspl.w	r3, r3, lsl #29
10004122:	d402      	bmi.n	1000412a <GLCD_Initialize+0x395a>
10004124:	6803      	ldr	r3, [r0, #0]
10004126:	075b      	lsls	r3, r3, #29
10004128:	d5f2      	bpl.n	10004110 <GLCD_Initialize+0x3940>
1000412a:	f850 3c04 	ldr.w	r3, [r0, #-4]
1000412e:	680b      	ldr	r3, [r1, #0]
10004130:	f043 0301 	orr.w	r3, r3, #1
10004134:	600b      	str	r3, [r1, #0]
10004136:	6813      	ldr	r3, [r2, #0]
10004138:	f023 0301 	bic.w	r3, r3, #1
1000413c:	6013      	str	r3, [r2, #0]
1000413e:	2370      	movs	r3, #112	@ 0x70
10004140:	f840 3c04 	str.w	r3, [r0, #-4]
10004144:	6803      	ldr	r3, [r0, #0]
10004146:	075b      	lsls	r3, r3, #29
10004148:	d409      	bmi.n	1000415e <GLCD_Initialize+0x398e>
1000414a:	6803      	ldr	r3, [r0, #0]
1000414c:	075b      	lsls	r3, r3, #29
1000414e:	bf5c      	itt	pl
10004150:	6803      	ldrpl	r3, [r0, #0]
10004152:	ea5f 7343 	movspl.w	r3, r3, lsl #29
10004156:	d402      	bmi.n	1000415e <GLCD_Initialize+0x398e>
10004158:	6803      	ldr	r3, [r0, #0]
1000415a:	075b      	lsls	r3, r3, #29
1000415c:	d5f2      	bpl.n	10004144 <GLCD_Initialize+0x3974>
1000415e:	f850 3c04 	ldr.w	r3, [r0, #-4]
10004162:	2300      	movs	r3, #0
10004164:	f840 3c04 	str.w	r3, [r0, #-4]
10004168:	6803      	ldr	r3, [r0, #0]
1000416a:	075b      	lsls	r3, r3, #29
1000416c:	d409      	bmi.n	10004182 <GLCD_Initialize+0x39b2>
1000416e:	6803      	ldr	r3, [r0, #0]
10004170:	075b      	lsls	r3, r3, #29
10004172:	bf5c      	itt	pl
10004174:	6803      	ldrpl	r3, [r0, #0]
10004176:	ea5f 7343 	movspl.w	r3, r3, lsl #29
1000417a:	d402      	bmi.n	10004182 <GLCD_Initialize+0x39b2>
1000417c:	6803      	ldr	r3, [r0, #0]
1000417e:	075b      	lsls	r3, r3, #29
10004180:	d5f2      	bpl.n	10004168 <GLCD_Initialize+0x3998>
10004182:	f850 3c04 	ldr.w	r3, [r0, #-4]
10004186:	2311      	movs	r3, #17
10004188:	f840 3c04 	str.w	r3, [r0, #-4]
1000418c:	6803      	ldr	r3, [r0, #0]
1000418e:	075b      	lsls	r3, r3, #29
10004190:	d409      	bmi.n	100041a6 <GLCD_Initialize+0x39d6>
10004192:	6803      	ldr	r3, [r0, #0]
10004194:	075b      	lsls	r3, r3, #29
10004196:	bf5c      	itt	pl
10004198:	6803      	ldrpl	r3, [r0, #0]
1000419a:	ea5f 7343 	movspl.w	r3, r3, lsl #29
1000419e:	d402      	bmi.n	100041a6 <GLCD_Initialize+0x39d6>
100041a0:	6803      	ldr	r3, [r0, #0]
100041a2:	075b      	lsls	r3, r3, #29
100041a4:	d5f2      	bpl.n	1000418c <GLCD_Initialize+0x39bc>
100041a6:	f850 3c04 	ldr.w	r3, [r0, #-4]
100041aa:	680b      	ldr	r3, [r1, #0]
100041ac:	f043 0301 	orr.w	r3, r3, #1
100041b0:	600b      	str	r3, [r1, #0]
100041b2:	6813      	ldr	r3, [r2, #0]
100041b4:	f023 0301 	bic.w	r3, r3, #1
100041b8:	6013      	str	r3, [r2, #0]
100041ba:	2372      	movs	r3, #114	@ 0x72
100041bc:	f840 3c04 	str.w	r3, [r0, #-4]
100041c0:	6803      	ldr	r3, [r0, #0]
100041c2:	075b      	lsls	r3, r3, #29
100041c4:	d409      	bmi.n	100041da <GLCD_Initialize+0x3a0a>
100041c6:	6803      	ldr	r3, [r0, #0]
100041c8:	075b      	lsls	r3, r3, #29
100041ca:	bf5c      	itt	pl
100041cc:	6803      	ldrpl	r3, [r0, #0]
100041ce:	ea5f 7343 	movspl.w	r3, r3, lsl #29
100041d2:	d402      	bmi.n	100041da <GLCD_Initialize+0x3a0a>
100041d4:	6803      	ldr	r3, [r0, #0]
100041d6:	075b      	lsls	r3, r3, #29
100041d8:	d5f2      	bpl.n	100041c0 <GLCD_Initialize+0x39f0>
100041da:	f850 3c04 	ldr.w	r3, [r0, #-4]
100041de:	2300      	movs	r3, #0
100041e0:	f840 3c04 	str.w	r3, [r0, #-4]
100041e4:	6803      	ldr	r3, [r0, #0]
100041e6:	075b      	lsls	r3, r3, #29
100041e8:	d409      	bmi.n	100041fe <GLCD_Initialize+0x3a2e>
100041ea:	6803      	ldr	r3, [r0, #0]
100041ec:	075b      	lsls	r3, r3, #29
100041ee:	bf5c      	itt	pl
100041f0:	6803      	ldrpl	r3, [r0, #0]
100041f2:	ea5f 7343 	movspl.w	r3, r3, lsl #29
100041f6:	d402      	bmi.n	100041fe <GLCD_Initialize+0x3a2e>
100041f8:	6803      	ldr	r3, [r0, #0]
100041fa:	075b      	lsls	r3, r3, #29
100041fc:	d5f2      	bpl.n	100041e4 <GLCD_Initialize+0x3a14>
100041fe:	f850 3c04 	ldr.w	r3, [r0, #-4]
10004202:	2340      	movs	r3, #64	@ 0x40
10004204:	f840 3c04 	str.w	r3, [r0, #-4]
10004208:	6803      	ldr	r3, [r0, #0]
1000420a:	075b      	lsls	r3, r3, #29
1000420c:	d409      	bmi.n	10004222 <GLCD_Initialize+0x3a52>
1000420e:	6803      	ldr	r3, [r0, #0]
10004210:	075b      	lsls	r3, r3, #29
10004212:	bf5c      	itt	pl
10004214:	6803      	ldrpl	r3, [r0, #0]
10004216:	ea5f 7343 	movspl.w	r3, r3, lsl #29
1000421a:	d402      	bmi.n	10004222 <GLCD_Initialize+0x3a52>
1000421c:	6803      	ldr	r3, [r0, #0]
1000421e:	075b      	lsls	r3, r3, #29
10004220:	d5f2      	bpl.n	10004208 <GLCD_Initialize+0x3a38>
10004222:	f850 3c04 	ldr.w	r3, [r0, #-4]
10004226:	680b      	ldr	r3, [r1, #0]
10004228:	f043 0301 	orr.w	r3, r3, #1
1000422c:	600b      	str	r3, [r1, #0]
1000422e:	6813      	ldr	r3, [r2, #0]
10004230:	f023 0301 	bic.w	r3, r3, #1
10004234:	6013      	str	r3, [r2, #0]
10004236:	2370      	movs	r3, #112	@ 0x70
10004238:	f840 3c04 	str.w	r3, [r0, #-4]
1000423c:	6803      	ldr	r3, [r0, #0]
1000423e:	075b      	lsls	r3, r3, #29
10004240:	d409      	bmi.n	10004256 <GLCD_Initialize+0x3a86>
10004242:	6803      	ldr	r3, [r0, #0]
10004244:	075b      	lsls	r3, r3, #29
10004246:	bf5c      	itt	pl
10004248:	6803      	ldrpl	r3, [r0, #0]
1000424a:	ea5f 7343 	movspl.w	r3, r3, lsl #29
1000424e:	d402      	bmi.n	10004256 <GLCD_Initialize+0x3a86>
10004250:	6803      	ldr	r3, [r0, #0]
10004252:	075b      	lsls	r3, r3, #29
10004254:	d5f2      	bpl.n	1000423c <GLCD_Initialize+0x3a6c>
10004256:	f850 3c04 	ldr.w	r3, [r0, #-4]
1000425a:	2300      	movs	r3, #0
1000425c:	f840 3c04 	str.w	r3, [r0, #-4]
10004260:	6803      	ldr	r3, [r0, #0]
10004262:	075b      	lsls	r3, r3, #29
10004264:	d409      	bmi.n	1000427a <GLCD_Initialize+0x3aaa>
10004266:	6803      	ldr	r3, [r0, #0]
10004268:	075b      	lsls	r3, r3, #29
1000426a:	bf5c      	itt	pl
1000426c:	6803      	ldrpl	r3, [r0, #0]
1000426e:	ea5f 7343 	movspl.w	r3, r3, lsl #29
10004272:	d402      	bmi.n	1000427a <GLCD_Initialize+0x3aaa>
10004274:	6803      	ldr	r3, [r0, #0]
10004276:	075b      	lsls	r3, r3, #29
10004278:	d5f2      	bpl.n	10004260 <GLCD_Initialize+0x3a90>
1000427a:	f850 3c04 	ldr.w	r3, [r0, #-4]
1000427e:	2312      	movs	r3, #18
10004280:	f840 3c04 	str.w	r3, [r0, #-4]
10004284:	6803      	ldr	r3, [r0, #0]
10004286:	075b      	lsls	r3, r3, #29
10004288:	d409      	bmi.n	1000429e <GLCD_Initialize+0x3ace>
1000428a:	6803      	ldr	r3, [r0, #0]
1000428c:	075b      	lsls	r3, r3, #29
1000428e:	bf5c      	itt	pl
10004290:	6803      	ldrpl	r3, [r0, #0]
10004292:	ea5f 7343 	movspl.w	r3, r3, lsl #29
10004296:	d402      	bmi.n	1000429e <GLCD_Initialize+0x3ace>
10004298:	6803      	ldr	r3, [r0, #0]
1000429a:	075b      	lsls	r3, r3, #29
1000429c:	d5f2      	bpl.n	10004284 <GLCD_Initialize+0x3ab4>
1000429e:	f850 3c04 	ldr.w	r3, [r0, #-4]
100042a2:	680b      	ldr	r3, [r1, #0]
100042a4:	f043 0301 	orr.w	r3, r3, #1
100042a8:	600b      	str	r3, [r1, #0]
100042aa:	6813      	ldr	r3, [r2, #0]
100042ac:	f023 0301 	bic.w	r3, r3, #1
100042b0:	6013      	str	r3, [r2, #0]
100042b2:	2372      	movs	r3, #114	@ 0x72
100042b4:	f840 3c04 	str.w	r3, [r0, #-4]
100042b8:	6803      	ldr	r3, [r0, #0]
100042ba:	075b      	lsls	r3, r3, #29
100042bc:	d409      	bmi.n	100042d2 <GLCD_Initialize+0x3b02>
100042be:	6803      	ldr	r3, [r0, #0]
100042c0:	075b      	lsls	r3, r3, #29
100042c2:	bf5c      	itt	pl
100042c4:	6803      	ldrpl	r3, [r0, #0]
100042c6:	ea5f 7343 	movspl.w	r3, r3, lsl #29
100042ca:	d402      	bmi.n	100042d2 <GLCD_Initialize+0x3b02>
100042cc:	6803      	ldr	r3, [r0, #0]
100042ce:	075b      	lsls	r3, r3, #29
100042d0:	d5f2      	bpl.n	100042b8 <GLCD_Initialize+0x3ae8>
100042d2:	f850 3c04 	ldr.w	r3, [r0, #-4]
100042d6:	2300      	movs	r3, #0
100042d8:	f840 3c04 	str.w	r3, [r0, #-4]
100042dc:	6803      	ldr	r3, [r0, #0]
100042de:	075b      	lsls	r3, r3, #29
100042e0:	d409      	bmi.n	100042f6 <GLCD_Initialize+0x3b26>
100042e2:	6803      	ldr	r3, [r0, #0]
100042e4:	075b      	lsls	r3, r3, #29
100042e6:	bf5c      	itt	pl
100042e8:	6803      	ldrpl	r3, [r0, #0]
100042ea:	ea5f 7343 	movspl.w	r3, r3, lsl #29
100042ee:	d402      	bmi.n	100042f6 <GLCD_Initialize+0x3b26>
100042f0:	6803      	ldr	r3, [r0, #0]
100042f2:	075b      	lsls	r3, r3, #29
100042f4:	d5f2      	bpl.n	100042dc <GLCD_Initialize+0x3b0c>
100042f6:	f850 3c04 	ldr.w	r3, [r0, #-4]
100042fa:	2300      	movs	r3, #0
100042fc:	f840 3c04 	str.w	r3, [r0, #-4]
10004300:	6803      	ldr	r3, [r0, #0]
10004302:	075b      	lsls	r3, r3, #29
10004304:	d409      	bmi.n	1000431a <GLCD_Initialize+0x3b4a>
10004306:	6803      	ldr	r3, [r0, #0]
10004308:	075b      	lsls	r3, r3, #29
1000430a:	bf5c      	itt	pl
1000430c:	6803      	ldrpl	r3, [r0, #0]
1000430e:	ea5f 7343 	movspl.w	r3, r3, lsl #29
10004312:	d402      	bmi.n	1000431a <GLCD_Initialize+0x3b4a>
10004314:	6803      	ldr	r3, [r0, #0]
10004316:	075b      	lsls	r3, r3, #29
10004318:	d5f2      	bpl.n	10004300 <GLCD_Initialize+0x3b30>
1000431a:	f850 3c04 	ldr.w	r3, [r0, #-4]
1000431e:	680b      	ldr	r3, [r1, #0]
10004320:	f043 0301 	orr.w	r3, r3, #1
10004324:	600b      	str	r3, [r1, #0]
10004326:	6813      	ldr	r3, [r2, #0]
10004328:	f023 0301 	bic.w	r3, r3, #1
1000432c:	6013      	str	r3, [r2, #0]
1000432e:	2370      	movs	r3, #112	@ 0x70
10004330:	f840 3c04 	str.w	r3, [r0, #-4]
10004334:	6803      	ldr	r3, [r0, #0]
10004336:	075b      	lsls	r3, r3, #29
10004338:	d409      	bmi.n	1000434e <GLCD_Initialize+0x3b7e>
1000433a:	6803      	ldr	r3, [r0, #0]
1000433c:	075b      	lsls	r3, r3, #29
1000433e:	bf5c      	itt	pl
10004340:	6803      	ldrpl	r3, [r0, #0]
10004342:	ea5f 7343 	movspl.w	r3, r3, lsl #29
10004346:	d402      	bmi.n	1000434e <GLCD_Initialize+0x3b7e>
10004348:	6803      	ldr	r3, [r0, #0]
1000434a:	075b      	lsls	r3, r3, #29
1000434c:	d5f2      	bpl.n	10004334 <GLCD_Initialize+0x3b64>
1000434e:	f850 3c04 	ldr.w	r3, [r0, #-4]
10004352:	2300      	movs	r3, #0
10004354:	f840 3c04 	str.w	r3, [r0, #-4]
10004358:	6803      	ldr	r3, [r0, #0]
1000435a:	075b      	lsls	r3, r3, #29
1000435c:	d409      	bmi.n	10004372 <GLCD_Initialize+0x3ba2>
1000435e:	6803      	ldr	r3, [r0, #0]
10004360:	075b      	lsls	r3, r3, #29
10004362:	bf5c      	itt	pl
10004364:	6803      	ldrpl	r3, [r0, #0]
10004366:	ea5f 7343 	movspl.w	r3, r3, lsl #29
1000436a:	d402      	bmi.n	10004372 <GLCD_Initialize+0x3ba2>
1000436c:	6803      	ldr	r3, [r0, #0]
1000436e:	075b      	lsls	r3, r3, #29
10004370:	d5f2      	bpl.n	10004358 <GLCD_Initialize+0x3b88>
10004372:	f850 3c04 	ldr.w	r3, [r0, #-4]
10004376:	2313      	movs	r3, #19
10004378:	f840 3c04 	str.w	r3, [r0, #-4]
1000437c:	6803      	ldr	r3, [r0, #0]
1000437e:	075b      	lsls	r3, r3, #29
10004380:	d409      	bmi.n	10004396 <GLCD_Initialize+0x3bc6>
10004382:	6803      	ldr	r3, [r0, #0]
10004384:	075b      	lsls	r3, r3, #29
10004386:	bf5c      	itt	pl
10004388:	6803      	ldrpl	r3, [r0, #0]
1000438a:	ea5f 7343 	movspl.w	r3, r3, lsl #29
1000438e:	d402      	bmi.n	10004396 <GLCD_Initialize+0x3bc6>
10004390:	6803      	ldr	r3, [r0, #0]
10004392:	075b      	lsls	r3, r3, #29
10004394:	d5f2      	bpl.n	1000437c <GLCD_Initialize+0x3bac>
10004396:	f850 3c04 	ldr.w	r3, [r0, #-4]
1000439a:	680b      	ldr	r3, [r1, #0]
1000439c:	f043 0301 	orr.w	r3, r3, #1
100043a0:	600b      	str	r3, [r1, #0]
100043a2:	6813      	ldr	r3, [r2, #0]
100043a4:	f023 0301 	bic.w	r3, r3, #1
100043a8:	6013      	str	r3, [r2, #0]
100043aa:	2272      	movs	r2, #114	@ 0x72
100043ac:	f840 2c04 	str.w	r2, [r0, #-4]
100043b0:	6802      	ldr	r2, [r0, #0]
100043b2:	0752      	lsls	r2, r2, #29
100043b4:	d409      	bmi.n	100043ca <GLCD_Initialize+0x3bfa>
100043b6:	6802      	ldr	r2, [r0, #0]
100043b8:	0752      	lsls	r2, r2, #29
100043ba:	bf5c      	itt	pl
100043bc:	6802      	ldrpl	r2, [r0, #0]
100043be:	ea5f 7242 	movspl.w	r2, r2, lsl #29
100043c2:	d402      	bmi.n	100043ca <GLCD_Initialize+0x3bfa>
100043c4:	6802      	ldr	r2, [r0, #0]
100043c6:	0752      	lsls	r2, r2, #29
100043c8:	d5f2      	bpl.n	100043b0 <GLCD_Initialize+0x3be0>
100043ca:	f850 2c04 	ldr.w	r2, [r0, #-4]
100043ce:	2200      	movs	r2, #0
100043d0:	f840 2c04 	str.w	r2, [r0, #-4]
100043d4:	6802      	ldr	r2, [r0, #0]
100043d6:	0752      	lsls	r2, r2, #29
100043d8:	d409      	bmi.n	100043ee <GLCD_Initialize+0x3c1e>
100043da:	6802      	ldr	r2, [r0, #0]
100043dc:	0752      	lsls	r2, r2, #29
100043de:	bf5c      	itt	pl
100043e0:	6802      	ldrpl	r2, [r0, #0]
100043e2:	ea5f 7242 	movspl.w	r2, r2, lsl #29
100043e6:	d402      	bmi.n	100043ee <GLCD_Initialize+0x3c1e>
100043e8:	6802      	ldr	r2, [r0, #0]
100043ea:	0752      	lsls	r2, r2, #29
100043ec:	d5f2      	bpl.n	100043d4 <GLCD_Initialize+0x3c04>
100043ee:	f850 2c04 	ldr.w	r2, [r0, #-4]
100043f2:	2200      	movs	r2, #0
100043f4:	f840 2c04 	str.w	r2, [r0, #-4]
100043f8:	6802      	ldr	r2, [r0, #0]
100043fa:	0752      	lsls	r2, r2, #29
100043fc:	d409      	bmi.n	10004412 <GLCD_Initialize+0x3c42>
100043fe:	6802      	ldr	r2, [r0, #0]
10004400:	0752      	lsls	r2, r2, #29
10004402:	bf5c      	itt	pl
10004404:	6802      	ldrpl	r2, [r0, #0]
10004406:	ea5f 7242 	movspl.w	r2, r2, lsl #29
1000440a:	d402      	bmi.n	10004412 <GLCD_Initialize+0x3c42>
1000440c:	6802      	ldr	r2, [r0, #0]
1000440e:	0752      	lsls	r2, r2, #29
10004410:	d5f2      	bpl.n	100043f8 <GLCD_Initialize+0x3c28>
10004412:	f850 0c04 	ldr.w	r0, [r0, #-4]
10004416:	6808      	ldr	r0, [r1, #0]
10004418:	f040 0001 	orr.w	r0, r0, #1
1000441c:	6008      	str	r0, [r1, #0]
1000441e:	6808      	ldr	r0, [r1, #0]
10004420:	f040 0240 	orr.w	r2, r0, #64	@ 0x40
10004424:	2000      	movs	r0, #0
10004426:	600a      	str	r2, [r1, #0]
10004428:	bdd0      	pop	{r4, r6, r7, pc}

1000442a <GLCD_Uninitialize>:
1000442a:	2000      	movs	r0, #0
1000442c:	4770      	bx	lr

1000442e <GLCD_SetForegroundColor>:
1000442e:	f240 022c 	movw	r2, #44	@ 0x2c
10004432:	4601      	mov	r1, r0
10004434:	f6c3 0200 	movt	r2, #14336	@ 0x3800
10004438:	2000      	movs	r0, #0
1000443a:	8011      	strh	r1, [r2, #0]
1000443c:	4770      	bx	lr

1000443e <GLCD_SetBackgroundColor>:
1000443e:	f240 0210 	movw	r2, #16
10004442:	4601      	mov	r1, r0
10004444:	f6c3 0200 	movt	r2, #14336	@ 0x3800
10004448:	2000      	movs	r0, #0
1000444a:	8011      	strh	r1, [r2, #0]
1000444c:	4770      	bx	lr

1000444e <GLCD_ClearScreen>:
1000444e:	b5b0      	push	{r4, r5, r7, lr}
10004450:	af02      	add	r7, sp, #8
10004452:	f246 040c 	movw	r4, #24588	@ 0x600c
10004456:	f242 054c 	movw	r5, #8268	@ 0x204c
1000445a:	2000      	movs	r0, #0
1000445c:	2100      	movs	r1, #0
1000445e:	f44f 72a0 	mov.w	r2, #320	@ 0x140
10004462:	23f0      	movs	r3, #240	@ 0xf0
10004464:	f2c5 0420 	movt	r4, #20512	@ 0x5020
10004468:	f2c4 0530 	movt	r5, #16432	@ 0x4030
1000446c:	f000 f8d8 	bl	10004620 <GLCD_SetWindow>
10004470:	6828      	ldr	r0, [r5, #0]
10004472:	f020 0001 	bic.w	r0, r0, #1
10004476:	6028      	str	r0, [r5, #0]
10004478:	2070      	movs	r0, #112	@ 0x70
1000447a:	f844 0c04 	str.w	r0, [r4, #-4]
1000447e:	6820      	ldr	r0, [r4, #0]
10004480:	0740      	lsls	r0, r0, #29
10004482:	d409      	bmi.n	10004498 <GLCD_ClearScreen+0x4a>
10004484:	6820      	ldr	r0, [r4, #0]
10004486:	0740      	lsls	r0, r0, #29
10004488:	bf5c      	itt	pl
1000448a:	6820      	ldrpl	r0, [r4, #0]
1000448c:	ea5f 7040 	movspl.w	r0, r0, lsl #29
10004490:	d402      	bmi.n	10004498 <GLCD_ClearScreen+0x4a>
10004492:	6820      	ldr	r0, [r4, #0]
10004494:	0740      	lsls	r0, r0, #29
10004496:	d5f2      	bpl.n	1000447e <GLCD_ClearScreen+0x30>
10004498:	f854 0c04 	ldr.w	r0, [r4, #-4]
1000449c:	2000      	movs	r0, #0
1000449e:	f844 0c04 	str.w	r0, [r4, #-4]
100044a2:	6820      	ldr	r0, [r4, #0]
100044a4:	0740      	lsls	r0, r0, #29
100044a6:	d409      	bmi.n	100044bc <GLCD_ClearScreen+0x6e>
100044a8:	6820      	ldr	r0, [r4, #0]
100044aa:	0740      	lsls	r0, r0, #29
100044ac:	bf5c      	itt	pl
100044ae:	6820      	ldrpl	r0, [r4, #0]
100044b0:	ea5f 7040 	movspl.w	r0, r0, lsl #29
100044b4:	d402      	bmi.n	100044bc <GLCD_ClearScreen+0x6e>
100044b6:	6820      	ldr	r0, [r4, #0]
100044b8:	0740      	lsls	r0, r0, #29
100044ba:	d5f2      	bpl.n	100044a2 <GLCD_ClearScreen+0x54>
100044bc:	f854 0c04 	ldr.w	r0, [r4, #-4]
100044c0:	2022      	movs	r0, #34	@ 0x22
100044c2:	f844 0c04 	str.w	r0, [r4, #-4]
100044c6:	6820      	ldr	r0, [r4, #0]
100044c8:	0740      	lsls	r0, r0, #29
100044ca:	d409      	bmi.n	100044e0 <GLCD_ClearScreen+0x92>
100044cc:	6820      	ldr	r0, [r4, #0]
100044ce:	0740      	lsls	r0, r0, #29
100044d0:	bf5c      	itt	pl
100044d2:	6820      	ldrpl	r0, [r4, #0]
100044d4:	ea5f 7040 	movspl.w	r0, r0, lsl #29
100044d8:	d402      	bmi.n	100044e0 <GLCD_ClearScreen+0x92>
100044da:	6820      	ldr	r0, [r4, #0]
100044dc:	0740      	lsls	r0, r0, #29
100044de:	d5f2      	bpl.n	100044c6 <GLCD_ClearScreen+0x78>
100044e0:	f242 014c 	movw	r1, #8268	@ 0x204c
100044e4:	f2c5 0130 	movt	r1, #20528	@ 0x5030
100044e8:	f854 0c04 	ldr.w	r0, [r4, #-4]
100044ec:	6808      	ldr	r0, [r1, #0]
100044ee:	f040 0001 	orr.w	r0, r0, #1
100044f2:	6008      	str	r0, [r1, #0]
100044f4:	6828      	ldr	r0, [r5, #0]
100044f6:	f020 0001 	bic.w	r0, r0, #1
100044fa:	6028      	str	r0, [r5, #0]
100044fc:	2072      	movs	r0, #114	@ 0x72
100044fe:	f844 0c04 	str.w	r0, [r4, #-4]
10004502:	6820      	ldr	r0, [r4, #0]
10004504:	0740      	lsls	r0, r0, #29
10004506:	d409      	bmi.n	1000451c <GLCD_ClearScreen+0xce>
10004508:	6820      	ldr	r0, [r4, #0]
1000450a:	0740      	lsls	r0, r0, #29
1000450c:	bf5c      	itt	pl
1000450e:	6820      	ldrpl	r0, [r4, #0]
10004510:	ea5f 7040 	movspl.w	r0, r0, lsl #29
10004514:	d402      	bmi.n	1000451c <GLCD_ClearScreen+0xce>
10004516:	6820      	ldr	r0, [r4, #0]
10004518:	0740      	lsls	r0, r0, #29
1000451a:	d5f2      	bpl.n	10004502 <GLCD_ClearScreen+0xb4>
1000451c:	f854 0c04 	ldr.w	r0, [r4, #-4]
10004520:	f240 0010 	movw	r0, #16
10004524:	f6c3 0000 	movt	r0, #14336	@ 0x3800
10004528:	8802      	ldrh	r2, [r0, #0]
1000452a:	2300      	movs	r3, #0
1000452c:	0a10      	lsrs	r0, r2, #8
1000452e:	b2d2      	uxtb	r2, r2
10004530:	e006      	b.n	10004540 <GLCD_ClearScreen+0xf2>
10004532:	bf00      	nop
10004534:	3303      	adds	r3, #3
10004536:	f854 5c04 	ldr.w	r5, [r4, #-4]
1000453a:	f5b3 3f96 	cmp.w	r3, #76800	@ 0x12c00
1000453e:	d069      	beq.n	10004614 <GLCD_ClearScreen+0x1c6>
10004540:	f844 0c04 	str.w	r0, [r4, #-4]
10004544:	6825      	ldr	r5, [r4, #0]
10004546:	076d      	lsls	r5, r5, #29
10004548:	d40a      	bmi.n	10004560 <GLCD_ClearScreen+0x112>
1000454a:	6825      	ldr	r5, [r4, #0]
1000454c:	076d      	lsls	r5, r5, #29
1000454e:	bf5c      	itt	pl
10004550:	6825      	ldrpl	r5, [r4, #0]
10004552:	ea5f 7545 	movspl.w	r5, r5, lsl #29
10004556:	d403      	bmi.n	10004560 <GLCD_ClearScreen+0x112>
10004558:	6825      	ldr	r5, [r4, #0]
1000455a:	076d      	lsls	r5, r5, #29
1000455c:	d5f2      	bpl.n	10004544 <GLCD_ClearScreen+0xf6>
1000455e:	bf00      	nop
10004560:	f854 5c04 	ldr.w	r5, [r4, #-4]
10004564:	f844 2c04 	str.w	r2, [r4, #-4]
10004568:	6825      	ldr	r5, [r4, #0]
1000456a:	076d      	lsls	r5, r5, #29
1000456c:	d40a      	bmi.n	10004584 <GLCD_ClearScreen+0x136>
1000456e:	6825      	ldr	r5, [r4, #0]
10004570:	076d      	lsls	r5, r5, #29
10004572:	bf5c      	itt	pl
10004574:	6825      	ldrpl	r5, [r4, #0]
10004576:	ea5f 7545 	movspl.w	r5, r5, lsl #29
1000457a:	d403      	bmi.n	10004584 <GLCD_ClearScreen+0x136>
1000457c:	6825      	ldr	r5, [r4, #0]
1000457e:	076d      	lsls	r5, r5, #29
10004580:	d5f2      	bpl.n	10004568 <GLCD_ClearScreen+0x11a>
10004582:	bf00      	nop
10004584:	f854 5c04 	ldr.w	r5, [r4, #-4]
10004588:	f844 0c04 	str.w	r0, [r4, #-4]
1000458c:	6825      	ldr	r5, [r4, #0]
1000458e:	076d      	lsls	r5, r5, #29
10004590:	d40a      	bmi.n	100045a8 <GLCD_ClearScreen+0x15a>
10004592:	6825      	ldr	r5, [r4, #0]
10004594:	076d      	lsls	r5, r5, #29
10004596:	bf5c      	itt	pl
10004598:	6825      	ldrpl	r5, [r4, #0]
1000459a:	ea5f 7545 	movspl.w	r5, r5, lsl #29
1000459e:	d403      	bmi.n	100045a8 <GLCD_ClearScreen+0x15a>
100045a0:	6825      	ldr	r5, [r4, #0]
100045a2:	076d      	lsls	r5, r5, #29
100045a4:	d5f2      	bpl.n	1000458c <GLCD_ClearScreen+0x13e>
100045a6:	bf00      	nop
100045a8:	f854 5c04 	ldr.w	r5, [r4, #-4]
100045ac:	f844 2c04 	str.w	r2, [r4, #-4]
100045b0:	6825      	ldr	r5, [r4, #0]
100045b2:	076d      	lsls	r5, r5, #29
100045b4:	d40a      	bmi.n	100045cc <GLCD_ClearScreen+0x17e>
100045b6:	6825      	ldr	r5, [r4, #0]
100045b8:	076d      	lsls	r5, r5, #29
100045ba:	bf5c      	itt	pl
100045bc:	6825      	ldrpl	r5, [r4, #0]
100045be:	ea5f 7545 	movspl.w	r5, r5, lsl #29
100045c2:	d403      	bmi.n	100045cc <GLCD_ClearScreen+0x17e>
100045c4:	6825      	ldr	r5, [r4, #0]
100045c6:	076d      	lsls	r5, r5, #29
100045c8:	d5f2      	bpl.n	100045b0 <GLCD_ClearScreen+0x162>
100045ca:	bf00      	nop
100045cc:	f854 5c04 	ldr.w	r5, [r4, #-4]
100045d0:	f844 0c04 	str.w	r0, [r4, #-4]
100045d4:	6825      	ldr	r5, [r4, #0]
100045d6:	076d      	lsls	r5, r5, #29
100045d8:	d40a      	bmi.n	100045f0 <GLCD_ClearScreen+0x1a2>
100045da:	6825      	ldr	r5, [r4, #0]
100045dc:	076d      	lsls	r5, r5, #29
100045de:	bf5c      	itt	pl
100045e0:	6825      	ldrpl	r5, [r4, #0]
100045e2:	ea5f 7545 	movspl.w	r5, r5, lsl #29
100045e6:	d403      	bmi.n	100045f0 <GLCD_ClearScreen+0x1a2>
100045e8:	6825      	ldr	r5, [r4, #0]
100045ea:	076d      	lsls	r5, r5, #29
100045ec:	d5f2      	bpl.n	100045d4 <GLCD_ClearScreen+0x186>
100045ee:	bf00      	nop
100045f0:	f854 5c04 	ldr.w	r5, [r4, #-4]
100045f4:	f844 2c04 	str.w	r2, [r4, #-4]
100045f8:	6825      	ldr	r5, [r4, #0]
100045fa:	076d      	lsls	r5, r5, #29
100045fc:	d49a      	bmi.n	10004534 <GLCD_ClearScreen+0xe6>
100045fe:	6825      	ldr	r5, [r4, #0]
10004600:	076d      	lsls	r5, r5, #29
10004602:	bf5c      	itt	pl
10004604:	6825      	ldrpl	r5, [r4, #0]
10004606:	ea5f 7545 	movspl.w	r5, r5, lsl #29
1000460a:	d493      	bmi.n	10004534 <GLCD_ClearScreen+0xe6>
1000460c:	6825      	ldr	r5, [r4, #0]
1000460e:	076d      	lsls	r5, r5, #29
10004610:	d5f2      	bpl.n	100045f8 <GLCD_ClearScreen+0x1aa>
10004612:	e78f      	b.n	10004534 <GLCD_ClearScreen+0xe6>
10004614:	6808      	ldr	r0, [r1, #0]
10004616:	f040 0201 	orr.w	r2, r0, #1
1000461a:	2000      	movs	r0, #0
1000461c:	600a      	str	r2, [r1, #0]
1000461e:	bdb0      	pop	{r4, r5, r7, pc}

10004620 <GLCD_SetWindow>:
10004620:	b5b0      	push	{r4, r5, r7, lr}
10004622:	af02      	add	r7, sp, #8
10004624:	f242 0e4c 	movw	lr, #8268	@ 0x204c
10004628:	f2c4 0e30 	movt	lr, #16432	@ 0x4030
1000462c:	f8de 5000 	ldr.w	r5, [lr]
10004630:	f246 0c0c 	movw	ip, #24588	@ 0x600c
10004634:	440b      	add	r3, r1
10004636:	f025 0501 	bic.w	r5, r5, #1
1000463a:	f2c5 0c20 	movt	ip, #20512	@ 0x5020
1000463e:	1e44      	subs	r4, r0, #1
10004640:	3b01      	subs	r3, #1
10004642:	f8ce 5000 	str.w	r5, [lr]
10004646:	2570      	movs	r5, #112	@ 0x70
10004648:	f84c 5c04 	str.w	r5, [ip, #-4]
1000464c:	f8dc 5000 	ldr.w	r5, [ip]
10004650:	076d      	lsls	r5, r5, #29
10004652:	d40c      	bmi.n	1000466e <GLCD_SetWindow+0x4e>
10004654:	f8dc 5000 	ldr.w	r5, [ip]
10004658:	076d      	lsls	r5, r5, #29
1000465a:	bf5c      	itt	pl
1000465c:	f8dc 5000 	ldrpl.w	r5, [ip]
10004660:	ea5f 7545 	movspl.w	r5, r5, lsl #29
10004664:	d403      	bmi.n	1000466e <GLCD_SetWindow+0x4e>
10004666:	f8dc 5000 	ldr.w	r5, [ip]
1000466a:	076d      	lsls	r5, r5, #29
1000466c:	d5ee      	bpl.n	1000464c <GLCD_SetWindow+0x2c>
1000466e:	4414      	add	r4, r2
10004670:	f85c 2c04 	ldr.w	r2, [ip, #-4]
10004674:	2200      	movs	r2, #0
10004676:	f84c 2c04 	str.w	r2, [ip, #-4]
1000467a:	f8dc 2000 	ldr.w	r2, [ip]
1000467e:	0752      	lsls	r2, r2, #29
10004680:	d40c      	bmi.n	1000469c <GLCD_SetWindow+0x7c>
10004682:	f8dc 2000 	ldr.w	r2, [ip]
10004686:	0752      	lsls	r2, r2, #29
10004688:	bf5c      	itt	pl
1000468a:	f8dc 2000 	ldrpl.w	r2, [ip]
1000468e:	ea5f 7242 	movspl.w	r2, r2, lsl #29
10004692:	d403      	bmi.n	1000469c <GLCD_SetWindow+0x7c>
10004694:	f8dc 2000 	ldr.w	r2, [ip]
10004698:	0752      	lsls	r2, r2, #29
1000469a:	d5ee      	bpl.n	1000467a <GLCD_SetWindow+0x5a>
1000469c:	f85c 2c04 	ldr.w	r2, [ip, #-4]
100046a0:	2202      	movs	r2, #2
100046a2:	f84c 2c04 	str.w	r2, [ip, #-4]
100046a6:	f8dc 2000 	ldr.w	r2, [ip]
100046aa:	0752      	lsls	r2, r2, #29
100046ac:	d40c      	bmi.n	100046c8 <GLCD_SetWindow+0xa8>
100046ae:	f8dc 2000 	ldr.w	r2, [ip]
100046b2:	0752      	lsls	r2, r2, #29
100046b4:	bf5c      	itt	pl
100046b6:	f8dc 2000 	ldrpl.w	r2, [ip]
100046ba:	ea5f 7242 	movspl.w	r2, r2, lsl #29
100046be:	d403      	bmi.n	100046c8 <GLCD_SetWindow+0xa8>
100046c0:	f8dc 2000 	ldr.w	r2, [ip]
100046c4:	0752      	lsls	r2, r2, #29
100046c6:	d5ee      	bpl.n	100046a6 <GLCD_SetWindow+0x86>
100046c8:	f242 024c 	movw	r2, #8268	@ 0x204c
100046cc:	f2c5 0230 	movt	r2, #20528	@ 0x5030
100046d0:	f85c 5c04 	ldr.w	r5, [ip, #-4]
100046d4:	6815      	ldr	r5, [r2, #0]
100046d6:	f045 0501 	orr.w	r5, r5, #1
100046da:	6015      	str	r5, [r2, #0]
100046dc:	f8de 5000 	ldr.w	r5, [lr]
100046e0:	f025 0501 	bic.w	r5, r5, #1
100046e4:	f8ce 5000 	str.w	r5, [lr]
100046e8:	2572      	movs	r5, #114	@ 0x72
100046ea:	f84c 5c04 	str.w	r5, [ip, #-4]
100046ee:	f8dc 5000 	ldr.w	r5, [ip]
100046f2:	076d      	lsls	r5, r5, #29
100046f4:	d40c      	bmi.n	10004710 <GLCD_SetWindow+0xf0>
100046f6:	f8dc 5000 	ldr.w	r5, [ip]
100046fa:	076d      	lsls	r5, r5, #29
100046fc:	bf5c      	itt	pl
100046fe:	f8dc 5000 	ldrpl.w	r5, [ip]
10004702:	ea5f 7545 	movspl.w	r5, r5, lsl #29
10004706:	d403      	bmi.n	10004710 <GLCD_SetWindow+0xf0>
10004708:	f8dc 5000 	ldr.w	r5, [ip]
1000470c:	076d      	lsls	r5, r5, #29
1000470e:	d5ee      	bpl.n	100046ee <GLCD_SetWindow+0xce>
10004710:	f85c 5c04 	ldr.w	r5, [ip, #-4]
10004714:	f3c0 4507 	ubfx	r5, r0, #16, #8
10004718:	f84c 5c04 	str.w	r5, [ip, #-4]
1000471c:	f8dc 5000 	ldr.w	r5, [ip]
10004720:	076d      	lsls	r5, r5, #29
10004722:	d40c      	bmi.n	1000473e <GLCD_SetWindow+0x11e>
10004724:	f8dc 5000 	ldr.w	r5, [ip]
10004728:	076d      	lsls	r5, r5, #29
1000472a:	bf5c      	itt	pl
1000472c:	f8dc 5000 	ldrpl.w	r5, [ip]
10004730:	ea5f 7545 	movspl.w	r5, r5, lsl #29
10004734:	d403      	bmi.n	1000473e <GLCD_SetWindow+0x11e>
10004736:	f8dc 5000 	ldr.w	r5, [ip]
1000473a:	076d      	lsls	r5, r5, #29
1000473c:	d5ee      	bpl.n	1000471c <GLCD_SetWindow+0xfc>
1000473e:	f85c 5c04 	ldr.w	r5, [ip, #-4]
10004742:	f3c0 2507 	ubfx	r5, r0, #8, #8
10004746:	f84c 5c04 	str.w	r5, [ip, #-4]
1000474a:	f8dc 5000 	ldr.w	r5, [ip]
1000474e:	076d      	lsls	r5, r5, #29
10004750:	d40c      	bmi.n	1000476c <GLCD_SetWindow+0x14c>
10004752:	f8dc 5000 	ldr.w	r5, [ip]
10004756:	076d      	lsls	r5, r5, #29
10004758:	bf5c      	itt	pl
1000475a:	f8dc 5000 	ldrpl.w	r5, [ip]
1000475e:	ea5f 7545 	movspl.w	r5, r5, lsl #29
10004762:	d403      	bmi.n	1000476c <GLCD_SetWindow+0x14c>
10004764:	f8dc 5000 	ldr.w	r5, [ip]
10004768:	076d      	lsls	r5, r5, #29
1000476a:	d5ee      	bpl.n	1000474a <GLCD_SetWindow+0x12a>
1000476c:	f85c 5c04 	ldr.w	r5, [ip, #-4]
10004770:	6815      	ldr	r5, [r2, #0]
10004772:	f045 0501 	orr.w	r5, r5, #1
10004776:	6015      	str	r5, [r2, #0]
10004778:	f8de 5000 	ldr.w	r5, [lr]
1000477c:	f025 0501 	bic.w	r5, r5, #1
10004780:	f8ce 5000 	str.w	r5, [lr]
10004784:	2570      	movs	r5, #112	@ 0x70
10004786:	f84c 5c04 	str.w	r5, [ip, #-4]
1000478a:	f8dc 5000 	ldr.w	r5, [ip]
1000478e:	076d      	lsls	r5, r5, #29
10004790:	d40c      	bmi.n	100047ac <GLCD_SetWindow+0x18c>
10004792:	f8dc 5000 	ldr.w	r5, [ip]
10004796:	076d      	lsls	r5, r5, #29
10004798:	bf5c      	itt	pl
1000479a:	f8dc 5000 	ldrpl.w	r5, [ip]
1000479e:	ea5f 7545 	movspl.w	r5, r5, lsl #29
100047a2:	d403      	bmi.n	100047ac <GLCD_SetWindow+0x18c>
100047a4:	f8dc 5000 	ldr.w	r5, [ip]
100047a8:	076d      	lsls	r5, r5, #29
100047aa:	d5ee      	bpl.n	1000478a <GLCD_SetWindow+0x16a>
100047ac:	f85c 5c04 	ldr.w	r5, [ip, #-4]
100047b0:	2500      	movs	r5, #0
100047b2:	f84c 5c04 	str.w	r5, [ip, #-4]
100047b6:	f8dc 5000 	ldr.w	r5, [ip]
100047ba:	076d      	lsls	r5, r5, #29
100047bc:	d40c      	bmi.n	100047d8 <GLCD_SetWindow+0x1b8>
100047be:	f8dc 5000 	ldr.w	r5, [ip]
100047c2:	076d      	lsls	r5, r5, #29
100047c4:	bf5c      	itt	pl
100047c6:	f8dc 5000 	ldrpl.w	r5, [ip]
100047ca:	ea5f 7545 	movspl.w	r5, r5, lsl #29
100047ce:	d403      	bmi.n	100047d8 <GLCD_SetWindow+0x1b8>
100047d0:	f8dc 5000 	ldr.w	r5, [ip]
100047d4:	076d      	lsls	r5, r5, #29
100047d6:	d5ee      	bpl.n	100047b6 <GLCD_SetWindow+0x196>
100047d8:	f85c 5c04 	ldr.w	r5, [ip, #-4]
100047dc:	2503      	movs	r5, #3
100047de:	f84c 5c04 	str.w	r5, [ip, #-4]
100047e2:	f8dc 5000 	ldr.w	r5, [ip]
100047e6:	076d      	lsls	r5, r5, #29
100047e8:	d40c      	bmi.n	10004804 <GLCD_SetWindow+0x1e4>
100047ea:	f8dc 5000 	ldr.w	r5, [ip]
100047ee:	076d      	lsls	r5, r5, #29
100047f0:	bf5c      	itt	pl
100047f2:	f8dc 5000 	ldrpl.w	r5, [ip]
100047f6:	ea5f 7545 	movspl.w	r5, r5, lsl #29
100047fa:	d403      	bmi.n	10004804 <GLCD_SetWindow+0x1e4>
100047fc:	f8dc 5000 	ldr.w	r5, [ip]
10004800:	076d      	lsls	r5, r5, #29
10004802:	d5ee      	bpl.n	100047e2 <GLCD_SetWindow+0x1c2>
10004804:	f85c 5c04 	ldr.w	r5, [ip, #-4]
10004808:	6815      	ldr	r5, [r2, #0]
1000480a:	f045 0501 	orr.w	r5, r5, #1
1000480e:	6015      	str	r5, [r2, #0]
10004810:	f8de 5000 	ldr.w	r5, [lr]
10004814:	f025 0501 	bic.w	r5, r5, #1
10004818:	f8ce 5000 	str.w	r5, [lr]
1000481c:	2572      	movs	r5, #114	@ 0x72
1000481e:	f84c 5c04 	str.w	r5, [ip, #-4]
10004822:	f8dc 5000 	ldr.w	r5, [ip]
10004826:	076d      	lsls	r5, r5, #29
10004828:	d40c      	bmi.n	10004844 <GLCD_SetWindow+0x224>
1000482a:	f8dc 5000 	ldr.w	r5, [ip]
1000482e:	076d      	lsls	r5, r5, #29
10004830:	bf5c      	itt	pl
10004832:	f8dc 5000 	ldrpl.w	r5, [ip]
10004836:	ea5f 7545 	movspl.w	r5, r5, lsl #29
1000483a:	d403      	bmi.n	10004844 <GLCD_SetWindow+0x224>
1000483c:	f8dc 5000 	ldr.w	r5, [ip]
10004840:	076d      	lsls	r5, r5, #29
10004842:	d5ee      	bpl.n	10004822 <GLCD_SetWindow+0x202>
10004844:	f85c 5c04 	ldr.w	r5, [ip, #-4]
10004848:	2500      	movs	r5, #0
1000484a:	f84c 5c04 	str.w	r5, [ip, #-4]
1000484e:	f8dc 5000 	ldr.w	r5, [ip]
10004852:	076d      	lsls	r5, r5, #29
10004854:	d40c      	bmi.n	10004870 <GLCD_SetWindow+0x250>
10004856:	f8dc 5000 	ldr.w	r5, [ip]
1000485a:	076d      	lsls	r5, r5, #29
1000485c:	bf5c      	itt	pl
1000485e:	f8dc 5000 	ldrpl.w	r5, [ip]
10004862:	ea5f 7545 	movspl.w	r5, r5, lsl #29
10004866:	d403      	bmi.n	10004870 <GLCD_SetWindow+0x250>
10004868:	f8dc 5000 	ldr.w	r5, [ip]
1000486c:	076d      	lsls	r5, r5, #29
1000486e:	d5ee      	bpl.n	1000484e <GLCD_SetWindow+0x22e>
10004870:	b2c0      	uxtb	r0, r0
10004872:	f85c 5c04 	ldr.w	r5, [ip, #-4]
10004876:	f84c 0c04 	str.w	r0, [ip, #-4]
1000487a:	f8dc 0000 	ldr.w	r0, [ip]
1000487e:	0740      	lsls	r0, r0, #29
10004880:	d40c      	bmi.n	1000489c <GLCD_SetWindow+0x27c>
10004882:	f8dc 0000 	ldr.w	r0, [ip]
10004886:	0740      	lsls	r0, r0, #29
10004888:	bf5c      	itt	pl
1000488a:	f8dc 0000 	ldrpl.w	r0, [ip]
1000488e:	ea5f 7040 	movspl.w	r0, r0, lsl #29
10004892:	d403      	bmi.n	1000489c <GLCD_SetWindow+0x27c>
10004894:	f8dc 0000 	ldr.w	r0, [ip]
10004898:	0740      	lsls	r0, r0, #29
1000489a:	d5ee      	bpl.n	1000487a <GLCD_SetWindow+0x25a>
1000489c:	f85c 0c04 	ldr.w	r0, [ip, #-4]
100048a0:	6810      	ldr	r0, [r2, #0]
100048a2:	f040 0001 	orr.w	r0, r0, #1
100048a6:	6010      	str	r0, [r2, #0]
100048a8:	f8de 0000 	ldr.w	r0, [lr]
100048ac:	f020 0001 	bic.w	r0, r0, #1
100048b0:	f8ce 0000 	str.w	r0, [lr]
100048b4:	2070      	movs	r0, #112	@ 0x70
100048b6:	f84c 0c04 	str.w	r0, [ip, #-4]
100048ba:	f8dc 0000 	ldr.w	r0, [ip]
100048be:	0740      	lsls	r0, r0, #29
100048c0:	d40c      	bmi.n	100048dc <GLCD_SetWindow+0x2bc>
100048c2:	f8dc 0000 	ldr.w	r0, [ip]
100048c6:	0740      	lsls	r0, r0, #29
100048c8:	bf5c      	itt	pl
100048ca:	f8dc 0000 	ldrpl.w	r0, [ip]
100048ce:	ea5f 7040 	movspl.w	r0, r0, lsl #29
100048d2:	d403      	bmi.n	100048dc <GLCD_SetWindow+0x2bc>
100048d4:	f8dc 0000 	ldr.w	r0, [ip]
100048d8:	0740      	lsls	r0, r0, #29
100048da:	d5ee      	bpl.n	100048ba <GLCD_SetWindow+0x29a>
100048dc:	f85c 0c04 	ldr.w	r0, [ip, #-4]
100048e0:	2000      	movs	r0, #0
100048e2:	f84c 0c04 	str.w	r0, [ip, #-4]
100048e6:	f8dc 0000 	ldr.w	r0, [ip]
100048ea:	0740      	lsls	r0, r0, #29
100048ec:	d40c      	bmi.n	10004908 <GLCD_SetWindow+0x2e8>
100048ee:	f8dc 0000 	ldr.w	r0, [ip]
100048f2:	0740      	lsls	r0, r0, #29
100048f4:	bf5c      	itt	pl
100048f6:	f8dc 0000 	ldrpl.w	r0, [ip]
100048fa:	ea5f 7040 	movspl.w	r0, r0, lsl #29
100048fe:	d403      	bmi.n	10004908 <GLCD_SetWindow+0x2e8>
10004900:	f8dc 0000 	ldr.w	r0, [ip]
10004904:	0740      	lsls	r0, r0, #29
10004906:	d5ee      	bpl.n	100048e6 <GLCD_SetWindow+0x2c6>
10004908:	f85c 0c04 	ldr.w	r0, [ip, #-4]
1000490c:	2004      	movs	r0, #4
1000490e:	f84c 0c04 	str.w	r0, [ip, #-4]
10004912:	f8dc 0000 	ldr.w	r0, [ip]
10004916:	0740      	lsls	r0, r0, #29
10004918:	d40c      	bmi.n	10004934 <GLCD_SetWindow+0x314>
1000491a:	f8dc 0000 	ldr.w	r0, [ip]
1000491e:	0740      	lsls	r0, r0, #29
10004920:	bf5c      	itt	pl
10004922:	f8dc 0000 	ldrpl.w	r0, [ip]
10004926:	ea5f 7040 	movspl.w	r0, r0, lsl #29
1000492a:	d403      	bmi.n	10004934 <GLCD_SetWindow+0x314>
1000492c:	f8dc 0000 	ldr.w	r0, [ip]
10004930:	0740      	lsls	r0, r0, #29
10004932:	d5ee      	bpl.n	10004912 <GLCD_SetWindow+0x2f2>
10004934:	f85c 0c04 	ldr.w	r0, [ip, #-4]
10004938:	6810      	ldr	r0, [r2, #0]
1000493a:	f040 0001 	orr.w	r0, r0, #1
1000493e:	6010      	str	r0, [r2, #0]
10004940:	f8de 0000 	ldr.w	r0, [lr]
10004944:	f020 0001 	bic.w	r0, r0, #1
10004948:	f8ce 0000 	str.w	r0, [lr]
1000494c:	2072      	movs	r0, #114	@ 0x72
1000494e:	f84c 0c04 	str.w	r0, [ip, #-4]
10004952:	f8dc 0000 	ldr.w	r0, [ip]
10004956:	0740      	lsls	r0, r0, #29
10004958:	d40c      	bmi.n	10004974 <GLCD_SetWindow+0x354>
1000495a:	f8dc 0000 	ldr.w	r0, [ip]
1000495e:	0740      	lsls	r0, r0, #29
10004960:	bf5c      	itt	pl
10004962:	f8dc 0000 	ldrpl.w	r0, [ip]
10004966:	ea5f 7040 	movspl.w	r0, r0, lsl #29
1000496a:	d403      	bmi.n	10004974 <GLCD_SetWindow+0x354>
1000496c:	f8dc 0000 	ldr.w	r0, [ip]
10004970:	0740      	lsls	r0, r0, #29
10004972:	d5ee      	bpl.n	10004952 <GLCD_SetWindow+0x332>
10004974:	f85c 0c04 	ldr.w	r0, [ip, #-4]
10004978:	f3c4 4007 	ubfx	r0, r4, #16, #8
1000497c:	f84c 0c04 	str.w	r0, [ip, #-4]
10004980:	f8dc 0000 	ldr.w	r0, [ip]
10004984:	0740      	lsls	r0, r0, #29
10004986:	d40c      	bmi.n	100049a2 <GLCD_SetWindow+0x382>
10004988:	f8dc 0000 	ldr.w	r0, [ip]
1000498c:	0740      	lsls	r0, r0, #29
1000498e:	bf5c      	itt	pl
10004990:	f8dc 0000 	ldrpl.w	r0, [ip]
10004994:	ea5f 7040 	movspl.w	r0, r0, lsl #29
10004998:	d403      	bmi.n	100049a2 <GLCD_SetWindow+0x382>
1000499a:	f8dc 0000 	ldr.w	r0, [ip]
1000499e:	0740      	lsls	r0, r0, #29
100049a0:	d5ee      	bpl.n	10004980 <GLCD_SetWindow+0x360>
100049a2:	f85c 0c04 	ldr.w	r0, [ip, #-4]
100049a6:	f3c4 2007 	ubfx	r0, r4, #8, #8
100049aa:	f84c 0c04 	str.w	r0, [ip, #-4]
100049ae:	f8dc 0000 	ldr.w	r0, [ip]
100049b2:	0740      	lsls	r0, r0, #29
100049b4:	d40c      	bmi.n	100049d0 <GLCD_SetWindow+0x3b0>
100049b6:	f8dc 0000 	ldr.w	r0, [ip]
100049ba:	0740      	lsls	r0, r0, #29
100049bc:	bf5c      	itt	pl
100049be:	f8dc 0000 	ldrpl.w	r0, [ip]
100049c2:	ea5f 7040 	movspl.w	r0, r0, lsl #29
100049c6:	d403      	bmi.n	100049d0 <GLCD_SetWindow+0x3b0>
100049c8:	f8dc 0000 	ldr.w	r0, [ip]
100049cc:	0740      	lsls	r0, r0, #29
100049ce:	d5ee      	bpl.n	100049ae <GLCD_SetWindow+0x38e>
100049d0:	f85c 0c04 	ldr.w	r0, [ip, #-4]
100049d4:	6810      	ldr	r0, [r2, #0]
100049d6:	f040 0001 	orr.w	r0, r0, #1
100049da:	6010      	str	r0, [r2, #0]
100049dc:	f8de 0000 	ldr.w	r0, [lr]
100049e0:	f020 0001 	bic.w	r0, r0, #1
100049e4:	f8ce 0000 	str.w	r0, [lr]
100049e8:	2070      	movs	r0, #112	@ 0x70
100049ea:	f84c 0c04 	str.w	r0, [ip, #-4]
100049ee:	f8dc 0000 	ldr.w	r0, [ip]
100049f2:	0740      	lsls	r0, r0, #29
100049f4:	d40c      	bmi.n	10004a10 <GLCD_SetWindow+0x3f0>
100049f6:	f8dc 0000 	ldr.w	r0, [ip]
100049fa:	0740      	lsls	r0, r0, #29
100049fc:	bf5c      	itt	pl
100049fe:	f8dc 0000 	ldrpl.w	r0, [ip]
10004a02:	ea5f 7040 	movspl.w	r0, r0, lsl #29
10004a06:	d403      	bmi.n	10004a10 <GLCD_SetWindow+0x3f0>
10004a08:	f8dc 0000 	ldr.w	r0, [ip]
10004a0c:	0740      	lsls	r0, r0, #29
10004a0e:	d5ee      	bpl.n	100049ee <GLCD_SetWindow+0x3ce>
10004a10:	f85c 0c04 	ldr.w	r0, [ip, #-4]
10004a14:	2000      	movs	r0, #0
10004a16:	f84c 0c04 	str.w	r0, [ip, #-4]
10004a1a:	f8dc 0000 	ldr.w	r0, [ip]
10004a1e:	0740      	lsls	r0, r0, #29
10004a20:	d40c      	bmi.n	10004a3c <GLCD_SetWindow+0x41c>
10004a22:	f8dc 0000 	ldr.w	r0, [ip]
10004a26:	0740      	lsls	r0, r0, #29
10004a28:	bf5c      	itt	pl
10004a2a:	f8dc 0000 	ldrpl.w	r0, [ip]
10004a2e:	ea5f 7040 	movspl.w	r0, r0, lsl #29
10004a32:	d403      	bmi.n	10004a3c <GLCD_SetWindow+0x41c>
10004a34:	f8dc 0000 	ldr.w	r0, [ip]
10004a38:	0740      	lsls	r0, r0, #29
10004a3a:	d5ee      	bpl.n	10004a1a <GLCD_SetWindow+0x3fa>
10004a3c:	f85c 0c04 	ldr.w	r0, [ip, #-4]
10004a40:	2005      	movs	r0, #5
10004a42:	f84c 0c04 	str.w	r0, [ip, #-4]
10004a46:	f8dc 0000 	ldr.w	r0, [ip]
10004a4a:	0740      	lsls	r0, r0, #29
10004a4c:	d40c      	bmi.n	10004a68 <GLCD_SetWindow+0x448>
10004a4e:	f8dc 0000 	ldr.w	r0, [ip]
10004a52:	0740      	lsls	r0, r0, #29
10004a54:	bf5c      	itt	pl
10004a56:	f8dc 0000 	ldrpl.w	r0, [ip]
10004a5a:	ea5f 7040 	movspl.w	r0, r0, lsl #29
10004a5e:	d403      	bmi.n	10004a68 <GLCD_SetWindow+0x448>
10004a60:	f8dc 0000 	ldr.w	r0, [ip]
10004a64:	0740      	lsls	r0, r0, #29
10004a66:	d5ee      	bpl.n	10004a46 <GLCD_SetWindow+0x426>
10004a68:	f85c 0c04 	ldr.w	r0, [ip, #-4]
10004a6c:	6810      	ldr	r0, [r2, #0]
10004a6e:	f040 0001 	orr.w	r0, r0, #1
10004a72:	6010      	str	r0, [r2, #0]
10004a74:	f8de 0000 	ldr.w	r0, [lr]
10004a78:	f020 0001 	bic.w	r0, r0, #1
10004a7c:	f8ce 0000 	str.w	r0, [lr]
10004a80:	2072      	movs	r0, #114	@ 0x72
10004a82:	f84c 0c04 	str.w	r0, [ip, #-4]
10004a86:	f8dc 0000 	ldr.w	r0, [ip]
10004a8a:	0740      	lsls	r0, r0, #29
10004a8c:	d40c      	bmi.n	10004aa8 <GLCD_SetWindow+0x488>
10004a8e:	f8dc 0000 	ldr.w	r0, [ip]
10004a92:	0740      	lsls	r0, r0, #29
10004a94:	bf5c      	itt	pl
10004a96:	f8dc 0000 	ldrpl.w	r0, [ip]
10004a9a:	ea5f 7040 	movspl.w	r0, r0, lsl #29
10004a9e:	d403      	bmi.n	10004aa8 <GLCD_SetWindow+0x488>
10004aa0:	f8dc 0000 	ldr.w	r0, [ip]
10004aa4:	0740      	lsls	r0, r0, #29
10004aa6:	d5ee      	bpl.n	10004a86 <GLCD_SetWindow+0x466>
10004aa8:	f85c 0c04 	ldr.w	r0, [ip, #-4]
10004aac:	2000      	movs	r0, #0
10004aae:	f84c 0c04 	str.w	r0, [ip, #-4]
10004ab2:	f8dc 0000 	ldr.w	r0, [ip]
10004ab6:	0740      	lsls	r0, r0, #29
10004ab8:	d40c      	bmi.n	10004ad4 <GLCD_SetWindow+0x4b4>
10004aba:	f8dc 0000 	ldr.w	r0, [ip]
10004abe:	0740      	lsls	r0, r0, #29
10004ac0:	bf5c      	itt	pl
10004ac2:	f8dc 0000 	ldrpl.w	r0, [ip]
10004ac6:	ea5f 7040 	movspl.w	r0, r0, lsl #29
10004aca:	d403      	bmi.n	10004ad4 <GLCD_SetWindow+0x4b4>
10004acc:	f8dc 0000 	ldr.w	r0, [ip]
10004ad0:	0740      	lsls	r0, r0, #29
10004ad2:	d5ee      	bpl.n	10004ab2 <GLCD_SetWindow+0x492>
10004ad4:	b2e0      	uxtb	r0, r4
10004ad6:	f85c 4c04 	ldr.w	r4, [ip, #-4]
10004ada:	f84c 0c04 	str.w	r0, [ip, #-4]
10004ade:	f8dc 0000 	ldr.w	r0, [ip]
10004ae2:	0740      	lsls	r0, r0, #29
10004ae4:	d40c      	bmi.n	10004b00 <GLCD_SetWindow+0x4e0>
10004ae6:	f8dc 0000 	ldr.w	r0, [ip]
10004aea:	0740      	lsls	r0, r0, #29
10004aec:	bf5c      	itt	pl
10004aee:	f8dc 0000 	ldrpl.w	r0, [ip]
10004af2:	ea5f 7040 	movspl.w	r0, r0, lsl #29
10004af6:	d403      	bmi.n	10004b00 <GLCD_SetWindow+0x4e0>
10004af8:	f8dc 0000 	ldr.w	r0, [ip]
10004afc:	0740      	lsls	r0, r0, #29
10004afe:	d5ee      	bpl.n	10004ade <GLCD_SetWindow+0x4be>
10004b00:	f85c 0c04 	ldr.w	r0, [ip, #-4]
10004b04:	6810      	ldr	r0, [r2, #0]
10004b06:	f040 0001 	orr.w	r0, r0, #1
10004b0a:	6010      	str	r0, [r2, #0]
10004b0c:	f8de 0000 	ldr.w	r0, [lr]
10004b10:	f020 0001 	bic.w	r0, r0, #1
10004b14:	f8ce 0000 	str.w	r0, [lr]
10004b18:	2070      	movs	r0, #112	@ 0x70
10004b1a:	f84c 0c04 	str.w	r0, [ip, #-4]
10004b1e:	f8dc 0000 	ldr.w	r0, [ip]
10004b22:	0740      	lsls	r0, r0, #29
10004b24:	d40c      	bmi.n	10004b40 <GLCD_SetWindow+0x520>
10004b26:	f8dc 0000 	ldr.w	r0, [ip]
10004b2a:	0740      	lsls	r0, r0, #29
10004b2c:	bf5c      	itt	pl
10004b2e:	f8dc 0000 	ldrpl.w	r0, [ip]
10004b32:	ea5f 7040 	movspl.w	r0, r0, lsl #29
10004b36:	d403      	bmi.n	10004b40 <GLCD_SetWindow+0x520>
10004b38:	f8dc 0000 	ldr.w	r0, [ip]
10004b3c:	0740      	lsls	r0, r0, #29
10004b3e:	d5ee      	bpl.n	10004b1e <GLCD_SetWindow+0x4fe>
10004b40:	f85c 0c04 	ldr.w	r0, [ip, #-4]
10004b44:	2000      	movs	r0, #0
10004b46:	f84c 0c04 	str.w	r0, [ip, #-4]
10004b4a:	f8dc 0000 	ldr.w	r0, [ip]
10004b4e:	0740      	lsls	r0, r0, #29
10004b50:	d40c      	bmi.n	10004b6c <GLCD_SetWindow+0x54c>
10004b52:	f8dc 0000 	ldr.w	r0, [ip]
10004b56:	0740      	lsls	r0, r0, #29
10004b58:	bf5c      	itt	pl
10004b5a:	f8dc 0000 	ldrpl.w	r0, [ip]
10004b5e:	ea5f 7040 	movspl.w	r0, r0, lsl #29
10004b62:	d403      	bmi.n	10004b6c <GLCD_SetWindow+0x54c>
10004b64:	f8dc 0000 	ldr.w	r0, [ip]
10004b68:	0740      	lsls	r0, r0, #29
10004b6a:	d5ee      	bpl.n	10004b4a <GLCD_SetWindow+0x52a>
10004b6c:	f85c 0c04 	ldr.w	r0, [ip, #-4]
10004b70:	2006      	movs	r0, #6
10004b72:	f84c 0c04 	str.w	r0, [ip, #-4]
10004b76:	f8dc 0000 	ldr.w	r0, [ip]
10004b7a:	0740      	lsls	r0, r0, #29
10004b7c:	d40c      	bmi.n	10004b98 <GLCD_SetWindow+0x578>
10004b7e:	f8dc 0000 	ldr.w	r0, [ip]
10004b82:	0740      	lsls	r0, r0, #29
10004b84:	bf5c      	itt	pl
10004b86:	f8dc 0000 	ldrpl.w	r0, [ip]
10004b8a:	ea5f 7040 	movspl.w	r0, r0, lsl #29
10004b8e:	d403      	bmi.n	10004b98 <GLCD_SetWindow+0x578>
10004b90:	f8dc 0000 	ldr.w	r0, [ip]
10004b94:	0740      	lsls	r0, r0, #29
10004b96:	d5ee      	bpl.n	10004b76 <GLCD_SetWindow+0x556>
10004b98:	f85c 0c04 	ldr.w	r0, [ip, #-4]
10004b9c:	6810      	ldr	r0, [r2, #0]
10004b9e:	f040 0001 	orr.w	r0, r0, #1
10004ba2:	6010      	str	r0, [r2, #0]
10004ba4:	f8de 0000 	ldr.w	r0, [lr]
10004ba8:	f020 0001 	bic.w	r0, r0, #1
10004bac:	f8ce 0000 	str.w	r0, [lr]
10004bb0:	2072      	movs	r0, #114	@ 0x72
10004bb2:	f84c 0c04 	str.w	r0, [ip, #-4]
10004bb6:	f8dc 0000 	ldr.w	r0, [ip]
10004bba:	0740      	lsls	r0, r0, #29
10004bbc:	d40c      	bmi.n	10004bd8 <GLCD_SetWindow+0x5b8>
10004bbe:	f8dc 0000 	ldr.w	r0, [ip]
10004bc2:	0740      	lsls	r0, r0, #29
10004bc4:	bf5c      	itt	pl
10004bc6:	f8dc 0000 	ldrpl.w	r0, [ip]
10004bca:	ea5f 7040 	movspl.w	r0, r0, lsl #29
10004bce:	d403      	bmi.n	10004bd8 <GLCD_SetWindow+0x5b8>
10004bd0:	f8dc 0000 	ldr.w	r0, [ip]
10004bd4:	0740      	lsls	r0, r0, #29
10004bd6:	d5ee      	bpl.n	10004bb6 <GLCD_SetWindow+0x596>
10004bd8:	f85c 0c04 	ldr.w	r0, [ip, #-4]
10004bdc:	f3c1 4007 	ubfx	r0, r1, #16, #8
10004be0:	f84c 0c04 	str.w	r0, [ip, #-4]
10004be4:	f8dc 0000 	ldr.w	r0, [ip]
10004be8:	0740      	lsls	r0, r0, #29
10004bea:	d40c      	bmi.n	10004c06 <GLCD_SetWindow+0x5e6>
10004bec:	f8dc 0000 	ldr.w	r0, [ip]
10004bf0:	0740      	lsls	r0, r0, #29
10004bf2:	bf5c      	itt	pl
10004bf4:	f8dc 0000 	ldrpl.w	r0, [ip]
10004bf8:	ea5f 7040 	movspl.w	r0, r0, lsl #29
10004bfc:	d403      	bmi.n	10004c06 <GLCD_SetWindow+0x5e6>
10004bfe:	f8dc 0000 	ldr.w	r0, [ip]
10004c02:	0740      	lsls	r0, r0, #29
10004c04:	d5ee      	bpl.n	10004be4 <GLCD_SetWindow+0x5c4>
10004c06:	f85c 0c04 	ldr.w	r0, [ip, #-4]
10004c0a:	f3c1 2007 	ubfx	r0, r1, #8, #8
10004c0e:	f84c 0c04 	str.w	r0, [ip, #-4]
10004c12:	f8dc 0000 	ldr.w	r0, [ip]
10004c16:	0740      	lsls	r0, r0, #29
10004c18:	d40c      	bmi.n	10004c34 <GLCD_SetWindow+0x614>
10004c1a:	f8dc 0000 	ldr.w	r0, [ip]
10004c1e:	0740      	lsls	r0, r0, #29
10004c20:	bf5c      	itt	pl
10004c22:	f8dc 0000 	ldrpl.w	r0, [ip]
10004c26:	ea5f 7040 	movspl.w	r0, r0, lsl #29
10004c2a:	d403      	bmi.n	10004c34 <GLCD_SetWindow+0x614>
10004c2c:	f8dc 0000 	ldr.w	r0, [ip]
10004c30:	0740      	lsls	r0, r0, #29
10004c32:	d5ee      	bpl.n	10004c12 <GLCD_SetWindow+0x5f2>
10004c34:	f85c 0c04 	ldr.w	r0, [ip, #-4]
10004c38:	6810      	ldr	r0, [r2, #0]
10004c3a:	f040 0001 	orr.w	r0, r0, #1
10004c3e:	6010      	str	r0, [r2, #0]
10004c40:	f8de 0000 	ldr.w	r0, [lr]
10004c44:	f020 0001 	bic.w	r0, r0, #1
10004c48:	f8ce 0000 	str.w	r0, [lr]
10004c4c:	2070      	movs	r0, #112	@ 0x70
10004c4e:	f84c 0c04 	str.w	r0, [ip, #-4]
10004c52:	f8dc 0000 	ldr.w	r0, [ip]
10004c56:	0740      	lsls	r0, r0, #29
10004c58:	d40c      	bmi.n	10004c74 <GLCD_SetWindow+0x654>
10004c5a:	f8dc 0000 	ldr.w	r0, [ip]
10004c5e:	0740      	lsls	r0, r0, #29
10004c60:	bf5c      	itt	pl
10004c62:	f8dc 0000 	ldrpl.w	r0, [ip]
10004c66:	ea5f 7040 	movspl.w	r0, r0, lsl #29
10004c6a:	d403      	bmi.n	10004c74 <GLCD_SetWindow+0x654>
10004c6c:	f8dc 0000 	ldr.w	r0, [ip]
10004c70:	0740      	lsls	r0, r0, #29
10004c72:	d5ee      	bpl.n	10004c52 <GLCD_SetWindow+0x632>
10004c74:	f85c 0c04 	ldr.w	r0, [ip, #-4]
10004c78:	2000      	movs	r0, #0
10004c7a:	f84c 0c04 	str.w	r0, [ip, #-4]
10004c7e:	f8dc 0000 	ldr.w	r0, [ip]
10004c82:	0740      	lsls	r0, r0, #29
10004c84:	d40c      	bmi.n	10004ca0 <GLCD_SetWindow+0x680>
10004c86:	f8dc 0000 	ldr.w	r0, [ip]
10004c8a:	0740      	lsls	r0, r0, #29
10004c8c:	bf5c      	itt	pl
10004c8e:	f8dc 0000 	ldrpl.w	r0, [ip]
10004c92:	ea5f 7040 	movspl.w	r0, r0, lsl #29
10004c96:	d403      	bmi.n	10004ca0 <GLCD_SetWindow+0x680>
10004c98:	f8dc 0000 	ldr.w	r0, [ip]
10004c9c:	0740      	lsls	r0, r0, #29
10004c9e:	d5ee      	bpl.n	10004c7e <GLCD_SetWindow+0x65e>
10004ca0:	f85c 0c04 	ldr.w	r0, [ip, #-4]
10004ca4:	2007      	movs	r0, #7
10004ca6:	f84c 0c04 	str.w	r0, [ip, #-4]
10004caa:	f8dc 0000 	ldr.w	r0, [ip]
10004cae:	0740      	lsls	r0, r0, #29
10004cb0:	d40c      	bmi.n	10004ccc <GLCD_SetWindow+0x6ac>
10004cb2:	f8dc 0000 	ldr.w	r0, [ip]
10004cb6:	0740      	lsls	r0, r0, #29
10004cb8:	bf5c      	itt	pl
10004cba:	f8dc 0000 	ldrpl.w	r0, [ip]
10004cbe:	ea5f 7040 	movspl.w	r0, r0, lsl #29
10004cc2:	d403      	bmi.n	10004ccc <GLCD_SetWindow+0x6ac>
10004cc4:	f8dc 0000 	ldr.w	r0, [ip]
10004cc8:	0740      	lsls	r0, r0, #29
10004cca:	d5ee      	bpl.n	10004caa <GLCD_SetWindow+0x68a>
10004ccc:	f85c 0c04 	ldr.w	r0, [ip, #-4]
10004cd0:	6810      	ldr	r0, [r2, #0]
10004cd2:	f040 0001 	orr.w	r0, r0, #1
10004cd6:	6010      	str	r0, [r2, #0]
10004cd8:	f8de 0000 	ldr.w	r0, [lr]
10004cdc:	f020 0001 	bic.w	r0, r0, #1
10004ce0:	f8ce 0000 	str.w	r0, [lr]
10004ce4:	2072      	movs	r0, #114	@ 0x72
10004ce6:	f84c 0c04 	str.w	r0, [ip, #-4]
10004cea:	f8dc 0000 	ldr.w	r0, [ip]
10004cee:	0740      	lsls	r0, r0, #29
10004cf0:	d40c      	bmi.n	10004d0c <GLCD_SetWindow+0x6ec>
10004cf2:	f8dc 0000 	ldr.w	r0, [ip]
10004cf6:	0740      	lsls	r0, r0, #29
10004cf8:	bf5c      	itt	pl
10004cfa:	f8dc 0000 	ldrpl.w	r0, [ip]
10004cfe:	ea5f 7040 	movspl.w	r0, r0, lsl #29
10004d02:	d403      	bmi.n	10004d0c <GLCD_SetWindow+0x6ec>
10004d04:	f8dc 0000 	ldr.w	r0, [ip]
10004d08:	0740      	lsls	r0, r0, #29
10004d0a:	d5ee      	bpl.n	10004cea <GLCD_SetWindow+0x6ca>
10004d0c:	f85c 0c04 	ldr.w	r0, [ip, #-4]
10004d10:	2000      	movs	r0, #0
10004d12:	f84c 0c04 	str.w	r0, [ip, #-4]
10004d16:	f8dc 0000 	ldr.w	r0, [ip]
10004d1a:	0740      	lsls	r0, r0, #29
10004d1c:	d40c      	bmi.n	10004d38 <GLCD_SetWindow+0x718>
10004d1e:	f8dc 0000 	ldr.w	r0, [ip]
10004d22:	0740      	lsls	r0, r0, #29
10004d24:	bf5c      	itt	pl
10004d26:	f8dc 0000 	ldrpl.w	r0, [ip]
10004d2a:	ea5f 7040 	movspl.w	r0, r0, lsl #29
10004d2e:	d403      	bmi.n	10004d38 <GLCD_SetWindow+0x718>
10004d30:	f8dc 0000 	ldr.w	r0, [ip]
10004d34:	0740      	lsls	r0, r0, #29
10004d36:	d5ee      	bpl.n	10004d16 <GLCD_SetWindow+0x6f6>
10004d38:	b2c8      	uxtb	r0, r1
10004d3a:	f85c 1c04 	ldr.w	r1, [ip, #-4]
10004d3e:	f84c 0c04 	str.w	r0, [ip, #-4]
10004d42:	f8dc 0000 	ldr.w	r0, [ip]
10004d46:	0740      	lsls	r0, r0, #29
10004d48:	d40c      	bmi.n	10004d64 <GLCD_SetWindow+0x744>
10004d4a:	f8dc 0000 	ldr.w	r0, [ip]
10004d4e:	0740      	lsls	r0, r0, #29
10004d50:	bf5c      	itt	pl
10004d52:	f8dc 0000 	ldrpl.w	r0, [ip]
10004d56:	ea5f 7040 	movspl.w	r0, r0, lsl #29
10004d5a:	d403      	bmi.n	10004d64 <GLCD_SetWindow+0x744>
10004d5c:	f8dc 0000 	ldr.w	r0, [ip]
10004d60:	0740      	lsls	r0, r0, #29
10004d62:	d5ee      	bpl.n	10004d42 <GLCD_SetWindow+0x722>
10004d64:	f85c 0c04 	ldr.w	r0, [ip, #-4]
10004d68:	6810      	ldr	r0, [r2, #0]
10004d6a:	f040 0001 	orr.w	r0, r0, #1
10004d6e:	6010      	str	r0, [r2, #0]
10004d70:	f8de 0000 	ldr.w	r0, [lr]
10004d74:	f020 0001 	bic.w	r0, r0, #1
10004d78:	f8ce 0000 	str.w	r0, [lr]
10004d7c:	2070      	movs	r0, #112	@ 0x70
10004d7e:	f84c 0c04 	str.w	r0, [ip, #-4]
10004d82:	f8dc 0000 	ldr.w	r0, [ip]
10004d86:	0740      	lsls	r0, r0, #29
10004d88:	d40c      	bmi.n	10004da4 <GLCD_SetWindow+0x784>
10004d8a:	f8dc 0000 	ldr.w	r0, [ip]
10004d8e:	0740      	lsls	r0, r0, #29
10004d90:	bf5c      	itt	pl
10004d92:	f8dc 0000 	ldrpl.w	r0, [ip]
10004d96:	ea5f 7040 	movspl.w	r0, r0, lsl #29
10004d9a:	d403      	bmi.n	10004da4 <GLCD_SetWindow+0x784>
10004d9c:	f8dc 0000 	ldr.w	r0, [ip]
10004da0:	0740      	lsls	r0, r0, #29
10004da2:	d5ee      	bpl.n	10004d82 <GLCD_SetWindow+0x762>
10004da4:	f85c 0c04 	ldr.w	r0, [ip, #-4]
10004da8:	2000      	movs	r0, #0
10004daa:	f84c 0c04 	str.w	r0, [ip, #-4]
10004dae:	f8dc 0000 	ldr.w	r0, [ip]
10004db2:	0740      	lsls	r0, r0, #29
10004db4:	d40c      	bmi.n	10004dd0 <GLCD_SetWindow+0x7b0>
10004db6:	f8dc 0000 	ldr.w	r0, [ip]
10004dba:	0740      	lsls	r0, r0, #29
10004dbc:	bf5c      	itt	pl
10004dbe:	f8dc 0000 	ldrpl.w	r0, [ip]
10004dc2:	ea5f 7040 	movspl.w	r0, r0, lsl #29
10004dc6:	d403      	bmi.n	10004dd0 <GLCD_SetWindow+0x7b0>
10004dc8:	f8dc 0000 	ldr.w	r0, [ip]
10004dcc:	0740      	lsls	r0, r0, #29
10004dce:	d5ee      	bpl.n	10004dae <GLCD_SetWindow+0x78e>
10004dd0:	f85c 0c04 	ldr.w	r0, [ip, #-4]
10004dd4:	2008      	movs	r0, #8
10004dd6:	f84c 0c04 	str.w	r0, [ip, #-4]
10004dda:	f8dc 0000 	ldr.w	r0, [ip]
10004dde:	0740      	lsls	r0, r0, #29
10004de0:	d40c      	bmi.n	10004dfc <GLCD_SetWindow+0x7dc>
10004de2:	f8dc 0000 	ldr.w	r0, [ip]
10004de6:	0740      	lsls	r0, r0, #29
10004de8:	bf5c      	itt	pl
10004dea:	f8dc 0000 	ldrpl.w	r0, [ip]
10004dee:	ea5f 7040 	movspl.w	r0, r0, lsl #29
10004df2:	d403      	bmi.n	10004dfc <GLCD_SetWindow+0x7dc>
10004df4:	f8dc 0000 	ldr.w	r0, [ip]
10004df8:	0740      	lsls	r0, r0, #29
10004dfa:	d5ee      	bpl.n	10004dda <GLCD_SetWindow+0x7ba>
10004dfc:	f85c 0c04 	ldr.w	r0, [ip, #-4]
10004e00:	6810      	ldr	r0, [r2, #0]
10004e02:	f040 0001 	orr.w	r0, r0, #1
10004e06:	6010      	str	r0, [r2, #0]
10004e08:	f8de 0000 	ldr.w	r0, [lr]
10004e0c:	f020 0001 	bic.w	r0, r0, #1
10004e10:	f8ce 0000 	str.w	r0, [lr]
10004e14:	2072      	movs	r0, #114	@ 0x72
10004e16:	f84c 0c04 	str.w	r0, [ip, #-4]
10004e1a:	f8dc 0000 	ldr.w	r0, [ip]
10004e1e:	0740      	lsls	r0, r0, #29
10004e20:	d40c      	bmi.n	10004e3c <GLCD_SetWindow+0x81c>
10004e22:	f8dc 0000 	ldr.w	r0, [ip]
10004e26:	0740      	lsls	r0, r0, #29
10004e28:	bf5c      	itt	pl
10004e2a:	f8dc 0000 	ldrpl.w	r0, [ip]
10004e2e:	ea5f 7040 	movspl.w	r0, r0, lsl #29
10004e32:	d403      	bmi.n	10004e3c <GLCD_SetWindow+0x81c>
10004e34:	f8dc 0000 	ldr.w	r0, [ip]
10004e38:	0740      	lsls	r0, r0, #29
10004e3a:	d5ee      	bpl.n	10004e1a <GLCD_SetWindow+0x7fa>
10004e3c:	f85c 0c04 	ldr.w	r0, [ip, #-4]
10004e40:	f3c3 4007 	ubfx	r0, r3, #16, #8
10004e44:	f84c 0c04 	str.w	r0, [ip, #-4]
10004e48:	f8dc 0000 	ldr.w	r0, [ip]
10004e4c:	0740      	lsls	r0, r0, #29
10004e4e:	d40c      	bmi.n	10004e6a <GLCD_SetWindow+0x84a>
10004e50:	f8dc 0000 	ldr.w	r0, [ip]
10004e54:	0740      	lsls	r0, r0, #29
10004e56:	bf5c      	itt	pl
10004e58:	f8dc 0000 	ldrpl.w	r0, [ip]
10004e5c:	ea5f 7040 	movspl.w	r0, r0, lsl #29
10004e60:	d403      	bmi.n	10004e6a <GLCD_SetWindow+0x84a>
10004e62:	f8dc 0000 	ldr.w	r0, [ip]
10004e66:	0740      	lsls	r0, r0, #29
10004e68:	d5ee      	bpl.n	10004e48 <GLCD_SetWindow+0x828>
10004e6a:	f85c 0c04 	ldr.w	r0, [ip, #-4]
10004e6e:	f3c3 2007 	ubfx	r0, r3, #8, #8
10004e72:	f84c 0c04 	str.w	r0, [ip, #-4]
10004e76:	f8dc 0000 	ldr.w	r0, [ip]
10004e7a:	0740      	lsls	r0, r0, #29
10004e7c:	d40c      	bmi.n	10004e98 <GLCD_SetWindow+0x878>
10004e7e:	f8dc 0000 	ldr.w	r0, [ip]
10004e82:	0740      	lsls	r0, r0, #29
10004e84:	bf5c      	itt	pl
10004e86:	f8dc 0000 	ldrpl.w	r0, [ip]
10004e8a:	ea5f 7040 	movspl.w	r0, r0, lsl #29
10004e8e:	d403      	bmi.n	10004e98 <GLCD_SetWindow+0x878>
10004e90:	f8dc 0000 	ldr.w	r0, [ip]
10004e94:	0740      	lsls	r0, r0, #29
10004e96:	d5ee      	bpl.n	10004e76 <GLCD_SetWindow+0x856>
10004e98:	f85c 0c04 	ldr.w	r0, [ip, #-4]
10004e9c:	6810      	ldr	r0, [r2, #0]
10004e9e:	f040 0001 	orr.w	r0, r0, #1
10004ea2:	6010      	str	r0, [r2, #0]
10004ea4:	f8de 0000 	ldr.w	r0, [lr]
10004ea8:	f020 0001 	bic.w	r0, r0, #1
10004eac:	f8ce 0000 	str.w	r0, [lr]
10004eb0:	2070      	movs	r0, #112	@ 0x70
10004eb2:	f84c 0c04 	str.w	r0, [ip, #-4]
10004eb6:	f8dc 0000 	ldr.w	r0, [ip]
10004eba:	0740      	lsls	r0, r0, #29
10004ebc:	d40c      	bmi.n	10004ed8 <GLCD_SetWindow+0x8b8>
10004ebe:	f8dc 0000 	ldr.w	r0, [ip]
10004ec2:	0740      	lsls	r0, r0, #29
10004ec4:	bf5c      	itt	pl
10004ec6:	f8dc 0000 	ldrpl.w	r0, [ip]
10004eca:	ea5f 7040 	movspl.w	r0, r0, lsl #29
10004ece:	d403      	bmi.n	10004ed8 <GLCD_SetWindow+0x8b8>
10004ed0:	f8dc 0000 	ldr.w	r0, [ip]
10004ed4:	0740      	lsls	r0, r0, #29
10004ed6:	d5ee      	bpl.n	10004eb6 <GLCD_SetWindow+0x896>
10004ed8:	f85c 0c04 	ldr.w	r0, [ip, #-4]
10004edc:	2000      	movs	r0, #0
10004ede:	f84c 0c04 	str.w	r0, [ip, #-4]
10004ee2:	f8dc 0000 	ldr.w	r0, [ip]
10004ee6:	0740      	lsls	r0, r0, #29
10004ee8:	d40c      	bmi.n	10004f04 <GLCD_SetWindow+0x8e4>
10004eea:	f8dc 0000 	ldr.w	r0, [ip]
10004eee:	0740      	lsls	r0, r0, #29
10004ef0:	bf5c      	itt	pl
10004ef2:	f8dc 0000 	ldrpl.w	r0, [ip]
10004ef6:	ea5f 7040 	movspl.w	r0, r0, lsl #29
10004efa:	d403      	bmi.n	10004f04 <GLCD_SetWindow+0x8e4>
10004efc:	f8dc 0000 	ldr.w	r0, [ip]
10004f00:	0740      	lsls	r0, r0, #29
10004f02:	d5ee      	bpl.n	10004ee2 <GLCD_SetWindow+0x8c2>
10004f04:	f85c 0c04 	ldr.w	r0, [ip, #-4]
10004f08:	2009      	movs	r0, #9
10004f0a:	f84c 0c04 	str.w	r0, [ip, #-4]
10004f0e:	f8dc 0000 	ldr.w	r0, [ip]
10004f12:	0740      	lsls	r0, r0, #29
10004f14:	d40c      	bmi.n	10004f30 <GLCD_SetWindow+0x910>
10004f16:	f8dc 0000 	ldr.w	r0, [ip]
10004f1a:	0740      	lsls	r0, r0, #29
10004f1c:	bf5c      	itt	pl
10004f1e:	f8dc 0000 	ldrpl.w	r0, [ip]
10004f22:	ea5f 7040 	movspl.w	r0, r0, lsl #29
10004f26:	d403      	bmi.n	10004f30 <GLCD_SetWindow+0x910>
10004f28:	f8dc 0000 	ldr.w	r0, [ip]
10004f2c:	0740      	lsls	r0, r0, #29
10004f2e:	d5ee      	bpl.n	10004f0e <GLCD_SetWindow+0x8ee>
10004f30:	f85c 0c04 	ldr.w	r0, [ip, #-4]
10004f34:	6810      	ldr	r0, [r2, #0]
10004f36:	f040 0001 	orr.w	r0, r0, #1
10004f3a:	6010      	str	r0, [r2, #0]
10004f3c:	f8de 0000 	ldr.w	r0, [lr]
10004f40:	f020 0001 	bic.w	r0, r0, #1
10004f44:	f8ce 0000 	str.w	r0, [lr]
10004f48:	2072      	movs	r0, #114	@ 0x72
10004f4a:	f84c 0c04 	str.w	r0, [ip, #-4]
10004f4e:	f8dc 0000 	ldr.w	r0, [ip]
10004f52:	0740      	lsls	r0, r0, #29
10004f54:	d40c      	bmi.n	10004f70 <GLCD_SetWindow+0x950>
10004f56:	f8dc 0000 	ldr.w	r0, [ip]
10004f5a:	0740      	lsls	r0, r0, #29
10004f5c:	bf5c      	itt	pl
10004f5e:	f8dc 0000 	ldrpl.w	r0, [ip]
10004f62:	ea5f 7040 	movspl.w	r0, r0, lsl #29
10004f66:	d403      	bmi.n	10004f70 <GLCD_SetWindow+0x950>
10004f68:	f8dc 0000 	ldr.w	r0, [ip]
10004f6c:	0740      	lsls	r0, r0, #29
10004f6e:	d5ee      	bpl.n	10004f4e <GLCD_SetWindow+0x92e>
10004f70:	f85c 0c04 	ldr.w	r0, [ip, #-4]
10004f74:	2000      	movs	r0, #0
10004f76:	f84c 0c04 	str.w	r0, [ip, #-4]
10004f7a:	f8dc 0000 	ldr.w	r0, [ip]
10004f7e:	0740      	lsls	r0, r0, #29
10004f80:	d40c      	bmi.n	10004f9c <GLCD_SetWindow+0x97c>
10004f82:	f8dc 0000 	ldr.w	r0, [ip]
10004f86:	0740      	lsls	r0, r0, #29
10004f88:	bf5c      	itt	pl
10004f8a:	f8dc 0000 	ldrpl.w	r0, [ip]
10004f8e:	ea5f 7040 	movspl.w	r0, r0, lsl #29
10004f92:	d403      	bmi.n	10004f9c <GLCD_SetWindow+0x97c>
10004f94:	f8dc 0000 	ldr.w	r0, [ip]
10004f98:	0740      	lsls	r0, r0, #29
10004f9a:	d5ee      	bpl.n	10004f7a <GLCD_SetWindow+0x95a>
10004f9c:	b2d8      	uxtb	r0, r3
10004f9e:	f85c 1c04 	ldr.w	r1, [ip, #-4]
10004fa2:	f84c 0c04 	str.w	r0, [ip, #-4]
10004fa6:	f8dc 0000 	ldr.w	r0, [ip]
10004faa:	0740      	lsls	r0, r0, #29
10004fac:	d40c      	bmi.n	10004fc8 <GLCD_SetWindow+0x9a8>
10004fae:	f8dc 0000 	ldr.w	r0, [ip]
10004fb2:	0740      	lsls	r0, r0, #29
10004fb4:	bf5c      	itt	pl
10004fb6:	f8dc 0000 	ldrpl.w	r0, [ip]
10004fba:	ea5f 7040 	movspl.w	r0, r0, lsl #29
10004fbe:	d403      	bmi.n	10004fc8 <GLCD_SetWindow+0x9a8>
10004fc0:	f8dc 0000 	ldr.w	r0, [ip]
10004fc4:	0740      	lsls	r0, r0, #29
10004fc6:	d5ee      	bpl.n	10004fa6 <GLCD_SetWindow+0x986>
10004fc8:	f85c 0c04 	ldr.w	r0, [ip, #-4]
10004fcc:	6810      	ldr	r0, [r2, #0]
10004fce:	f040 0001 	orr.w	r0, r0, #1
10004fd2:	6010      	str	r0, [r2, #0]
10004fd4:	bdb0      	pop	{r4, r5, r7, pc}

10004fd6 <GLCD_SetFont>:
10004fd6:	f240 022c 	movw	r2, #44	@ 0x2c
10004fda:	4601      	mov	r1, r0
10004fdc:	f6c3 0200 	movt	r2, #14336	@ 0x3800
10004fe0:	2000      	movs	r0, #0
10004fe2:	6051      	str	r1, [r2, #4]
10004fe4:	4770      	bx	lr

10004fe6 <GLCD_DrawPixel>:
10004fe6:	b5b0      	push	{r4, r5, r7, lr}
10004fe8:	af02      	add	r7, sp, #8
10004fea:	f242 034c 	movw	r3, #8268	@ 0x204c
10004fee:	f2c4 0330 	movt	r3, #16432	@ 0x4030
10004ff2:	681c      	ldr	r4, [r3, #0]
10004ff4:	f246 020c 	movw	r2, #24588	@ 0x600c
10004ff8:	f024 0401 	bic.w	r4, r4, #1
10004ffc:	f2c5 0220 	movt	r2, #20512	@ 0x5020
10005000:	601c      	str	r4, [r3, #0]
10005002:	2470      	movs	r4, #112	@ 0x70
10005004:	f842 4c04 	str.w	r4, [r2, #-4]
10005008:	6814      	ldr	r4, [r2, #0]
1000500a:	0764      	lsls	r4, r4, #29
1000500c:	d409      	bmi.n	10005022 <GLCD_DrawPixel+0x3c>
1000500e:	6814      	ldr	r4, [r2, #0]
10005010:	0764      	lsls	r4, r4, #29
10005012:	bf5c      	itt	pl
10005014:	6814      	ldrpl	r4, [r2, #0]
10005016:	ea5f 7444 	movspl.w	r4, r4, lsl #29
1000501a:	d402      	bmi.n	10005022 <GLCD_DrawPixel+0x3c>
1000501c:	6814      	ldr	r4, [r2, #0]
1000501e:	0764      	lsls	r4, r4, #29
10005020:	d5f2      	bpl.n	10005008 <GLCD_DrawPixel+0x22>
10005022:	f852 4c04 	ldr.w	r4, [r2, #-4]
10005026:	2400      	movs	r4, #0
10005028:	f842 4c04 	str.w	r4, [r2, #-4]
1000502c:	6814      	ldr	r4, [r2, #0]
1000502e:	0764      	lsls	r4, r4, #29
10005030:	d409      	bmi.n	10005046 <GLCD_DrawPixel+0x60>
10005032:	6814      	ldr	r4, [r2, #0]
10005034:	0764      	lsls	r4, r4, #29
10005036:	bf5c      	itt	pl
10005038:	6814      	ldrpl	r4, [r2, #0]
1000503a:	ea5f 7444 	movspl.w	r4, r4, lsl #29
1000503e:	d402      	bmi.n	10005046 <GLCD_DrawPixel+0x60>
10005040:	6814      	ldr	r4, [r2, #0]
10005042:	0764      	lsls	r4, r4, #29
10005044:	d5f2      	bpl.n	1000502c <GLCD_DrawPixel+0x46>
10005046:	f852 4c04 	ldr.w	r4, [r2, #-4]
1000504a:	2402      	movs	r4, #2
1000504c:	f842 4c04 	str.w	r4, [r2, #-4]
10005050:	6814      	ldr	r4, [r2, #0]
10005052:	0764      	lsls	r4, r4, #29
10005054:	d409      	bmi.n	1000506a <GLCD_DrawPixel+0x84>
10005056:	6814      	ldr	r4, [r2, #0]
10005058:	0764      	lsls	r4, r4, #29
1000505a:	bf5c      	itt	pl
1000505c:	6814      	ldrpl	r4, [r2, #0]
1000505e:	ea5f 7444 	movspl.w	r4, r4, lsl #29
10005062:	d402      	bmi.n	1000506a <GLCD_DrawPixel+0x84>
10005064:	6814      	ldr	r4, [r2, #0]
10005066:	0764      	lsls	r4, r4, #29
10005068:	d5f2      	bpl.n	10005050 <GLCD_DrawPixel+0x6a>
1000506a:	f242 0c4c 	movw	ip, #8268	@ 0x204c
1000506e:	f2c5 0c30 	movt	ip, #20528	@ 0x5030
10005072:	f852 4c04 	ldr.w	r4, [r2, #-4]
10005076:	f8dc 4000 	ldr.w	r4, [ip]
1000507a:	f044 0401 	orr.w	r4, r4, #1
1000507e:	f8cc 4000 	str.w	r4, [ip]
10005082:	681c      	ldr	r4, [r3, #0]
10005084:	f024 0401 	bic.w	r4, r4, #1
10005088:	601c      	str	r4, [r3, #0]
1000508a:	2472      	movs	r4, #114	@ 0x72
1000508c:	f842 4c04 	str.w	r4, [r2, #-4]
10005090:	6814      	ldr	r4, [r2, #0]
10005092:	0764      	lsls	r4, r4, #29
10005094:	d409      	bmi.n	100050aa <GLCD_DrawPixel+0xc4>
10005096:	6814      	ldr	r4, [r2, #0]
10005098:	0764      	lsls	r4, r4, #29
1000509a:	bf5c      	itt	pl
1000509c:	6814      	ldrpl	r4, [r2, #0]
1000509e:	ea5f 7444 	movspl.w	r4, r4, lsl #29
100050a2:	d402      	bmi.n	100050aa <GLCD_DrawPixel+0xc4>
100050a4:	6814      	ldr	r4, [r2, #0]
100050a6:	0764      	lsls	r4, r4, #29
100050a8:	d5f2      	bpl.n	10005090 <GLCD_DrawPixel+0xaa>
100050aa:	f852 4c04 	ldr.w	r4, [r2, #-4]
100050ae:	f3c0 4e07 	ubfx	lr, r0, #16, #8
100050b2:	f842 ec04 	str.w	lr, [r2, #-4]
100050b6:	6814      	ldr	r4, [r2, #0]
100050b8:	0764      	lsls	r4, r4, #29
100050ba:	d409      	bmi.n	100050d0 <GLCD_DrawPixel+0xea>
100050bc:	6814      	ldr	r4, [r2, #0]
100050be:	0764      	lsls	r4, r4, #29
100050c0:	bf5c      	itt	pl
100050c2:	6814      	ldrpl	r4, [r2, #0]
100050c4:	ea5f 7444 	movspl.w	r4, r4, lsl #29
100050c8:	d402      	bmi.n	100050d0 <GLCD_DrawPixel+0xea>
100050ca:	6814      	ldr	r4, [r2, #0]
100050cc:	0764      	lsls	r4, r4, #29
100050ce:	d5f2      	bpl.n	100050b6 <GLCD_DrawPixel+0xd0>
100050d0:	f852 4c04 	ldr.w	r4, [r2, #-4]
100050d4:	f3c0 2407 	ubfx	r4, r0, #8, #8
100050d8:	f842 4c04 	str.w	r4, [r2, #-4]
100050dc:	6815      	ldr	r5, [r2, #0]
100050de:	076d      	lsls	r5, r5, #29
100050e0:	d409      	bmi.n	100050f6 <GLCD_DrawPixel+0x110>
100050e2:	6815      	ldr	r5, [r2, #0]
100050e4:	076d      	lsls	r5, r5, #29
100050e6:	bf5c      	itt	pl
100050e8:	6815      	ldrpl	r5, [r2, #0]
100050ea:	ea5f 7545 	movspl.w	r5, r5, lsl #29
100050ee:	d402      	bmi.n	100050f6 <GLCD_DrawPixel+0x110>
100050f0:	6815      	ldr	r5, [r2, #0]
100050f2:	076d      	lsls	r5, r5, #29
100050f4:	d5f2      	bpl.n	100050dc <GLCD_DrawPixel+0xf6>
100050f6:	f852 5c04 	ldr.w	r5, [r2, #-4]
100050fa:	f8dc 5000 	ldr.w	r5, [ip]
100050fe:	f045 0501 	orr.w	r5, r5, #1
10005102:	f8cc 5000 	str.w	r5, [ip]
10005106:	681d      	ldr	r5, [r3, #0]
10005108:	f025 0501 	bic.w	r5, r5, #1
1000510c:	601d      	str	r5, [r3, #0]
1000510e:	2570      	movs	r5, #112	@ 0x70
10005110:	f842 5c04 	str.w	r5, [r2, #-4]
10005114:	6815      	ldr	r5, [r2, #0]
10005116:	076d      	lsls	r5, r5, #29
10005118:	d409      	bmi.n	1000512e <GLCD_DrawPixel+0x148>
1000511a:	6815      	ldr	r5, [r2, #0]
1000511c:	076d      	lsls	r5, r5, #29
1000511e:	bf5c      	itt	pl
10005120:	6815      	ldrpl	r5, [r2, #0]
10005122:	ea5f 7545 	movspl.w	r5, r5, lsl #29
10005126:	d402      	bmi.n	1000512e <GLCD_DrawPixel+0x148>
10005128:	6815      	ldr	r5, [r2, #0]
1000512a:	076d      	lsls	r5, r5, #29
1000512c:	d5f2      	bpl.n	10005114 <GLCD_DrawPixel+0x12e>
1000512e:	f852 5c04 	ldr.w	r5, [r2, #-4]
10005132:	2500      	movs	r5, #0
10005134:	f842 5c04 	str.w	r5, [r2, #-4]
10005138:	6815      	ldr	r5, [r2, #0]
1000513a:	076d      	lsls	r5, r5, #29
1000513c:	d409      	bmi.n	10005152 <GLCD_DrawPixel+0x16c>
1000513e:	6815      	ldr	r5, [r2, #0]
10005140:	076d      	lsls	r5, r5, #29
10005142:	bf5c      	itt	pl
10005144:	6815      	ldrpl	r5, [r2, #0]
10005146:	ea5f 7545 	movspl.w	r5, r5, lsl #29
1000514a:	d402      	bmi.n	10005152 <GLCD_DrawPixel+0x16c>
1000514c:	6815      	ldr	r5, [r2, #0]
1000514e:	076d      	lsls	r5, r5, #29
10005150:	d5f2      	bpl.n	10005138 <GLCD_DrawPixel+0x152>
10005152:	f852 5c04 	ldr.w	r5, [r2, #-4]
10005156:	2503      	movs	r5, #3
10005158:	f842 5c04 	str.w	r5, [r2, #-4]
1000515c:	6815      	ldr	r5, [r2, #0]
1000515e:	076d      	lsls	r5, r5, #29
10005160:	d409      	bmi.n	10005176 <GLCD_DrawPixel+0x190>
10005162:	6815      	ldr	r5, [r2, #0]
10005164:	076d      	lsls	r5, r5, #29
10005166:	bf5c      	itt	pl
10005168:	6815      	ldrpl	r5, [r2, #0]
1000516a:	ea5f 7545 	movspl.w	r5, r5, lsl #29
1000516e:	d402      	bmi.n	10005176 <GLCD_DrawPixel+0x190>
10005170:	6815      	ldr	r5, [r2, #0]
10005172:	076d      	lsls	r5, r5, #29
10005174:	d5f2      	bpl.n	1000515c <GLCD_DrawPixel+0x176>
10005176:	f852 5c04 	ldr.w	r5, [r2, #-4]
1000517a:	f8dc 5000 	ldr.w	r5, [ip]
1000517e:	f045 0501 	orr.w	r5, r5, #1
10005182:	f8cc 5000 	str.w	r5, [ip]
10005186:	681d      	ldr	r5, [r3, #0]
10005188:	f025 0501 	bic.w	r5, r5, #1
1000518c:	601d      	str	r5, [r3, #0]
1000518e:	2572      	movs	r5, #114	@ 0x72
10005190:	f842 5c04 	str.w	r5, [r2, #-4]
10005194:	6815      	ldr	r5, [r2, #0]
10005196:	076d      	lsls	r5, r5, #29
10005198:	d409      	bmi.n	100051ae <GLCD_DrawPixel+0x1c8>
1000519a:	6815      	ldr	r5, [r2, #0]
1000519c:	076d      	lsls	r5, r5, #29
1000519e:	bf5c      	itt	pl
100051a0:	6815      	ldrpl	r5, [r2, #0]
100051a2:	ea5f 7545 	movspl.w	r5, r5, lsl #29
100051a6:	d402      	bmi.n	100051ae <GLCD_DrawPixel+0x1c8>
100051a8:	6815      	ldr	r5, [r2, #0]
100051aa:	076d      	lsls	r5, r5, #29
100051ac:	d5f2      	bpl.n	10005194 <GLCD_DrawPixel+0x1ae>
100051ae:	f852 5c04 	ldr.w	r5, [r2, #-4]
100051b2:	2500      	movs	r5, #0
100051b4:	f842 5c04 	str.w	r5, [r2, #-4]
100051b8:	6815      	ldr	r5, [r2, #0]
100051ba:	076d      	lsls	r5, r5, #29
100051bc:	d409      	bmi.n	100051d2 <GLCD_DrawPixel+0x1ec>
100051be:	6815      	ldr	r5, [r2, #0]
100051c0:	076d      	lsls	r5, r5, #29
100051c2:	bf5c      	itt	pl
100051c4:	6815      	ldrpl	r5, [r2, #0]
100051c6:	ea5f 7545 	movspl.w	r5, r5, lsl #29
100051ca:	d402      	bmi.n	100051d2 <GLCD_DrawPixel+0x1ec>
100051cc:	6815      	ldr	r5, [r2, #0]
100051ce:	076d      	lsls	r5, r5, #29
100051d0:	d5f2      	bpl.n	100051b8 <GLCD_DrawPixel+0x1d2>
100051d2:	b2c0      	uxtb	r0, r0
100051d4:	f852 5c04 	ldr.w	r5, [r2, #-4]
100051d8:	f842 0c04 	str.w	r0, [r2, #-4]
100051dc:	6815      	ldr	r5, [r2, #0]
100051de:	076d      	lsls	r5, r5, #29
100051e0:	d409      	bmi.n	100051f6 <GLCD_DrawPixel+0x210>
100051e2:	6815      	ldr	r5, [r2, #0]
100051e4:	076d      	lsls	r5, r5, #29
100051e6:	bf5c      	itt	pl
100051e8:	6815      	ldrpl	r5, [r2, #0]
100051ea:	ea5f 7545 	movspl.w	r5, r5, lsl #29
100051ee:	d402      	bmi.n	100051f6 <GLCD_DrawPixel+0x210>
100051f0:	6815      	ldr	r5, [r2, #0]
100051f2:	076d      	lsls	r5, r5, #29
100051f4:	d5f2      	bpl.n	100051dc <GLCD_DrawPixel+0x1f6>
100051f6:	f852 5c04 	ldr.w	r5, [r2, #-4]
100051fa:	f8dc 5000 	ldr.w	r5, [ip]
100051fe:	f045 0501 	orr.w	r5, r5, #1
10005202:	f8cc 5000 	str.w	r5, [ip]
10005206:	681d      	ldr	r5, [r3, #0]
10005208:	f025 0501 	bic.w	r5, r5, #1
1000520c:	601d      	str	r5, [r3, #0]
1000520e:	2570      	movs	r5, #112	@ 0x70
10005210:	f842 5c04 	str.w	r5, [r2, #-4]
10005214:	6815      	ldr	r5, [r2, #0]
10005216:	076d      	lsls	r5, r5, #29
10005218:	d409      	bmi.n	1000522e <GLCD_DrawPixel+0x248>
1000521a:	6815      	ldr	r5, [r2, #0]
1000521c:	076d      	lsls	r5, r5, #29
1000521e:	bf5c      	itt	pl
10005220:	6815      	ldrpl	r5, [r2, #0]
10005222:	ea5f 7545 	movspl.w	r5, r5, lsl #29
10005226:	d402      	bmi.n	1000522e <GLCD_DrawPixel+0x248>
10005228:	6815      	ldr	r5, [r2, #0]
1000522a:	076d      	lsls	r5, r5, #29
1000522c:	d5f2      	bpl.n	10005214 <GLCD_DrawPixel+0x22e>
1000522e:	f852 5c04 	ldr.w	r5, [r2, #-4]
10005232:	2500      	movs	r5, #0
10005234:	f842 5c04 	str.w	r5, [r2, #-4]
10005238:	6815      	ldr	r5, [r2, #0]
1000523a:	076d      	lsls	r5, r5, #29
1000523c:	d409      	bmi.n	10005252 <GLCD_DrawPixel+0x26c>
1000523e:	6815      	ldr	r5, [r2, #0]
10005240:	076d      	lsls	r5, r5, #29
10005242:	bf5c      	itt	pl
10005244:	6815      	ldrpl	r5, [r2, #0]
10005246:	ea5f 7545 	movspl.w	r5, r5, lsl #29
1000524a:	d402      	bmi.n	10005252 <GLCD_DrawPixel+0x26c>
1000524c:	6815      	ldr	r5, [r2, #0]
1000524e:	076d      	lsls	r5, r5, #29
10005250:	d5f2      	bpl.n	10005238 <GLCD_DrawPixel+0x252>
10005252:	f852 5c04 	ldr.w	r5, [r2, #-4]
10005256:	2504      	movs	r5, #4
10005258:	f842 5c04 	str.w	r5, [r2, #-4]
1000525c:	6815      	ldr	r5, [r2, #0]
1000525e:	076d      	lsls	r5, r5, #29
10005260:	d409      	bmi.n	10005276 <GLCD_DrawPixel+0x290>
10005262:	6815      	ldr	r5, [r2, #0]
10005264:	076d      	lsls	r5, r5, #29
10005266:	bf5c      	itt	pl
10005268:	6815      	ldrpl	r5, [r2, #0]
1000526a:	ea5f 7545 	movspl.w	r5, r5, lsl #29
1000526e:	d402      	bmi.n	10005276 <GLCD_DrawPixel+0x290>
10005270:	6815      	ldr	r5, [r2, #0]
10005272:	076d      	lsls	r5, r5, #29
10005274:	d5f2      	bpl.n	1000525c <GLCD_DrawPixel+0x276>
10005276:	f852 5c04 	ldr.w	r5, [r2, #-4]
1000527a:	f8dc 5000 	ldr.w	r5, [ip]
1000527e:	f045 0501 	orr.w	r5, r5, #1
10005282:	f8cc 5000 	str.w	r5, [ip]
10005286:	681d      	ldr	r5, [r3, #0]
10005288:	f025 0501 	bic.w	r5, r5, #1
1000528c:	601d      	str	r5, [r3, #0]
1000528e:	2572      	movs	r5, #114	@ 0x72
10005290:	f842 5c04 	str.w	r5, [r2, #-4]
10005294:	6815      	ldr	r5, [r2, #0]
10005296:	076d      	lsls	r5, r5, #29
10005298:	d409      	bmi.n	100052ae <GLCD_DrawPixel+0x2c8>
1000529a:	6815      	ldr	r5, [r2, #0]
1000529c:	076d      	lsls	r5, r5, #29
1000529e:	bf5c      	itt	pl
100052a0:	6815      	ldrpl	r5, [r2, #0]
100052a2:	ea5f 7545 	movspl.w	r5, r5, lsl #29
100052a6:	d402      	bmi.n	100052ae <GLCD_DrawPixel+0x2c8>
100052a8:	6815      	ldr	r5, [r2, #0]
100052aa:	076d      	lsls	r5, r5, #29
100052ac:	d5f2      	bpl.n	10005294 <GLCD_DrawPixel+0x2ae>
100052ae:	f852 5c04 	ldr.w	r5, [r2, #-4]
100052b2:	f842 ec04 	str.w	lr, [r2, #-4]
100052b6:	6815      	ldr	r5, [r2, #0]
100052b8:	076d      	lsls	r5, r5, #29
100052ba:	d409      	bmi.n	100052d0 <GLCD_DrawPixel+0x2ea>
100052bc:	6815      	ldr	r5, [r2, #0]
100052be:	076d      	lsls	r5, r5, #29
100052c0:	bf5c      	itt	pl
100052c2:	6815      	ldrpl	r5, [r2, #0]
100052c4:	ea5f 7545 	movspl.w	r5, r5, lsl #29
100052c8:	d402      	bmi.n	100052d0 <GLCD_DrawPixel+0x2ea>
100052ca:	6815      	ldr	r5, [r2, #0]
100052cc:	076d      	lsls	r5, r5, #29
100052ce:	d5f2      	bpl.n	100052b6 <GLCD_DrawPixel+0x2d0>
100052d0:	f852 5c04 	ldr.w	r5, [r2, #-4]
100052d4:	f842 4c04 	str.w	r4, [r2, #-4]
100052d8:	6815      	ldr	r5, [r2, #0]
100052da:	076d      	lsls	r5, r5, #29
100052dc:	d409      	bmi.n	100052f2 <GLCD_DrawPixel+0x30c>
100052de:	6815      	ldr	r5, [r2, #0]
100052e0:	076d      	lsls	r5, r5, #29
100052e2:	bf5c      	itt	pl
100052e4:	6815      	ldrpl	r5, [r2, #0]
100052e6:	ea5f 7545 	movspl.w	r5, r5, lsl #29
100052ea:	d402      	bmi.n	100052f2 <GLCD_DrawPixel+0x30c>
100052ec:	6815      	ldr	r5, [r2, #0]
100052ee:	076d      	lsls	r5, r5, #29
100052f0:	d5f2      	bpl.n	100052d8 <GLCD_DrawPixel+0x2f2>
100052f2:	f852 5c04 	ldr.w	r5, [r2, #-4]
100052f6:	f8dc 5000 	ldr.w	r5, [ip]
100052fa:	f045 0501 	orr.w	r5, r5, #1
100052fe:	f8cc 5000 	str.w	r5, [ip]
10005302:	681d      	ldr	r5, [r3, #0]
10005304:	f025 0501 	bic.w	r5, r5, #1
10005308:	601d      	str	r5, [r3, #0]
1000530a:	2570      	movs	r5, #112	@ 0x70
1000530c:	f842 5c04 	str.w	r5, [r2, #-4]
10005310:	6815      	ldr	r5, [r2, #0]
10005312:	076d      	lsls	r5, r5, #29
10005314:	d409      	bmi.n	1000532a <GLCD_DrawPixel+0x344>
10005316:	6815      	ldr	r5, [r2, #0]
10005318:	076d      	lsls	r5, r5, #29
1000531a:	bf5c      	itt	pl
1000531c:	6815      	ldrpl	r5, [r2, #0]
1000531e:	ea5f 7545 	movspl.w	r5, r5, lsl #29
10005322:	d402      	bmi.n	1000532a <GLCD_DrawPixel+0x344>
10005324:	6815      	ldr	r5, [r2, #0]
10005326:	076d      	lsls	r5, r5, #29
10005328:	d5f2      	bpl.n	10005310 <GLCD_DrawPixel+0x32a>
1000532a:	f852 5c04 	ldr.w	r5, [r2, #-4]
1000532e:	2500      	movs	r5, #0
10005330:	f842 5c04 	str.w	r5, [r2, #-4]
10005334:	6815      	ldr	r5, [r2, #0]
10005336:	076d      	lsls	r5, r5, #29
10005338:	d409      	bmi.n	1000534e <GLCD_DrawPixel+0x368>
1000533a:	6815      	ldr	r5, [r2, #0]
1000533c:	076d      	lsls	r5, r5, #29
1000533e:	bf5c      	itt	pl
10005340:	6815      	ldrpl	r5, [r2, #0]
10005342:	ea5f 7545 	movspl.w	r5, r5, lsl #29
10005346:	d402      	bmi.n	1000534e <GLCD_DrawPixel+0x368>
10005348:	6815      	ldr	r5, [r2, #0]
1000534a:	076d      	lsls	r5, r5, #29
1000534c:	d5f2      	bpl.n	10005334 <GLCD_DrawPixel+0x34e>
1000534e:	f852 5c04 	ldr.w	r5, [r2, #-4]
10005352:	2505      	movs	r5, #5
10005354:	f842 5c04 	str.w	r5, [r2, #-4]
10005358:	6815      	ldr	r5, [r2, #0]
1000535a:	076d      	lsls	r5, r5, #29
1000535c:	d409      	bmi.n	10005372 <GLCD_DrawPixel+0x38c>
1000535e:	6815      	ldr	r5, [r2, #0]
10005360:	076d      	lsls	r5, r5, #29
10005362:	bf5c      	itt	pl
10005364:	6815      	ldrpl	r5, [r2, #0]
10005366:	ea5f 7545 	movspl.w	r5, r5, lsl #29
1000536a:	d402      	bmi.n	10005372 <GLCD_DrawPixel+0x38c>
1000536c:	6815      	ldr	r5, [r2, #0]
1000536e:	076d      	lsls	r5, r5, #29
10005370:	d5f2      	bpl.n	10005358 <GLCD_DrawPixel+0x372>
10005372:	f852 5c04 	ldr.w	r5, [r2, #-4]
10005376:	f8dc 5000 	ldr.w	r5, [ip]
1000537a:	f045 0501 	orr.w	r5, r5, #1
1000537e:	f8cc 5000 	str.w	r5, [ip]
10005382:	681d      	ldr	r5, [r3, #0]
10005384:	f025 0501 	bic.w	r5, r5, #1
10005388:	601d      	str	r5, [r3, #0]
1000538a:	2572      	movs	r5, #114	@ 0x72
1000538c:	f842 5c04 	str.w	r5, [r2, #-4]
10005390:	6815      	ldr	r5, [r2, #0]
10005392:	076d      	lsls	r5, r5, #29
10005394:	d409      	bmi.n	100053aa <GLCD_DrawPixel+0x3c4>
10005396:	6815      	ldr	r5, [r2, #0]
10005398:	076d      	lsls	r5, r5, #29
1000539a:	bf5c      	itt	pl
1000539c:	6815      	ldrpl	r5, [r2, #0]
1000539e:	ea5f 7545 	movspl.w	r5, r5, lsl #29
100053a2:	d402      	bmi.n	100053aa <GLCD_DrawPixel+0x3c4>
100053a4:	6815      	ldr	r5, [r2, #0]
100053a6:	076d      	lsls	r5, r5, #29
100053a8:	d5f2      	bpl.n	10005390 <GLCD_DrawPixel+0x3aa>
100053aa:	f852 5c04 	ldr.w	r5, [r2, #-4]
100053ae:	2500      	movs	r5, #0
100053b0:	f842 5c04 	str.w	r5, [r2, #-4]
100053b4:	6815      	ldr	r5, [r2, #0]
100053b6:	076d      	lsls	r5, r5, #29
100053b8:	d409      	bmi.n	100053ce <GLCD_DrawPixel+0x3e8>
100053ba:	6815      	ldr	r5, [r2, #0]
100053bc:	076d      	lsls	r5, r5, #29
100053be:	bf5c      	itt	pl
100053c0:	6815      	ldrpl	r5, [r2, #0]
100053c2:	ea5f 7545 	movspl.w	r5, r5, lsl #29
100053c6:	d402      	bmi.n	100053ce <GLCD_DrawPixel+0x3e8>
100053c8:	6815      	ldr	r5, [r2, #0]
100053ca:	076d      	lsls	r5, r5, #29
100053cc:	d5f2      	bpl.n	100053b4 <GLCD_DrawPixel+0x3ce>
100053ce:	f852 5c04 	ldr.w	r5, [r2, #-4]
100053d2:	f842 0c04 	str.w	r0, [r2, #-4]
100053d6:	6810      	ldr	r0, [r2, #0]
100053d8:	0740      	lsls	r0, r0, #29
100053da:	d409      	bmi.n	100053f0 <GLCD_DrawPixel+0x40a>
100053dc:	6810      	ldr	r0, [r2, #0]
100053de:	0740      	lsls	r0, r0, #29
100053e0:	bf5c      	itt	pl
100053e2:	6810      	ldrpl	r0, [r2, #0]
100053e4:	ea5f 7040 	movspl.w	r0, r0, lsl #29
100053e8:	d402      	bmi.n	100053f0 <GLCD_DrawPixel+0x40a>
100053ea:	6810      	ldr	r0, [r2, #0]
100053ec:	0740      	lsls	r0, r0, #29
100053ee:	d5f2      	bpl.n	100053d6 <GLCD_DrawPixel+0x3f0>
100053f0:	f852 0c04 	ldr.w	r0, [r2, #-4]
100053f4:	f8dc 0000 	ldr.w	r0, [ip]
100053f8:	f040 0001 	orr.w	r0, r0, #1
100053fc:	f8cc 0000 	str.w	r0, [ip]
10005400:	6818      	ldr	r0, [r3, #0]
10005402:	f020 0001 	bic.w	r0, r0, #1
10005406:	6018      	str	r0, [r3, #0]
10005408:	2070      	movs	r0, #112	@ 0x70
1000540a:	f842 0c04 	str.w	r0, [r2, #-4]
1000540e:	6810      	ldr	r0, [r2, #0]
10005410:	0740      	lsls	r0, r0, #29
10005412:	d409      	bmi.n	10005428 <GLCD_DrawPixel+0x442>
10005414:	6810      	ldr	r0, [r2, #0]
10005416:	0740      	lsls	r0, r0, #29
10005418:	bf5c      	itt	pl
1000541a:	6810      	ldrpl	r0, [r2, #0]
1000541c:	ea5f 7040 	movspl.w	r0, r0, lsl #29
10005420:	d402      	bmi.n	10005428 <GLCD_DrawPixel+0x442>
10005422:	6810      	ldr	r0, [r2, #0]
10005424:	0740      	lsls	r0, r0, #29
10005426:	d5f2      	bpl.n	1000540e <GLCD_DrawPixel+0x428>
10005428:	f852 0c04 	ldr.w	r0, [r2, #-4]
1000542c:	2000      	movs	r0, #0
1000542e:	f842 0c04 	str.w	r0, [r2, #-4]
10005432:	6810      	ldr	r0, [r2, #0]
10005434:	0740      	lsls	r0, r0, #29
10005436:	d409      	bmi.n	1000544c <GLCD_DrawPixel+0x466>
10005438:	6810      	ldr	r0, [r2, #0]
1000543a:	0740      	lsls	r0, r0, #29
1000543c:	bf5c      	itt	pl
1000543e:	6810      	ldrpl	r0, [r2, #0]
10005440:	ea5f 7040 	movspl.w	r0, r0, lsl #29
10005444:	d402      	bmi.n	1000544c <GLCD_DrawPixel+0x466>
10005446:	6810      	ldr	r0, [r2, #0]
10005448:	0740      	lsls	r0, r0, #29
1000544a:	d5f2      	bpl.n	10005432 <GLCD_DrawPixel+0x44c>
1000544c:	f852 0c04 	ldr.w	r0, [r2, #-4]
10005450:	2006      	movs	r0, #6
10005452:	f842 0c04 	str.w	r0, [r2, #-4]
10005456:	6810      	ldr	r0, [r2, #0]
10005458:	0740      	lsls	r0, r0, #29
1000545a:	d409      	bmi.n	10005470 <GLCD_DrawPixel+0x48a>
1000545c:	6810      	ldr	r0, [r2, #0]
1000545e:	0740      	lsls	r0, r0, #29
10005460:	bf5c      	itt	pl
10005462:	6810      	ldrpl	r0, [r2, #0]
10005464:	ea5f 7040 	movspl.w	r0, r0, lsl #29
10005468:	d402      	bmi.n	10005470 <GLCD_DrawPixel+0x48a>
1000546a:	6810      	ldr	r0, [r2, #0]
1000546c:	0740      	lsls	r0, r0, #29
1000546e:	d5f2      	bpl.n	10005456 <GLCD_DrawPixel+0x470>
10005470:	f852 0c04 	ldr.w	r0, [r2, #-4]
10005474:	f8dc 0000 	ldr.w	r0, [ip]
10005478:	f040 0001 	orr.w	r0, r0, #1
1000547c:	f8cc 0000 	str.w	r0, [ip]
10005480:	6818      	ldr	r0, [r3, #0]
10005482:	f020 0001 	bic.w	r0, r0, #1
10005486:	6018      	str	r0, [r3, #0]
10005488:	2072      	movs	r0, #114	@ 0x72
1000548a:	f842 0c04 	str.w	r0, [r2, #-4]
1000548e:	6810      	ldr	r0, [r2, #0]
10005490:	0740      	lsls	r0, r0, #29
10005492:	d409      	bmi.n	100054a8 <GLCD_DrawPixel+0x4c2>
10005494:	6810      	ldr	r0, [r2, #0]
10005496:	0740      	lsls	r0, r0, #29
10005498:	bf5c      	itt	pl
1000549a:	6810      	ldrpl	r0, [r2, #0]
1000549c:	ea5f 7040 	movspl.w	r0, r0, lsl #29
100054a0:	d402      	bmi.n	100054a8 <GLCD_DrawPixel+0x4c2>
100054a2:	6810      	ldr	r0, [r2, #0]
100054a4:	0740      	lsls	r0, r0, #29
100054a6:	d5f2      	bpl.n	1000548e <GLCD_DrawPixel+0x4a8>
100054a8:	f852 0c04 	ldr.w	r0, [r2, #-4]
100054ac:	f3c1 4007 	ubfx	r0, r1, #16, #8
100054b0:	f842 0c04 	str.w	r0, [r2, #-4]
100054b4:	6815      	ldr	r5, [r2, #0]
100054b6:	076d      	lsls	r5, r5, #29
100054b8:	d409      	bmi.n	100054ce <GLCD_DrawPixel+0x4e8>
100054ba:	6815      	ldr	r5, [r2, #0]
100054bc:	076d      	lsls	r5, r5, #29
100054be:	bf5c      	itt	pl
100054c0:	6815      	ldrpl	r5, [r2, #0]
100054c2:	ea5f 7545 	movspl.w	r5, r5, lsl #29
100054c6:	d402      	bmi.n	100054ce <GLCD_DrawPixel+0x4e8>
100054c8:	6815      	ldr	r5, [r2, #0]
100054ca:	076d      	lsls	r5, r5, #29
100054cc:	d5f2      	bpl.n	100054b4 <GLCD_DrawPixel+0x4ce>
100054ce:	f852 5c04 	ldr.w	r5, [r2, #-4]
100054d2:	f3c1 2407 	ubfx	r4, r1, #8, #8
100054d6:	f842 4c04 	str.w	r4, [r2, #-4]
100054da:	6815      	ldr	r5, [r2, #0]
100054dc:	076d      	lsls	r5, r5, #29
100054de:	d409      	bmi.n	100054f4 <GLCD_DrawPixel+0x50e>
100054e0:	6815      	ldr	r5, [r2, #0]
100054e2:	076d      	lsls	r5, r5, #29
100054e4:	bf5c      	itt	pl
100054e6:	6815      	ldrpl	r5, [r2, #0]
100054e8:	ea5f 7545 	movspl.w	r5, r5, lsl #29
100054ec:	d402      	bmi.n	100054f4 <GLCD_DrawPixel+0x50e>
100054ee:	6815      	ldr	r5, [r2, #0]
100054f0:	076d      	lsls	r5, r5, #29
100054f2:	d5f2      	bpl.n	100054da <GLCD_DrawPixel+0x4f4>
100054f4:	f852 5c04 	ldr.w	r5, [r2, #-4]
100054f8:	f8dc 5000 	ldr.w	r5, [ip]
100054fc:	f045 0501 	orr.w	r5, r5, #1
10005500:	f8cc 5000 	str.w	r5, [ip]
10005504:	681d      	ldr	r5, [r3, #0]
10005506:	f025 0501 	bic.w	r5, r5, #1
1000550a:	601d      	str	r5, [r3, #0]
1000550c:	2570      	movs	r5, #112	@ 0x70
1000550e:	f842 5c04 	str.w	r5, [r2, #-4]
10005512:	6815      	ldr	r5, [r2, #0]
10005514:	076d      	lsls	r5, r5, #29
10005516:	d409      	bmi.n	1000552c <GLCD_DrawPixel+0x546>
10005518:	6815      	ldr	r5, [r2, #0]
1000551a:	076d      	lsls	r5, r5, #29
1000551c:	bf5c      	itt	pl
1000551e:	6815      	ldrpl	r5, [r2, #0]
10005520:	ea5f 7545 	movspl.w	r5, r5, lsl #29
10005524:	d402      	bmi.n	1000552c <GLCD_DrawPixel+0x546>
10005526:	6815      	ldr	r5, [r2, #0]
10005528:	076d      	lsls	r5, r5, #29
1000552a:	d5f2      	bpl.n	10005512 <GLCD_DrawPixel+0x52c>
1000552c:	f852 5c04 	ldr.w	r5, [r2, #-4]
10005530:	2500      	movs	r5, #0
10005532:	f842 5c04 	str.w	r5, [r2, #-4]
10005536:	6815      	ldr	r5, [r2, #0]
10005538:	076d      	lsls	r5, r5, #29
1000553a:	d409      	bmi.n	10005550 <GLCD_DrawPixel+0x56a>
1000553c:	6815      	ldr	r5, [r2, #0]
1000553e:	076d      	lsls	r5, r5, #29
10005540:	bf5c      	itt	pl
10005542:	6815      	ldrpl	r5, [r2, #0]
10005544:	ea5f 7545 	movspl.w	r5, r5, lsl #29
10005548:	d402      	bmi.n	10005550 <GLCD_DrawPixel+0x56a>
1000554a:	6815      	ldr	r5, [r2, #0]
1000554c:	076d      	lsls	r5, r5, #29
1000554e:	d5f2      	bpl.n	10005536 <GLCD_DrawPixel+0x550>
10005550:	f852 5c04 	ldr.w	r5, [r2, #-4]
10005554:	2507      	movs	r5, #7
10005556:	f842 5c04 	str.w	r5, [r2, #-4]
1000555a:	6815      	ldr	r5, [r2, #0]
1000555c:	076d      	lsls	r5, r5, #29
1000555e:	d409      	bmi.n	10005574 <GLCD_DrawPixel+0x58e>
10005560:	6815      	ldr	r5, [r2, #0]
10005562:	076d      	lsls	r5, r5, #29
10005564:	bf5c      	itt	pl
10005566:	6815      	ldrpl	r5, [r2, #0]
10005568:	ea5f 7545 	movspl.w	r5, r5, lsl #29
1000556c:	d402      	bmi.n	10005574 <GLCD_DrawPixel+0x58e>
1000556e:	6815      	ldr	r5, [r2, #0]
10005570:	076d      	lsls	r5, r5, #29
10005572:	d5f2      	bpl.n	1000555a <GLCD_DrawPixel+0x574>
10005574:	f852 5c04 	ldr.w	r5, [r2, #-4]
10005578:	f8dc 5000 	ldr.w	r5, [ip]
1000557c:	f045 0501 	orr.w	r5, r5, #1
10005580:	f8cc 5000 	str.w	r5, [ip]
10005584:	681d      	ldr	r5, [r3, #0]
10005586:	f025 0501 	bic.w	r5, r5, #1
1000558a:	601d      	str	r5, [r3, #0]
1000558c:	2572      	movs	r5, #114	@ 0x72
1000558e:	f842 5c04 	str.w	r5, [r2, #-4]
10005592:	6815      	ldr	r5, [r2, #0]
10005594:	076d      	lsls	r5, r5, #29
10005596:	d409      	bmi.n	100055ac <GLCD_DrawPixel+0x5c6>
10005598:	6815      	ldr	r5, [r2, #0]
1000559a:	076d      	lsls	r5, r5, #29
1000559c:	bf5c      	itt	pl
1000559e:	6815      	ldrpl	r5, [r2, #0]
100055a0:	ea5f 7545 	movspl.w	r5, r5, lsl #29
100055a4:	d402      	bmi.n	100055ac <GLCD_DrawPixel+0x5c6>
100055a6:	6815      	ldr	r5, [r2, #0]
100055a8:	076d      	lsls	r5, r5, #29
100055aa:	d5f2      	bpl.n	10005592 <GLCD_DrawPixel+0x5ac>
100055ac:	f852 5c04 	ldr.w	r5, [r2, #-4]
100055b0:	2500      	movs	r5, #0
100055b2:	f842 5c04 	str.w	r5, [r2, #-4]
100055b6:	6815      	ldr	r5, [r2, #0]
100055b8:	076d      	lsls	r5, r5, #29
100055ba:	d409      	bmi.n	100055d0 <GLCD_DrawPixel+0x5ea>
100055bc:	6815      	ldr	r5, [r2, #0]
100055be:	076d      	lsls	r5, r5, #29
100055c0:	bf5c      	itt	pl
100055c2:	6815      	ldrpl	r5, [r2, #0]
100055c4:	ea5f 7545 	movspl.w	r5, r5, lsl #29
100055c8:	d402      	bmi.n	100055d0 <GLCD_DrawPixel+0x5ea>
100055ca:	6815      	ldr	r5, [r2, #0]
100055cc:	076d      	lsls	r5, r5, #29
100055ce:	d5f2      	bpl.n	100055b6 <GLCD_DrawPixel+0x5d0>
100055d0:	b2c9      	uxtb	r1, r1
100055d2:	f852 5c04 	ldr.w	r5, [r2, #-4]
100055d6:	f842 1c04 	str.w	r1, [r2, #-4]
100055da:	6815      	ldr	r5, [r2, #0]
100055dc:	076d      	lsls	r5, r5, #29
100055de:	d409      	bmi.n	100055f4 <GLCD_DrawPixel+0x60e>
100055e0:	6815      	ldr	r5, [r2, #0]
100055e2:	076d      	lsls	r5, r5, #29
100055e4:	bf5c      	itt	pl
100055e6:	6815      	ldrpl	r5, [r2, #0]
100055e8:	ea5f 7545 	movspl.w	r5, r5, lsl #29
100055ec:	d402      	bmi.n	100055f4 <GLCD_DrawPixel+0x60e>
100055ee:	6815      	ldr	r5, [r2, #0]
100055f0:	076d      	lsls	r5, r5, #29
100055f2:	d5f2      	bpl.n	100055da <GLCD_DrawPixel+0x5f4>
100055f4:	f852 5c04 	ldr.w	r5, [r2, #-4]
100055f8:	f8dc 5000 	ldr.w	r5, [ip]
100055fc:	f045 0501 	orr.w	r5, r5, #1
10005600:	f8cc 5000 	str.w	r5, [ip]
10005604:	681d      	ldr	r5, [r3, #0]
10005606:	f025 0501 	bic.w	r5, r5, #1
1000560a:	601d      	str	r5, [r3, #0]
1000560c:	2570      	movs	r5, #112	@ 0x70
1000560e:	f842 5c04 	str.w	r5, [r2, #-4]
10005612:	6815      	ldr	r5, [r2, #0]
10005614:	076d      	lsls	r5, r5, #29
10005616:	d409      	bmi.n	1000562c <GLCD_DrawPixel+0x646>
10005618:	6815      	ldr	r5, [r2, #0]
1000561a:	076d      	lsls	r5, r5, #29
1000561c:	bf5c      	itt	pl
1000561e:	6815      	ldrpl	r5, [r2, #0]
10005620:	ea5f 7545 	movspl.w	r5, r5, lsl #29
10005624:	d402      	bmi.n	1000562c <GLCD_DrawPixel+0x646>
10005626:	6815      	ldr	r5, [r2, #0]
10005628:	076d      	lsls	r5, r5, #29
1000562a:	d5f2      	bpl.n	10005612 <GLCD_DrawPixel+0x62c>
1000562c:	f852 5c04 	ldr.w	r5, [r2, #-4]
10005630:	2500      	movs	r5, #0
10005632:	f842 5c04 	str.w	r5, [r2, #-4]
10005636:	6815      	ldr	r5, [r2, #0]
10005638:	076d      	lsls	r5, r5, #29
1000563a:	d409      	bmi.n	10005650 <GLCD_DrawPixel+0x66a>
1000563c:	6815      	ldr	r5, [r2, #0]
1000563e:	076d      	lsls	r5, r5, #29
10005640:	bf5c      	itt	pl
10005642:	6815      	ldrpl	r5, [r2, #0]
10005644:	ea5f 7545 	movspl.w	r5, r5, lsl #29
10005648:	d402      	bmi.n	10005650 <GLCD_DrawPixel+0x66a>
1000564a:	6815      	ldr	r5, [r2, #0]
1000564c:	076d      	lsls	r5, r5, #29
1000564e:	d5f2      	bpl.n	10005636 <GLCD_DrawPixel+0x650>
10005650:	f852 5c04 	ldr.w	r5, [r2, #-4]
10005654:	2508      	movs	r5, #8
10005656:	f842 5c04 	str.w	r5, [r2, #-4]
1000565a:	6815      	ldr	r5, [r2, #0]
1000565c:	076d      	lsls	r5, r5, #29
1000565e:	d409      	bmi.n	10005674 <GLCD_DrawPixel+0x68e>
10005660:	6815      	ldr	r5, [r2, #0]
10005662:	076d      	lsls	r5, r5, #29
10005664:	bf5c      	itt	pl
10005666:	6815      	ldrpl	r5, [r2, #0]
10005668:	ea5f 7545 	movspl.w	r5, r5, lsl #29
1000566c:	d402      	bmi.n	10005674 <GLCD_DrawPixel+0x68e>
1000566e:	6815      	ldr	r5, [r2, #0]
10005670:	076d      	lsls	r5, r5, #29
10005672:	d5f2      	bpl.n	1000565a <GLCD_DrawPixel+0x674>
10005674:	f852 5c04 	ldr.w	r5, [r2, #-4]
10005678:	f8dc 5000 	ldr.w	r5, [ip]
1000567c:	f045 0501 	orr.w	r5, r5, #1
10005680:	f8cc 5000 	str.w	r5, [ip]
10005684:	681d      	ldr	r5, [r3, #0]
10005686:	f025 0501 	bic.w	r5, r5, #1
1000568a:	601d      	str	r5, [r3, #0]
1000568c:	2572      	movs	r5, #114	@ 0x72
1000568e:	f842 5c04 	str.w	r5, [r2, #-4]
10005692:	6815      	ldr	r5, [r2, #0]
10005694:	076d      	lsls	r5, r5, #29
10005696:	d409      	bmi.n	100056ac <GLCD_DrawPixel+0x6c6>
10005698:	6815      	ldr	r5, [r2, #0]
1000569a:	076d      	lsls	r5, r5, #29
1000569c:	bf5c      	itt	pl
1000569e:	6815      	ldrpl	r5, [r2, #0]
100056a0:	ea5f 7545 	movspl.w	r5, r5, lsl #29
100056a4:	d402      	bmi.n	100056ac <GLCD_DrawPixel+0x6c6>
100056a6:	6815      	ldr	r5, [r2, #0]
100056a8:	076d      	lsls	r5, r5, #29
100056aa:	d5f2      	bpl.n	10005692 <GLCD_DrawPixel+0x6ac>
100056ac:	f852 5c04 	ldr.w	r5, [r2, #-4]
100056b0:	f842 0c04 	str.w	r0, [r2, #-4]
100056b4:	6810      	ldr	r0, [r2, #0]
100056b6:	0740      	lsls	r0, r0, #29
100056b8:	d409      	bmi.n	100056ce <GLCD_DrawPixel+0x6e8>
100056ba:	6810      	ldr	r0, [r2, #0]
100056bc:	0740      	lsls	r0, r0, #29
100056be:	bf5c      	itt	pl
100056c0:	6810      	ldrpl	r0, [r2, #0]
100056c2:	ea5f 7040 	movspl.w	r0, r0, lsl #29
100056c6:	d402      	bmi.n	100056ce <GLCD_DrawPixel+0x6e8>
100056c8:	6810      	ldr	r0, [r2, #0]
100056ca:	0740      	lsls	r0, r0, #29
100056cc:	d5f2      	bpl.n	100056b4 <GLCD_DrawPixel+0x6ce>
100056ce:	f852 0c04 	ldr.w	r0, [r2, #-4]
100056d2:	f842 4c04 	str.w	r4, [r2, #-4]
100056d6:	6810      	ldr	r0, [r2, #0]
100056d8:	0740      	lsls	r0, r0, #29
100056da:	d409      	bmi.n	100056f0 <GLCD_DrawPixel+0x70a>
100056dc:	6810      	ldr	r0, [r2, #0]
100056de:	0740      	lsls	r0, r0, #29
100056e0:	bf5c      	itt	pl
100056e2:	6810      	ldrpl	r0, [r2, #0]
100056e4:	ea5f 7040 	movspl.w	r0, r0, lsl #29
100056e8:	d402      	bmi.n	100056f0 <GLCD_DrawPixel+0x70a>
100056ea:	6810      	ldr	r0, [r2, #0]
100056ec:	0740      	lsls	r0, r0, #29
100056ee:	d5f2      	bpl.n	100056d6 <GLCD_DrawPixel+0x6f0>
100056f0:	f852 0c04 	ldr.w	r0, [r2, #-4]
100056f4:	f8dc 0000 	ldr.w	r0, [ip]
100056f8:	f040 0001 	orr.w	r0, r0, #1
100056fc:	f8cc 0000 	str.w	r0, [ip]
10005700:	6818      	ldr	r0, [r3, #0]
10005702:	f020 0001 	bic.w	r0, r0, #1
10005706:	6018      	str	r0, [r3, #0]
10005708:	2070      	movs	r0, #112	@ 0x70
1000570a:	f842 0c04 	str.w	r0, [r2, #-4]
1000570e:	6810      	ldr	r0, [r2, #0]
10005710:	0740      	lsls	r0, r0, #29
10005712:	d409      	bmi.n	10005728 <GLCD_DrawPixel+0x742>
10005714:	6810      	ldr	r0, [r2, #0]
10005716:	0740      	lsls	r0, r0, #29
10005718:	bf5c      	itt	pl
1000571a:	6810      	ldrpl	r0, [r2, #0]
1000571c:	ea5f 7040 	movspl.w	r0, r0, lsl #29
10005720:	d402      	bmi.n	10005728 <GLCD_DrawPixel+0x742>
10005722:	6810      	ldr	r0, [r2, #0]
10005724:	0740      	lsls	r0, r0, #29
10005726:	d5f2      	bpl.n	1000570e <GLCD_DrawPixel+0x728>
10005728:	f852 0c04 	ldr.w	r0, [r2, #-4]
1000572c:	2000      	movs	r0, #0
1000572e:	f842 0c04 	str.w	r0, [r2, #-4]
10005732:	6810      	ldr	r0, [r2, #0]
10005734:	0740      	lsls	r0, r0, #29
10005736:	d409      	bmi.n	1000574c <GLCD_DrawPixel+0x766>
10005738:	6810      	ldr	r0, [r2, #0]
1000573a:	0740      	lsls	r0, r0, #29
1000573c:	bf5c      	itt	pl
1000573e:	6810      	ldrpl	r0, [r2, #0]
10005740:	ea5f 7040 	movspl.w	r0, r0, lsl #29
10005744:	d402      	bmi.n	1000574c <GLCD_DrawPixel+0x766>
10005746:	6810      	ldr	r0, [r2, #0]
10005748:	0740      	lsls	r0, r0, #29
1000574a:	d5f2      	bpl.n	10005732 <GLCD_DrawPixel+0x74c>
1000574c:	f852 0c04 	ldr.w	r0, [r2, #-4]
10005750:	2009      	movs	r0, #9
10005752:	f842 0c04 	str.w	r0, [r2, #-4]
10005756:	6810      	ldr	r0, [r2, #0]
10005758:	0740      	lsls	r0, r0, #29
1000575a:	d409      	bmi.n	10005770 <GLCD_DrawPixel+0x78a>
1000575c:	6810      	ldr	r0, [r2, #0]
1000575e:	0740      	lsls	r0, r0, #29
10005760:	bf5c      	itt	pl
10005762:	6810      	ldrpl	r0, [r2, #0]
10005764:	ea5f 7040 	movspl.w	r0, r0, lsl #29
10005768:	d402      	bmi.n	10005770 <GLCD_DrawPixel+0x78a>
1000576a:	6810      	ldr	r0, [r2, #0]
1000576c:	0740      	lsls	r0, r0, #29
1000576e:	d5f2      	bpl.n	10005756 <GLCD_DrawPixel+0x770>
10005770:	f852 0c04 	ldr.w	r0, [r2, #-4]
10005774:	f8dc 0000 	ldr.w	r0, [ip]
10005778:	f040 0001 	orr.w	r0, r0, #1
1000577c:	f8cc 0000 	str.w	r0, [ip]
10005780:	6818      	ldr	r0, [r3, #0]
10005782:	f020 0001 	bic.w	r0, r0, #1
10005786:	6018      	str	r0, [r3, #0]
10005788:	2072      	movs	r0, #114	@ 0x72
1000578a:	f842 0c04 	str.w	r0, [r2, #-4]
1000578e:	6810      	ldr	r0, [r2, #0]
10005790:	0740      	lsls	r0, r0, #29
10005792:	d409      	bmi.n	100057a8 <GLCD_DrawPixel+0x7c2>
10005794:	6810      	ldr	r0, [r2, #0]
10005796:	0740      	lsls	r0, r0, #29
10005798:	bf5c      	itt	pl
1000579a:	6810      	ldrpl	r0, [r2, #0]
1000579c:	ea5f 7040 	movspl.w	r0, r0, lsl #29
100057a0:	d402      	bmi.n	100057a8 <GLCD_DrawPixel+0x7c2>
100057a2:	6810      	ldr	r0, [r2, #0]
100057a4:	0740      	lsls	r0, r0, #29
100057a6:	d5f2      	bpl.n	1000578e <GLCD_DrawPixel+0x7a8>
100057a8:	f852 0c04 	ldr.w	r0, [r2, #-4]
100057ac:	2000      	movs	r0, #0
100057ae:	f842 0c04 	str.w	r0, [r2, #-4]
100057b2:	6810      	ldr	r0, [r2, #0]
100057b4:	0740      	lsls	r0, r0, #29
100057b6:	d409      	bmi.n	100057cc <GLCD_DrawPixel+0x7e6>
100057b8:	6810      	ldr	r0, [r2, #0]
100057ba:	0740      	lsls	r0, r0, #29
100057bc:	bf5c      	itt	pl
100057be:	6810      	ldrpl	r0, [r2, #0]
100057c0:	ea5f 7040 	movspl.w	r0, r0, lsl #29
100057c4:	d402      	bmi.n	100057cc <GLCD_DrawPixel+0x7e6>
100057c6:	6810      	ldr	r0, [r2, #0]
100057c8:	0740      	lsls	r0, r0, #29
100057ca:	d5f2      	bpl.n	100057b2 <GLCD_DrawPixel+0x7cc>
100057cc:	f852 0c04 	ldr.w	r0, [r2, #-4]
100057d0:	f842 1c04 	str.w	r1, [r2, #-4]
100057d4:	6810      	ldr	r0, [r2, #0]
100057d6:	0740      	lsls	r0, r0, #29
100057d8:	d409      	bmi.n	100057ee <GLCD_DrawPixel+0x808>
100057da:	6810      	ldr	r0, [r2, #0]
100057dc:	0740      	lsls	r0, r0, #29
100057de:	bf5c      	itt	pl
100057e0:	6810      	ldrpl	r0, [r2, #0]
100057e2:	ea5f 7040 	movspl.w	r0, r0, lsl #29
100057e6:	d402      	bmi.n	100057ee <GLCD_DrawPixel+0x808>
100057e8:	6810      	ldr	r0, [r2, #0]
100057ea:	0740      	lsls	r0, r0, #29
100057ec:	d5f2      	bpl.n	100057d4 <GLCD_DrawPixel+0x7ee>
100057ee:	f852 0c04 	ldr.w	r0, [r2, #-4]
100057f2:	f8dc 0000 	ldr.w	r0, [ip]
100057f6:	f040 0001 	orr.w	r0, r0, #1
100057fa:	f8cc 0000 	str.w	r0, [ip]
100057fe:	6818      	ldr	r0, [r3, #0]
10005800:	f020 0001 	bic.w	r0, r0, #1
10005804:	6018      	str	r0, [r3, #0]
10005806:	2070      	movs	r0, #112	@ 0x70
10005808:	f842 0c04 	str.w	r0, [r2, #-4]
1000580c:	6810      	ldr	r0, [r2, #0]
1000580e:	0740      	lsls	r0, r0, #29
10005810:	d409      	bmi.n	10005826 <GLCD_DrawPixel+0x840>
10005812:	6810      	ldr	r0, [r2, #0]
10005814:	0740      	lsls	r0, r0, #29
10005816:	bf5c      	itt	pl
10005818:	6810      	ldrpl	r0, [r2, #0]
1000581a:	ea5f 7040 	movspl.w	r0, r0, lsl #29
1000581e:	d402      	bmi.n	10005826 <GLCD_DrawPixel+0x840>
10005820:	6810      	ldr	r0, [r2, #0]
10005822:	0740      	lsls	r0, r0, #29
10005824:	d5f2      	bpl.n	1000580c <GLCD_DrawPixel+0x826>
10005826:	f852 0c04 	ldr.w	r0, [r2, #-4]
1000582a:	2000      	movs	r0, #0
1000582c:	f842 0c04 	str.w	r0, [r2, #-4]
10005830:	6810      	ldr	r0, [r2, #0]
10005832:	0740      	lsls	r0, r0, #29
10005834:	d409      	bmi.n	1000584a <GLCD_DrawPixel+0x864>
10005836:	6810      	ldr	r0, [r2, #0]
10005838:	0740      	lsls	r0, r0, #29
1000583a:	bf5c      	itt	pl
1000583c:	6810      	ldrpl	r0, [r2, #0]
1000583e:	ea5f 7040 	movspl.w	r0, r0, lsl #29
10005842:	d402      	bmi.n	1000584a <GLCD_DrawPixel+0x864>
10005844:	6810      	ldr	r0, [r2, #0]
10005846:	0740      	lsls	r0, r0, #29
10005848:	d5f2      	bpl.n	10005830 <GLCD_DrawPixel+0x84a>
1000584a:	f852 0c04 	ldr.w	r0, [r2, #-4]
1000584e:	2022      	movs	r0, #34	@ 0x22
10005850:	f842 0c04 	str.w	r0, [r2, #-4]
10005854:	6810      	ldr	r0, [r2, #0]
10005856:	0740      	lsls	r0, r0, #29
10005858:	d409      	bmi.n	1000586e <GLCD_DrawPixel+0x888>
1000585a:	6810      	ldr	r0, [r2, #0]
1000585c:	0740      	lsls	r0, r0, #29
1000585e:	bf5c      	itt	pl
10005860:	6810      	ldrpl	r0, [r2, #0]
10005862:	ea5f 7040 	movspl.w	r0, r0, lsl #29
10005866:	d402      	bmi.n	1000586e <GLCD_DrawPixel+0x888>
10005868:	6810      	ldr	r0, [r2, #0]
1000586a:	0740      	lsls	r0, r0, #29
1000586c:	d5f2      	bpl.n	10005854 <GLCD_DrawPixel+0x86e>
1000586e:	f852 0c04 	ldr.w	r0, [r2, #-4]
10005872:	f8dc 0000 	ldr.w	r0, [ip]
10005876:	f040 0001 	orr.w	r0, r0, #1
1000587a:	f8cc 0000 	str.w	r0, [ip]
1000587e:	f240 002c 	movw	r0, #44	@ 0x2c
10005882:	f6c3 0000 	movt	r0, #14336	@ 0x3800
10005886:	8800      	ldrh	r0, [r0, #0]
10005888:	6819      	ldr	r1, [r3, #0]
1000588a:	f021 0101 	bic.w	r1, r1, #1
1000588e:	6019      	str	r1, [r3, #0]
10005890:	2172      	movs	r1, #114	@ 0x72
10005892:	f842 1c04 	str.w	r1, [r2, #-4]
10005896:	6811      	ldr	r1, [r2, #0]
10005898:	0749      	lsls	r1, r1, #29
1000589a:	d409      	bmi.n	100058b0 <GLCD_DrawPixel+0x8ca>
1000589c:	6811      	ldr	r1, [r2, #0]
1000589e:	0749      	lsls	r1, r1, #29
100058a0:	bf5c      	itt	pl
100058a2:	6811      	ldrpl	r1, [r2, #0]
100058a4:	ea5f 7141 	movspl.w	r1, r1, lsl #29
100058a8:	d402      	bmi.n	100058b0 <GLCD_DrawPixel+0x8ca>
100058aa:	6811      	ldr	r1, [r2, #0]
100058ac:	0749      	lsls	r1, r1, #29
100058ae:	d5f2      	bpl.n	10005896 <GLCD_DrawPixel+0x8b0>
100058b0:	f852 1c04 	ldr.w	r1, [r2, #-4]
100058b4:	0a01      	lsrs	r1, r0, #8
100058b6:	f842 1c04 	str.w	r1, [r2, #-4]
100058ba:	6811      	ldr	r1, [r2, #0]
100058bc:	0749      	lsls	r1, r1, #29
100058be:	d409      	bmi.n	100058d4 <GLCD_DrawPixel+0x8ee>
100058c0:	6811      	ldr	r1, [r2, #0]
100058c2:	0749      	lsls	r1, r1, #29
100058c4:	bf5c      	itt	pl
100058c6:	6811      	ldrpl	r1, [r2, #0]
100058c8:	ea5f 7141 	movspl.w	r1, r1, lsl #29
100058cc:	d402      	bmi.n	100058d4 <GLCD_DrawPixel+0x8ee>
100058ce:	6811      	ldr	r1, [r2, #0]
100058d0:	0749      	lsls	r1, r1, #29
100058d2:	d5f2      	bpl.n	100058ba <GLCD_DrawPixel+0x8d4>
100058d4:	f852 1c04 	ldr.w	r1, [r2, #-4]
100058d8:	b2c0      	uxtb	r0, r0
100058da:	f842 0c04 	str.w	r0, [r2, #-4]
100058de:	6810      	ldr	r0, [r2, #0]
100058e0:	0740      	lsls	r0, r0, #29
100058e2:	d409      	bmi.n	100058f8 <GLCD_DrawPixel+0x912>
100058e4:	6810      	ldr	r0, [r2, #0]
100058e6:	0740      	lsls	r0, r0, #29
100058e8:	bf5c      	itt	pl
100058ea:	6810      	ldrpl	r0, [r2, #0]
100058ec:	ea5f 7040 	movspl.w	r0, r0, lsl #29
100058f0:	d402      	bmi.n	100058f8 <GLCD_DrawPixel+0x912>
100058f2:	6810      	ldr	r0, [r2, #0]
100058f4:	0740      	lsls	r0, r0, #29
100058f6:	d5f2      	bpl.n	100058de <GLCD_DrawPixel+0x8f8>
100058f8:	f852 0c04 	ldr.w	r0, [r2, #-4]
100058fc:	f8dc 0000 	ldr.w	r0, [ip]
10005900:	f040 0101 	orr.w	r1, r0, #1
10005904:	2000      	movs	r0, #0
10005906:	f8cc 1000 	str.w	r1, [ip]
1000590a:	bdb0      	pop	{r4, r5, r7, pc}

1000590c <GLCD_DrawHLine>:
1000590c:	b5f0      	push	{r4, r5, r6, r7, lr}
1000590e:	af03      	add	r7, sp, #12
10005910:	f84d bd04 	str.w	fp, [sp, #-4]!
10005914:	f246 050c 	movw	r5, #24588	@ 0x600c
10005918:	f242 064c 	movw	r6, #8268	@ 0x204c
1000591c:	2301      	movs	r3, #1
1000591e:	4614      	mov	r4, r2
10005920:	f2c5 0520 	movt	r5, #20512	@ 0x5020
10005924:	f2c4 0630 	movt	r6, #16432	@ 0x4030
10005928:	f7fe fe7a 	bl	10004620 <GLCD_SetWindow>
1000592c:	6830      	ldr	r0, [r6, #0]
1000592e:	f020 0001 	bic.w	r0, r0, #1
10005932:	6030      	str	r0, [r6, #0]
10005934:	2070      	movs	r0, #112	@ 0x70
10005936:	f845 0c04 	str.w	r0, [r5, #-4]
1000593a:	6828      	ldr	r0, [r5, #0]
1000593c:	0740      	lsls	r0, r0, #29
1000593e:	d409      	bmi.n	10005954 <GLCD_DrawHLine+0x48>
10005940:	6828      	ldr	r0, [r5, #0]
10005942:	0740      	lsls	r0, r0, #29
10005944:	bf5c      	itt	pl
10005946:	6828      	ldrpl	r0, [r5, #0]
10005948:	ea5f 7040 	movspl.w	r0, r0, lsl #29
1000594c:	d402      	bmi.n	10005954 <GLCD_DrawHLine+0x48>
1000594e:	6828      	ldr	r0, [r5, #0]
10005950:	0740      	lsls	r0, r0, #29
10005952:	d5f2      	bpl.n	1000593a <GLCD_DrawHLine+0x2e>
10005954:	f855 0c04 	ldr.w	r0, [r5, #-4]
10005958:	2000      	movs	r0, #0
1000595a:	f845 0c04 	str.w	r0, [r5, #-4]
1000595e:	6828      	ldr	r0, [r5, #0]
10005960:	0740      	lsls	r0, r0, #29
10005962:	d409      	bmi.n	10005978 <GLCD_DrawHLine+0x6c>
10005964:	6828      	ldr	r0, [r5, #0]
10005966:	0740      	lsls	r0, r0, #29
10005968:	bf5c      	itt	pl
1000596a:	6828      	ldrpl	r0, [r5, #0]
1000596c:	ea5f 7040 	movspl.w	r0, r0, lsl #29
10005970:	d402      	bmi.n	10005978 <GLCD_DrawHLine+0x6c>
10005972:	6828      	ldr	r0, [r5, #0]
10005974:	0740      	lsls	r0, r0, #29
10005976:	d5f2      	bpl.n	1000595e <GLCD_DrawHLine+0x52>
10005978:	f855 0c04 	ldr.w	r0, [r5, #-4]
1000597c:	2022      	movs	r0, #34	@ 0x22
1000597e:	f845 0c04 	str.w	r0, [r5, #-4]
10005982:	6828      	ldr	r0, [r5, #0]
10005984:	0740      	lsls	r0, r0, #29
10005986:	d409      	bmi.n	1000599c <GLCD_DrawHLine+0x90>
10005988:	6828      	ldr	r0, [r5, #0]
1000598a:	0740      	lsls	r0, r0, #29
1000598c:	bf5c      	itt	pl
1000598e:	6828      	ldrpl	r0, [r5, #0]
10005990:	ea5f 7040 	movspl.w	r0, r0, lsl #29
10005994:	d402      	bmi.n	1000599c <GLCD_DrawHLine+0x90>
10005996:	6828      	ldr	r0, [r5, #0]
10005998:	0740      	lsls	r0, r0, #29
1000599a:	d5f2      	bpl.n	10005982 <GLCD_DrawHLine+0x76>
1000599c:	f242 014c 	movw	r1, #8268	@ 0x204c
100059a0:	f2c5 0130 	movt	r1, #20528	@ 0x5030
100059a4:	f855 0c04 	ldr.w	r0, [r5, #-4]
100059a8:	6808      	ldr	r0, [r1, #0]
100059aa:	f040 0001 	orr.w	r0, r0, #1
100059ae:	6008      	str	r0, [r1, #0]
100059b0:	6830      	ldr	r0, [r6, #0]
100059b2:	f020 0001 	bic.w	r0, r0, #1
100059b6:	6030      	str	r0, [r6, #0]
100059b8:	2072      	movs	r0, #114	@ 0x72
100059ba:	f845 0c04 	str.w	r0, [r5, #-4]
100059be:	6828      	ldr	r0, [r5, #0]
100059c0:	0740      	lsls	r0, r0, #29
100059c2:	d409      	bmi.n	100059d8 <GLCD_DrawHLine+0xcc>
100059c4:	6828      	ldr	r0, [r5, #0]
100059c6:	0740      	lsls	r0, r0, #29
100059c8:	bf5c      	itt	pl
100059ca:	6828      	ldrpl	r0, [r5, #0]
100059cc:	ea5f 7040 	movspl.w	r0, r0, lsl #29
100059d0:	d402      	bmi.n	100059d8 <GLCD_DrawHLine+0xcc>
100059d2:	6828      	ldr	r0, [r5, #0]
100059d4:	0740      	lsls	r0, r0, #29
100059d6:	d5f2      	bpl.n	100059be <GLCD_DrawHLine+0xb2>
100059d8:	f855 0c04 	ldr.w	r0, [r5, #-4]
100059dc:	b37c      	cbz	r4, 10005a3e <GLCD_DrawHLine+0x132>
100059de:	f240 002c 	movw	r0, #44	@ 0x2c
100059e2:	f6c3 0000 	movt	r0, #14336	@ 0x3800
100059e6:	8802      	ldrh	r2, [r0, #0]
100059e8:	07e3      	lsls	r3, r4, #31
100059ea:	ea4f 2012 	mov.w	r0, r2, lsr #8
100059ee:	b2d2      	uxtb	r2, r2
100059f0:	4623      	mov	r3, r4
100059f2:	d022      	beq.n	10005a3a <GLCD_DrawHLine+0x12e>
100059f4:	f845 0c04 	str.w	r0, [r5, #-4]
100059f8:	682b      	ldr	r3, [r5, #0]
100059fa:	075b      	lsls	r3, r3, #29
100059fc:	d409      	bmi.n	10005a12 <GLCD_DrawHLine+0x106>
100059fe:	682b      	ldr	r3, [r5, #0]
10005a00:	075b      	lsls	r3, r3, #29
10005a02:	bf5c      	itt	pl
10005a04:	682b      	ldrpl	r3, [r5, #0]
10005a06:	ea5f 7343 	movspl.w	r3, r3, lsl #29
10005a0a:	d402      	bmi.n	10005a12 <GLCD_DrawHLine+0x106>
10005a0c:	682b      	ldr	r3, [r5, #0]
10005a0e:	075b      	lsls	r3, r3, #29
10005a10:	d5f2      	bpl.n	100059f8 <GLCD_DrawHLine+0xec>
10005a12:	f855 3c04 	ldr.w	r3, [r5, #-4]
10005a16:	f845 2c04 	str.w	r2, [r5, #-4]
10005a1a:	682b      	ldr	r3, [r5, #0]
10005a1c:	075b      	lsls	r3, r3, #29
10005a1e:	d409      	bmi.n	10005a34 <GLCD_DrawHLine+0x128>
10005a20:	682b      	ldr	r3, [r5, #0]
10005a22:	075b      	lsls	r3, r3, #29
10005a24:	bf5c      	itt	pl
10005a26:	682b      	ldrpl	r3, [r5, #0]
10005a28:	ea5f 7343 	movspl.w	r3, r3, lsl #29
10005a2c:	d402      	bmi.n	10005a34 <GLCD_DrawHLine+0x128>
10005a2e:	682b      	ldr	r3, [r5, #0]
10005a30:	075b      	lsls	r3, r3, #29
10005a32:	d5f2      	bpl.n	10005a1a <GLCD_DrawHLine+0x10e>
10005a34:	f855 3c04 	ldr.w	r3, [r5, #-4]
10005a38:	1e63      	subs	r3, r4, #1
10005a3a:	2c01      	cmp	r4, #1
10005a3c:	d10c      	bne.n	10005a58 <GLCD_DrawHLine+0x14c>
10005a3e:	6808      	ldr	r0, [r1, #0]
10005a40:	f040 0201 	orr.w	r2, r0, #1
10005a44:	2000      	movs	r0, #0
10005a46:	600a      	str	r2, [r1, #0]
10005a48:	f85d bb04 	ldr.w	fp, [sp], #4
10005a4c:	bdf0      	pop	{r4, r5, r6, r7, pc}
10005a4e:	bf00      	nop
10005a50:	3b02      	subs	r3, #2
10005a52:	f855 6c04 	ldr.w	r6, [r5, #-4]
10005a56:	d0f2      	beq.n	10005a3e <GLCD_DrawHLine+0x132>
10005a58:	f845 0c04 	str.w	r0, [r5, #-4]
10005a5c:	682e      	ldr	r6, [r5, #0]
10005a5e:	0776      	lsls	r6, r6, #29
10005a60:	d40a      	bmi.n	10005a78 <GLCD_DrawHLine+0x16c>
10005a62:	682e      	ldr	r6, [r5, #0]
10005a64:	0776      	lsls	r6, r6, #29
10005a66:	bf5c      	itt	pl
10005a68:	682e      	ldrpl	r6, [r5, #0]
10005a6a:	ea5f 7646 	movspl.w	r6, r6, lsl #29
10005a6e:	d403      	bmi.n	10005a78 <GLCD_DrawHLine+0x16c>
10005a70:	682e      	ldr	r6, [r5, #0]
10005a72:	0776      	lsls	r6, r6, #29
10005a74:	d5f2      	bpl.n	10005a5c <GLCD_DrawHLine+0x150>
10005a76:	bf00      	nop
10005a78:	f855 6c04 	ldr.w	r6, [r5, #-4]
10005a7c:	f845 2c04 	str.w	r2, [r5, #-4]
10005a80:	682e      	ldr	r6, [r5, #0]
10005a82:	0776      	lsls	r6, r6, #29
10005a84:	d40a      	bmi.n	10005a9c <GLCD_DrawHLine+0x190>
10005a86:	682e      	ldr	r6, [r5, #0]
10005a88:	0776      	lsls	r6, r6, #29
10005a8a:	bf5c      	itt	pl
10005a8c:	682e      	ldrpl	r6, [r5, #0]
10005a8e:	ea5f 7646 	movspl.w	r6, r6, lsl #29
10005a92:	d403      	bmi.n	10005a9c <GLCD_DrawHLine+0x190>
10005a94:	682e      	ldr	r6, [r5, #0]
10005a96:	0776      	lsls	r6, r6, #29
10005a98:	d5f2      	bpl.n	10005a80 <GLCD_DrawHLine+0x174>
10005a9a:	bf00      	nop
10005a9c:	f855 6c04 	ldr.w	r6, [r5, #-4]
10005aa0:	f845 0c04 	str.w	r0, [r5, #-4]
10005aa4:	682e      	ldr	r6, [r5, #0]
10005aa6:	0776      	lsls	r6, r6, #29
10005aa8:	d40a      	bmi.n	10005ac0 <GLCD_DrawHLine+0x1b4>
10005aaa:	682e      	ldr	r6, [r5, #0]
10005aac:	0776      	lsls	r6, r6, #29
10005aae:	bf5c      	itt	pl
10005ab0:	682e      	ldrpl	r6, [r5, #0]
10005ab2:	ea5f 7646 	movspl.w	r6, r6, lsl #29
10005ab6:	d403      	bmi.n	10005ac0 <GLCD_DrawHLine+0x1b4>
10005ab8:	682e      	ldr	r6, [r5, #0]
10005aba:	0776      	lsls	r6, r6, #29
10005abc:	d5f2      	bpl.n	10005aa4 <GLCD_DrawHLine+0x198>
10005abe:	bf00      	nop
10005ac0:	f855 6c04 	ldr.w	r6, [r5, #-4]
10005ac4:	f845 2c04 	str.w	r2, [r5, #-4]
10005ac8:	682e      	ldr	r6, [r5, #0]
10005aca:	0776      	lsls	r6, r6, #29
10005acc:	d4c0      	bmi.n	10005a50 <GLCD_DrawHLine+0x144>
10005ace:	682e      	ldr	r6, [r5, #0]
10005ad0:	0776      	lsls	r6, r6, #29
10005ad2:	bf5c      	itt	pl
10005ad4:	682e      	ldrpl	r6, [r5, #0]
10005ad6:	ea5f 7646 	movspl.w	r6, r6, lsl #29
10005ada:	d4b9      	bmi.n	10005a50 <GLCD_DrawHLine+0x144>
10005adc:	682e      	ldr	r6, [r5, #0]
10005ade:	0776      	lsls	r6, r6, #29
10005ae0:	d5f2      	bpl.n	10005ac8 <GLCD_DrawHLine+0x1bc>
10005ae2:	e7b5      	b.n	10005a50 <GLCD_DrawHLine+0x144>

10005ae4 <GLCD_DrawVLine>:
10005ae4:	b5f0      	push	{r4, r5, r6, r7, lr}
10005ae6:	af03      	add	r7, sp, #12
10005ae8:	f84d bd04 	str.w	fp, [sp, #-4]!
10005aec:	4614      	mov	r4, r2
10005aee:	f246 050c 	movw	r5, #24588	@ 0x600c
10005af2:	f242 064c 	movw	r6, #8268	@ 0x204c
10005af6:	2201      	movs	r2, #1
10005af8:	4623      	mov	r3, r4
10005afa:	f2c5 0520 	movt	r5, #20512	@ 0x5020
10005afe:	f2c4 0630 	movt	r6, #16432	@ 0x4030
10005b02:	f7fe fd8d 	bl	10004620 <GLCD_SetWindow>
10005b06:	6830      	ldr	r0, [r6, #0]
10005b08:	f020 0001 	bic.w	r0, r0, #1
10005b0c:	6030      	str	r0, [r6, #0]
10005b0e:	2070      	movs	r0, #112	@ 0x70
10005b10:	f845 0c04 	str.w	r0, [r5, #-4]
10005b14:	6828      	ldr	r0, [r5, #0]
10005b16:	0740      	lsls	r0, r0, #29
10005b18:	d409      	bmi.n	10005b2e <GLCD_DrawVLine+0x4a>
10005b1a:	6828      	ldr	r0, [r5, #0]
10005b1c:	0740      	lsls	r0, r0, #29
10005b1e:	bf5c      	itt	pl
10005b20:	6828      	ldrpl	r0, [r5, #0]
10005b22:	ea5f 7040 	movspl.w	r0, r0, lsl #29
10005b26:	d402      	bmi.n	10005b2e <GLCD_DrawVLine+0x4a>
10005b28:	6828      	ldr	r0, [r5, #0]
10005b2a:	0740      	lsls	r0, r0, #29
10005b2c:	d5f2      	bpl.n	10005b14 <GLCD_DrawVLine+0x30>
10005b2e:	f855 0c04 	ldr.w	r0, [r5, #-4]
10005b32:	2000      	movs	r0, #0
10005b34:	f845 0c04 	str.w	r0, [r5, #-4]
10005b38:	6828      	ldr	r0, [r5, #0]
10005b3a:	0740      	lsls	r0, r0, #29
10005b3c:	d409      	bmi.n	10005b52 <GLCD_DrawVLine+0x6e>
10005b3e:	6828      	ldr	r0, [r5, #0]
10005b40:	0740      	lsls	r0, r0, #29
10005b42:	bf5c      	itt	pl
10005b44:	6828      	ldrpl	r0, [r5, #0]
10005b46:	ea5f 7040 	movspl.w	r0, r0, lsl #29
10005b4a:	d402      	bmi.n	10005b52 <GLCD_DrawVLine+0x6e>
10005b4c:	6828      	ldr	r0, [r5, #0]
10005b4e:	0740      	lsls	r0, r0, #29
10005b50:	d5f2      	bpl.n	10005b38 <GLCD_DrawVLine+0x54>
10005b52:	f855 0c04 	ldr.w	r0, [r5, #-4]
10005b56:	2022      	movs	r0, #34	@ 0x22
10005b58:	f845 0c04 	str.w	r0, [r5, #-4]
10005b5c:	6828      	ldr	r0, [r5, #0]
10005b5e:	0740      	lsls	r0, r0, #29
10005b60:	d409      	bmi.n	10005b76 <GLCD_DrawVLine+0x92>
10005b62:	6828      	ldr	r0, [r5, #0]
10005b64:	0740      	lsls	r0, r0, #29
10005b66:	bf5c      	itt	pl
10005b68:	6828      	ldrpl	r0, [r5, #0]
10005b6a:	ea5f 7040 	movspl.w	r0, r0, lsl #29
10005b6e:	d402      	bmi.n	10005b76 <GLCD_DrawVLine+0x92>
10005b70:	6828      	ldr	r0, [r5, #0]
10005b72:	0740      	lsls	r0, r0, #29
10005b74:	d5f2      	bpl.n	10005b5c <GLCD_DrawVLine+0x78>
10005b76:	f242 014c 	movw	r1, #8268	@ 0x204c
10005b7a:	f2c5 0130 	movt	r1, #20528	@ 0x5030
10005b7e:	f855 0c04 	ldr.w	r0, [r5, #-4]
10005b82:	6808      	ldr	r0, [r1, #0]
10005b84:	f040 0001 	orr.w	r0, r0, #1
10005b88:	6008      	str	r0, [r1, #0]
10005b8a:	6830      	ldr	r0, [r6, #0]
10005b8c:	f020 0001 	bic.w	r0, r0, #1
10005b90:	6030      	str	r0, [r6, #0]
10005b92:	2072      	movs	r0, #114	@ 0x72
10005b94:	f845 0c04 	str.w	r0, [r5, #-4]
10005b98:	6828      	ldr	r0, [r5, #0]
10005b9a:	0740      	lsls	r0, r0, #29
10005b9c:	d409      	bmi.n	10005bb2 <GLCD_DrawVLine+0xce>
10005b9e:	6828      	ldr	r0, [r5, #0]
10005ba0:	0740      	lsls	r0, r0, #29
10005ba2:	bf5c      	itt	pl
10005ba4:	6828      	ldrpl	r0, [r5, #0]
10005ba6:	ea5f 7040 	movspl.w	r0, r0, lsl #29
10005baa:	d402      	bmi.n	10005bb2 <GLCD_DrawVLine+0xce>
10005bac:	6828      	ldr	r0, [r5, #0]
10005bae:	0740      	lsls	r0, r0, #29
10005bb0:	d5f2      	bpl.n	10005b98 <GLCD_DrawVLine+0xb4>
10005bb2:	f855 0c04 	ldr.w	r0, [r5, #-4]
10005bb6:	b37c      	cbz	r4, 10005c18 <GLCD_DrawVLine+0x134>
10005bb8:	f240 002c 	movw	r0, #44	@ 0x2c
10005bbc:	f6c3 0000 	movt	r0, #14336	@ 0x3800
10005bc0:	8802      	ldrh	r2, [r0, #0]
10005bc2:	07e3      	lsls	r3, r4, #31
10005bc4:	ea4f 2012 	mov.w	r0, r2, lsr #8
10005bc8:	b2d2      	uxtb	r2, r2
10005bca:	4623      	mov	r3, r4
10005bcc:	d022      	beq.n	10005c14 <GLCD_DrawVLine+0x130>
10005bce:	f845 0c04 	str.w	r0, [r5, #-4]
10005bd2:	682b      	ldr	r3, [r5, #0]
10005bd4:	075b      	lsls	r3, r3, #29
10005bd6:	d409      	bmi.n	10005bec <GLCD_DrawVLine+0x108>
10005bd8:	682b      	ldr	r3, [r5, #0]
10005bda:	075b      	lsls	r3, r3, #29
10005bdc:	bf5c      	itt	pl
10005bde:	682b      	ldrpl	r3, [r5, #0]
10005be0:	ea5f 7343 	movspl.w	r3, r3, lsl #29
10005be4:	d402      	bmi.n	10005bec <GLCD_DrawVLine+0x108>
10005be6:	682b      	ldr	r3, [r5, #0]
10005be8:	075b      	lsls	r3, r3, #29
10005bea:	d5f2      	bpl.n	10005bd2 <GLCD_DrawVLine+0xee>
10005bec:	f855 3c04 	ldr.w	r3, [r5, #-4]
10005bf0:	f845 2c04 	str.w	r2, [r5, #-4]
10005bf4:	682b      	ldr	r3, [r5, #0]
10005bf6:	075b      	lsls	r3, r3, #29
10005bf8:	d409      	bmi.n	10005c0e <GLCD_DrawVLine+0x12a>
10005bfa:	682b      	ldr	r3, [r5, #0]
10005bfc:	075b      	lsls	r3, r3, #29
10005bfe:	bf5c      	itt	pl
10005c00:	682b      	ldrpl	r3, [r5, #0]
10005c02:	ea5f 7343 	movspl.w	r3, r3, lsl #29
10005c06:	d402      	bmi.n	10005c0e <GLCD_DrawVLine+0x12a>
10005c08:	682b      	ldr	r3, [r5, #0]
10005c0a:	075b      	lsls	r3, r3, #29
10005c0c:	d5f2      	bpl.n	10005bf4 <GLCD_DrawVLine+0x110>
10005c0e:	f855 3c04 	ldr.w	r3, [r5, #-4]
10005c12:	1e63      	subs	r3, r4, #1
10005c14:	2c01      	cmp	r4, #1
10005c16:	d10b      	bne.n	10005c30 <GLCD_DrawVLine+0x14c>
10005c18:	6808      	ldr	r0, [r1, #0]
10005c1a:	f040 0201 	orr.w	r2, r0, #1
10005c1e:	2000      	movs	r0, #0
10005c20:	600a      	str	r2, [r1, #0]
10005c22:	f85d bb04 	ldr.w	fp, [sp], #4
10005c26:	bdf0      	pop	{r4, r5, r6, r7, pc}
10005c28:	3b02      	subs	r3, #2
10005c2a:	f855 6c04 	ldr.w	r6, [r5, #-4]
10005c2e:	d0f3      	beq.n	10005c18 <GLCD_DrawVLine+0x134>
10005c30:	f845 0c04 	str.w	r0, [r5, #-4]
10005c34:	682e      	ldr	r6, [r5, #0]
10005c36:	0776      	lsls	r6, r6, #29
10005c38:	d40a      	bmi.n	10005c50 <GLCD_DrawVLine+0x16c>
10005c3a:	682e      	ldr	r6, [r5, #0]
10005c3c:	0776      	lsls	r6, r6, #29
10005c3e:	bf5c      	itt	pl
10005c40:	682e      	ldrpl	r6, [r5, #0]
10005c42:	ea5f 7646 	movspl.w	r6, r6, lsl #29
10005c46:	d403      	bmi.n	10005c50 <GLCD_DrawVLine+0x16c>
10005c48:	682e      	ldr	r6, [r5, #0]
10005c4a:	0776      	lsls	r6, r6, #29
10005c4c:	d5f2      	bpl.n	10005c34 <GLCD_DrawVLine+0x150>
10005c4e:	bf00      	nop
10005c50:	f855 6c04 	ldr.w	r6, [r5, #-4]
10005c54:	f845 2c04 	str.w	r2, [r5, #-4]
10005c58:	682e      	ldr	r6, [r5, #0]
10005c5a:	0776      	lsls	r6, r6, #29
10005c5c:	d40a      	bmi.n	10005c74 <GLCD_DrawVLine+0x190>
10005c5e:	682e      	ldr	r6, [r5, #0]
10005c60:	0776      	lsls	r6, r6, #29
10005c62:	bf5c      	itt	pl
10005c64:	682e      	ldrpl	r6, [r5, #0]
10005c66:	ea5f 7646 	movspl.w	r6, r6, lsl #29
10005c6a:	d403      	bmi.n	10005c74 <GLCD_DrawVLine+0x190>
10005c6c:	682e      	ldr	r6, [r5, #0]
10005c6e:	0776      	lsls	r6, r6, #29
10005c70:	d5f2      	bpl.n	10005c58 <GLCD_DrawVLine+0x174>
10005c72:	bf00      	nop
10005c74:	f855 6c04 	ldr.w	r6, [r5, #-4]
10005c78:	f845 0c04 	str.w	r0, [r5, #-4]
10005c7c:	682e      	ldr	r6, [r5, #0]
10005c7e:	0776      	lsls	r6, r6, #29
10005c80:	d40a      	bmi.n	10005c98 <GLCD_DrawVLine+0x1b4>
10005c82:	682e      	ldr	r6, [r5, #0]
10005c84:	0776      	lsls	r6, r6, #29
10005c86:	bf5c      	itt	pl
10005c88:	682e      	ldrpl	r6, [r5, #0]
10005c8a:	ea5f 7646 	movspl.w	r6, r6, lsl #29
10005c8e:	d403      	bmi.n	10005c98 <GLCD_DrawVLine+0x1b4>
10005c90:	682e      	ldr	r6, [r5, #0]
10005c92:	0776      	lsls	r6, r6, #29
10005c94:	d5f2      	bpl.n	10005c7c <GLCD_DrawVLine+0x198>
10005c96:	bf00      	nop
10005c98:	f855 6c04 	ldr.w	r6, [r5, #-4]
10005c9c:	f845 2c04 	str.w	r2, [r5, #-4]
10005ca0:	682e      	ldr	r6, [r5, #0]
10005ca2:	0776      	lsls	r6, r6, #29
10005ca4:	d4c0      	bmi.n	10005c28 <GLCD_DrawVLine+0x144>
10005ca6:	682e      	ldr	r6, [r5, #0]
10005ca8:	0776      	lsls	r6, r6, #29
10005caa:	bf5c      	itt	pl
10005cac:	682e      	ldrpl	r6, [r5, #0]
10005cae:	ea5f 7646 	movspl.w	r6, r6, lsl #29
10005cb2:	d4b9      	bmi.n	10005c28 <GLCD_DrawVLine+0x144>
10005cb4:	682e      	ldr	r6, [r5, #0]
10005cb6:	0776      	lsls	r6, r6, #29
10005cb8:	d5f2      	bpl.n	10005ca0 <GLCD_DrawVLine+0x1bc>
10005cba:	e7b5      	b.n	10005c28 <GLCD_DrawVLine+0x144>

10005cbc <GLCD_DrawRectangle>:
10005cbc:	b5f0      	push	{r4, r5, r6, r7, lr}
10005cbe:	af03      	add	r7, sp, #12
10005cc0:	f84d 8d04 	str.w	r8, [sp, #-4]!
10005cc4:	4698      	mov	r8, r3
10005cc6:	4615      	mov	r5, r2
10005cc8:	460e      	mov	r6, r1
10005cca:	4604      	mov	r4, r0
10005ccc:	f7ff fe1e 	bl	1000590c <GLCD_DrawHLine>
10005cd0:	eb08 0106 	add.w	r1, r8, r6
10005cd4:	4620      	mov	r0, r4
10005cd6:	462a      	mov	r2, r5
10005cd8:	f7ff fe18 	bl	1000590c <GLCD_DrawHLine>
10005cdc:	4620      	mov	r0, r4
10005cde:	4631      	mov	r1, r6
10005ce0:	4642      	mov	r2, r8
10005ce2:	f7ff feff 	bl	10005ae4 <GLCD_DrawVLine>
10005ce6:	1928      	adds	r0, r5, r4
10005ce8:	4631      	mov	r1, r6
10005cea:	4642      	mov	r2, r8
10005cec:	f7ff fefa 	bl	10005ae4 <GLCD_DrawVLine>
10005cf0:	2000      	movs	r0, #0
10005cf2:	f85d 8b04 	ldr.w	r8, [sp], #4
10005cf6:	bdf0      	pop	{r4, r5, r6, r7, pc}

10005cf8 <GLCD_DrawChar>:
10005cf8:	b5f0      	push	{r4, r5, r6, r7, lr}
10005cfa:	af03      	add	r7, sp, #12
10005cfc:	e92d 0f00 	stmdb	sp!, {r8, r9, sl, fp}
10005d00:	b083      	sub	sp, #12
10005d02:	f240 092c 	movw	r9, #44	@ 0x2c
10005d06:	f6c3 0900 	movt	r9, #14336	@ 0x3800
10005d0a:	f8d9 3004 	ldr.w	r3, [r9, #4]
10005d0e:	2b00      	cmp	r3, #0
10005d10:	f000 8156 	beq.w	10005fc0 <GLCD_DrawChar+0x2c8>
10005d14:	685d      	ldr	r5, [r3, #4]
10005d16:	f8b3 c000 	ldrh.w	ip, [r3]
10005d1a:	1b52      	subs	r2, r2, r5
10005d1c:	f10c 0507 	add.w	r5, ip, #7
10005d20:	f8d3 b00c 	ldr.w	fp, [r3, #12]
10005d24:	08ed      	lsrs	r5, r5, #3
10005d26:	885b      	ldrh	r3, [r3, #2]
10005d28:	436a      	muls	r2, r5
10005d2a:	f246 040c 	movw	r4, #24588	@ 0x600c
10005d2e:	f242 064c 	movw	r6, #8268	@ 0x204c
10005d32:	fb02 fa03 	mul.w	sl, r2, r3
10005d36:	4662      	mov	r2, ip
10005d38:	f2c5 0420 	movt	r4, #20512	@ 0x5020
10005d3c:	f2c4 0630 	movt	r6, #16432	@ 0x4030
10005d40:	f7fe fc6e 	bl	10004620 <GLCD_SetWindow>
10005d44:	6830      	ldr	r0, [r6, #0]
10005d46:	f020 0001 	bic.w	r0, r0, #1
10005d4a:	6030      	str	r0, [r6, #0]
10005d4c:	2070      	movs	r0, #112	@ 0x70
10005d4e:	f844 0c04 	str.w	r0, [r4, #-4]
10005d52:	6820      	ldr	r0, [r4, #0]
10005d54:	0740      	lsls	r0, r0, #29
10005d56:	d409      	bmi.n	10005d6c <GLCD_DrawChar+0x74>
10005d58:	6820      	ldr	r0, [r4, #0]
10005d5a:	0740      	lsls	r0, r0, #29
10005d5c:	bf5c      	itt	pl
10005d5e:	6820      	ldrpl	r0, [r4, #0]
10005d60:	ea5f 7040 	movspl.w	r0, r0, lsl #29
10005d64:	d402      	bmi.n	10005d6c <GLCD_DrawChar+0x74>
10005d66:	6820      	ldr	r0, [r4, #0]
10005d68:	0740      	lsls	r0, r0, #29
10005d6a:	d5f2      	bpl.n	10005d52 <GLCD_DrawChar+0x5a>
10005d6c:	f854 0c04 	ldr.w	r0, [r4, #-4]
10005d70:	2000      	movs	r0, #0
10005d72:	f844 0c04 	str.w	r0, [r4, #-4]
10005d76:	6820      	ldr	r0, [r4, #0]
10005d78:	0740      	lsls	r0, r0, #29
10005d7a:	d409      	bmi.n	10005d90 <GLCD_DrawChar+0x98>
10005d7c:	6820      	ldr	r0, [r4, #0]
10005d7e:	0740      	lsls	r0, r0, #29
10005d80:	bf5c      	itt	pl
10005d82:	6820      	ldrpl	r0, [r4, #0]
10005d84:	ea5f 7040 	movspl.w	r0, r0, lsl #29
10005d88:	d402      	bmi.n	10005d90 <GLCD_DrawChar+0x98>
10005d8a:	6820      	ldr	r0, [r4, #0]
10005d8c:	0740      	lsls	r0, r0, #29
10005d8e:	d5f2      	bpl.n	10005d76 <GLCD_DrawChar+0x7e>
10005d90:	f854 0c04 	ldr.w	r0, [r4, #-4]
10005d94:	2022      	movs	r0, #34	@ 0x22
10005d96:	f844 0c04 	str.w	r0, [r4, #-4]
10005d9a:	6820      	ldr	r0, [r4, #0]
10005d9c:	0740      	lsls	r0, r0, #29
10005d9e:	d409      	bmi.n	10005db4 <GLCD_DrawChar+0xbc>
10005da0:	6820      	ldr	r0, [r4, #0]
10005da2:	0740      	lsls	r0, r0, #29
10005da4:	bf5c      	itt	pl
10005da6:	6820      	ldrpl	r0, [r4, #0]
10005da8:	ea5f 7040 	movspl.w	r0, r0, lsl #29
10005dac:	d402      	bmi.n	10005db4 <GLCD_DrawChar+0xbc>
10005dae:	6820      	ldr	r0, [r4, #0]
10005db0:	0740      	lsls	r0, r0, #29
10005db2:	d5f2      	bpl.n	10005d9a <GLCD_DrawChar+0xa2>
10005db4:	f242 014c 	movw	r1, #8268	@ 0x204c
10005db8:	f2c5 0130 	movt	r1, #20528	@ 0x5030
10005dbc:	f854 0c04 	ldr.w	r0, [r4, #-4]
10005dc0:	6808      	ldr	r0, [r1, #0]
10005dc2:	f040 0001 	orr.w	r0, r0, #1
10005dc6:	6008      	str	r0, [r1, #0]
10005dc8:	6830      	ldr	r0, [r6, #0]
10005dca:	f020 0001 	bic.w	r0, r0, #1
10005dce:	6030      	str	r0, [r6, #0]
10005dd0:	2072      	movs	r0, #114	@ 0x72
10005dd2:	f844 0c04 	str.w	r0, [r4, #-4]
10005dd6:	6820      	ldr	r0, [r4, #0]
10005dd8:	0740      	lsls	r0, r0, #29
10005dda:	d409      	bmi.n	10005df0 <GLCD_DrawChar+0xf8>
10005ddc:	6820      	ldr	r0, [r4, #0]
10005dde:	0740      	lsls	r0, r0, #29
10005de0:	bf5c      	itt	pl
10005de2:	6820      	ldrpl	r0, [r4, #0]
10005de4:	ea5f 7040 	movspl.w	r0, r0, lsl #29
10005de8:	d402      	bmi.n	10005df0 <GLCD_DrawChar+0xf8>
10005dea:	6820      	ldr	r0, [r4, #0]
10005dec:	0740      	lsls	r0, r0, #29
10005dee:	d5f2      	bpl.n	10005dd6 <GLCD_DrawChar+0xde>
10005df0:	f854 0c04 	ldr.w	r0, [r4, #-4]
10005df4:	f8d9 0004 	ldr.w	r0, [r9, #4]
10005df8:	8842      	ldrh	r2, [r0, #2]
10005dfa:	2a00      	cmp	r2, #0
10005dfc:	4611      	mov	r1, r2
10005dfe:	9202      	str	r2, [sp, #8]
10005e00:	f000 80d0 	beq.w	10005fa4 <GLCD_DrawChar+0x2ac>
10005e04:	8801      	ldrh	r1, [r0, #0]
10005e06:	b288      	uxth	r0, r1
10005e08:	2800      	cmp	r0, #0
10005e0a:	9001      	str	r0, [sp, #4]
10005e0c:	f000 80ca 	beq.w	10005fa4 <GLCD_DrawChar+0x2ac>
10005e10:	f240 0010 	movw	r0, #16
10005e14:	f04f 32ff 	mov.w	r2, #4294967295	@ 0xffffffff
10005e18:	f6c3 0000 	movt	r0, #14336	@ 0x3800
10005e1c:	fa12 f881 	uxtah	r8, r2, r1
10005e20:	9901      	ldr	r1, [sp, #4]
10005e22:	f8b9 9000 	ldrh.w	r9, [r9]
10005e26:	8800      	ldrh	r0, [r0, #0]
10005e28:	eb0b 050a 	add.w	r5, fp, sl
10005e2c:	f021 0b01 	bic.w	fp, r1, #1
10005e30:	f04f 0a00 	mov.w	sl, #0
10005e34:	07c9      	lsls	r1, r1, #31
10005e36:	9100      	str	r1, [sp, #0]
10005e38:	e014      	b.n	10005e64 <GLCD_DrawChar+0x16c>
10005e3a:	bf00      	nop
10005e3c:	f854 1c04 	ldr.w	r1, [r4, #-4]
10005e40:	1ff1      	subs	r1, r6, #7
10005e42:	fab1 f181 	clz	r1, r1
10005e46:	0949      	lsrs	r1, r1, #5
10005e48:	ebb2 0208 	subs.w	r2, r2, r8
10005e4c:	bf18      	it	ne
10005e4e:	2201      	movne	r2, #1
10005e50:	4011      	ands	r1, r2
10005e52:	440d      	add	r5, r1
10005e54:	9902      	ldr	r1, [sp, #8]
10005e56:	f10a 0a01 	add.w	sl, sl, #1
10005e5a:	458a      	cmp	sl, r1
10005e5c:	f105 0501 	add.w	r5, r5, #1
10005e60:	f000 80a0 	beq.w	10005fa4 <GLCD_DrawChar+0x2ac>
10005e64:	9901      	ldr	r1, [sp, #4]
10005e66:	2200      	movs	r2, #0
10005e68:	2901      	cmp	r1, #1
10005e6a:	d13f      	bne.n	10005eec <GLCD_DrawChar+0x1f4>
10005e6c:	9900      	ldr	r1, [sp, #0]
10005e6e:	2900      	cmp	r1, #0
10005e70:	d0f0      	beq.n	10005e54 <GLCD_DrawChar+0x15c>
10005e72:	7829      	ldrb	r1, [r5, #0]
10005e74:	f002 0607 	and.w	r6, r2, #7
10005e78:	40f1      	lsrs	r1, r6
10005e7a:	07c9      	lsls	r1, r1, #31
10005e7c:	464b      	mov	r3, r9
10005e7e:	bf08      	it	eq
10005e80:	4603      	moveq	r3, r0
10005e82:	0a19      	lsrs	r1, r3, #8
10005e84:	f844 1c04 	str.w	r1, [r4, #-4]
10005e88:	6821      	ldr	r1, [r4, #0]
10005e8a:	0749      	lsls	r1, r1, #29
10005e8c:	d40a      	bmi.n	10005ea4 <GLCD_DrawChar+0x1ac>
10005e8e:	6821      	ldr	r1, [r4, #0]
10005e90:	0749      	lsls	r1, r1, #29
10005e92:	bf5c      	itt	pl
10005e94:	6821      	ldrpl	r1, [r4, #0]
10005e96:	ea5f 7141 	movspl.w	r1, r1, lsl #29
10005e9a:	d403      	bmi.n	10005ea4 <GLCD_DrawChar+0x1ac>
10005e9c:	6821      	ldr	r1, [r4, #0]
10005e9e:	0749      	lsls	r1, r1, #29
10005ea0:	d5f2      	bpl.n	10005e88 <GLCD_DrawChar+0x190>
10005ea2:	bf00      	nop
10005ea4:	f854 1c04 	ldr.w	r1, [r4, #-4]
10005ea8:	b2d9      	uxtb	r1, r3
10005eaa:	f844 1c04 	str.w	r1, [r4, #-4]
10005eae:	6821      	ldr	r1, [r4, #0]
10005eb0:	0749      	lsls	r1, r1, #29
10005eb2:	d4c3      	bmi.n	10005e3c <GLCD_DrawChar+0x144>
10005eb4:	6821      	ldr	r1, [r4, #0]
10005eb6:	0749      	lsls	r1, r1, #29
10005eb8:	bf5c      	itt	pl
10005eba:	6821      	ldrpl	r1, [r4, #0]
10005ebc:	ea5f 7141 	movspl.w	r1, r1, lsl #29
10005ec0:	d4bc      	bmi.n	10005e3c <GLCD_DrawChar+0x144>
10005ec2:	6821      	ldr	r1, [r4, #0]
10005ec4:	0749      	lsls	r1, r1, #29
10005ec6:	d5f2      	bpl.n	10005eae <GLCD_DrawChar+0x1b6>
10005ec8:	e7b8      	b.n	10005e3c <GLCD_DrawChar+0x144>
10005eca:	bf00      	nop
10005ecc:	f854 1c04 	ldr.w	r1, [r4, #-4]
10005ed0:	f1ac 0107 	sub.w	r1, ip, #7
10005ed4:	fab1 f181 	clz	r1, r1
10005ed8:	0949      	lsrs	r1, r1, #5
10005eda:	ebb6 0308 	subs.w	r3, r6, r8
10005ede:	bf18      	it	ne
10005ee0:	2301      	movne	r3, #1
10005ee2:	4019      	ands	r1, r3
10005ee4:	3202      	adds	r2, #2
10005ee6:	455a      	cmp	r2, fp
10005ee8:	440d      	add	r5, r1
10005eea:	d0bf      	beq.n	10005e6c <GLCD_DrawChar+0x174>
10005eec:	782b      	ldrb	r3, [r5, #0]
10005eee:	f002 0606 	and.w	r6, r2, #6
10005ef2:	40f3      	lsrs	r3, r6
10005ef4:	07db      	lsls	r3, r3, #31
10005ef6:	464b      	mov	r3, r9
10005ef8:	bf08      	it	eq
10005efa:	4603      	moveq	r3, r0
10005efc:	0a1e      	lsrs	r6, r3, #8
10005efe:	f844 6c04 	str.w	r6, [r4, #-4]
10005f02:	6826      	ldr	r6, [r4, #0]
10005f04:	0776      	lsls	r6, r6, #29
10005f06:	d409      	bmi.n	10005f1c <GLCD_DrawChar+0x224>
10005f08:	6826      	ldr	r6, [r4, #0]
10005f0a:	0776      	lsls	r6, r6, #29
10005f0c:	bf5c      	itt	pl
10005f0e:	6826      	ldrpl	r6, [r4, #0]
10005f10:	ea5f 7646 	movspl.w	r6, r6, lsl #29
10005f14:	d402      	bmi.n	10005f1c <GLCD_DrawChar+0x224>
10005f16:	6826      	ldr	r6, [r4, #0]
10005f18:	0776      	lsls	r6, r6, #29
10005f1a:	d5f2      	bpl.n	10005f02 <GLCD_DrawChar+0x20a>
10005f1c:	f854 6c04 	ldr.w	r6, [r4, #-4]
10005f20:	b2db      	uxtb	r3, r3
10005f22:	f844 3c04 	str.w	r3, [r4, #-4]
10005f26:	6823      	ldr	r3, [r4, #0]
10005f28:	075b      	lsls	r3, r3, #29
10005f2a:	d409      	bmi.n	10005f40 <GLCD_DrawChar+0x248>
10005f2c:	6823      	ldr	r3, [r4, #0]
10005f2e:	075b      	lsls	r3, r3, #29
10005f30:	bf5c      	itt	pl
10005f32:	6823      	ldrpl	r3, [r4, #0]
10005f34:	ea5f 7343 	movspl.w	r3, r3, lsl #29
10005f38:	d402      	bmi.n	10005f40 <GLCD_DrawChar+0x248>
10005f3a:	6823      	ldr	r3, [r4, #0]
10005f3c:	075b      	lsls	r3, r3, #29
10005f3e:	d5f2      	bpl.n	10005f26 <GLCD_DrawChar+0x22e>
10005f40:	f854 3c04 	ldr.w	r3, [r4, #-4]
10005f44:	f042 0601 	orr.w	r6, r2, #1
10005f48:	782b      	ldrb	r3, [r5, #0]
10005f4a:	f006 0c07 	and.w	ip, r6, #7
10005f4e:	fa23 f30c 	lsr.w	r3, r3, ip
10005f52:	07db      	lsls	r3, r3, #31
10005f54:	464b      	mov	r3, r9
10005f56:	bf08      	it	eq
10005f58:	4603      	moveq	r3, r0
10005f5a:	ea4f 2e13 	mov.w	lr, r3, lsr #8
10005f5e:	f844 ec04 	str.w	lr, [r4, #-4]
10005f62:	6821      	ldr	r1, [r4, #0]
10005f64:	0749      	lsls	r1, r1, #29
10005f66:	d409      	bmi.n	10005f7c <GLCD_DrawChar+0x284>
10005f68:	6821      	ldr	r1, [r4, #0]
10005f6a:	0749      	lsls	r1, r1, #29
10005f6c:	bf5c      	itt	pl
10005f6e:	6821      	ldrpl	r1, [r4, #0]
10005f70:	ea5f 7141 	movspl.w	r1, r1, lsl #29
10005f74:	d402      	bmi.n	10005f7c <GLCD_DrawChar+0x284>
10005f76:	6821      	ldr	r1, [r4, #0]
10005f78:	0749      	lsls	r1, r1, #29
10005f7a:	d5f2      	bpl.n	10005f62 <GLCD_DrawChar+0x26a>
10005f7c:	f854 1c04 	ldr.w	r1, [r4, #-4]
10005f80:	b2d9      	uxtb	r1, r3
10005f82:	f844 1c04 	str.w	r1, [r4, #-4]
10005f86:	6821      	ldr	r1, [r4, #0]
10005f88:	0749      	lsls	r1, r1, #29
10005f8a:	d49f      	bmi.n	10005ecc <GLCD_DrawChar+0x1d4>
10005f8c:	6821      	ldr	r1, [r4, #0]
10005f8e:	0749      	lsls	r1, r1, #29
10005f90:	bf5c      	itt	pl
10005f92:	6821      	ldrpl	r1, [r4, #0]
10005f94:	ea5f 7141 	movspl.w	r1, r1, lsl #29
10005f98:	d498      	bmi.n	10005ecc <GLCD_DrawChar+0x1d4>
10005f9a:	6821      	ldr	r1, [r4, #0]
10005f9c:	0749      	lsls	r1, r1, #29
10005f9e:	d5f2      	bpl.n	10005f86 <GLCD_DrawChar+0x28e>
10005fa0:	e794      	b.n	10005ecc <GLCD_DrawChar+0x1d4>
10005fa2:	bf00      	nop
10005fa4:	f242 014c 	movw	r1, #8268	@ 0x204c
10005fa8:	f2c5 0130 	movt	r1, #20528	@ 0x5030
10005fac:	6808      	ldr	r0, [r1, #0]
10005fae:	f040 0001 	orr.w	r0, r0, #1
10005fb2:	6008      	str	r0, [r1, #0]
10005fb4:	2000      	movs	r0, #0
10005fb6:	b003      	add	sp, #12
10005fb8:	e8bd 0f00 	ldmia.w	sp!, {r8, r9, sl, fp}
10005fbc:	bdf0      	pop	{r4, r5, r6, r7, pc}
10005fbe:	bf00      	nop
10005fc0:	f04f 30ff 	mov.w	r0, #4294967295	@ 0xffffffff
10005fc4:	b003      	add	sp, #12
10005fc6:	e8bd 0f00 	ldmia.w	sp!, {r8, r9, sl, fp}
10005fca:	bdf0      	pop	{r4, r5, r6, r7, pc}

10005fcc <GLCD_DrawString>:
10005fcc:	b5f0      	push	{r4, r5, r6, r7, lr}
10005fce:	af03      	add	r7, sp, #12
10005fd0:	f84d 8d04 	str.w	r8, [sp, #-4]!
10005fd4:	4613      	mov	r3, r2
10005fd6:	7812      	ldrb	r2, [r2, #0]
10005fd8:	b19a      	cbz	r2, 10006002 <GLCD_DrawString+0x36>
10005fda:	f240 082c 	movw	r8, #44	@ 0x2c
10005fde:	460c      	mov	r4, r1
10005fe0:	4605      	mov	r5, r0
10005fe2:	1e5e      	subs	r6, r3, #1
10005fe4:	f6c3 0800 	movt	r8, #14336	@ 0x3800
10005fe8:	4628      	mov	r0, r5
10005fea:	4621      	mov	r1, r4
10005fec:	f7ff fe84 	bl	10005cf8 <GLCD_DrawChar>
10005ff0:	f8d8 0004 	ldr.w	r0, [r8, #4]
10005ff4:	78b2      	ldrb	r2, [r6, #2]
10005ff6:	8800      	ldrh	r0, [r0, #0]
10005ff8:	2a00      	cmp	r2, #0
10005ffa:	4405      	add	r5, r0
10005ffc:	f106 0601 	add.w	r6, r6, #1
10006000:	d1f2      	bne.n	10005fe8 <GLCD_DrawString+0x1c>
10006002:	2000      	movs	r0, #0
10006004:	f85d 8b04 	ldr.w	r8, [sp], #4
10006008:	bdf0      	pop	{r4, r5, r6, r7, pc}

1000600a <GLCD_DrawBargraph>:
1000600a:	b5f0      	push	{r4, r5, r6, r7, lr}
1000600c:	af03      	add	r7, sp, #12
1000600e:	e92d 0700 	stmdb	sp!, {r8, r9, sl}
10006012:	4615      	mov	r5, r2
10006014:	68ba      	ldr	r2, [r7, #8]
10006016:	f246 060c 	movw	r6, #24588	@ 0x600c
1000601a:	f242 044c 	movw	r4, #8268	@ 0x204c
1000601e:	fb02 f805 	mul.w	r8, r2, r5
10006022:	462a      	mov	r2, r5
10006024:	4699      	mov	r9, r3
10006026:	f2c5 0620 	movt	r6, #20512	@ 0x5020
1000602a:	f2c4 0430 	movt	r4, #16432	@ 0x4030
1000602e:	f7fe faf7 	bl	10004620 <GLCD_SetWindow>
10006032:	6820      	ldr	r0, [r4, #0]
10006034:	f020 0001 	bic.w	r0, r0, #1
10006038:	6020      	str	r0, [r4, #0]
1000603a:	2070      	movs	r0, #112	@ 0x70
1000603c:	f846 0c04 	str.w	r0, [r6, #-4]
10006040:	6830      	ldr	r0, [r6, #0]
10006042:	0740      	lsls	r0, r0, #29
10006044:	d409      	bmi.n	1000605a <GLCD_DrawBargraph+0x50>
10006046:	6830      	ldr	r0, [r6, #0]
10006048:	0740      	lsls	r0, r0, #29
1000604a:	bf5c      	itt	pl
1000604c:	6830      	ldrpl	r0, [r6, #0]
1000604e:	ea5f 7040 	movspl.w	r0, r0, lsl #29
10006052:	d402      	bmi.n	1000605a <GLCD_DrawBargraph+0x50>
10006054:	6830      	ldr	r0, [r6, #0]
10006056:	0740      	lsls	r0, r0, #29
10006058:	d5f2      	bpl.n	10006040 <GLCD_DrawBargraph+0x36>
1000605a:	f856 0c04 	ldr.w	r0, [r6, #-4]
1000605e:	2000      	movs	r0, #0
10006060:	f846 0c04 	str.w	r0, [r6, #-4]
10006064:	6830      	ldr	r0, [r6, #0]
10006066:	0740      	lsls	r0, r0, #29
10006068:	d409      	bmi.n	1000607e <GLCD_DrawBargraph+0x74>
1000606a:	6830      	ldr	r0, [r6, #0]
1000606c:	0740      	lsls	r0, r0, #29
1000606e:	bf5c      	itt	pl
10006070:	6830      	ldrpl	r0, [r6, #0]
10006072:	ea5f 7040 	movspl.w	r0, r0, lsl #29
10006076:	d402      	bmi.n	1000607e <GLCD_DrawBargraph+0x74>
10006078:	6830      	ldr	r0, [r6, #0]
1000607a:	0740      	lsls	r0, r0, #29
1000607c:	d5f2      	bpl.n	10006064 <GLCD_DrawBargraph+0x5a>
1000607e:	f856 0c04 	ldr.w	r0, [r6, #-4]
10006082:	2022      	movs	r0, #34	@ 0x22
10006084:	f846 0c04 	str.w	r0, [r6, #-4]
10006088:	6830      	ldr	r0, [r6, #0]
1000608a:	0740      	lsls	r0, r0, #29
1000608c:	d409      	bmi.n	100060a2 <GLCD_DrawBargraph+0x98>
1000608e:	6830      	ldr	r0, [r6, #0]
10006090:	0740      	lsls	r0, r0, #29
10006092:	bf5c      	itt	pl
10006094:	6830      	ldrpl	r0, [r6, #0]
10006096:	ea5f 7040 	movspl.w	r0, r0, lsl #29
1000609a:	d402      	bmi.n	100060a2 <GLCD_DrawBargraph+0x98>
1000609c:	6830      	ldr	r0, [r6, #0]
1000609e:	0740      	lsls	r0, r0, #29
100060a0:	d5f2      	bpl.n	10006088 <GLCD_DrawBargraph+0x7e>
100060a2:	f242 0c4c 	movw	ip, #8268	@ 0x204c
100060a6:	f2c5 0c30 	movt	ip, #20528	@ 0x5030
100060aa:	f856 0c04 	ldr.w	r0, [r6, #-4]
100060ae:	f8dc 0000 	ldr.w	r0, [ip]
100060b2:	f040 0001 	orr.w	r0, r0, #1
100060b6:	f8cc 0000 	str.w	r0, [ip]
100060ba:	6820      	ldr	r0, [r4, #0]
100060bc:	f020 0001 	bic.w	r0, r0, #1
100060c0:	6020      	str	r0, [r4, #0]
100060c2:	2072      	movs	r0, #114	@ 0x72
100060c4:	f846 0c04 	str.w	r0, [r6, #-4]
100060c8:	6830      	ldr	r0, [r6, #0]
100060ca:	0740      	lsls	r0, r0, #29
100060cc:	d409      	bmi.n	100060e2 <GLCD_DrawBargraph+0xd8>
100060ce:	6830      	ldr	r0, [r6, #0]
100060d0:	0740      	lsls	r0, r0, #29
100060d2:	bf5c      	itt	pl
100060d4:	6830      	ldrpl	r0, [r6, #0]
100060d6:	ea5f 7040 	movspl.w	r0, r0, lsl #29
100060da:	d402      	bmi.n	100060e2 <GLCD_DrawBargraph+0xd8>
100060dc:	6830      	ldr	r0, [r6, #0]
100060de:	0740      	lsls	r0, r0, #29
100060e0:	d5f2      	bpl.n	100060c8 <GLCD_DrawBargraph+0xbe>
100060e2:	f856 0c04 	ldr.w	r0, [r6, #-4]
100060e6:	f1b9 0f00 	cmp.w	r9, #0
100060ea:	bf18      	it	ne
100060ec:	2d00      	cmpne	r5, #0
100060ee:	d109      	bne.n	10006104 <GLCD_DrawBargraph+0xfa>
100060f0:	f8dc 0000 	ldr.w	r0, [ip]
100060f4:	f040 0101 	orr.w	r1, r0, #1
100060f8:	2000      	movs	r0, #0
100060fa:	f8cc 1000 	str.w	r1, [ip]
100060fe:	e8bd 0700 	ldmia.w	sp!, {r8, r9, sl}
10006102:	bdf0      	pop	{r4, r5, r6, r7, pc}
10006104:	f248 501f 	movw	r0, #34079	@ 0x851f
10006108:	f2c5 10eb 	movt	r0, #20971	@ 0x51eb
1000610c:	fba8 0100 	umull	r0, r1, r8, r0
10006110:	f240 0010 	movw	r0, #16
10006114:	f6c3 0000 	movt	r0, #14336	@ 0x3800
10006118:	8802      	ldrh	r2, [r0, #0]
1000611a:	0948      	lsrs	r0, r1, #5
1000611c:	f240 012c 	movw	r1, #44	@ 0x2c
10006120:	f6c3 0100 	movt	r1, #14336	@ 0x3800
10006124:	880c      	ldrh	r4, [r1, #0]
10006126:	ea4f 2812 	mov.w	r8, r2, lsr #8
1000612a:	fa5f fa82 	uxtb.w	sl, r2
1000612e:	0a21      	lsrs	r1, r4, #8
10006130:	b2e4      	uxtb	r4, r4
10006132:	f04f 0e00 	mov.w	lr, #0
10006136:	e003      	b.n	10006140 <GLCD_DrawBargraph+0x136>
10006138:	f10e 0e01 	add.w	lr, lr, #1
1000613c:	45ce      	cmp	lr, r9
1000613e:	d0d7      	beq.n	100060f0 <GLCD_DrawBargraph+0xe6>
10006140:	2200      	movs	r2, #0
10006142:	e004      	b.n	1000614e <GLCD_DrawBargraph+0x144>
10006144:	3201      	adds	r2, #1
10006146:	f856 3c04 	ldr.w	r3, [r6, #-4]
1000614a:	42aa      	cmp	r2, r5
1000614c:	d0f4      	beq.n	10006138 <GLCD_DrawBargraph+0x12e>
1000614e:	4282      	cmp	r2, r0
10006150:	d220      	bcs.n	10006194 <GLCD_DrawBargraph+0x18a>
10006152:	f846 1c04 	str.w	r1, [r6, #-4]
10006156:	6833      	ldr	r3, [r6, #0]
10006158:	075b      	lsls	r3, r3, #29
1000615a:	d409      	bmi.n	10006170 <GLCD_DrawBargraph+0x166>
1000615c:	6833      	ldr	r3, [r6, #0]
1000615e:	075b      	lsls	r3, r3, #29
10006160:	bf5c      	itt	pl
10006162:	6833      	ldrpl	r3, [r6, #0]
10006164:	ea5f 7343 	movspl.w	r3, r3, lsl #29
10006168:	d402      	bmi.n	10006170 <GLCD_DrawBargraph+0x166>
1000616a:	6833      	ldr	r3, [r6, #0]
1000616c:	075b      	lsls	r3, r3, #29
1000616e:	d5f2      	bpl.n	10006156 <GLCD_DrawBargraph+0x14c>
10006170:	f856 3c04 	ldr.w	r3, [r6, #-4]
10006174:	f846 4c04 	str.w	r4, [r6, #-4]
10006178:	6833      	ldr	r3, [r6, #0]
1000617a:	075b      	lsls	r3, r3, #29
1000617c:	d4e2      	bmi.n	10006144 <GLCD_DrawBargraph+0x13a>
1000617e:	6833      	ldr	r3, [r6, #0]
10006180:	075b      	lsls	r3, r3, #29
10006182:	bf5c      	itt	pl
10006184:	6833      	ldrpl	r3, [r6, #0]
10006186:	ea5f 7343 	movspl.w	r3, r3, lsl #29
1000618a:	d4db      	bmi.n	10006144 <GLCD_DrawBargraph+0x13a>
1000618c:	6833      	ldr	r3, [r6, #0]
1000618e:	075b      	lsls	r3, r3, #29
10006190:	d5f2      	bpl.n	10006178 <GLCD_DrawBargraph+0x16e>
10006192:	e7d7      	b.n	10006144 <GLCD_DrawBargraph+0x13a>
10006194:	f846 8c04 	str.w	r8, [r6, #-4]
10006198:	6833      	ldr	r3, [r6, #0]
1000619a:	075b      	lsls	r3, r3, #29
1000619c:	d40a      	bmi.n	100061b4 <GLCD_DrawBargraph+0x1aa>
1000619e:	6833      	ldr	r3, [r6, #0]
100061a0:	075b      	lsls	r3, r3, #29
100061a2:	bf5c      	itt	pl
100061a4:	6833      	ldrpl	r3, [r6, #0]
100061a6:	ea5f 7343 	movspl.w	r3, r3, lsl #29
100061aa:	d403      	bmi.n	100061b4 <GLCD_DrawBargraph+0x1aa>
100061ac:	6833      	ldr	r3, [r6, #0]
100061ae:	075b      	lsls	r3, r3, #29
100061b0:	d5f2      	bpl.n	10006198 <GLCD_DrawBargraph+0x18e>
100061b2:	bf00      	nop
100061b4:	f856 3c04 	ldr.w	r3, [r6, #-4]
100061b8:	f846 ac04 	str.w	sl, [r6, #-4]
100061bc:	6833      	ldr	r3, [r6, #0]
100061be:	075b      	lsls	r3, r3, #29
100061c0:	d4c0      	bmi.n	10006144 <GLCD_DrawBargraph+0x13a>
100061c2:	6833      	ldr	r3, [r6, #0]
100061c4:	075b      	lsls	r3, r3, #29
100061c6:	bf5c      	itt	pl
100061c8:	6833      	ldrpl	r3, [r6, #0]
100061ca:	ea5f 7343 	movspl.w	r3, r3, lsl #29
100061ce:	d4b9      	bmi.n	10006144 <GLCD_DrawBargraph+0x13a>
100061d0:	6833      	ldr	r3, [r6, #0]
100061d2:	075b      	lsls	r3, r3, #29
100061d4:	d5f2      	bpl.n	100061bc <GLCD_DrawBargraph+0x1b2>
100061d6:	e7b5      	b.n	10006144 <GLCD_DrawBargraph+0x13a>

100061d8 <GLCD_DrawBitmap>:
100061d8:	b5f0      	push	{r4, r5, r6, r7, lr}
100061da:	af03      	add	r7, sp, #12
100061dc:	e92d 0700 	stmdb	sp!, {r8, r9, sl}
100061e0:	68be      	ldr	r6, [r7, #8]
100061e2:	f246 050c 	movw	r5, #24588	@ 0x600c
100061e6:	f242 094c 	movw	r9, #8268	@ 0x204c
100061ea:	4698      	mov	r8, r3
100061ec:	4692      	mov	sl, r2
100061ee:	f2c5 0520 	movt	r5, #20512	@ 0x5020
100061f2:	f2c4 0930 	movt	r9, #16432	@ 0x4030
100061f6:	f7fe fa13 	bl	10004620 <GLCD_SetWindow>
100061fa:	f8d9 0000 	ldr.w	r0, [r9]
100061fe:	f020 0001 	bic.w	r0, r0, #1
10006202:	f8c9 0000 	str.w	r0, [r9]
10006206:	2070      	movs	r0, #112	@ 0x70
10006208:	f845 0c04 	str.w	r0, [r5, #-4]
1000620c:	6828      	ldr	r0, [r5, #0]
1000620e:	0740      	lsls	r0, r0, #29
10006210:	d409      	bmi.n	10006226 <GLCD_DrawBitmap+0x4e>
10006212:	6828      	ldr	r0, [r5, #0]
10006214:	0740      	lsls	r0, r0, #29
10006216:	bf5c      	itt	pl
10006218:	6828      	ldrpl	r0, [r5, #0]
1000621a:	ea5f 7040 	movspl.w	r0, r0, lsl #29
1000621e:	d402      	bmi.n	10006226 <GLCD_DrawBitmap+0x4e>
10006220:	6828      	ldr	r0, [r5, #0]
10006222:	0740      	lsls	r0, r0, #29
10006224:	d5f2      	bpl.n	1000620c <GLCD_DrawBitmap+0x34>
10006226:	f855 0c04 	ldr.w	r0, [r5, #-4]
1000622a:	2000      	movs	r0, #0
1000622c:	f845 0c04 	str.w	r0, [r5, #-4]
10006230:	6828      	ldr	r0, [r5, #0]
10006232:	0740      	lsls	r0, r0, #29
10006234:	d409      	bmi.n	1000624a <GLCD_DrawBitmap+0x72>
10006236:	6828      	ldr	r0, [r5, #0]
10006238:	0740      	lsls	r0, r0, #29
1000623a:	bf5c      	itt	pl
1000623c:	6828      	ldrpl	r0, [r5, #0]
1000623e:	ea5f 7040 	movspl.w	r0, r0, lsl #29
10006242:	d402      	bmi.n	1000624a <GLCD_DrawBitmap+0x72>
10006244:	6828      	ldr	r0, [r5, #0]
10006246:	0740      	lsls	r0, r0, #29
10006248:	d5f2      	bpl.n	10006230 <GLCD_DrawBitmap+0x58>
1000624a:	f855 0c04 	ldr.w	r0, [r5, #-4]
1000624e:	2022      	movs	r0, #34	@ 0x22
10006250:	f845 0c04 	str.w	r0, [r5, #-4]
10006254:	6828      	ldr	r0, [r5, #0]
10006256:	0740      	lsls	r0, r0, #29
10006258:	d409      	bmi.n	1000626e <GLCD_DrawBitmap+0x96>
1000625a:	6828      	ldr	r0, [r5, #0]
1000625c:	0740      	lsls	r0, r0, #29
1000625e:	bf5c      	itt	pl
10006260:	6828      	ldrpl	r0, [r5, #0]
10006262:	ea5f 7040 	movspl.w	r0, r0, lsl #29
10006266:	d402      	bmi.n	1000626e <GLCD_DrawBitmap+0x96>
10006268:	6828      	ldr	r0, [r5, #0]
1000626a:	0740      	lsls	r0, r0, #29
1000626c:	d5f2      	bpl.n	10006254 <GLCD_DrawBitmap+0x7c>
1000626e:	f242 0c4c 	movw	ip, #8268	@ 0x204c
10006272:	f2c5 0c30 	movt	ip, #20528	@ 0x5030
10006276:	f855 0c04 	ldr.w	r0, [r5, #-4]
1000627a:	f8dc 0000 	ldr.w	r0, [ip]
1000627e:	f040 0001 	orr.w	r0, r0, #1
10006282:	f8cc 0000 	str.w	r0, [ip]
10006286:	f8d9 0000 	ldr.w	r0, [r9]
1000628a:	f020 0001 	bic.w	r0, r0, #1
1000628e:	f8c9 0000 	str.w	r0, [r9]
10006292:	2072      	movs	r0, #114	@ 0x72
10006294:	f845 0c04 	str.w	r0, [r5, #-4]
10006298:	6828      	ldr	r0, [r5, #0]
1000629a:	0740      	lsls	r0, r0, #29
1000629c:	d409      	bmi.n	100062b2 <GLCD_DrawBitmap+0xda>
1000629e:	6828      	ldr	r0, [r5, #0]
100062a0:	0740      	lsls	r0, r0, #29
100062a2:	bf5c      	itt	pl
100062a4:	6828      	ldrpl	r0, [r5, #0]
100062a6:	ea5f 7040 	movspl.w	r0, r0, lsl #29
100062aa:	d402      	bmi.n	100062b2 <GLCD_DrawBitmap+0xda>
100062ac:	6828      	ldr	r0, [r5, #0]
100062ae:	0740      	lsls	r0, r0, #29
100062b0:	d5f2      	bpl.n	10006298 <GLCD_DrawBitmap+0xc0>
100062b2:	f855 0c04 	ldr.w	r0, [r5, #-4]
100062b6:	f1a8 0001 	sub.w	r0, r8, #1
100062ba:	fb00 f00a 	mul.w	r0, r0, sl
100062be:	2800      	cmp	r0, #0
100062c0:	f100 80b6 	bmi.w	10006430 <GLCD_DrawBitmap+0x258>
100062c4:	f1ba 0f00 	cmp.w	sl, #0
100062c8:	f340 8092 	ble.w	100063f0 <GLCD_DrawBitmap+0x218>
100062cc:	f02a 0201 	bic.w	r2, sl, #1
100062d0:	ea4f 7eca 	mov.w	lr, sl, lsl #31
100062d4:	e008      	b.n	100062e8 <GLCD_DrawBitmap+0x110>
100062d6:	bf00      	nop
100062d8:	f855 1c04 	ldr.w	r1, [r5, #-4]
100062dc:	eba0 000a 	sub.w	r0, r0, sl
100062e0:	f1b0 3fff 	cmp.w	r0, #4294967295	@ 0xffffffff
100062e4:	f340 80a4 	ble.w	10006430 <GLCD_DrawBitmap+0x258>
100062e8:	2100      	movs	r1, #0
100062ea:	f1ba 0f01 	cmp.w	sl, #1
100062ee:	d12e      	bne.n	1000634e <GLCD_DrawBitmap+0x176>
100062f0:	f1be 0f00 	cmp.w	lr, #0
100062f4:	d0f2      	beq.n	100062dc <GLCD_DrawBitmap+0x104>
100062f6:	4401      	add	r1, r0
100062f8:	f836 1011 	ldrh.w	r1, [r6, r1, lsl #1]
100062fc:	0a0b      	lsrs	r3, r1, #8
100062fe:	f845 3c04 	str.w	r3, [r5, #-4]
10006302:	682b      	ldr	r3, [r5, #0]
10006304:	075b      	lsls	r3, r3, #29
10006306:	d409      	bmi.n	1000631c <GLCD_DrawBitmap+0x144>
10006308:	682b      	ldr	r3, [r5, #0]
1000630a:	075b      	lsls	r3, r3, #29
1000630c:	bf5c      	itt	pl
1000630e:	682b      	ldrpl	r3, [r5, #0]
10006310:	ea5f 7343 	movspl.w	r3, r3, lsl #29
10006314:	d402      	bmi.n	1000631c <GLCD_DrawBitmap+0x144>
10006316:	682b      	ldr	r3, [r5, #0]
10006318:	075b      	lsls	r3, r3, #29
1000631a:	d5f2      	bpl.n	10006302 <GLCD_DrawBitmap+0x12a>
1000631c:	f855 3c04 	ldr.w	r3, [r5, #-4]
10006320:	b2c9      	uxtb	r1, r1
10006322:	f845 1c04 	str.w	r1, [r5, #-4]
10006326:	6829      	ldr	r1, [r5, #0]
10006328:	0749      	lsls	r1, r1, #29
1000632a:	d4d5      	bmi.n	100062d8 <GLCD_DrawBitmap+0x100>
1000632c:	6829      	ldr	r1, [r5, #0]
1000632e:	0749      	lsls	r1, r1, #29
10006330:	bf5c      	itt	pl
10006332:	6829      	ldrpl	r1, [r5, #0]
10006334:	ea5f 7141 	movspl.w	r1, r1, lsl #29
10006338:	d4ce      	bmi.n	100062d8 <GLCD_DrawBitmap+0x100>
1000633a:	6829      	ldr	r1, [r5, #0]
1000633c:	0749      	lsls	r1, r1, #29
1000633e:	d5f2      	bpl.n	10006326 <GLCD_DrawBitmap+0x14e>
10006340:	e7ca      	b.n	100062d8 <GLCD_DrawBitmap+0x100>
10006342:	bf00      	nop
10006344:	3102      	adds	r1, #2
10006346:	f855 3c04 	ldr.w	r3, [r5, #-4]
1000634a:	4291      	cmp	r1, r2
1000634c:	d0d0      	beq.n	100062f0 <GLCD_DrawBitmap+0x118>
1000634e:	180b      	adds	r3, r1, r0
10006350:	f836 3013 	ldrh.w	r3, [r6, r3, lsl #1]
10006354:	0a1c      	lsrs	r4, r3, #8
10006356:	f845 4c04 	str.w	r4, [r5, #-4]
1000635a:	682c      	ldr	r4, [r5, #0]
1000635c:	0764      	lsls	r4, r4, #29
1000635e:	d409      	bmi.n	10006374 <GLCD_DrawBitmap+0x19c>
10006360:	682c      	ldr	r4, [r5, #0]
10006362:	0764      	lsls	r4, r4, #29
10006364:	bf5c      	itt	pl
10006366:	682c      	ldrpl	r4, [r5, #0]
10006368:	ea5f 7444 	movspl.w	r4, r4, lsl #29
1000636c:	d402      	bmi.n	10006374 <GLCD_DrawBitmap+0x19c>
1000636e:	682c      	ldr	r4, [r5, #0]
10006370:	0764      	lsls	r4, r4, #29
10006372:	d5f2      	bpl.n	1000635a <GLCD_DrawBitmap+0x182>
10006374:	f855 4c04 	ldr.w	r4, [r5, #-4]
10006378:	b2db      	uxtb	r3, r3
1000637a:	f845 3c04 	str.w	r3, [r5, #-4]
1000637e:	682b      	ldr	r3, [r5, #0]
10006380:	075b      	lsls	r3, r3, #29
10006382:	d409      	bmi.n	10006398 <GLCD_DrawBitmap+0x1c0>
10006384:	682b      	ldr	r3, [r5, #0]
10006386:	075b      	lsls	r3, r3, #29
10006388:	bf5c      	itt	pl
1000638a:	682b      	ldrpl	r3, [r5, #0]
1000638c:	ea5f 7343 	movspl.w	r3, r3, lsl #29
10006390:	d402      	bmi.n	10006398 <GLCD_DrawBitmap+0x1c0>
10006392:	682b      	ldr	r3, [r5, #0]
10006394:	075b      	lsls	r3, r3, #29
10006396:	d5f2      	bpl.n	1000637e <GLCD_DrawBitmap+0x1a6>
10006398:	f855 3c04 	ldr.w	r3, [r5, #-4]
1000639c:	f041 0301 	orr.w	r3, r1, #1
100063a0:	4403      	add	r3, r0
100063a2:	f836 3013 	ldrh.w	r3, [r6, r3, lsl #1]
100063a6:	0a1c      	lsrs	r4, r3, #8
100063a8:	f845 4c04 	str.w	r4, [r5, #-4]
100063ac:	682c      	ldr	r4, [r5, #0]
100063ae:	0764      	lsls	r4, r4, #29
100063b0:	d40a      	bmi.n	100063c8 <GLCD_DrawBitmap+0x1f0>
100063b2:	682c      	ldr	r4, [r5, #0]
100063b4:	0764      	lsls	r4, r4, #29
100063b6:	bf5c      	itt	pl
100063b8:	682c      	ldrpl	r4, [r5, #0]
100063ba:	ea5f 7444 	movspl.w	r4, r4, lsl #29
100063be:	d403      	bmi.n	100063c8 <GLCD_DrawBitmap+0x1f0>
100063c0:	682c      	ldr	r4, [r5, #0]
100063c2:	0764      	lsls	r4, r4, #29
100063c4:	d5f2      	bpl.n	100063ac <GLCD_DrawBitmap+0x1d4>
100063c6:	bf00      	nop
100063c8:	f855 4c04 	ldr.w	r4, [r5, #-4]
100063cc:	b2db      	uxtb	r3, r3
100063ce:	f845 3c04 	str.w	r3, [r5, #-4]
100063d2:	682b      	ldr	r3, [r5, #0]
100063d4:	075b      	lsls	r3, r3, #29
100063d6:	d4b5      	bmi.n	10006344 <GLCD_DrawBitmap+0x16c>
100063d8:	682b      	ldr	r3, [r5, #0]
100063da:	075b      	lsls	r3, r3, #29
100063dc:	bf5c      	itt	pl
100063de:	682b      	ldrpl	r3, [r5, #0]
100063e0:	ea5f 7343 	movspl.w	r3, r3, lsl #29
100063e4:	d4ae      	bmi.n	10006344 <GLCD_DrawBitmap+0x16c>
100063e6:	682b      	ldr	r3, [r5, #0]
100063e8:	075b      	lsls	r3, r3, #29
100063ea:	d5f2      	bpl.n	100063d2 <GLCD_DrawBitmap+0x1fa>
100063ec:	e7aa      	b.n	10006344 <GLCD_DrawBitmap+0x16c>
100063ee:	bf00      	nop
100063f0:	f1a8 0005 	sub.w	r0, r8, #5
100063f4:	f1a8 0204 	sub.w	r2, r8, #4
100063f8:	f1a8 0303 	sub.w	r3, r8, #3
100063fc:	f1a8 0602 	sub.w	r6, r8, #2
10006400:	fb0a f000 	mul.w	r0, sl, r0
10006404:	ea4f 018a 	mov.w	r1, sl, lsl #2
10006408:	fb0a f202 	mul.w	r2, sl, r2
1000640c:	fb0a f303 	mul.w	r3, sl, r3
10006410:	fb0a f606 	mul.w	r6, sl, r6
10006414:	2500      	movs	r5, #0
10006416:	1974      	adds	r4, r6, r5
10006418:	d40a      	bmi.n	10006430 <GLCD_DrawBitmap+0x258>
1000641a:	195c      	adds	r4, r3, r5
1000641c:	bf58      	it	pl
1000641e:	eb12 0405 	addspl.w	r4, r2, r5
10006422:	d405      	bmi.n	10006430 <GLCD_DrawBitmap+0x258>
10006424:	1944      	adds	r4, r0, r5
10006426:	f1b4 3fff 	cmp.w	r4, #4294967295	@ 0xffffffff
1000642a:	eba5 0501 	sub.w	r5, r5, r1
1000642e:	dcf2      	bgt.n	10006416 <GLCD_DrawBitmap+0x23e>
10006430:	f8dc 0000 	ldr.w	r0, [ip]
10006434:	f040 0101 	orr.w	r1, r0, #1
10006438:	2000      	movs	r0, #0
1000643a:	f8cc 1000 	str.w	r1, [ip]
1000643e:	e8bd 0700 	ldmia.w	sp!, {r8, r9, sl}
10006442:	bdf0      	pop	{r4, r5, r6, r7, pc}

10006444 <GLCD_VScroll>:
10006444:	f04f 30ff 	mov.w	r0, #4294967295	@ 0xffffffff
10006448:	4770      	bx	lr

1000644a <GLCD_FrameBufferAccess>:
1000644a:	b5b0      	push	{r4, r5, r7, lr}
1000644c:	af02      	add	r7, sp, #8
1000644e:	f246 040c 	movw	r4, #24588	@ 0x600c
10006452:	f242 054c 	movw	r5, #8268	@ 0x204c
10006456:	2000      	movs	r0, #0
10006458:	2100      	movs	r1, #0
1000645a:	f44f 72a0 	mov.w	r2, #320	@ 0x140
1000645e:	23f0      	movs	r3, #240	@ 0xf0
10006460:	f2c5 0420 	movt	r4, #20512	@ 0x5020
10006464:	f2c4 0530 	movt	r5, #16432	@ 0x4030
10006468:	f7fe f8da 	bl	10004620 <GLCD_SetWindow>
1000646c:	6828      	ldr	r0, [r5, #0]
1000646e:	f020 0001 	bic.w	r0, r0, #1
10006472:	6028      	str	r0, [r5, #0]
10006474:	2070      	movs	r0, #112	@ 0x70
10006476:	f844 0c04 	str.w	r0, [r4, #-4]
1000647a:	6820      	ldr	r0, [r4, #0]
1000647c:	0740      	lsls	r0, r0, #29
1000647e:	d409      	bmi.n	10006494 <GLCD_FrameBufferAccess+0x4a>
10006480:	6820      	ldr	r0, [r4, #0]
10006482:	0740      	lsls	r0, r0, #29
10006484:	bf5c      	itt	pl
10006486:	6820      	ldrpl	r0, [r4, #0]
10006488:	ea5f 7040 	movspl.w	r0, r0, lsl #29
1000648c:	d402      	bmi.n	10006494 <GLCD_FrameBufferAccess+0x4a>
1000648e:	6820      	ldr	r0, [r4, #0]
10006490:	0740      	lsls	r0, r0, #29
10006492:	d5f2      	bpl.n	1000647a <GLCD_FrameBufferAccess+0x30>
10006494:	f854 0c04 	ldr.w	r0, [r4, #-4]
10006498:	2000      	movs	r0, #0
1000649a:	f844 0c04 	str.w	r0, [r4, #-4]
1000649e:	6820      	ldr	r0, [r4, #0]
100064a0:	0740      	lsls	r0, r0, #29
100064a2:	d409      	bmi.n	100064b8 <GLCD_FrameBufferAccess+0x6e>
100064a4:	6820      	ldr	r0, [r4, #0]
100064a6:	0740      	lsls	r0, r0, #29
100064a8:	bf5c      	itt	pl
100064aa:	6820      	ldrpl	r0, [r4, #0]
100064ac:	ea5f 7040 	movspl.w	r0, r0, lsl #29
100064b0:	d402      	bmi.n	100064b8 <GLCD_FrameBufferAccess+0x6e>
100064b2:	6820      	ldr	r0, [r4, #0]
100064b4:	0740      	lsls	r0, r0, #29
100064b6:	d5f2      	bpl.n	1000649e <GLCD_FrameBufferAccess+0x54>
100064b8:	f854 0c04 	ldr.w	r0, [r4, #-4]
100064bc:	2020      	movs	r0, #32
100064be:	f844 0c04 	str.w	r0, [r4, #-4]
100064c2:	6820      	ldr	r0, [r4, #0]
100064c4:	0740      	lsls	r0, r0, #29
100064c6:	d409      	bmi.n	100064dc <GLCD_FrameBufferAccess+0x92>
100064c8:	6820      	ldr	r0, [r4, #0]
100064ca:	0740      	lsls	r0, r0, #29
100064cc:	bf5c      	itt	pl
100064ce:	6820      	ldrpl	r0, [r4, #0]
100064d0:	ea5f 7040 	movspl.w	r0, r0, lsl #29
100064d4:	d402      	bmi.n	100064dc <GLCD_FrameBufferAccess+0x92>
100064d6:	6820      	ldr	r0, [r4, #0]
100064d8:	0740      	lsls	r0, r0, #29
100064da:	d5f2      	bpl.n	100064c2 <GLCD_FrameBufferAccess+0x78>
100064dc:	f242 014c 	movw	r1, #8268	@ 0x204c
100064e0:	f2c5 0130 	movt	r1, #20528	@ 0x5030
100064e4:	f854 0c04 	ldr.w	r0, [r4, #-4]
100064e8:	6808      	ldr	r0, [r1, #0]
100064ea:	f040 0001 	orr.w	r0, r0, #1
100064ee:	6008      	str	r0, [r1, #0]
100064f0:	6828      	ldr	r0, [r5, #0]
100064f2:	f020 0001 	bic.w	r0, r0, #1
100064f6:	6028      	str	r0, [r5, #0]
100064f8:	2072      	movs	r0, #114	@ 0x72
100064fa:	f844 0c04 	str.w	r0, [r4, #-4]
100064fe:	6820      	ldr	r0, [r4, #0]
10006500:	0740      	lsls	r0, r0, #29
10006502:	d409      	bmi.n	10006518 <GLCD_FrameBufferAccess+0xce>
10006504:	6820      	ldr	r0, [r4, #0]
10006506:	0740      	lsls	r0, r0, #29
10006508:	bf5c      	itt	pl
1000650a:	6820      	ldrpl	r0, [r4, #0]
1000650c:	ea5f 7040 	movspl.w	r0, r0, lsl #29
10006510:	d402      	bmi.n	10006518 <GLCD_FrameBufferAccess+0xce>
10006512:	6820      	ldr	r0, [r4, #0]
10006514:	0740      	lsls	r0, r0, #29
10006516:	d5f2      	bpl.n	100064fe <GLCD_FrameBufferAccess+0xb4>
10006518:	f854 0c04 	ldr.w	r0, [r4, #-4]
1000651c:	2000      	movs	r0, #0
1000651e:	f844 0c04 	str.w	r0, [r4, #-4]
10006522:	6820      	ldr	r0, [r4, #0]
10006524:	0740      	lsls	r0, r0, #29
10006526:	d409      	bmi.n	1000653c <GLCD_FrameBufferAccess+0xf2>
10006528:	6820      	ldr	r0, [r4, #0]
1000652a:	0740      	lsls	r0, r0, #29
1000652c:	bf5c      	itt	pl
1000652e:	6820      	ldrpl	r0, [r4, #0]
10006530:	ea5f 7040 	movspl.w	r0, r0, lsl #29
10006534:	d402      	bmi.n	1000653c <GLCD_FrameBufferAccess+0xf2>
10006536:	6820      	ldr	r0, [r4, #0]
10006538:	0740      	lsls	r0, r0, #29
1000653a:	d5f2      	bpl.n	10006522 <GLCD_FrameBufferAccess+0xd8>
1000653c:	f854 0c04 	ldr.w	r0, [r4, #-4]
10006540:	2000      	movs	r0, #0
10006542:	f844 0c04 	str.w	r0, [r4, #-4]
10006546:	6820      	ldr	r0, [r4, #0]
10006548:	0740      	lsls	r0, r0, #29
1000654a:	d409      	bmi.n	10006560 <GLCD_FrameBufferAccess+0x116>
1000654c:	6820      	ldr	r0, [r4, #0]
1000654e:	0740      	lsls	r0, r0, #29
10006550:	bf5c      	itt	pl
10006552:	6820      	ldrpl	r0, [r4, #0]
10006554:	ea5f 7040 	movspl.w	r0, r0, lsl #29
10006558:	d402      	bmi.n	10006560 <GLCD_FrameBufferAccess+0x116>
1000655a:	6820      	ldr	r0, [r4, #0]
1000655c:	0740      	lsls	r0, r0, #29
1000655e:	d5f2      	bpl.n	10006546 <GLCD_FrameBufferAccess+0xfc>
10006560:	f854 0c04 	ldr.w	r0, [r4, #-4]
10006564:	6808      	ldr	r0, [r1, #0]
10006566:	f040 0001 	orr.w	r0, r0, #1
1000656a:	6008      	str	r0, [r1, #0]
1000656c:	6828      	ldr	r0, [r5, #0]
1000656e:	f020 0001 	bic.w	r0, r0, #1
10006572:	6028      	str	r0, [r5, #0]
10006574:	2070      	movs	r0, #112	@ 0x70
10006576:	f844 0c04 	str.w	r0, [r4, #-4]
1000657a:	6820      	ldr	r0, [r4, #0]
1000657c:	0740      	lsls	r0, r0, #29
1000657e:	d409      	bmi.n	10006594 <GLCD_FrameBufferAccess+0x14a>
10006580:	6820      	ldr	r0, [r4, #0]
10006582:	0740      	lsls	r0, r0, #29
10006584:	bf5c      	itt	pl
10006586:	6820      	ldrpl	r0, [r4, #0]
10006588:	ea5f 7040 	movspl.w	r0, r0, lsl #29
1000658c:	d402      	bmi.n	10006594 <GLCD_FrameBufferAccess+0x14a>
1000658e:	6820      	ldr	r0, [r4, #0]
10006590:	0740      	lsls	r0, r0, #29
10006592:	d5f2      	bpl.n	1000657a <GLCD_FrameBufferAccess+0x130>
10006594:	f854 0c04 	ldr.w	r0, [r4, #-4]
10006598:	2000      	movs	r0, #0
1000659a:	f844 0c04 	str.w	r0, [r4, #-4]
1000659e:	6820      	ldr	r0, [r4, #0]
100065a0:	0740      	lsls	r0, r0, #29
100065a2:	d409      	bmi.n	100065b8 <GLCD_FrameBufferAccess+0x16e>
100065a4:	6820      	ldr	r0, [r4, #0]
100065a6:	0740      	lsls	r0, r0, #29
100065a8:	bf5c      	itt	pl
100065aa:	6820      	ldrpl	r0, [r4, #0]
100065ac:	ea5f 7040 	movspl.w	r0, r0, lsl #29
100065b0:	d402      	bmi.n	100065b8 <GLCD_FrameBufferAccess+0x16e>
100065b2:	6820      	ldr	r0, [r4, #0]
100065b4:	0740      	lsls	r0, r0, #29
100065b6:	d5f2      	bpl.n	1000659e <GLCD_FrameBufferAccess+0x154>
100065b8:	f854 0c04 	ldr.w	r0, [r4, #-4]
100065bc:	2021      	movs	r0, #33	@ 0x21
100065be:	f844 0c04 	str.w	r0, [r4, #-4]
100065c2:	6820      	ldr	r0, [r4, #0]
100065c4:	0740      	lsls	r0, r0, #29
100065c6:	d409      	bmi.n	100065dc <GLCD_FrameBufferAccess+0x192>
100065c8:	6820      	ldr	r0, [r4, #0]
100065ca:	0740      	lsls	r0, r0, #29
100065cc:	bf5c      	itt	pl
100065ce:	6820      	ldrpl	r0, [r4, #0]
100065d0:	ea5f 7040 	movspl.w	r0, r0, lsl #29
100065d4:	d402      	bmi.n	100065dc <GLCD_FrameBufferAccess+0x192>
100065d6:	6820      	ldr	r0, [r4, #0]
100065d8:	0740      	lsls	r0, r0, #29
100065da:	d5f2      	bpl.n	100065c2 <GLCD_FrameBufferAccess+0x178>
100065dc:	f854 0c04 	ldr.w	r0, [r4, #-4]
100065e0:	6808      	ldr	r0, [r1, #0]
100065e2:	f040 0001 	orr.w	r0, r0, #1
100065e6:	6008      	str	r0, [r1, #0]
100065e8:	6828      	ldr	r0, [r5, #0]
100065ea:	f020 0001 	bic.w	r0, r0, #1
100065ee:	6028      	str	r0, [r5, #0]
100065f0:	2072      	movs	r0, #114	@ 0x72
100065f2:	f844 0c04 	str.w	r0, [r4, #-4]
100065f6:	6820      	ldr	r0, [r4, #0]
100065f8:	0740      	lsls	r0, r0, #29
100065fa:	d409      	bmi.n	10006610 <GLCD_FrameBufferAccess+0x1c6>
100065fc:	6820      	ldr	r0, [r4, #0]
100065fe:	0740      	lsls	r0, r0, #29
10006600:	bf5c      	itt	pl
10006602:	6820      	ldrpl	r0, [r4, #0]
10006604:	ea5f 7040 	movspl.w	r0, r0, lsl #29
10006608:	d402      	bmi.n	10006610 <GLCD_FrameBufferAccess+0x1c6>
1000660a:	6820      	ldr	r0, [r4, #0]
1000660c:	0740      	lsls	r0, r0, #29
1000660e:	d5f2      	bpl.n	100065f6 <GLCD_FrameBufferAccess+0x1ac>
10006610:	f854 0c04 	ldr.w	r0, [r4, #-4]
10006614:	2000      	movs	r0, #0
10006616:	f844 0c04 	str.w	r0, [r4, #-4]
1000661a:	6820      	ldr	r0, [r4, #0]
1000661c:	0740      	lsls	r0, r0, #29
1000661e:	d409      	bmi.n	10006634 <GLCD_FrameBufferAccess+0x1ea>
10006620:	6820      	ldr	r0, [r4, #0]
10006622:	0740      	lsls	r0, r0, #29
10006624:	bf5c      	itt	pl
10006626:	6820      	ldrpl	r0, [r4, #0]
10006628:	ea5f 7040 	movspl.w	r0, r0, lsl #29
1000662c:	d402      	bmi.n	10006634 <GLCD_FrameBufferAccess+0x1ea>
1000662e:	6820      	ldr	r0, [r4, #0]
10006630:	0740      	lsls	r0, r0, #29
10006632:	d5f2      	bpl.n	1000661a <GLCD_FrameBufferAccess+0x1d0>
10006634:	f854 0c04 	ldr.w	r0, [r4, #-4]
10006638:	2000      	movs	r0, #0
1000663a:	f844 0c04 	str.w	r0, [r4, #-4]
1000663e:	6820      	ldr	r0, [r4, #0]
10006640:	0740      	lsls	r0, r0, #29
10006642:	d409      	bmi.n	10006658 <GLCD_FrameBufferAccess+0x20e>
10006644:	6820      	ldr	r0, [r4, #0]
10006646:	0740      	lsls	r0, r0, #29
10006648:	bf5c      	itt	pl
1000664a:	6820      	ldrpl	r0, [r4, #0]
1000664c:	ea5f 7040 	movspl.w	r0, r0, lsl #29
10006650:	d402      	bmi.n	10006658 <GLCD_FrameBufferAccess+0x20e>
10006652:	6820      	ldr	r0, [r4, #0]
10006654:	0740      	lsls	r0, r0, #29
10006656:	d5f2      	bpl.n	1000663e <GLCD_FrameBufferAccess+0x1f4>
10006658:	f854 0c04 	ldr.w	r0, [r4, #-4]
1000665c:	6808      	ldr	r0, [r1, #0]
1000665e:	f040 0001 	orr.w	r0, r0, #1
10006662:	6008      	str	r0, [r1, #0]
10006664:	6828      	ldr	r0, [r5, #0]
10006666:	f020 0001 	bic.w	r0, r0, #1
1000666a:	6028      	str	r0, [r5, #0]
1000666c:	2070      	movs	r0, #112	@ 0x70
1000666e:	f844 0c04 	str.w	r0, [r4, #-4]
10006672:	6820      	ldr	r0, [r4, #0]
10006674:	0740      	lsls	r0, r0, #29
10006676:	d409      	bmi.n	1000668c <GLCD_FrameBufferAccess+0x242>
10006678:	6820      	ldr	r0, [r4, #0]
1000667a:	0740      	lsls	r0, r0, #29
1000667c:	bf5c      	itt	pl
1000667e:	6820      	ldrpl	r0, [r4, #0]
10006680:	ea5f 7040 	movspl.w	r0, r0, lsl #29
10006684:	d402      	bmi.n	1000668c <GLCD_FrameBufferAccess+0x242>
10006686:	6820      	ldr	r0, [r4, #0]
10006688:	0740      	lsls	r0, r0, #29
1000668a:	d5f2      	bpl.n	10006672 <GLCD_FrameBufferAccess+0x228>
1000668c:	f854 0c04 	ldr.w	r0, [r4, #-4]
10006690:	2000      	movs	r0, #0
10006692:	f844 0c04 	str.w	r0, [r4, #-4]
10006696:	6820      	ldr	r0, [r4, #0]
10006698:	0740      	lsls	r0, r0, #29
1000669a:	d409      	bmi.n	100066b0 <GLCD_FrameBufferAccess+0x266>
1000669c:	6820      	ldr	r0, [r4, #0]
1000669e:	0740      	lsls	r0, r0, #29
100066a0:	bf5c      	itt	pl
100066a2:	6820      	ldrpl	r0, [r4, #0]
100066a4:	ea5f 7040 	movspl.w	r0, r0, lsl #29
100066a8:	d402      	bmi.n	100066b0 <GLCD_FrameBufferAccess+0x266>
100066aa:	6820      	ldr	r0, [r4, #0]
100066ac:	0740      	lsls	r0, r0, #29
100066ae:	d5f2      	bpl.n	10006696 <GLCD_FrameBufferAccess+0x24c>
100066b0:	f854 0c04 	ldr.w	r0, [r4, #-4]
100066b4:	2022      	movs	r0, #34	@ 0x22
100066b6:	f844 0c04 	str.w	r0, [r4, #-4]
100066ba:	6820      	ldr	r0, [r4, #0]
100066bc:	0740      	lsls	r0, r0, #29
100066be:	d409      	bmi.n	100066d4 <GLCD_FrameBufferAccess+0x28a>
100066c0:	6820      	ldr	r0, [r4, #0]
100066c2:	0740      	lsls	r0, r0, #29
100066c4:	bf5c      	itt	pl
100066c6:	6820      	ldrpl	r0, [r4, #0]
100066c8:	ea5f 7040 	movspl.w	r0, r0, lsl #29
100066cc:	d402      	bmi.n	100066d4 <GLCD_FrameBufferAccess+0x28a>
100066ce:	6820      	ldr	r0, [r4, #0]
100066d0:	0740      	lsls	r0, r0, #29
100066d2:	d5f2      	bpl.n	100066ba <GLCD_FrameBufferAccess+0x270>
100066d4:	f854 0c04 	ldr.w	r0, [r4, #-4]
100066d8:	6808      	ldr	r0, [r1, #0]
100066da:	f040 0201 	orr.w	r2, r0, #1
100066de:	2000      	movs	r0, #0
100066e0:	600a      	str	r2, [r1, #0]
100066e2:	bdb0      	pop	{r4, r5, r7, pc}

100066e4 <GLCD_FrameBufferAddress>:
100066e4:	2000      	movs	r0, #0
100066e6:	4770      	bx	lr

100066e8 <LED_Initialize>:
100066e8:	f242 0100 	movw	r1, #8192	@ 0x2000
100066ec:	f2c5 0130 	movt	r1, #20528	@ 0x5030
100066f0:	2200      	movs	r2, #0
100066f2:	2000      	movs	r0, #0
100066f4:	600a      	str	r2, [r1, #0]
100066f6:	4770      	bx	lr

100066f8 <LED_Uninitialize>:
100066f8:	2000      	movs	r0, #0
100066fa:	4770      	bx	lr

100066fc <LED_On>:
100066fc:	2801      	cmp	r0, #1
100066fe:	d809      	bhi.n	10006714 <LED_On+0x18>
10006700:	f242 0200 	movw	r2, #8192	@ 0x2000
10006704:	f2c5 0230 	movt	r2, #20528	@ 0x5030
10006708:	2101      	movs	r1, #1
1000670a:	6813      	ldr	r3, [r2, #0]
1000670c:	fa01 f000 	lsl.w	r0, r1, r0
10006710:	4318      	orrs	r0, r3
10006712:	6010      	str	r0, [r2, #0]
10006714:	2000      	movs	r0, #0
10006716:	4770      	bx	lr

10006718 <LED_Off>:
10006718:	2801      	cmp	r0, #1
1000671a:	d80a      	bhi.n	10006732 <LED_Off+0x1a>
1000671c:	f242 0200 	movw	r2, #8192	@ 0x2000
10006720:	f2c5 0230 	movt	r2, #20528	@ 0x5030
10006724:	2101      	movs	r1, #1
10006726:	6813      	ldr	r3, [r2, #0]
10006728:	fa01 f000 	lsl.w	r0, r1, r0
1000672c:	ea23 0000 	bic.w	r0, r3, r0
10006730:	6010      	str	r0, [r2, #0]
10006732:	2000      	movs	r0, #0
10006734:	4770      	bx	lr

10006736 <LED_SetOut>:
10006736:	f242 0200 	movw	r2, #8192	@ 0x2000
1000673a:	f000 0103 	and.w	r1, r0, #3
1000673e:	f2c5 0230 	movt	r2, #20528	@ 0x5030
10006742:	2000      	movs	r0, #0
10006744:	6011      	str	r1, [r2, #0]
10006746:	4770      	bx	lr

10006748 <LED_GetCount>:
10006748:	2002      	movs	r0, #2
1000674a:	4770      	bx	lr

1000674c <I2C_txStart>:
1000674c:	f242 0118 	movw	r1, #8216	@ 0x2018
10006750:	2203      	movs	r2, #3
10006752:	f2c5 0130 	movt	r1, #20528	@ 0x5030
10006756:	6002      	str	r2, [r0, #0]
10006758:	680b      	ldr	r3, [r1, #0]
1000675a:	f113 0f10 	cmn.w	r3, #16
1000675e:	f103 0c0f 	add.w	ip, r3, #15
10006762:	d91b      	bls.n	1000679c <I2C_txStart+0x50>
10006764:	680a      	ldr	r2, [r1, #0]
10006766:	429a      	cmp	r2, r3
10006768:	d313      	bcc.n	10006792 <I2C_txStart+0x46>
1000676a:	680a      	ldr	r2, [r1, #0]
1000676c:	429a      	cmp	r2, r3
1000676e:	d310      	bcc.n	10006792 <I2C_txStart+0x46>
10006770:	680a      	ldr	r2, [r1, #0]
10006772:	429a      	cmp	r2, r3
10006774:	d30d      	bcc.n	10006792 <I2C_txStart+0x46>
10006776:	680a      	ldr	r2, [r1, #0]
10006778:	429a      	cmp	r2, r3
1000677a:	d2f3      	bcs.n	10006764 <I2C_txStart+0x18>
1000677c:	e009      	b.n	10006792 <I2C_txStart+0x46>
1000677e:	bf00      	nop
10006780:	680a      	ldr	r2, [r1, #0]
10006782:	4562      	cmp	r2, ip
10006784:	d222      	bcs.n	100067cc <I2C_txStart+0x80>
10006786:	680a      	ldr	r2, [r1, #0]
10006788:	4562      	cmp	r2, ip
1000678a:	d21f      	bcs.n	100067cc <I2C_txStart+0x80>
1000678c:	680a      	ldr	r2, [r1, #0]
1000678e:	4562      	cmp	r2, ip
10006790:	d21c      	bcs.n	100067cc <I2C_txStart+0x80>
10006792:	680a      	ldr	r2, [r1, #0]
10006794:	4562      	cmp	r2, ip
10006796:	d3f3      	bcc.n	10006780 <I2C_txStart+0x34>
10006798:	e018      	b.n	100067cc <I2C_txStart+0x80>
1000679a:	bf00      	nop
1000679c:	680a      	ldr	r2, [r1, #0]
1000679e:	429a      	cmp	r2, r3
100067a0:	d314      	bcc.n	100067cc <I2C_txStart+0x80>
100067a2:	680a      	ldr	r2, [r1, #0]
100067a4:	4562      	cmp	r2, ip
100067a6:	d211      	bcs.n	100067cc <I2C_txStart+0x80>
100067a8:	680a      	ldr	r2, [r1, #0]
100067aa:	429a      	cmp	r2, r3
100067ac:	d30e      	bcc.n	100067cc <I2C_txStart+0x80>
100067ae:	680a      	ldr	r2, [r1, #0]
100067b0:	4562      	cmp	r2, ip
100067b2:	d20b      	bcs.n	100067cc <I2C_txStart+0x80>
100067b4:	680a      	ldr	r2, [r1, #0]
100067b6:	429a      	cmp	r2, r3
100067b8:	d308      	bcc.n	100067cc <I2C_txStart+0x80>
100067ba:	680a      	ldr	r2, [r1, #0]
100067bc:	4562      	cmp	r2, ip
100067be:	d205      	bcs.n	100067cc <I2C_txStart+0x80>
100067c0:	680a      	ldr	r2, [r1, #0]
100067c2:	429a      	cmp	r2, r3
100067c4:	d302      	bcc.n	100067cc <I2C_txStart+0x80>
100067c6:	680a      	ldr	r2, [r1, #0]
100067c8:	4562      	cmp	r2, ip
100067ca:	d3e7      	bcc.n	1000679c <I2C_txStart+0x50>
100067cc:	2202      	movs	r2, #2
100067ce:	6042      	str	r2, [r0, #4]
100067d0:	680b      	ldr	r3, [r1, #0]
100067d2:	f113 0f10 	cmn.w	r3, #16
100067d6:	f103 0c0f 	add.w	ip, r3, #15
100067da:	d91b      	bls.n	10006814 <I2C_txStart+0xc8>
100067dc:	680a      	ldr	r2, [r1, #0]
100067de:	429a      	cmp	r2, r3
100067e0:	d313      	bcc.n	1000680a <I2C_txStart+0xbe>
100067e2:	680a      	ldr	r2, [r1, #0]
100067e4:	429a      	cmp	r2, r3
100067e6:	d310      	bcc.n	1000680a <I2C_txStart+0xbe>
100067e8:	680a      	ldr	r2, [r1, #0]
100067ea:	429a      	cmp	r2, r3
100067ec:	d30d      	bcc.n	1000680a <I2C_txStart+0xbe>
100067ee:	680a      	ldr	r2, [r1, #0]
100067f0:	429a      	cmp	r2, r3
100067f2:	d2f3      	bcs.n	100067dc <I2C_txStart+0x90>
100067f4:	e009      	b.n	1000680a <I2C_txStart+0xbe>
100067f6:	bf00      	nop
100067f8:	680a      	ldr	r2, [r1, #0]
100067fa:	4562      	cmp	r2, ip
100067fc:	d222      	bcs.n	10006844 <I2C_txStart+0xf8>
100067fe:	680a      	ldr	r2, [r1, #0]
10006800:	4562      	cmp	r2, ip
10006802:	d21f      	bcs.n	10006844 <I2C_txStart+0xf8>
10006804:	680a      	ldr	r2, [r1, #0]
10006806:	4562      	cmp	r2, ip
10006808:	d21c      	bcs.n	10006844 <I2C_txStart+0xf8>
1000680a:	680a      	ldr	r2, [r1, #0]
1000680c:	4562      	cmp	r2, ip
1000680e:	d3f3      	bcc.n	100067f8 <I2C_txStart+0xac>
10006810:	e018      	b.n	10006844 <I2C_txStart+0xf8>
10006812:	bf00      	nop
10006814:	680a      	ldr	r2, [r1, #0]
10006816:	429a      	cmp	r2, r3
10006818:	d314      	bcc.n	10006844 <I2C_txStart+0xf8>
1000681a:	680a      	ldr	r2, [r1, #0]
1000681c:	4562      	cmp	r2, ip
1000681e:	d211      	bcs.n	10006844 <I2C_txStart+0xf8>
10006820:	680a      	ldr	r2, [r1, #0]
10006822:	429a      	cmp	r2, r3
10006824:	d30e      	bcc.n	10006844 <I2C_txStart+0xf8>
10006826:	680a      	ldr	r2, [r1, #0]
10006828:	4562      	cmp	r2, ip
1000682a:	d20b      	bcs.n	10006844 <I2C_txStart+0xf8>
1000682c:	680a      	ldr	r2, [r1, #0]
1000682e:	429a      	cmp	r2, r3
10006830:	d308      	bcc.n	10006844 <I2C_txStart+0xf8>
10006832:	680a      	ldr	r2, [r1, #0]
10006834:	4562      	cmp	r2, ip
10006836:	d205      	bcs.n	10006844 <I2C_txStart+0xf8>
10006838:	680a      	ldr	r2, [r1, #0]
1000683a:	429a      	cmp	r2, r3
1000683c:	d302      	bcc.n	10006844 <I2C_txStart+0xf8>
1000683e:	680a      	ldr	r2, [r1, #0]
10006840:	4562      	cmp	r2, ip
10006842:	d3e7      	bcc.n	10006814 <I2C_txStart+0xc8>
10006844:	2201      	movs	r2, #1
10006846:	6042      	str	r2, [r0, #4]
10006848:	680a      	ldr	r2, [r1, #0]
1000684a:	f112 0f10 	cmn.w	r2, #16
1000684e:	f102 000f 	add.w	r0, r2, #15
10006852:	d91b      	bls.n	1000688c <I2C_txStart+0x140>
10006854:	680b      	ldr	r3, [r1, #0]
10006856:	4293      	cmp	r3, r2
10006858:	d311      	bcc.n	1000687e <I2C_txStart+0x132>
1000685a:	680b      	ldr	r3, [r1, #0]
1000685c:	4293      	cmp	r3, r2
1000685e:	d30e      	bcc.n	1000687e <I2C_txStart+0x132>
10006860:	680b      	ldr	r3, [r1, #0]
10006862:	4293      	cmp	r3, r2
10006864:	d30b      	bcc.n	1000687e <I2C_txStart+0x132>
10006866:	680b      	ldr	r3, [r1, #0]
10006868:	4293      	cmp	r3, r2
1000686a:	d2f3      	bcs.n	10006854 <I2C_txStart+0x108>
1000686c:	e007      	b.n	1000687e <I2C_txStart+0x132>
1000686e:	bf00      	nop
10006870:	680a      	ldr	r2, [r1, #0]
10006872:	4282      	cmp	r2, r0
10006874:	bf28      	it	cs
10006876:	4770      	bxcs	lr
10006878:	680a      	ldr	r2, [r1, #0]
1000687a:	4282      	cmp	r2, r0
1000687c:	d21e      	bcs.n	100068bc <I2C_txStart+0x170>
1000687e:	680a      	ldr	r2, [r1, #0]
10006880:	4282      	cmp	r2, r0
10006882:	d21b      	bcs.n	100068bc <I2C_txStart+0x170>
10006884:	680a      	ldr	r2, [r1, #0]
10006886:	4282      	cmp	r2, r0
10006888:	d3f2      	bcc.n	10006870 <I2C_txStart+0x124>
1000688a:	e017      	b.n	100068bc <I2C_txStart+0x170>
1000688c:	680b      	ldr	r3, [r1, #0]
1000688e:	4293      	cmp	r3, r2
10006890:	d314      	bcc.n	100068bc <I2C_txStart+0x170>
10006892:	680b      	ldr	r3, [r1, #0]
10006894:	4283      	cmp	r3, r0
10006896:	d211      	bcs.n	100068bc <I2C_txStart+0x170>
10006898:	680b      	ldr	r3, [r1, #0]
1000689a:	4293      	cmp	r3, r2
1000689c:	d30e      	bcc.n	100068bc <I2C_txStart+0x170>
1000689e:	680b      	ldr	r3, [r1, #0]
100068a0:	4283      	cmp	r3, r0
100068a2:	d20b      	bcs.n	100068bc <I2C_txStart+0x170>
100068a4:	680b      	ldr	r3, [r1, #0]
100068a6:	4293      	cmp	r3, r2
100068a8:	d308      	bcc.n	100068bc <I2C_txStart+0x170>
100068aa:	680b      	ldr	r3, [r1, #0]
100068ac:	4283      	cmp	r3, r0
100068ae:	d205      	bcs.n	100068bc <I2C_txStart+0x170>
100068b0:	680b      	ldr	r3, [r1, #0]
100068b2:	4293      	cmp	r3, r2
100068b4:	d302      	bcc.n	100068bc <I2C_txStart+0x170>
100068b6:	680b      	ldr	r3, [r1, #0]
100068b8:	4283      	cmp	r3, r0
100068ba:	d3e7      	bcc.n	1000688c <I2C_txStart+0x140>
100068bc:	4770      	bx	lr

100068be <I2C_txStop>:
100068be:	f242 0118 	movw	r1, #8216	@ 0x2018
100068c2:	2202      	movs	r2, #2
100068c4:	f2c5 0130 	movt	r1, #20528	@ 0x5030
100068c8:	6042      	str	r2, [r0, #4]
100068ca:	680b      	ldr	r3, [r1, #0]
100068cc:	f113 0f10 	cmn.w	r3, #16
100068d0:	f103 0c0f 	add.w	ip, r3, #15
100068d4:	d91c      	bls.n	10006910 <I2C_txStop+0x52>
100068d6:	bf00      	nop
100068d8:	680a      	ldr	r2, [r1, #0]
100068da:	429a      	cmp	r2, r3
100068dc:	d313      	bcc.n	10006906 <I2C_txStop+0x48>
100068de:	680a      	ldr	r2, [r1, #0]
100068e0:	429a      	cmp	r2, r3
100068e2:	d310      	bcc.n	10006906 <I2C_txStop+0x48>
100068e4:	680a      	ldr	r2, [r1, #0]
100068e6:	429a      	cmp	r2, r3
100068e8:	d30d      	bcc.n	10006906 <I2C_txStop+0x48>
100068ea:	680a      	ldr	r2, [r1, #0]
100068ec:	429a      	cmp	r2, r3
100068ee:	d2f3      	bcs.n	100068d8 <I2C_txStop+0x1a>
100068f0:	e009      	b.n	10006906 <I2C_txStop+0x48>
100068f2:	bf00      	nop
100068f4:	680a      	ldr	r2, [r1, #0]
100068f6:	4562      	cmp	r2, ip
100068f8:	d222      	bcs.n	10006940 <I2C_txStop+0x82>
100068fa:	680a      	ldr	r2, [r1, #0]
100068fc:	4562      	cmp	r2, ip
100068fe:	d21f      	bcs.n	10006940 <I2C_txStop+0x82>
10006900:	680a      	ldr	r2, [r1, #0]
10006902:	4562      	cmp	r2, ip
10006904:	d21c      	bcs.n	10006940 <I2C_txStop+0x82>
10006906:	680a      	ldr	r2, [r1, #0]
10006908:	4562      	cmp	r2, ip
1000690a:	d3f3      	bcc.n	100068f4 <I2C_txStop+0x36>
1000690c:	e018      	b.n	10006940 <I2C_txStop+0x82>
1000690e:	bf00      	nop
10006910:	680a      	ldr	r2, [r1, #0]
10006912:	429a      	cmp	r2, r3
10006914:	d314      	bcc.n	10006940 <I2C_txStop+0x82>
10006916:	680a      	ldr	r2, [r1, #0]
10006918:	4562      	cmp	r2, ip
1000691a:	d211      	bcs.n	10006940 <I2C_txStop+0x82>
1000691c:	680a      	ldr	r2, [r1, #0]
1000691e:	429a      	cmp	r2, r3
10006920:	d30e      	bcc.n	10006940 <I2C_txStop+0x82>
10006922:	680a      	ldr	r2, [r1, #0]
10006924:	4562      	cmp	r2, ip
10006926:	d20b      	bcs.n	10006940 <I2C_txStop+0x82>
10006928:	680a      	ldr	r2, [r1, #0]
1000692a:	429a      	cmp	r2, r3
1000692c:	d308      	bcc.n	10006940 <I2C_txStop+0x82>
1000692e:	680a      	ldr	r2, [r1, #0]
10006930:	4562      	cmp	r2, ip
10006932:	d205      	bcs.n	10006940 <I2C_txStop+0x82>
10006934:	680a      	ldr	r2, [r1, #0]
10006936:	429a      	cmp	r2, r3
10006938:	d302      	bcc.n	10006940 <I2C_txStop+0x82>
1000693a:	680a      	ldr	r2, [r1, #0]
1000693c:	4562      	cmp	r2, ip
1000693e:	d3e7      	bcc.n	10006910 <I2C_txStop+0x52>
10006940:	2201      	movs	r2, #1
10006942:	6002      	str	r2, [r0, #0]
10006944:	680b      	ldr	r3, [r1, #0]
10006946:	f113 0f10 	cmn.w	r3, #16
1000694a:	f103 0c0f 	add.w	ip, r3, #15
1000694e:	d91b      	bls.n	10006988 <I2C_txStop+0xca>
10006950:	680a      	ldr	r2, [r1, #0]
10006952:	429a      	cmp	r2, r3
10006954:	d313      	bcc.n	1000697e <I2C_txStop+0xc0>
10006956:	680a      	ldr	r2, [r1, #0]
10006958:	429a      	cmp	r2, r3
1000695a:	d310      	bcc.n	1000697e <I2C_txStop+0xc0>
1000695c:	680a      	ldr	r2, [r1, #0]
1000695e:	429a      	cmp	r2, r3
10006960:	d30d      	bcc.n	1000697e <I2C_txStop+0xc0>
10006962:	680a      	ldr	r2, [r1, #0]
10006964:	429a      	cmp	r2, r3
10006966:	d2f3      	bcs.n	10006950 <I2C_txStop+0x92>
10006968:	e009      	b.n	1000697e <I2C_txStop+0xc0>
1000696a:	bf00      	nop
1000696c:	680a      	ldr	r2, [r1, #0]
1000696e:	4562      	cmp	r2, ip
10006970:	d222      	bcs.n	100069b8 <I2C_txStop+0xfa>
10006972:	680a      	ldr	r2, [r1, #0]
10006974:	4562      	cmp	r2, ip
10006976:	d21f      	bcs.n	100069b8 <I2C_txStop+0xfa>
10006978:	680a      	ldr	r2, [r1, #0]
1000697a:	4562      	cmp	r2, ip
1000697c:	d21c      	bcs.n	100069b8 <I2C_txStop+0xfa>
1000697e:	680a      	ldr	r2, [r1, #0]
10006980:	4562      	cmp	r2, ip
10006982:	d3f3      	bcc.n	1000696c <I2C_txStop+0xae>
10006984:	e018      	b.n	100069b8 <I2C_txStop+0xfa>
10006986:	bf00      	nop
10006988:	680a      	ldr	r2, [r1, #0]
1000698a:	429a      	cmp	r2, r3
1000698c:	d314      	bcc.n	100069b8 <I2C_txStop+0xfa>
1000698e:	680a      	ldr	r2, [r1, #0]
10006990:	4562      	cmp	r2, ip
10006992:	d211      	bcs.n	100069b8 <I2C_txStop+0xfa>
10006994:	680a      	ldr	r2, [r1, #0]
10006996:	429a      	cmp	r2, r3
10006998:	d30e      	bcc.n	100069b8 <I2C_txStop+0xfa>
1000699a:	680a      	ldr	r2, [r1, #0]
1000699c:	4562      	cmp	r2, ip
1000699e:	d20b      	bcs.n	100069b8 <I2C_txStop+0xfa>
100069a0:	680a      	ldr	r2, [r1, #0]
100069a2:	429a      	cmp	r2, r3
100069a4:	d308      	bcc.n	100069b8 <I2C_txStop+0xfa>
100069a6:	680a      	ldr	r2, [r1, #0]
100069a8:	4562      	cmp	r2, ip
100069aa:	d205      	bcs.n	100069b8 <I2C_txStop+0xfa>
100069ac:	680a      	ldr	r2, [r1, #0]
100069ae:	429a      	cmp	r2, r3
100069b0:	d302      	bcc.n	100069b8 <I2C_txStop+0xfa>
100069b2:	680a      	ldr	r2, [r1, #0]
100069b4:	4562      	cmp	r2, ip
100069b6:	d3e7      	bcc.n	10006988 <I2C_txStop+0xca>
100069b8:	2202      	movs	r2, #2
100069ba:	6002      	str	r2, [r0, #0]
100069bc:	680a      	ldr	r2, [r1, #0]
100069be:	f112 0f10 	cmn.w	r2, #16
100069c2:	f102 000f 	add.w	r0, r2, #15
100069c6:	d91b      	bls.n	10006a00 <I2C_txStop+0x142>
100069c8:	680b      	ldr	r3, [r1, #0]
100069ca:	4293      	cmp	r3, r2
100069cc:	d311      	bcc.n	100069f2 <I2C_txStop+0x134>
100069ce:	680b      	ldr	r3, [r1, #0]
100069d0:	4293      	cmp	r3, r2
100069d2:	d30e      	bcc.n	100069f2 <I2C_txStop+0x134>
100069d4:	680b      	ldr	r3, [r1, #0]
100069d6:	4293      	cmp	r3, r2
100069d8:	d30b      	bcc.n	100069f2 <I2C_txStop+0x134>
100069da:	680b      	ldr	r3, [r1, #0]
100069dc:	4293      	cmp	r3, r2
100069de:	d2f3      	bcs.n	100069c8 <I2C_txStop+0x10a>
100069e0:	e007      	b.n	100069f2 <I2C_txStop+0x134>
100069e2:	bf00      	nop
100069e4:	680a      	ldr	r2, [r1, #0]
100069e6:	4282      	cmp	r2, r0
100069e8:	bf28      	it	cs
100069ea:	4770      	bxcs	lr
100069ec:	680a      	ldr	r2, [r1, #0]
100069ee:	4282      	cmp	r2, r0
100069f0:	d21e      	bcs.n	10006a30 <I2C_txStop+0x172>
100069f2:	680a      	ldr	r2, [r1, #0]
100069f4:	4282      	cmp	r2, r0
100069f6:	d21b      	bcs.n	10006a30 <I2C_txStop+0x172>
100069f8:	680a      	ldr	r2, [r1, #0]
100069fa:	4282      	cmp	r2, r0
100069fc:	d3f2      	bcc.n	100069e4 <I2C_txStop+0x126>
100069fe:	e017      	b.n	10006a30 <I2C_txStop+0x172>
10006a00:	680b      	ldr	r3, [r1, #0]
10006a02:	4293      	cmp	r3, r2
10006a04:	d314      	bcc.n	10006a30 <I2C_txStop+0x172>
10006a06:	680b      	ldr	r3, [r1, #0]
10006a08:	4283      	cmp	r3, r0
10006a0a:	d211      	bcs.n	10006a30 <I2C_txStop+0x172>
10006a0c:	680b      	ldr	r3, [r1, #0]
10006a0e:	4293      	cmp	r3, r2
10006a10:	d30e      	bcc.n	10006a30 <I2C_txStop+0x172>
10006a12:	680b      	ldr	r3, [r1, #0]
10006a14:	4283      	cmp	r3, r0
10006a16:	d20b      	bcs.n	10006a30 <I2C_txStop+0x172>
10006a18:	680b      	ldr	r3, [r1, #0]
10006a1a:	4293      	cmp	r3, r2
10006a1c:	d308      	bcc.n	10006a30 <I2C_txStop+0x172>
10006a1e:	680b      	ldr	r3, [r1, #0]
10006a20:	4283      	cmp	r3, r0
10006a22:	d205      	bcs.n	10006a30 <I2C_txStop+0x172>
10006a24:	680b      	ldr	r3, [r1, #0]
10006a26:	4293      	cmp	r3, r2
10006a28:	d302      	bcc.n	10006a30 <I2C_txStop+0x172>
10006a2a:	680b      	ldr	r3, [r1, #0]
10006a2c:	4283      	cmp	r3, r0
10006a2e:	d3e7      	bcc.n	10006a00 <I2C_txStop+0x142>
10006a30:	4770      	bx	lr

10006a32 <I2C_txBit>:
10006a32:	f242 0218 	movw	r2, #8216	@ 0x2018
10006a36:	2900      	cmp	r1, #0
10006a38:	4601      	mov	r1, r0
10006a3a:	f04f 0302 	mov.w	r3, #2
10006a3e:	f2c5 0230 	movt	r2, #20528	@ 0x5030
10006a42:	bf08      	it	eq
10006a44:	3104      	addeq	r1, #4
10006a46:	600b      	str	r3, [r1, #0]
10006a48:	6813      	ldr	r3, [r2, #0]
10006a4a:	f113 0f10 	cmn.w	r3, #16
10006a4e:	f103 0c0f 	add.w	ip, r3, #15
10006a52:	d91b      	bls.n	10006a8c <I2C_txBit+0x5a>
10006a54:	6811      	ldr	r1, [r2, #0]
10006a56:	4299      	cmp	r1, r3
10006a58:	d313      	bcc.n	10006a82 <I2C_txBit+0x50>
10006a5a:	6811      	ldr	r1, [r2, #0]
10006a5c:	4299      	cmp	r1, r3
10006a5e:	d310      	bcc.n	10006a82 <I2C_txBit+0x50>
10006a60:	6811      	ldr	r1, [r2, #0]
10006a62:	4299      	cmp	r1, r3
10006a64:	d30d      	bcc.n	10006a82 <I2C_txBit+0x50>
10006a66:	6811      	ldr	r1, [r2, #0]
10006a68:	4299      	cmp	r1, r3
10006a6a:	d2f3      	bcs.n	10006a54 <I2C_txBit+0x22>
10006a6c:	e009      	b.n	10006a82 <I2C_txBit+0x50>
10006a6e:	bf00      	nop
10006a70:	6811      	ldr	r1, [r2, #0]
10006a72:	4561      	cmp	r1, ip
10006a74:	d222      	bcs.n	10006abc <I2C_txBit+0x8a>
10006a76:	6811      	ldr	r1, [r2, #0]
10006a78:	4561      	cmp	r1, ip
10006a7a:	d21f      	bcs.n	10006abc <I2C_txBit+0x8a>
10006a7c:	6811      	ldr	r1, [r2, #0]
10006a7e:	4561      	cmp	r1, ip
10006a80:	d21c      	bcs.n	10006abc <I2C_txBit+0x8a>
10006a82:	6811      	ldr	r1, [r2, #0]
10006a84:	4561      	cmp	r1, ip
10006a86:	d3f3      	bcc.n	10006a70 <I2C_txBit+0x3e>
10006a88:	e018      	b.n	10006abc <I2C_txBit+0x8a>
10006a8a:	bf00      	nop
10006a8c:	6811      	ldr	r1, [r2, #0]
10006a8e:	4299      	cmp	r1, r3
10006a90:	d314      	bcc.n	10006abc <I2C_txBit+0x8a>
10006a92:	6811      	ldr	r1, [r2, #0]
10006a94:	4561      	cmp	r1, ip
10006a96:	d211      	bcs.n	10006abc <I2C_txBit+0x8a>
10006a98:	6811      	ldr	r1, [r2, #0]
10006a9a:	4299      	cmp	r1, r3
10006a9c:	d30e      	bcc.n	10006abc <I2C_txBit+0x8a>
10006a9e:	6811      	ldr	r1, [r2, #0]
10006aa0:	4561      	cmp	r1, ip
10006aa2:	d20b      	bcs.n	10006abc <I2C_txBit+0x8a>
10006aa4:	6811      	ldr	r1, [r2, #0]
10006aa6:	4299      	cmp	r1, r3
10006aa8:	d308      	bcc.n	10006abc <I2C_txBit+0x8a>
10006aaa:	6811      	ldr	r1, [r2, #0]
10006aac:	4561      	cmp	r1, ip
10006aae:	d205      	bcs.n	10006abc <I2C_txBit+0x8a>
10006ab0:	6811      	ldr	r1, [r2, #0]
10006ab2:	4299      	cmp	r1, r3
10006ab4:	d302      	bcc.n	10006abc <I2C_txBit+0x8a>
10006ab6:	6811      	ldr	r1, [r2, #0]
10006ab8:	4561      	cmp	r1, ip
10006aba:	d3e7      	bcc.n	10006a8c <I2C_txBit+0x5a>
10006abc:	2101      	movs	r1, #1
10006abe:	6001      	str	r1, [r0, #0]
10006ac0:	6813      	ldr	r3, [r2, #0]
10006ac2:	f113 0f10 	cmn.w	r3, #16
10006ac6:	f103 0c0f 	add.w	ip, r3, #15
10006aca:	d91b      	bls.n	10006b04 <I2C_txBit+0xd2>
10006acc:	6811      	ldr	r1, [r2, #0]
10006ace:	4299      	cmp	r1, r3
10006ad0:	d313      	bcc.n	10006afa <I2C_txBit+0xc8>
10006ad2:	6811      	ldr	r1, [r2, #0]
10006ad4:	4299      	cmp	r1, r3
10006ad6:	d310      	bcc.n	10006afa <I2C_txBit+0xc8>
10006ad8:	6811      	ldr	r1, [r2, #0]
10006ada:	4299      	cmp	r1, r3
10006adc:	d30d      	bcc.n	10006afa <I2C_txBit+0xc8>
10006ade:	6811      	ldr	r1, [r2, #0]
10006ae0:	4299      	cmp	r1, r3
10006ae2:	d2f3      	bcs.n	10006acc <I2C_txBit+0x9a>
10006ae4:	e009      	b.n	10006afa <I2C_txBit+0xc8>
10006ae6:	bf00      	nop
10006ae8:	6811      	ldr	r1, [r2, #0]
10006aea:	4561      	cmp	r1, ip
10006aec:	d222      	bcs.n	10006b34 <I2C_txBit+0x102>
10006aee:	6811      	ldr	r1, [r2, #0]
10006af0:	4561      	cmp	r1, ip
10006af2:	d21f      	bcs.n	10006b34 <I2C_txBit+0x102>
10006af4:	6811      	ldr	r1, [r2, #0]
10006af6:	4561      	cmp	r1, ip
10006af8:	d21c      	bcs.n	10006b34 <I2C_txBit+0x102>
10006afa:	6811      	ldr	r1, [r2, #0]
10006afc:	4561      	cmp	r1, ip
10006afe:	d3f3      	bcc.n	10006ae8 <I2C_txBit+0xb6>
10006b00:	e018      	b.n	10006b34 <I2C_txBit+0x102>
10006b02:	bf00      	nop
10006b04:	6811      	ldr	r1, [r2, #0]
10006b06:	4299      	cmp	r1, r3
10006b08:	d314      	bcc.n	10006b34 <I2C_txBit+0x102>
10006b0a:	6811      	ldr	r1, [r2, #0]
10006b0c:	4561      	cmp	r1, ip
10006b0e:	d211      	bcs.n	10006b34 <I2C_txBit+0x102>
10006b10:	6811      	ldr	r1, [r2, #0]
10006b12:	4299      	cmp	r1, r3
10006b14:	d30e      	bcc.n	10006b34 <I2C_txBit+0x102>
10006b16:	6811      	ldr	r1, [r2, #0]
10006b18:	4561      	cmp	r1, ip
10006b1a:	d20b      	bcs.n	10006b34 <I2C_txBit+0x102>
10006b1c:	6811      	ldr	r1, [r2, #0]
10006b1e:	4299      	cmp	r1, r3
10006b20:	d308      	bcc.n	10006b34 <I2C_txBit+0x102>
10006b22:	6811      	ldr	r1, [r2, #0]
10006b24:	4561      	cmp	r1, ip
10006b26:	d205      	bcs.n	10006b34 <I2C_txBit+0x102>
10006b28:	6811      	ldr	r1, [r2, #0]
10006b2a:	4299      	cmp	r1, r3
10006b2c:	d302      	bcc.n	10006b34 <I2C_txBit+0x102>
10006b2e:	6811      	ldr	r1, [r2, #0]
10006b30:	4561      	cmp	r1, ip
10006b32:	d3e7      	bcc.n	10006b04 <I2C_txBit+0xd2>
10006b34:	2101      	movs	r1, #1
10006b36:	6041      	str	r1, [r0, #4]
10006b38:	4770      	bx	lr

10006b3a <I2C_rxBit>:
10006b3a:	4684      	mov	ip, r0
10006b3c:	f242 0018 	movw	r0, #8216	@ 0x2018
10006b40:	2202      	movs	r2, #2
10006b42:	f2c5 0030 	movt	r0, #20528	@ 0x5030
10006b46:	f8cc 2000 	str.w	r2, [ip]
10006b4a:	6803      	ldr	r3, [r0, #0]
10006b4c:	f113 0f10 	cmn.w	r3, #16
10006b50:	f103 020f 	add.w	r2, r3, #15
10006b54:	d91c      	bls.n	10006b90 <I2C_rxBit+0x56>
10006b56:	bf00      	nop
10006b58:	6801      	ldr	r1, [r0, #0]
10006b5a:	4299      	cmp	r1, r3
10006b5c:	d313      	bcc.n	10006b86 <I2C_rxBit+0x4c>
10006b5e:	6801      	ldr	r1, [r0, #0]
10006b60:	4299      	cmp	r1, r3
10006b62:	d310      	bcc.n	10006b86 <I2C_rxBit+0x4c>
10006b64:	6801      	ldr	r1, [r0, #0]
10006b66:	4299      	cmp	r1, r3
10006b68:	d30d      	bcc.n	10006b86 <I2C_rxBit+0x4c>
10006b6a:	6801      	ldr	r1, [r0, #0]
10006b6c:	4299      	cmp	r1, r3
10006b6e:	d2f3      	bcs.n	10006b58 <I2C_rxBit+0x1e>
10006b70:	e009      	b.n	10006b86 <I2C_rxBit+0x4c>
10006b72:	bf00      	nop
10006b74:	6801      	ldr	r1, [r0, #0]
10006b76:	4291      	cmp	r1, r2
10006b78:	d222      	bcs.n	10006bc0 <I2C_rxBit+0x86>
10006b7a:	6801      	ldr	r1, [r0, #0]
10006b7c:	4291      	cmp	r1, r2
10006b7e:	d21f      	bcs.n	10006bc0 <I2C_rxBit+0x86>
10006b80:	6801      	ldr	r1, [r0, #0]
10006b82:	4291      	cmp	r1, r2
10006b84:	d21c      	bcs.n	10006bc0 <I2C_rxBit+0x86>
10006b86:	6801      	ldr	r1, [r0, #0]
10006b88:	4291      	cmp	r1, r2
10006b8a:	d3f3      	bcc.n	10006b74 <I2C_rxBit+0x3a>
10006b8c:	e018      	b.n	10006bc0 <I2C_rxBit+0x86>
10006b8e:	bf00      	nop
10006b90:	6801      	ldr	r1, [r0, #0]
10006b92:	4299      	cmp	r1, r3
10006b94:	d314      	bcc.n	10006bc0 <I2C_rxBit+0x86>
10006b96:	6801      	ldr	r1, [r0, #0]
10006b98:	4291      	cmp	r1, r2
10006b9a:	d211      	bcs.n	10006bc0 <I2C_rxBit+0x86>
10006b9c:	6801      	ldr	r1, [r0, #0]
10006b9e:	4299      	cmp	r1, r3
10006ba0:	d30e      	bcc.n	10006bc0 <I2C_rxBit+0x86>
10006ba2:	6801      	ldr	r1, [r0, #0]
10006ba4:	4291      	cmp	r1, r2
10006ba6:	d20b      	bcs.n	10006bc0 <I2C_rxBit+0x86>
10006ba8:	6801      	ldr	r1, [r0, #0]
10006baa:	4299      	cmp	r1, r3
10006bac:	d308      	bcc.n	10006bc0 <I2C_rxBit+0x86>
10006bae:	6801      	ldr	r1, [r0, #0]
10006bb0:	4291      	cmp	r1, r2
10006bb2:	d205      	bcs.n	10006bc0 <I2C_rxBit+0x86>
10006bb4:	6801      	ldr	r1, [r0, #0]
10006bb6:	4299      	cmp	r1, r3
10006bb8:	d302      	bcc.n	10006bc0 <I2C_rxBit+0x86>
10006bba:	6801      	ldr	r1, [r0, #0]
10006bbc:	4291      	cmp	r1, r2
10006bbe:	d3e7      	bcc.n	10006b90 <I2C_rxBit+0x56>
10006bc0:	2101      	movs	r1, #1
10006bc2:	f8cc 1000 	str.w	r1, [ip]
10006bc6:	6803      	ldr	r3, [r0, #0]
10006bc8:	f113 0f10 	cmn.w	r3, #16
10006bcc:	f103 020f 	add.w	r2, r3, #15
10006bd0:	d91c      	bls.n	10006c0c <I2C_rxBit+0xd2>
10006bd2:	bf00      	nop
10006bd4:	6801      	ldr	r1, [r0, #0]
10006bd6:	4299      	cmp	r1, r3
10006bd8:	d313      	bcc.n	10006c02 <I2C_rxBit+0xc8>
10006bda:	6801      	ldr	r1, [r0, #0]
10006bdc:	4299      	cmp	r1, r3
10006bde:	d310      	bcc.n	10006c02 <I2C_rxBit+0xc8>
10006be0:	6801      	ldr	r1, [r0, #0]
10006be2:	4299      	cmp	r1, r3
10006be4:	d30d      	bcc.n	10006c02 <I2C_rxBit+0xc8>
10006be6:	6801      	ldr	r1, [r0, #0]
10006be8:	4299      	cmp	r1, r3
10006bea:	d2f3      	bcs.n	10006bd4 <I2C_rxBit+0x9a>
10006bec:	e009      	b.n	10006c02 <I2C_rxBit+0xc8>
10006bee:	bf00      	nop
10006bf0:	6801      	ldr	r1, [r0, #0]
10006bf2:	4291      	cmp	r1, r2
10006bf4:	d222      	bcs.n	10006c3c <I2C_rxBit+0x102>
10006bf6:	6801      	ldr	r1, [r0, #0]
10006bf8:	4291      	cmp	r1, r2
10006bfa:	d21f      	bcs.n	10006c3c <I2C_rxBit+0x102>
10006bfc:	6801      	ldr	r1, [r0, #0]
10006bfe:	4291      	cmp	r1, r2
10006c00:	d21c      	bcs.n	10006c3c <I2C_rxBit+0x102>
10006c02:	6801      	ldr	r1, [r0, #0]
10006c04:	4291      	cmp	r1, r2
10006c06:	d3f3      	bcc.n	10006bf0 <I2C_rxBit+0xb6>
10006c08:	e018      	b.n	10006c3c <I2C_rxBit+0x102>
10006c0a:	bf00      	nop
10006c0c:	6801      	ldr	r1, [r0, #0]
10006c0e:	4299      	cmp	r1, r3
10006c10:	d314      	bcc.n	10006c3c <I2C_rxBit+0x102>
10006c12:	6801      	ldr	r1, [r0, #0]
10006c14:	4291      	cmp	r1, r2
10006c16:	d211      	bcs.n	10006c3c <I2C_rxBit+0x102>
10006c18:	6801      	ldr	r1, [r0, #0]
10006c1a:	4299      	cmp	r1, r3
10006c1c:	d30e      	bcc.n	10006c3c <I2C_rxBit+0x102>
10006c1e:	6801      	ldr	r1, [r0, #0]
10006c20:	4291      	cmp	r1, r2
10006c22:	d20b      	bcs.n	10006c3c <I2C_rxBit+0x102>
10006c24:	6801      	ldr	r1, [r0, #0]
10006c26:	4299      	cmp	r1, r3
10006c28:	d308      	bcc.n	10006c3c <I2C_rxBit+0x102>
10006c2a:	6801      	ldr	r1, [r0, #0]
10006c2c:	4291      	cmp	r1, r2
10006c2e:	d205      	bcs.n	10006c3c <I2C_rxBit+0x102>
10006c30:	6801      	ldr	r1, [r0, #0]
10006c32:	4299      	cmp	r1, r3
10006c34:	d302      	bcc.n	10006c3c <I2C_rxBit+0x102>
10006c36:	6801      	ldr	r1, [r0, #0]
10006c38:	4291      	cmp	r1, r2
10006c3a:	d3e7      	bcc.n	10006c0c <I2C_rxBit+0xd2>
10006c3c:	f8dc 0000 	ldr.w	r0, [ip]
10006c40:	2101      	movs	r1, #1
10006c42:	f3c0 0040 	ubfx	r0, r0, #1, #1
10006c46:	f8cc 1004 	str.w	r1, [ip, #4]
10006c4a:	4770      	bx	lr

10006c4c <I2C_rxAck>:
10006c4c:	4684      	mov	ip, r0
10006c4e:	f242 0018 	movw	r0, #8216	@ 0x2018
10006c52:	2202      	movs	r2, #2
10006c54:	f2c5 0030 	movt	r0, #20528	@ 0x5030
10006c58:	f8cc 2000 	str.w	r2, [ip]
10006c5c:	6803      	ldr	r3, [r0, #0]
10006c5e:	f113 0f10 	cmn.w	r3, #16
10006c62:	f103 020f 	add.w	r2, r3, #15
10006c66:	d91b      	bls.n	10006ca0 <I2C_rxAck+0x54>
10006c68:	6801      	ldr	r1, [r0, #0]
10006c6a:	4299      	cmp	r1, r3
10006c6c:	d313      	bcc.n	10006c96 <I2C_rxAck+0x4a>
10006c6e:	6801      	ldr	r1, [r0, #0]
10006c70:	4299      	cmp	r1, r3
10006c72:	d310      	bcc.n	10006c96 <I2C_rxAck+0x4a>
10006c74:	6801      	ldr	r1, [r0, #0]
10006c76:	4299      	cmp	r1, r3
10006c78:	d30d      	bcc.n	10006c96 <I2C_rxAck+0x4a>
10006c7a:	6801      	ldr	r1, [r0, #0]
10006c7c:	4299      	cmp	r1, r3
10006c7e:	d2f3      	bcs.n	10006c68 <I2C_rxAck+0x1c>
10006c80:	e009      	b.n	10006c96 <I2C_rxAck+0x4a>
10006c82:	bf00      	nop
10006c84:	6801      	ldr	r1, [r0, #0]
10006c86:	4291      	cmp	r1, r2
10006c88:	d222      	bcs.n	10006cd0 <I2C_rxAck+0x84>
10006c8a:	6801      	ldr	r1, [r0, #0]
10006c8c:	4291      	cmp	r1, r2
10006c8e:	d21f      	bcs.n	10006cd0 <I2C_rxAck+0x84>
10006c90:	6801      	ldr	r1, [r0, #0]
10006c92:	4291      	cmp	r1, r2
10006c94:	d21c      	bcs.n	10006cd0 <I2C_rxAck+0x84>
10006c96:	6801      	ldr	r1, [r0, #0]
10006c98:	4291      	cmp	r1, r2
10006c9a:	d3f3      	bcc.n	10006c84 <I2C_rxAck+0x38>
10006c9c:	e018      	b.n	10006cd0 <I2C_rxAck+0x84>
10006c9e:	bf00      	nop
10006ca0:	6801      	ldr	r1, [r0, #0]
10006ca2:	4299      	cmp	r1, r3
10006ca4:	d314      	bcc.n	10006cd0 <I2C_rxAck+0x84>
10006ca6:	6801      	ldr	r1, [r0, #0]
10006ca8:	4291      	cmp	r1, r2
10006caa:	d211      	bcs.n	10006cd0 <I2C_rxAck+0x84>
10006cac:	6801      	ldr	r1, [r0, #0]
10006cae:	4299      	cmp	r1, r3
10006cb0:	d30e      	bcc.n	10006cd0 <I2C_rxAck+0x84>
10006cb2:	6801      	ldr	r1, [r0, #0]
10006cb4:	4291      	cmp	r1, r2
10006cb6:	d20b      	bcs.n	10006cd0 <I2C_rxAck+0x84>
10006cb8:	6801      	ldr	r1, [r0, #0]
10006cba:	4299      	cmp	r1, r3
10006cbc:	d308      	bcc.n	10006cd0 <I2C_rxAck+0x84>
10006cbe:	6801      	ldr	r1, [r0, #0]
10006cc0:	4291      	cmp	r1, r2
10006cc2:	d205      	bcs.n	10006cd0 <I2C_rxAck+0x84>
10006cc4:	6801      	ldr	r1, [r0, #0]
10006cc6:	4299      	cmp	r1, r3
10006cc8:	d302      	bcc.n	10006cd0 <I2C_rxAck+0x84>
10006cca:	6801      	ldr	r1, [r0, #0]
10006ccc:	4291      	cmp	r1, r2
10006cce:	d3e7      	bcc.n	10006ca0 <I2C_rxAck+0x54>
10006cd0:	2101      	movs	r1, #1
10006cd2:	f8cc 1000 	str.w	r1, [ip]
10006cd6:	6803      	ldr	r3, [r0, #0]
10006cd8:	f113 0f10 	cmn.w	r3, #16
10006cdc:	f103 020f 	add.w	r2, r3, #15
10006ce0:	d91c      	bls.n	10006d1c <I2C_rxAck+0xd0>
10006ce2:	bf00      	nop
10006ce4:	6801      	ldr	r1, [r0, #0]
10006ce6:	4299      	cmp	r1, r3
10006ce8:	d313      	bcc.n	10006d12 <I2C_rxAck+0xc6>
10006cea:	6801      	ldr	r1, [r0, #0]
10006cec:	4299      	cmp	r1, r3
10006cee:	d310      	bcc.n	10006d12 <I2C_rxAck+0xc6>
10006cf0:	6801      	ldr	r1, [r0, #0]
10006cf2:	4299      	cmp	r1, r3
10006cf4:	d30d      	bcc.n	10006d12 <I2C_rxAck+0xc6>
10006cf6:	6801      	ldr	r1, [r0, #0]
10006cf8:	4299      	cmp	r1, r3
10006cfa:	d2f3      	bcs.n	10006ce4 <I2C_rxAck+0x98>
10006cfc:	e009      	b.n	10006d12 <I2C_rxAck+0xc6>
10006cfe:	bf00      	nop
10006d00:	6801      	ldr	r1, [r0, #0]
10006d02:	4291      	cmp	r1, r2
10006d04:	d222      	bcs.n	10006d4c <I2C_rxAck+0x100>
10006d06:	6801      	ldr	r1, [r0, #0]
10006d08:	4291      	cmp	r1, r2
10006d0a:	d21f      	bcs.n	10006d4c <I2C_rxAck+0x100>
10006d0c:	6801      	ldr	r1, [r0, #0]
10006d0e:	4291      	cmp	r1, r2
10006d10:	d21c      	bcs.n	10006d4c <I2C_rxAck+0x100>
10006d12:	6801      	ldr	r1, [r0, #0]
10006d14:	4291      	cmp	r1, r2
10006d16:	d3f3      	bcc.n	10006d00 <I2C_rxAck+0xb4>
10006d18:	e018      	b.n	10006d4c <I2C_rxAck+0x100>
10006d1a:	bf00      	nop
10006d1c:	6801      	ldr	r1, [r0, #0]
10006d1e:	4299      	cmp	r1, r3
10006d20:	d314      	bcc.n	10006d4c <I2C_rxAck+0x100>
10006d22:	6801      	ldr	r1, [r0, #0]
10006d24:	4291      	cmp	r1, r2
10006d26:	d211      	bcs.n	10006d4c <I2C_rxAck+0x100>
10006d28:	6801      	ldr	r1, [r0, #0]
10006d2a:	4299      	cmp	r1, r3
10006d2c:	d30e      	bcc.n	10006d4c <I2C_rxAck+0x100>
10006d2e:	6801      	ldr	r1, [r0, #0]
10006d30:	4291      	cmp	r1, r2
10006d32:	d20b      	bcs.n	10006d4c <I2C_rxAck+0x100>
10006d34:	6801      	ldr	r1, [r0, #0]
10006d36:	4299      	cmp	r1, r3
10006d38:	d308      	bcc.n	10006d4c <I2C_rxAck+0x100>
10006d3a:	6801      	ldr	r1, [r0, #0]
10006d3c:	4291      	cmp	r1, r2
10006d3e:	d205      	bcs.n	10006d4c <I2C_rxAck+0x100>
10006d40:	6801      	ldr	r1, [r0, #0]
10006d42:	4299      	cmp	r1, r3
10006d44:	d302      	bcc.n	10006d4c <I2C_rxAck+0x100>
10006d46:	6801      	ldr	r1, [r0, #0]
10006d48:	4291      	cmp	r1, r2
10006d4a:	d3e7      	bcc.n	10006d1c <I2C_rxAck+0xd0>
10006d4c:	f8dc 0000 	ldr.w	r0, [ip]
10006d50:	2101      	movs	r1, #1
10006d52:	f3c0 0040 	ubfx	r0, r0, #1, #1
10006d56:	f8cc 1004 	str.w	r1, [ip, #4]
10006d5a:	4770      	bx	lr

10006d5c <I2C_txAck>:
10006d5c:	f242 0218 	movw	r2, #8216	@ 0x2018
10006d60:	2900      	cmp	r1, #0
10006d62:	4601      	mov	r1, r0
10006d64:	f04f 0302 	mov.w	r3, #2
10006d68:	f2c5 0230 	movt	r2, #20528	@ 0x5030
10006d6c:	bf08      	it	eq
10006d6e:	3104      	addeq	r1, #4
10006d70:	600b      	str	r3, [r1, #0]
10006d72:	6813      	ldr	r3, [r2, #0]
10006d74:	f113 0f10 	cmn.w	r3, #16
10006d78:	f103 0c0f 	add.w	ip, r3, #15
10006d7c:	d91c      	bls.n	10006db8 <I2C_txAck+0x5c>
10006d7e:	bf00      	nop
10006d80:	6811      	ldr	r1, [r2, #0]
10006d82:	4299      	cmp	r1, r3
10006d84:	d313      	bcc.n	10006dae <I2C_txAck+0x52>
10006d86:	6811      	ldr	r1, [r2, #0]
10006d88:	4299      	cmp	r1, r3
10006d8a:	d310      	bcc.n	10006dae <I2C_txAck+0x52>
10006d8c:	6811      	ldr	r1, [r2, #0]
10006d8e:	4299      	cmp	r1, r3
10006d90:	d30d      	bcc.n	10006dae <I2C_txAck+0x52>
10006d92:	6811      	ldr	r1, [r2, #0]
10006d94:	4299      	cmp	r1, r3
10006d96:	d2f3      	bcs.n	10006d80 <I2C_txAck+0x24>
10006d98:	e009      	b.n	10006dae <I2C_txAck+0x52>
10006d9a:	bf00      	nop
10006d9c:	6811      	ldr	r1, [r2, #0]
10006d9e:	4561      	cmp	r1, ip
10006da0:	d222      	bcs.n	10006de8 <I2C_txAck+0x8c>
10006da2:	6811      	ldr	r1, [r2, #0]
10006da4:	4561      	cmp	r1, ip
10006da6:	d21f      	bcs.n	10006de8 <I2C_txAck+0x8c>
10006da8:	6811      	ldr	r1, [r2, #0]
10006daa:	4561      	cmp	r1, ip
10006dac:	d21c      	bcs.n	10006de8 <I2C_txAck+0x8c>
10006dae:	6811      	ldr	r1, [r2, #0]
10006db0:	4561      	cmp	r1, ip
10006db2:	d3f3      	bcc.n	10006d9c <I2C_txAck+0x40>
10006db4:	e018      	b.n	10006de8 <I2C_txAck+0x8c>
10006db6:	bf00      	nop
10006db8:	6811      	ldr	r1, [r2, #0]
10006dba:	4299      	cmp	r1, r3
10006dbc:	d314      	bcc.n	10006de8 <I2C_txAck+0x8c>
10006dbe:	6811      	ldr	r1, [r2, #0]
10006dc0:	4561      	cmp	r1, ip
10006dc2:	d211      	bcs.n	10006de8 <I2C_txAck+0x8c>
10006dc4:	6811      	ldr	r1, [r2, #0]
10006dc6:	4299      	cmp	r1, r3
10006dc8:	d30e      	bcc.n	10006de8 <I2C_txAck+0x8c>
10006dca:	6811      	ldr	r1, [r2, #0]
10006dcc:	4561      	cmp	r1, ip
10006dce:	d20b      	bcs.n	10006de8 <I2C_txAck+0x8c>
10006dd0:	6811      	ldr	r1, [r2, #0]
10006dd2:	4299      	cmp	r1, r3
10006dd4:	d308      	bcc.n	10006de8 <I2C_txAck+0x8c>
10006dd6:	6811      	ldr	r1, [r2, #0]
10006dd8:	4561      	cmp	r1, ip
10006dda:	d205      	bcs.n	10006de8 <I2C_txAck+0x8c>
10006ddc:	6811      	ldr	r1, [r2, #0]
10006dde:	4299      	cmp	r1, r3
10006de0:	d302      	bcc.n	10006de8 <I2C_txAck+0x8c>
10006de2:	6811      	ldr	r1, [r2, #0]
10006de4:	4561      	cmp	r1, ip
10006de6:	d3e7      	bcc.n	10006db8 <I2C_txAck+0x5c>
10006de8:	2101      	movs	r1, #1
10006dea:	6001      	str	r1, [r0, #0]
10006dec:	6813      	ldr	r3, [r2, #0]
10006dee:	f113 0f10 	cmn.w	r3, #16
10006df2:	f103 0c0f 	add.w	ip, r3, #15
10006df6:	d91b      	bls.n	10006e30 <I2C_txAck+0xd4>
10006df8:	6811      	ldr	r1, [r2, #0]
10006dfa:	4299      	cmp	r1, r3
10006dfc:	d313      	bcc.n	10006e26 <I2C_txAck+0xca>
10006dfe:	6811      	ldr	r1, [r2, #0]
10006e00:	4299      	cmp	r1, r3
10006e02:	d310      	bcc.n	10006e26 <I2C_txAck+0xca>
10006e04:	6811      	ldr	r1, [r2, #0]
10006e06:	4299      	cmp	r1, r3
10006e08:	d30d      	bcc.n	10006e26 <I2C_txAck+0xca>
10006e0a:	6811      	ldr	r1, [r2, #0]
10006e0c:	4299      	cmp	r1, r3
10006e0e:	d2f3      	bcs.n	10006df8 <I2C_txAck+0x9c>
10006e10:	e009      	b.n	10006e26 <I2C_txAck+0xca>
10006e12:	bf00      	nop
10006e14:	6811      	ldr	r1, [r2, #0]
10006e16:	4561      	cmp	r1, ip
10006e18:	d222      	bcs.n	10006e60 <I2C_txAck+0x104>
10006e1a:	6811      	ldr	r1, [r2, #0]
10006e1c:	4561      	cmp	r1, ip
10006e1e:	d21f      	bcs.n	10006e60 <I2C_txAck+0x104>
10006e20:	6811      	ldr	r1, [r2, #0]
10006e22:	4561      	cmp	r1, ip
10006e24:	d21c      	bcs.n	10006e60 <I2C_txAck+0x104>
10006e26:	6811      	ldr	r1, [r2, #0]
10006e28:	4561      	cmp	r1, ip
10006e2a:	d3f3      	bcc.n	10006e14 <I2C_txAck+0xb8>
10006e2c:	e018      	b.n	10006e60 <I2C_txAck+0x104>
10006e2e:	bf00      	nop
10006e30:	6811      	ldr	r1, [r2, #0]
10006e32:	4299      	cmp	r1, r3
10006e34:	d314      	bcc.n	10006e60 <I2C_txAck+0x104>
10006e36:	6811      	ldr	r1, [r2, #0]
10006e38:	4561      	cmp	r1, ip
10006e3a:	d211      	bcs.n	10006e60 <I2C_txAck+0x104>
10006e3c:	6811      	ldr	r1, [r2, #0]
10006e3e:	4299      	cmp	r1, r3
10006e40:	d30e      	bcc.n	10006e60 <I2C_txAck+0x104>
10006e42:	6811      	ldr	r1, [r2, #0]
10006e44:	4561      	cmp	r1, ip
10006e46:	d20b      	bcs.n	10006e60 <I2C_txAck+0x104>
10006e48:	6811      	ldr	r1, [r2, #0]
10006e4a:	4299      	cmp	r1, r3
10006e4c:	d308      	bcc.n	10006e60 <I2C_txAck+0x104>
10006e4e:	6811      	ldr	r1, [r2, #0]
10006e50:	4561      	cmp	r1, ip
10006e52:	d205      	bcs.n	10006e60 <I2C_txAck+0x104>
10006e54:	6811      	ldr	r1, [r2, #0]
10006e56:	4299      	cmp	r1, r3
10006e58:	d302      	bcc.n	10006e60 <I2C_txAck+0x104>
10006e5a:	6811      	ldr	r1, [r2, #0]
10006e5c:	4561      	cmp	r1, ip
10006e5e:	d3e7      	bcc.n	10006e30 <I2C_txAck+0xd4>
10006e60:	2101      	movs	r1, #1
10006e62:	6041      	str	r1, [r0, #4]
10006e64:	4770      	bx	lr

10006e66 <I2C_txByte>:
10006e66:	b5f0      	push	{r4, r5, r6, r7, lr}
10006e68:	af03      	add	r7, sp, #12
10006e6a:	f84d bd04 	str.w	fp, [sp, #-4]!
10006e6e:	f242 0318 	movw	r3, #8216	@ 0x2018
10006e72:	2200      	movs	r2, #0
10006e74:	f2c5 0330 	movt	r3, #20528	@ 0x5030
10006e78:	f04f 0c02 	mov.w	ip, #2
10006e7c:	f04f 0e01 	mov.w	lr, #1
10006e80:	e008      	b.n	10006e94 <I2C_txByte+0x2e>
10006e82:	bf00      	nop
10006e84:	0049      	lsls	r1, r1, #1
10006e86:	2a07      	cmp	r2, #7
10006e88:	f102 0201 	add.w	r2, r2, #1
10006e8c:	f8c0 e004 	str.w	lr, [r0, #4]
10006e90:	f080 8082 	bcs.w	10006f98 <I2C_txByte+0x132>
10006e94:	b24c      	sxtb	r4, r1
10006e96:	2c00      	cmp	r4, #0
10006e98:	4604      	mov	r4, r0
10006e9a:	bf58      	it	pl
10006e9c:	3404      	addpl	r4, #4
10006e9e:	f8c4 c000 	str.w	ip, [r4]
10006ea2:	681d      	ldr	r5, [r3, #0]
10006ea4:	f115 0f10 	cmn.w	r5, #16
10006ea8:	f105 040f 	add.w	r4, r5, #15
10006eac:	d91a      	bls.n	10006ee4 <I2C_txByte+0x7e>
10006eae:	bf00      	nop
10006eb0:	681e      	ldr	r6, [r3, #0]
10006eb2:	42ae      	cmp	r6, r5
10006eb4:	d308      	bcc.n	10006ec8 <I2C_txByte+0x62>
10006eb6:	681e      	ldr	r6, [r3, #0]
10006eb8:	42ae      	cmp	r6, r5
10006eba:	d305      	bcc.n	10006ec8 <I2C_txByte+0x62>
10006ebc:	681e      	ldr	r6, [r3, #0]
10006ebe:	42ae      	cmp	r6, r5
10006ec0:	d302      	bcc.n	10006ec8 <I2C_txByte+0x62>
10006ec2:	681e      	ldr	r6, [r3, #0]
10006ec4:	42ae      	cmp	r6, r5
10006ec6:	d2f3      	bcs.n	10006eb0 <I2C_txByte+0x4a>
10006ec8:	681d      	ldr	r5, [r3, #0]
10006eca:	42a5      	cmp	r5, r4
10006ecc:	d222      	bcs.n	10006f14 <I2C_txByte+0xae>
10006ece:	681d      	ldr	r5, [r3, #0]
10006ed0:	42a5      	cmp	r5, r4
10006ed2:	d21f      	bcs.n	10006f14 <I2C_txByte+0xae>
10006ed4:	681d      	ldr	r5, [r3, #0]
10006ed6:	42a5      	cmp	r5, r4
10006ed8:	d21c      	bcs.n	10006f14 <I2C_txByte+0xae>
10006eda:	681d      	ldr	r5, [r3, #0]
10006edc:	42a5      	cmp	r5, r4
10006ede:	d3f3      	bcc.n	10006ec8 <I2C_txByte+0x62>
10006ee0:	e018      	b.n	10006f14 <I2C_txByte+0xae>
10006ee2:	bf00      	nop
10006ee4:	681e      	ldr	r6, [r3, #0]
10006ee6:	42ae      	cmp	r6, r5
10006ee8:	d314      	bcc.n	10006f14 <I2C_txByte+0xae>
10006eea:	681e      	ldr	r6, [r3, #0]
10006eec:	42a6      	cmp	r6, r4
10006eee:	d211      	bcs.n	10006f14 <I2C_txByte+0xae>
10006ef0:	681e      	ldr	r6, [r3, #0]
10006ef2:	42ae      	cmp	r6, r5
10006ef4:	d30e      	bcc.n	10006f14 <I2C_txByte+0xae>
10006ef6:	681e      	ldr	r6, [r3, #0]
10006ef8:	42a6      	cmp	r6, r4
10006efa:	d20b      	bcs.n	10006f14 <I2C_txByte+0xae>
10006efc:	681e      	ldr	r6, [r3, #0]
10006efe:	42ae      	cmp	r6, r5
10006f00:	d308      	bcc.n	10006f14 <I2C_txByte+0xae>
10006f02:	681e      	ldr	r6, [r3, #0]
10006f04:	42a6      	cmp	r6, r4
10006f06:	d205      	bcs.n	10006f14 <I2C_txByte+0xae>
10006f08:	681e      	ldr	r6, [r3, #0]
10006f0a:	42ae      	cmp	r6, r5
10006f0c:	d302      	bcc.n	10006f14 <I2C_txByte+0xae>
10006f0e:	681e      	ldr	r6, [r3, #0]
10006f10:	42a6      	cmp	r6, r4
10006f12:	d3e7      	bcc.n	10006ee4 <I2C_txByte+0x7e>
10006f14:	f8c0 e000 	str.w	lr, [r0]
10006f18:	681d      	ldr	r5, [r3, #0]
10006f1a:	f115 0f10 	cmn.w	r5, #16
10006f1e:	f105 040f 	add.w	r4, r5, #15
10006f22:	d919      	bls.n	10006f58 <I2C_txByte+0xf2>
10006f24:	681e      	ldr	r6, [r3, #0]
10006f26:	42ae      	cmp	r6, r5
10006f28:	d308      	bcc.n	10006f3c <I2C_txByte+0xd6>
10006f2a:	681e      	ldr	r6, [r3, #0]
10006f2c:	42ae      	cmp	r6, r5
10006f2e:	d305      	bcc.n	10006f3c <I2C_txByte+0xd6>
10006f30:	681e      	ldr	r6, [r3, #0]
10006f32:	42ae      	cmp	r6, r5
10006f34:	d302      	bcc.n	10006f3c <I2C_txByte+0xd6>
10006f36:	681e      	ldr	r6, [r3, #0]
10006f38:	42ae      	cmp	r6, r5
10006f3a:	d2f3      	bcs.n	10006f24 <I2C_txByte+0xbe>
10006f3c:	681d      	ldr	r5, [r3, #0]
10006f3e:	42a5      	cmp	r5, r4
10006f40:	d2a0      	bcs.n	10006e84 <I2C_txByte+0x1e>
10006f42:	681d      	ldr	r5, [r3, #0]
10006f44:	42a5      	cmp	r5, r4
10006f46:	d29d      	bcs.n	10006e84 <I2C_txByte+0x1e>
10006f48:	681d      	ldr	r5, [r3, #0]
10006f4a:	42a5      	cmp	r5, r4
10006f4c:	f4bf af9a 	bcs.w	10006e84 <I2C_txByte+0x1e>
10006f50:	681d      	ldr	r5, [r3, #0]
10006f52:	42a5      	cmp	r5, r4
10006f54:	d3f2      	bcc.n	10006f3c <I2C_txByte+0xd6>
10006f56:	e795      	b.n	10006e84 <I2C_txByte+0x1e>
10006f58:	681e      	ldr	r6, [r3, #0]
10006f5a:	42ae      	cmp	r6, r5
10006f5c:	f4ff af92 	bcc.w	10006e84 <I2C_txByte+0x1e>
10006f60:	681e      	ldr	r6, [r3, #0]
10006f62:	42a6      	cmp	r6, r4
10006f64:	f4bf af8e 	bcs.w	10006e84 <I2C_txByte+0x1e>
10006f68:	681e      	ldr	r6, [r3, #0]
10006f6a:	42ae      	cmp	r6, r5
10006f6c:	f4ff af8a 	bcc.w	10006e84 <I2C_txByte+0x1e>
10006f70:	681e      	ldr	r6, [r3, #0]
10006f72:	42a6      	cmp	r6, r4
10006f74:	f4bf af86 	bcs.w	10006e84 <I2C_txByte+0x1e>
10006f78:	681e      	ldr	r6, [r3, #0]
10006f7a:	42ae      	cmp	r6, r5
10006f7c:	f4ff af82 	bcc.w	10006e84 <I2C_txByte+0x1e>
10006f80:	681e      	ldr	r6, [r3, #0]
10006f82:	42a6      	cmp	r6, r4
10006f84:	f4bf af7e 	bcs.w	10006e84 <I2C_txByte+0x1e>
10006f88:	681e      	ldr	r6, [r3, #0]
10006f8a:	42ae      	cmp	r6, r5
10006f8c:	f4ff af7a 	bcc.w	10006e84 <I2C_txByte+0x1e>
10006f90:	681e      	ldr	r6, [r3, #0]
10006f92:	42a6      	cmp	r6, r4
10006f94:	d3e0      	bcc.n	10006f58 <I2C_txByte+0xf2>
10006f96:	e775      	b.n	10006e84 <I2C_txByte+0x1e>
10006f98:	f85d bb04 	ldr.w	fp, [sp], #4
10006f9c:	bdf0      	pop	{r4, r5, r6, r7, pc}

10006f9e <I2C_rxByte>:
10006f9e:	b5f0      	push	{r4, r5, r6, r7, lr}
10006fa0:	af03      	add	r7, sp, #12
10006fa2:	f84d bd04 	str.w	fp, [sp, #-4]!
10006fa6:	f242 0218 	movw	r2, #8216	@ 0x2018
10006faa:	2100      	movs	r1, #0
10006fac:	f2c5 0230 	movt	r2, #20528	@ 0x5030
10006fb0:	f04f 0c02 	mov.w	ip, #2
10006fb4:	f04f 0e01 	mov.w	lr, #1
10006fb8:	2300      	movs	r3, #0
10006fba:	e00b      	b.n	10006fd4 <I2C_rxByte+0x36>
10006fbc:	6804      	ldr	r4, [r0, #0]
10006fbe:	0049      	lsls	r1, r1, #1
10006fc0:	f3c4 0440 	ubfx	r4, r4, #1, #1
10006fc4:	4321      	orrs	r1, r4
10006fc6:	2b07      	cmp	r3, #7
10006fc8:	f103 0301 	add.w	r3, r3, #1
10006fcc:	f8c0 e004 	str.w	lr, [r0, #4]
10006fd0:	f080 807c 	bcs.w	100070cc <I2C_rxByte+0x12e>
10006fd4:	f8c0 c000 	str.w	ip, [r0]
10006fd8:	6815      	ldr	r5, [r2, #0]
10006fda:	f115 0f10 	cmn.w	r5, #16
10006fde:	f105 040f 	add.w	r4, r5, #15
10006fe2:	d919      	bls.n	10007018 <I2C_rxByte+0x7a>
10006fe4:	6816      	ldr	r6, [r2, #0]
10006fe6:	42ae      	cmp	r6, r5
10006fe8:	d308      	bcc.n	10006ffc <I2C_rxByte+0x5e>
10006fea:	6816      	ldr	r6, [r2, #0]
10006fec:	42ae      	cmp	r6, r5
10006fee:	d305      	bcc.n	10006ffc <I2C_rxByte+0x5e>
10006ff0:	6816      	ldr	r6, [r2, #0]
10006ff2:	42ae      	cmp	r6, r5
10006ff4:	d302      	bcc.n	10006ffc <I2C_rxByte+0x5e>
10006ff6:	6816      	ldr	r6, [r2, #0]
10006ff8:	42ae      	cmp	r6, r5
10006ffa:	d2f3      	bcs.n	10006fe4 <I2C_rxByte+0x46>
10006ffc:	6815      	ldr	r5, [r2, #0]
10006ffe:	42a5      	cmp	r5, r4
10007000:	d222      	bcs.n	10007048 <I2C_rxByte+0xaa>
10007002:	6815      	ldr	r5, [r2, #0]
10007004:	42a5      	cmp	r5, r4
10007006:	d21f      	bcs.n	10007048 <I2C_rxByte+0xaa>
10007008:	6815      	ldr	r5, [r2, #0]
1000700a:	42a5      	cmp	r5, r4
1000700c:	d21c      	bcs.n	10007048 <I2C_rxByte+0xaa>
1000700e:	6815      	ldr	r5, [r2, #0]
10007010:	42a5      	cmp	r5, r4
10007012:	d3f3      	bcc.n	10006ffc <I2C_rxByte+0x5e>
10007014:	e018      	b.n	10007048 <I2C_rxByte+0xaa>
10007016:	bf00      	nop
10007018:	6816      	ldr	r6, [r2, #0]
1000701a:	42ae      	cmp	r6, r5
1000701c:	d314      	bcc.n	10007048 <I2C_rxByte+0xaa>
1000701e:	6816      	ldr	r6, [r2, #0]
10007020:	42a6      	cmp	r6, r4
10007022:	d211      	bcs.n	10007048 <I2C_rxByte+0xaa>
10007024:	6816      	ldr	r6, [r2, #0]
10007026:	42ae      	cmp	r6, r5
10007028:	d30e      	bcc.n	10007048 <I2C_rxByte+0xaa>
1000702a:	6816      	ldr	r6, [r2, #0]
1000702c:	42a6      	cmp	r6, r4
1000702e:	d20b      	bcs.n	10007048 <I2C_rxByte+0xaa>
10007030:	6816      	ldr	r6, [r2, #0]
10007032:	42ae      	cmp	r6, r5
10007034:	d308      	bcc.n	10007048 <I2C_rxByte+0xaa>
10007036:	6816      	ldr	r6, [r2, #0]
10007038:	42a6      	cmp	r6, r4
1000703a:	d205      	bcs.n	10007048 <I2C_rxByte+0xaa>
1000703c:	6816      	ldr	r6, [r2, #0]
1000703e:	42ae      	cmp	r6, r5
10007040:	d302      	bcc.n	10007048 <I2C_rxByte+0xaa>
10007042:	6816      	ldr	r6, [r2, #0]
10007044:	42a6      	cmp	r6, r4
10007046:	d3e7      	bcc.n	10007018 <I2C_rxByte+0x7a>
10007048:	f8c0 e000 	str.w	lr, [r0]
1000704c:	6815      	ldr	r5, [r2, #0]
1000704e:	f115 0f10 	cmn.w	r5, #16
10007052:	f105 040f 	add.w	r4, r5, #15
10007056:	d919      	bls.n	1000708c <I2C_rxByte+0xee>
10007058:	6816      	ldr	r6, [r2, #0]
1000705a:	42ae      	cmp	r6, r5
1000705c:	d308      	bcc.n	10007070 <I2C_rxByte+0xd2>
1000705e:	6816      	ldr	r6, [r2, #0]
10007060:	42ae      	cmp	r6, r5
10007062:	d305      	bcc.n	10007070 <I2C_rxByte+0xd2>
10007064:	6816      	ldr	r6, [r2, #0]
10007066:	42ae      	cmp	r6, r5
10007068:	d302      	bcc.n	10007070 <I2C_rxByte+0xd2>
1000706a:	6816      	ldr	r6, [r2, #0]
1000706c:	42ae      	cmp	r6, r5
1000706e:	d2f3      	bcs.n	10007058 <I2C_rxByte+0xba>
10007070:	6815      	ldr	r5, [r2, #0]
10007072:	42a5      	cmp	r5, r4
10007074:	d2a2      	bcs.n	10006fbc <I2C_rxByte+0x1e>
10007076:	6815      	ldr	r5, [r2, #0]
10007078:	42a5      	cmp	r5, r4
1000707a:	d29f      	bcs.n	10006fbc <I2C_rxByte+0x1e>
1000707c:	6815      	ldr	r5, [r2, #0]
1000707e:	42a5      	cmp	r5, r4
10007080:	f4bf af9c 	bcs.w	10006fbc <I2C_rxByte+0x1e>
10007084:	6815      	ldr	r5, [r2, #0]
10007086:	42a5      	cmp	r5, r4
10007088:	d3f2      	bcc.n	10007070 <I2C_rxByte+0xd2>
1000708a:	e797      	b.n	10006fbc <I2C_rxByte+0x1e>
1000708c:	6816      	ldr	r6, [r2, #0]
1000708e:	42ae      	cmp	r6, r5
10007090:	f4ff af94 	bcc.w	10006fbc <I2C_rxByte+0x1e>
10007094:	6816      	ldr	r6, [r2, #0]
10007096:	42a6      	cmp	r6, r4
10007098:	f4bf af90 	bcs.w	10006fbc <I2C_rxByte+0x1e>
1000709c:	6816      	ldr	r6, [r2, #0]
1000709e:	42ae      	cmp	r6, r5
100070a0:	f4ff af8c 	bcc.w	10006fbc <I2C_rxByte+0x1e>
100070a4:	6816      	ldr	r6, [r2, #0]
100070a6:	42a6      	cmp	r6, r4
100070a8:	f4bf af88 	bcs.w	10006fbc <I2C_rxByte+0x1e>
100070ac:	6816      	ldr	r6, [r2, #0]
100070ae:	42ae      	cmp	r6, r5
100070b0:	f4ff af84 	bcc.w	10006fbc <I2C_rxByte+0x1e>
100070b4:	6816      	ldr	r6, [r2, #0]
100070b6:	42a6      	cmp	r6, r4
100070b8:	f4bf af80 	bcs.w	10006fbc <I2C_rxByte+0x1e>
100070bc:	6816      	ldr	r6, [r2, #0]
100070be:	42ae      	cmp	r6, r5
100070c0:	f4ff af7c 	bcc.w	10006fbc <I2C_rxByte+0x1e>
100070c4:	6816      	ldr	r6, [r2, #0]
100070c6:	42a6      	cmp	r6, r4
100070c8:	d3e0      	bcc.n	1000708c <I2C_rxByte+0xee>
100070ca:	e777      	b.n	10006fbc <I2C_rxByte+0x1e>
100070cc:	b2c8      	uxtb	r0, r1
100070ce:	f85d bb04 	ldr.w	fp, [sp], #4
100070d2:	bdf0      	pop	{r4, r5, r6, r7, pc}

100070d4 <I2C_tx>:
100070d4:	b5f0      	push	{r4, r5, r6, r7, lr}
100070d6:	af03      	add	r7, sp, #12
100070d8:	e92d 0f00 	stmdb	sp!, {r8, r9, sl, fp}
100070dc:	f84d 2d04 	str.w	r2, [sp, #-4]!
100070e0:	f242 0c18 	movw	ip, #8216	@ 0x2018
100070e4:	2603      	movs	r6, #3
100070e6:	f2c5 0c30 	movt	ip, #20528	@ 0x5030
100070ea:	6006      	str	r6, [r0, #0]
100070ec:	f8dc 5000 	ldr.w	r5, [ip]
100070f0:	f115 0f10 	cmn.w	r5, #16
100070f4:	f105 060f 	add.w	r6, r5, #15
100070f8:	d924      	bls.n	10007144 <I2C_tx+0x70>
100070fa:	bf00      	nop
100070fc:	f8dc 4000 	ldr.w	r4, [ip]
10007100:	42ac      	cmp	r4, r5
10007102:	d319      	bcc.n	10007138 <I2C_tx+0x64>
10007104:	f8dc 4000 	ldr.w	r4, [ip]
10007108:	42ac      	cmp	r4, r5
1000710a:	d315      	bcc.n	10007138 <I2C_tx+0x64>
1000710c:	f8dc 4000 	ldr.w	r4, [ip]
10007110:	42ac      	cmp	r4, r5
10007112:	d311      	bcc.n	10007138 <I2C_tx+0x64>
10007114:	f8dc 4000 	ldr.w	r4, [ip]
10007118:	42ac      	cmp	r4, r5
1000711a:	d2ef      	bcs.n	100070fc <I2C_tx+0x28>
1000711c:	e00c      	b.n	10007138 <I2C_tx+0x64>
1000711e:	bf00      	nop
10007120:	f8dc 5000 	ldr.w	r5, [ip]
10007124:	42b5      	cmp	r5, r6
10007126:	d22d      	bcs.n	10007184 <I2C_tx+0xb0>
10007128:	f8dc 5000 	ldr.w	r5, [ip]
1000712c:	42b5      	cmp	r5, r6
1000712e:	d229      	bcs.n	10007184 <I2C_tx+0xb0>
10007130:	f8dc 5000 	ldr.w	r5, [ip]
10007134:	42b5      	cmp	r5, r6
10007136:	d225      	bcs.n	10007184 <I2C_tx+0xb0>
10007138:	f8dc 5000 	ldr.w	r5, [ip]
1000713c:	42b5      	cmp	r5, r6
1000713e:	d3ef      	bcc.n	10007120 <I2C_tx+0x4c>
10007140:	e020      	b.n	10007184 <I2C_tx+0xb0>
10007142:	bf00      	nop
10007144:	f8dc 4000 	ldr.w	r4, [ip]
10007148:	42ac      	cmp	r4, r5
1000714a:	d31b      	bcc.n	10007184 <I2C_tx+0xb0>
1000714c:	f8dc 4000 	ldr.w	r4, [ip]
10007150:	42b4      	cmp	r4, r6
10007152:	d217      	bcs.n	10007184 <I2C_tx+0xb0>
10007154:	f8dc 4000 	ldr.w	r4, [ip]
10007158:	42ac      	cmp	r4, r5
1000715a:	d313      	bcc.n	10007184 <I2C_tx+0xb0>
1000715c:	f8dc 4000 	ldr.w	r4, [ip]
10007160:	42b4      	cmp	r4, r6
10007162:	d20f      	bcs.n	10007184 <I2C_tx+0xb0>
10007164:	f8dc 4000 	ldr.w	r4, [ip]
10007168:	42ac      	cmp	r4, r5
1000716a:	d30b      	bcc.n	10007184 <I2C_tx+0xb0>
1000716c:	f8dc 4000 	ldr.w	r4, [ip]
10007170:	42b4      	cmp	r4, r6
10007172:	d207      	bcs.n	10007184 <I2C_tx+0xb0>
10007174:	f8dc 4000 	ldr.w	r4, [ip]
10007178:	42ac      	cmp	r4, r5
1000717a:	d303      	bcc.n	10007184 <I2C_tx+0xb0>
1000717c:	f8dc 4000 	ldr.w	r4, [ip]
10007180:	42b4      	cmp	r4, r6
10007182:	d3df      	bcc.n	10007144 <I2C_tx+0x70>
10007184:	2602      	movs	r6, #2
10007186:	6046      	str	r6, [r0, #4]
10007188:	f8dc 5000 	ldr.w	r5, [ip]
1000718c:	f115 0f10 	cmn.w	r5, #16
10007190:	f105 060f 	add.w	r6, r5, #15
10007194:	d924      	bls.n	100071e0 <I2C_tx+0x10c>
10007196:	bf00      	nop
10007198:	f8dc 4000 	ldr.w	r4, [ip]
1000719c:	42ac      	cmp	r4, r5
1000719e:	d319      	bcc.n	100071d4 <I2C_tx+0x100>
100071a0:	f8dc 4000 	ldr.w	r4, [ip]
100071a4:	42ac      	cmp	r4, r5
100071a6:	d315      	bcc.n	100071d4 <I2C_tx+0x100>
100071a8:	f8dc 4000 	ldr.w	r4, [ip]
100071ac:	42ac      	cmp	r4, r5
100071ae:	d311      	bcc.n	100071d4 <I2C_tx+0x100>
100071b0:	f8dc 4000 	ldr.w	r4, [ip]
100071b4:	42ac      	cmp	r4, r5
100071b6:	d2ef      	bcs.n	10007198 <I2C_tx+0xc4>
100071b8:	e00c      	b.n	100071d4 <I2C_tx+0x100>
100071ba:	bf00      	nop
100071bc:	f8dc 5000 	ldr.w	r5, [ip]
100071c0:	42b5      	cmp	r5, r6
100071c2:	d22d      	bcs.n	10007220 <I2C_tx+0x14c>
100071c4:	f8dc 5000 	ldr.w	r5, [ip]
100071c8:	42b5      	cmp	r5, r6
100071ca:	d229      	bcs.n	10007220 <I2C_tx+0x14c>
100071cc:	f8dc 5000 	ldr.w	r5, [ip]
100071d0:	42b5      	cmp	r5, r6
100071d2:	d225      	bcs.n	10007220 <I2C_tx+0x14c>
100071d4:	f8dc 5000 	ldr.w	r5, [ip]
100071d8:	42b5      	cmp	r5, r6
100071da:	d3ef      	bcc.n	100071bc <I2C_tx+0xe8>
100071dc:	e020      	b.n	10007220 <I2C_tx+0x14c>
100071de:	bf00      	nop
100071e0:	f8dc 4000 	ldr.w	r4, [ip]
100071e4:	42ac      	cmp	r4, r5
100071e6:	d31b      	bcc.n	10007220 <I2C_tx+0x14c>
100071e8:	f8dc 4000 	ldr.w	r4, [ip]
100071ec:	42b4      	cmp	r4, r6
100071ee:	d217      	bcs.n	10007220 <I2C_tx+0x14c>
100071f0:	f8dc 4000 	ldr.w	r4, [ip]
100071f4:	42ac      	cmp	r4, r5
100071f6:	d313      	bcc.n	10007220 <I2C_tx+0x14c>
100071f8:	f8dc 4000 	ldr.w	r4, [ip]
100071fc:	42b4      	cmp	r4, r6
100071fe:	d20f      	bcs.n	10007220 <I2C_tx+0x14c>
10007200:	f8dc 4000 	ldr.w	r4, [ip]
10007204:	42ac      	cmp	r4, r5
10007206:	d30b      	bcc.n	10007220 <I2C_tx+0x14c>
10007208:	f8dc 4000 	ldr.w	r4, [ip]
1000720c:	42b4      	cmp	r4, r6
1000720e:	d207      	bcs.n	10007220 <I2C_tx+0x14c>
10007210:	f8dc 4000 	ldr.w	r4, [ip]
10007214:	42ac      	cmp	r4, r5
10007216:	d303      	bcc.n	10007220 <I2C_tx+0x14c>
10007218:	f8dc 4000 	ldr.w	r4, [ip]
1000721c:	42b4      	cmp	r4, r6
1000721e:	d3df      	bcc.n	100071e0 <I2C_tx+0x10c>
10007220:	2601      	movs	r6, #1
10007222:	6046      	str	r6, [r0, #4]
10007224:	f8dc 5000 	ldr.w	r5, [ip]
10007228:	f115 0f10 	cmn.w	r5, #16
1000722c:	f105 060f 	add.w	r6, r5, #15
10007230:	d924      	bls.n	1000727c <I2C_tx+0x1a8>
10007232:	bf00      	nop
10007234:	f8dc 4000 	ldr.w	r4, [ip]
10007238:	42ac      	cmp	r4, r5
1000723a:	d319      	bcc.n	10007270 <I2C_tx+0x19c>
1000723c:	f8dc 4000 	ldr.w	r4, [ip]
10007240:	42ac      	cmp	r4, r5
10007242:	d315      	bcc.n	10007270 <I2C_tx+0x19c>
10007244:	f8dc 4000 	ldr.w	r4, [ip]
10007248:	42ac      	cmp	r4, r5
1000724a:	d311      	bcc.n	10007270 <I2C_tx+0x19c>
1000724c:	f8dc 4000 	ldr.w	r4, [ip]
10007250:	42ac      	cmp	r4, r5
10007252:	d2ef      	bcs.n	10007234 <I2C_tx+0x160>
10007254:	e00c      	b.n	10007270 <I2C_tx+0x19c>
10007256:	bf00      	nop
10007258:	f8dc 5000 	ldr.w	r5, [ip]
1000725c:	42b5      	cmp	r5, r6
1000725e:	d22d      	bcs.n	100072bc <I2C_tx+0x1e8>
10007260:	f8dc 5000 	ldr.w	r5, [ip]
10007264:	42b5      	cmp	r5, r6
10007266:	d229      	bcs.n	100072bc <I2C_tx+0x1e8>
10007268:	f8dc 5000 	ldr.w	r5, [ip]
1000726c:	42b5      	cmp	r5, r6
1000726e:	d225      	bcs.n	100072bc <I2C_tx+0x1e8>
10007270:	f8dc 5000 	ldr.w	r5, [ip]
10007274:	42b5      	cmp	r5, r6
10007276:	d3ef      	bcc.n	10007258 <I2C_tx+0x184>
10007278:	e020      	b.n	100072bc <I2C_tx+0x1e8>
1000727a:	bf00      	nop
1000727c:	f8dc 4000 	ldr.w	r4, [ip]
10007280:	42ac      	cmp	r4, r5
10007282:	d31b      	bcc.n	100072bc <I2C_tx+0x1e8>
10007284:	f8dc 4000 	ldr.w	r4, [ip]
10007288:	42b4      	cmp	r4, r6
1000728a:	d217      	bcs.n	100072bc <I2C_tx+0x1e8>
1000728c:	f8dc 4000 	ldr.w	r4, [ip]
10007290:	42ac      	cmp	r4, r5
10007292:	d313      	bcc.n	100072bc <I2C_tx+0x1e8>
10007294:	f8dc 4000 	ldr.w	r4, [ip]
10007298:	42b4      	cmp	r4, r6
1000729a:	d20f      	bcs.n	100072bc <I2C_tx+0x1e8>
1000729c:	f8dc 4000 	ldr.w	r4, [ip]
100072a0:	42ac      	cmp	r4, r5
100072a2:	d30b      	bcc.n	100072bc <I2C_tx+0x1e8>
100072a4:	f8dc 4000 	ldr.w	r4, [ip]
100072a8:	42b4      	cmp	r4, r6
100072aa:	d207      	bcs.n	100072bc <I2C_tx+0x1e8>
100072ac:	f8dc 4000 	ldr.w	r4, [ip]
100072b0:	42ac      	cmp	r4, r5
100072b2:	d303      	bcc.n	100072bc <I2C_tx+0x1e8>
100072b4:	f8dc 4000 	ldr.w	r4, [ip]
100072b8:	42b4      	cmp	r4, r6
100072ba:	d3df      	bcc.n	1000727c <I2C_tx+0x1a8>
100072bc:	f04f 0b00 	mov.w	fp, #0
100072c0:	f100 0a04 	add.w	sl, r0, #4
100072c4:	f04f 0802 	mov.w	r8, #2
100072c8:	f04f 0901 	mov.w	r9, #1
100072cc:	e009      	b.n	100072e2 <I2C_tx+0x20e>
100072ce:	bf00      	nop
100072d0:	0049      	lsls	r1, r1, #1
100072d2:	f1bb 0f07 	cmp.w	fp, #7
100072d6:	f10b 0b01 	add.w	fp, fp, #1
100072da:	f8c0 9004 	str.w	r9, [r0, #4]
100072de:	f080 80a7 	bcs.w	10007430 <I2C_tx+0x35c>
100072e2:	b24c      	sxtb	r4, r1
100072e4:	2c00      	cmp	r4, #0
100072e6:	4654      	mov	r4, sl
100072e8:	bf48      	it	mi
100072ea:	4604      	movmi	r4, r0
100072ec:	f8c4 8000 	str.w	r8, [r4]
100072f0:	f8dc 4000 	ldr.w	r4, [ip]
100072f4:	f114 0f10 	cmn.w	r4, #16
100072f8:	f104 060f 	add.w	r6, r4, #15
100072fc:	d922      	bls.n	10007344 <I2C_tx+0x270>
100072fe:	bf00      	nop
10007300:	f8dc 5000 	ldr.w	r5, [ip]
10007304:	42a5      	cmp	r5, r4
10007306:	d30b      	bcc.n	10007320 <I2C_tx+0x24c>
10007308:	f8dc 5000 	ldr.w	r5, [ip]
1000730c:	42a5      	cmp	r5, r4
1000730e:	d307      	bcc.n	10007320 <I2C_tx+0x24c>
10007310:	f8dc 5000 	ldr.w	r5, [ip]
10007314:	42a5      	cmp	r5, r4
10007316:	d303      	bcc.n	10007320 <I2C_tx+0x24c>
10007318:	f8dc 5000 	ldr.w	r5, [ip]
1000731c:	42a5      	cmp	r5, r4
1000731e:	d2ef      	bcs.n	10007300 <I2C_tx+0x22c>
10007320:	f8dc 4000 	ldr.w	r4, [ip]
10007324:	42b4      	cmp	r4, r6
10007326:	d22d      	bcs.n	10007384 <I2C_tx+0x2b0>
10007328:	f8dc 4000 	ldr.w	r4, [ip]
1000732c:	42b4      	cmp	r4, r6
1000732e:	d229      	bcs.n	10007384 <I2C_tx+0x2b0>
10007330:	f8dc 4000 	ldr.w	r4, [ip]
10007334:	42b4      	cmp	r4, r6
10007336:	d225      	bcs.n	10007384 <I2C_tx+0x2b0>
10007338:	f8dc 4000 	ldr.w	r4, [ip]
1000733c:	42b4      	cmp	r4, r6
1000733e:	d3ef      	bcc.n	10007320 <I2C_tx+0x24c>
10007340:	e020      	b.n	10007384 <I2C_tx+0x2b0>
10007342:	bf00      	nop
10007344:	f8dc 5000 	ldr.w	r5, [ip]
10007348:	42a5      	cmp	r5, r4
1000734a:	d31b      	bcc.n	10007384 <I2C_tx+0x2b0>
1000734c:	f8dc 5000 	ldr.w	r5, [ip]
10007350:	42b5      	cmp	r5, r6
10007352:	d217      	bcs.n	10007384 <I2C_tx+0x2b0>
10007354:	f8dc 5000 	ldr.w	r5, [ip]
10007358:	42a5      	cmp	r5, r4
1000735a:	d313      	bcc.n	10007384 <I2C_tx+0x2b0>
1000735c:	f8dc 5000 	ldr.w	r5, [ip]
10007360:	42b5      	cmp	r5, r6
10007362:	d20f      	bcs.n	10007384 <I2C_tx+0x2b0>
10007364:	f8dc 5000 	ldr.w	r5, [ip]
10007368:	42a5      	cmp	r5, r4
1000736a:	d30b      	bcc.n	10007384 <I2C_tx+0x2b0>
1000736c:	f8dc 5000 	ldr.w	r5, [ip]
10007370:	42b5      	cmp	r5, r6
10007372:	d207      	bcs.n	10007384 <I2C_tx+0x2b0>
10007374:	f8dc 5000 	ldr.w	r5, [ip]
10007378:	42a5      	cmp	r5, r4
1000737a:	d303      	bcc.n	10007384 <I2C_tx+0x2b0>
1000737c:	f8dc 5000 	ldr.w	r5, [ip]
10007380:	42b5      	cmp	r5, r6
10007382:	d3df      	bcc.n	10007344 <I2C_tx+0x270>
10007384:	f8c0 9000 	str.w	r9, [r0]
10007388:	f8dc 4000 	ldr.w	r4, [ip]
1000738c:	f114 0f10 	cmn.w	r4, #16
10007390:	f104 060f 	add.w	r6, r4, #15
10007394:	d924      	bls.n	100073e0 <I2C_tx+0x30c>
10007396:	bf00      	nop
10007398:	f8dc 5000 	ldr.w	r5, [ip]
1000739c:	42a5      	cmp	r5, r4
1000739e:	d30b      	bcc.n	100073b8 <I2C_tx+0x2e4>
100073a0:	f8dc 5000 	ldr.w	r5, [ip]
100073a4:	42a5      	cmp	r5, r4
100073a6:	d307      	bcc.n	100073b8 <I2C_tx+0x2e4>
100073a8:	f8dc 5000 	ldr.w	r5, [ip]
100073ac:	42a5      	cmp	r5, r4
100073ae:	d303      	bcc.n	100073b8 <I2C_tx+0x2e4>
100073b0:	f8dc 5000 	ldr.w	r5, [ip]
100073b4:	42a5      	cmp	r5, r4
100073b6:	d2ef      	bcs.n	10007398 <I2C_tx+0x2c4>
100073b8:	f8dc 4000 	ldr.w	r4, [ip]
100073bc:	42b4      	cmp	r4, r6
100073be:	f4bf af87 	bcs.w	100072d0 <I2C_tx+0x1fc>
100073c2:	f8dc 4000 	ldr.w	r4, [ip]
100073c6:	42b4      	cmp	r4, r6
100073c8:	f4bf af82 	bcs.w	100072d0 <I2C_tx+0x1fc>
100073cc:	f8dc 4000 	ldr.w	r4, [ip]
100073d0:	42b4      	cmp	r4, r6
100073d2:	f4bf af7d 	bcs.w	100072d0 <I2C_tx+0x1fc>
100073d6:	f8dc 4000 	ldr.w	r4, [ip]
100073da:	42b4      	cmp	r4, r6
100073dc:	d3ec      	bcc.n	100073b8 <I2C_tx+0x2e4>
100073de:	e777      	b.n	100072d0 <I2C_tx+0x1fc>
100073e0:	f8dc 5000 	ldr.w	r5, [ip]
100073e4:	42a5      	cmp	r5, r4
100073e6:	f4ff af73 	bcc.w	100072d0 <I2C_tx+0x1fc>
100073ea:	f8dc 5000 	ldr.w	r5, [ip]
100073ee:	42b5      	cmp	r5, r6
100073f0:	f4bf af6e 	bcs.w	100072d0 <I2C_tx+0x1fc>
100073f4:	f8dc 5000 	ldr.w	r5, [ip]
100073f8:	42a5      	cmp	r5, r4
100073fa:	f4ff af69 	bcc.w	100072d0 <I2C_tx+0x1fc>
100073fe:	f8dc 5000 	ldr.w	r5, [ip]
10007402:	42b5      	cmp	r5, r6
10007404:	f4bf af64 	bcs.w	100072d0 <I2C_tx+0x1fc>
10007408:	f8dc 5000 	ldr.w	r5, [ip]
1000740c:	42a5      	cmp	r5, r4
1000740e:	f4ff af5f 	bcc.w	100072d0 <I2C_tx+0x1fc>
10007412:	f8dc 5000 	ldr.w	r5, [ip]
10007416:	42b5      	cmp	r5, r6
10007418:	f4bf af5a 	bcs.w	100072d0 <I2C_tx+0x1fc>
1000741c:	f8dc 5000 	ldr.w	r5, [ip]
10007420:	42a5      	cmp	r5, r4
10007422:	f4ff af55 	bcc.w	100072d0 <I2C_tx+0x1fc>
10007426:	f8dc 5000 	ldr.w	r5, [ip]
1000742a:	42b5      	cmp	r5, r6
1000742c:	d3d8      	bcc.n	100073e0 <I2C_tx+0x30c>
1000742e:	e74f      	b.n	100072d0 <I2C_tx+0x1fc>
10007430:	2102      	movs	r1, #2
10007432:	6001      	str	r1, [r0, #0]
10007434:	f8dc 4000 	ldr.w	r4, [ip]
10007438:	f114 0f10 	cmn.w	r4, #16
1000743c:	f104 010f 	add.w	r1, r4, #15
10007440:	d924      	bls.n	1000748c <I2C_tx+0x3b8>
10007442:	bf00      	nop
10007444:	f8dc 5000 	ldr.w	r5, [ip]
10007448:	42a5      	cmp	r5, r4
1000744a:	d319      	bcc.n	10007480 <I2C_tx+0x3ac>
1000744c:	f8dc 5000 	ldr.w	r5, [ip]
10007450:	42a5      	cmp	r5, r4
10007452:	d315      	bcc.n	10007480 <I2C_tx+0x3ac>
10007454:	f8dc 5000 	ldr.w	r5, [ip]
10007458:	42a5      	cmp	r5, r4
1000745a:	d311      	bcc.n	10007480 <I2C_tx+0x3ac>
1000745c:	f8dc 5000 	ldr.w	r5, [ip]
10007460:	42a5      	cmp	r5, r4
10007462:	d2ef      	bcs.n	10007444 <I2C_tx+0x370>
10007464:	e00c      	b.n	10007480 <I2C_tx+0x3ac>
10007466:	bf00      	nop
10007468:	f8dc 4000 	ldr.w	r4, [ip]
1000746c:	428c      	cmp	r4, r1
1000746e:	d22d      	bcs.n	100074cc <I2C_tx+0x3f8>
10007470:	f8dc 4000 	ldr.w	r4, [ip]
10007474:	428c      	cmp	r4, r1
10007476:	d229      	bcs.n	100074cc <I2C_tx+0x3f8>
10007478:	f8dc 4000 	ldr.w	r4, [ip]
1000747c:	428c      	cmp	r4, r1
1000747e:	d225      	bcs.n	100074cc <I2C_tx+0x3f8>
10007480:	f8dc 4000 	ldr.w	r4, [ip]
10007484:	428c      	cmp	r4, r1
10007486:	d3ef      	bcc.n	10007468 <I2C_tx+0x394>
10007488:	e020      	b.n	100074cc <I2C_tx+0x3f8>
1000748a:	bf00      	nop
1000748c:	f8dc 5000 	ldr.w	r5, [ip]
10007490:	42a5      	cmp	r5, r4
10007492:	d31b      	bcc.n	100074cc <I2C_tx+0x3f8>
10007494:	f8dc 5000 	ldr.w	r5, [ip]
10007498:	428d      	cmp	r5, r1
1000749a:	d217      	bcs.n	100074cc <I2C_tx+0x3f8>
1000749c:	f8dc 5000 	ldr.w	r5, [ip]
100074a0:	42a5      	cmp	r5, r4
100074a2:	d313      	bcc.n	100074cc <I2C_tx+0x3f8>
100074a4:	f8dc 5000 	ldr.w	r5, [ip]
100074a8:	428d      	cmp	r5, r1
100074aa:	d20f      	bcs.n	100074cc <I2C_tx+0x3f8>
100074ac:	f8dc 5000 	ldr.w	r5, [ip]
100074b0:	42a5      	cmp	r5, r4
100074b2:	d30b      	bcc.n	100074cc <I2C_tx+0x3f8>
100074b4:	f8dc 5000 	ldr.w	r5, [ip]
100074b8:	428d      	cmp	r5, r1
100074ba:	d207      	bcs.n	100074cc <I2C_tx+0x3f8>
100074bc:	f8dc 5000 	ldr.w	r5, [ip]
100074c0:	42a5      	cmp	r5, r4
100074c2:	d303      	bcc.n	100074cc <I2C_tx+0x3f8>
100074c4:	f8dc 5000 	ldr.w	r5, [ip]
100074c8:	428d      	cmp	r5, r1
100074ca:	d3df      	bcc.n	1000748c <I2C_tx+0x3b8>
100074cc:	2101      	movs	r1, #1
100074ce:	6001      	str	r1, [r0, #0]
100074d0:	f8dc 4000 	ldr.w	r4, [ip]
100074d4:	f114 0f10 	cmn.w	r4, #16
100074d8:	f104 010f 	add.w	r1, r4, #15
100074dc:	d924      	bls.n	10007528 <I2C_tx+0x454>
100074de:	bf00      	nop
100074e0:	f8dc 5000 	ldr.w	r5, [ip]
100074e4:	42a5      	cmp	r5, r4
100074e6:	d319      	bcc.n	1000751c <I2C_tx+0x448>
100074e8:	f8dc 5000 	ldr.w	r5, [ip]
100074ec:	42a5      	cmp	r5, r4
100074ee:	d315      	bcc.n	1000751c <I2C_tx+0x448>
100074f0:	f8dc 5000 	ldr.w	r5, [ip]
100074f4:	42a5      	cmp	r5, r4
100074f6:	d311      	bcc.n	1000751c <I2C_tx+0x448>
100074f8:	f8dc 5000 	ldr.w	r5, [ip]
100074fc:	42a5      	cmp	r5, r4
100074fe:	d2ef      	bcs.n	100074e0 <I2C_tx+0x40c>
10007500:	e00c      	b.n	1000751c <I2C_tx+0x448>
10007502:	bf00      	nop
10007504:	f8dc 4000 	ldr.w	r4, [ip]
10007508:	428c      	cmp	r4, r1
1000750a:	d22d      	bcs.n	10007568 <I2C_tx+0x494>
1000750c:	f8dc 4000 	ldr.w	r4, [ip]
10007510:	428c      	cmp	r4, r1
10007512:	d229      	bcs.n	10007568 <I2C_tx+0x494>
10007514:	f8dc 4000 	ldr.w	r4, [ip]
10007518:	428c      	cmp	r4, r1
1000751a:	d225      	bcs.n	10007568 <I2C_tx+0x494>
1000751c:	f8dc 4000 	ldr.w	r4, [ip]
10007520:	428c      	cmp	r4, r1
10007522:	d3ef      	bcc.n	10007504 <I2C_tx+0x430>
10007524:	e020      	b.n	10007568 <I2C_tx+0x494>
10007526:	bf00      	nop
10007528:	f8dc 5000 	ldr.w	r5, [ip]
1000752c:	42a5      	cmp	r5, r4
1000752e:	d31b      	bcc.n	10007568 <I2C_tx+0x494>
10007530:	f8dc 5000 	ldr.w	r5, [ip]
10007534:	428d      	cmp	r5, r1
10007536:	d217      	bcs.n	10007568 <I2C_tx+0x494>
10007538:	f8dc 5000 	ldr.w	r5, [ip]
1000753c:	42a5      	cmp	r5, r4
1000753e:	d313      	bcc.n	10007568 <I2C_tx+0x494>
10007540:	f8dc 5000 	ldr.w	r5, [ip]
10007544:	428d      	cmp	r5, r1
10007546:	d20f      	bcs.n	10007568 <I2C_tx+0x494>
10007548:	f8dc 5000 	ldr.w	r5, [ip]
1000754c:	42a5      	cmp	r5, r4
1000754e:	d30b      	bcc.n	10007568 <I2C_tx+0x494>
10007550:	f8dc 5000 	ldr.w	r5, [ip]
10007554:	428d      	cmp	r5, r1
10007556:	d207      	bcs.n	10007568 <I2C_tx+0x494>
10007558:	f8dc 5000 	ldr.w	r5, [ip]
1000755c:	42a5      	cmp	r5, r4
1000755e:	d303      	bcc.n	10007568 <I2C_tx+0x494>
10007560:	f8dc 5000 	ldr.w	r5, [ip]
10007564:	428d      	cmp	r5, r1
10007566:	d3df      	bcc.n	10007528 <I2C_tx+0x454>
10007568:	6801      	ldr	r1, [r0, #0]
1000756a:	f04f 0b01 	mov.w	fp, #1
1000756e:	2b00      	cmp	r3, #0
10007570:	f8c0 b004 	str.w	fp, [r0, #4]
10007574:	f000 8162 	beq.w	1000783c <I2C_tx+0x768>
10007578:	2200      	movs	r2, #0
1000757a:	f04f 0902 	mov.w	r9, #2
1000757e:	e006      	b.n	1000758e <I2C_tx+0x4ba>
10007580:	3201      	adds	r2, #1
10007582:	6801      	ldr	r1, [r0, #0]
10007584:	429a      	cmp	r2, r3
10007586:	f8c0 b004 	str.w	fp, [r0, #4]
1000758a:	f000 8157 	beq.w	1000783c <I2C_tx+0x768>
1000758e:	9900      	ldr	r1, [sp, #0]
10007590:	f04f 0800 	mov.w	r8, #0
10007594:	5c8d      	ldrb	r5, [r1, r2]
10007596:	e008      	b.n	100075aa <I2C_tx+0x4d6>
10007598:	006d      	lsls	r5, r5, #1
1000759a:	f1b8 0f07 	cmp.w	r8, #7
1000759e:	f108 0801 	add.w	r8, r8, #1
100075a2:	f8c0 b004 	str.w	fp, [r0, #4]
100075a6:	f080 80a7 	bcs.w	100076f8 <I2C_tx+0x624>
100075aa:	b269      	sxtb	r1, r5
100075ac:	2900      	cmp	r1, #0
100075ae:	4651      	mov	r1, sl
100075b0:	bf48      	it	mi
100075b2:	4601      	movmi	r1, r0
100075b4:	f8c1 9000 	str.w	r9, [r1]
100075b8:	f8dc 1000 	ldr.w	r1, [ip]
100075bc:	f111 0f10 	cmn.w	r1, #16
100075c0:	f101 040f 	add.w	r4, r1, #15
100075c4:	d922      	bls.n	1000760c <I2C_tx+0x538>
100075c6:	bf00      	nop
100075c8:	f8dc 6000 	ldr.w	r6, [ip]
100075cc:	428e      	cmp	r6, r1
100075ce:	d30b      	bcc.n	100075e8 <I2C_tx+0x514>
100075d0:	f8dc 6000 	ldr.w	r6, [ip]
100075d4:	428e      	cmp	r6, r1
100075d6:	d307      	bcc.n	100075e8 <I2C_tx+0x514>
100075d8:	f8dc 6000 	ldr.w	r6, [ip]
100075dc:	428e      	cmp	r6, r1
100075de:	d303      	bcc.n	100075e8 <I2C_tx+0x514>
100075e0:	f8dc 6000 	ldr.w	r6, [ip]
100075e4:	428e      	cmp	r6, r1
100075e6:	d2ef      	bcs.n	100075c8 <I2C_tx+0x4f4>
100075e8:	f8dc 1000 	ldr.w	r1, [ip]
100075ec:	42a1      	cmp	r1, r4
100075ee:	d22d      	bcs.n	1000764c <I2C_tx+0x578>
100075f0:	f8dc 1000 	ldr.w	r1, [ip]
100075f4:	42a1      	cmp	r1, r4
100075f6:	d229      	bcs.n	1000764c <I2C_tx+0x578>
100075f8:	f8dc 1000 	ldr.w	r1, [ip]
100075fc:	42a1      	cmp	r1, r4
100075fe:	d225      	bcs.n	1000764c <I2C_tx+0x578>
10007600:	f8dc 1000 	ldr.w	r1, [ip]
10007604:	42a1      	cmp	r1, r4
10007606:	d3ef      	bcc.n	100075e8 <I2C_tx+0x514>
10007608:	e020      	b.n	1000764c <I2C_tx+0x578>
1000760a:	bf00      	nop
1000760c:	f8dc e000 	ldr.w	lr, [ip]
10007610:	458e      	cmp	lr, r1
10007612:	d31b      	bcc.n	1000764c <I2C_tx+0x578>
10007614:	f8dc 6000 	ldr.w	r6, [ip]
10007618:	42a6      	cmp	r6, r4
1000761a:	d217      	bcs.n	1000764c <I2C_tx+0x578>
1000761c:	f8dc 6000 	ldr.w	r6, [ip]
10007620:	428e      	cmp	r6, r1
10007622:	d313      	bcc.n	1000764c <I2C_tx+0x578>
10007624:	f8dc 6000 	ldr.w	r6, [ip]
10007628:	42a6      	cmp	r6, r4
1000762a:	d20f      	bcs.n	1000764c <I2C_tx+0x578>
1000762c:	f8dc 6000 	ldr.w	r6, [ip]
10007630:	428e      	cmp	r6, r1
10007632:	d30b      	bcc.n	1000764c <I2C_tx+0x578>
10007634:	f8dc 6000 	ldr.w	r6, [ip]
10007638:	42a6      	cmp	r6, r4
1000763a:	d207      	bcs.n	1000764c <I2C_tx+0x578>
1000763c:	f8dc 6000 	ldr.w	r6, [ip]
10007640:	428e      	cmp	r6, r1
10007642:	d303      	bcc.n	1000764c <I2C_tx+0x578>
10007644:	f8dc 6000 	ldr.w	r6, [ip]
10007648:	42a6      	cmp	r6, r4
1000764a:	d3df      	bcc.n	1000760c <I2C_tx+0x538>
1000764c:	f8c0 b000 	str.w	fp, [r0]
10007650:	f8dc 1000 	ldr.w	r1, [ip]
10007654:	f111 0f10 	cmn.w	r1, #16
10007658:	f101 040f 	add.w	r4, r1, #15
1000765c:	d924      	bls.n	100076a8 <I2C_tx+0x5d4>
1000765e:	bf00      	nop
10007660:	f8dc 6000 	ldr.w	r6, [ip]
10007664:	428e      	cmp	r6, r1
10007666:	d30b      	bcc.n	10007680 <I2C_tx+0x5ac>
10007668:	f8dc 6000 	ldr.w	r6, [ip]
1000766c:	428e      	cmp	r6, r1
1000766e:	d307      	bcc.n	10007680 <I2C_tx+0x5ac>
10007670:	f8dc 6000 	ldr.w	r6, [ip]
10007674:	428e      	cmp	r6, r1
10007676:	d303      	bcc.n	10007680 <I2C_tx+0x5ac>
10007678:	f8dc 6000 	ldr.w	r6, [ip]
1000767c:	428e      	cmp	r6, r1
1000767e:	d2ef      	bcs.n	10007660 <I2C_tx+0x58c>
10007680:	f8dc 1000 	ldr.w	r1, [ip]
10007684:	42a1      	cmp	r1, r4
10007686:	f4bf af87 	bcs.w	10007598 <I2C_tx+0x4c4>
1000768a:	f8dc 1000 	ldr.w	r1, [ip]
1000768e:	42a1      	cmp	r1, r4
10007690:	f4bf af82 	bcs.w	10007598 <I2C_tx+0x4c4>
10007694:	f8dc 1000 	ldr.w	r1, [ip]
10007698:	42a1      	cmp	r1, r4
1000769a:	f4bf af7d 	bcs.w	10007598 <I2C_tx+0x4c4>
1000769e:	f8dc 1000 	ldr.w	r1, [ip]
100076a2:	42a1      	cmp	r1, r4
100076a4:	d3ec      	bcc.n	10007680 <I2C_tx+0x5ac>
100076a6:	e777      	b.n	10007598 <I2C_tx+0x4c4>
100076a8:	f8dc 6000 	ldr.w	r6, [ip]
100076ac:	428e      	cmp	r6, r1
100076ae:	f4ff af73 	bcc.w	10007598 <I2C_tx+0x4c4>
100076b2:	f8dc 6000 	ldr.w	r6, [ip]
100076b6:	42a6      	cmp	r6, r4
100076b8:	f4bf af6e 	bcs.w	10007598 <I2C_tx+0x4c4>
100076bc:	f8dc 6000 	ldr.w	r6, [ip]
100076c0:	428e      	cmp	r6, r1
100076c2:	f4ff af69 	bcc.w	10007598 <I2C_tx+0x4c4>
100076c6:	f8dc 6000 	ldr.w	r6, [ip]
100076ca:	42a6      	cmp	r6, r4
100076cc:	f4bf af64 	bcs.w	10007598 <I2C_tx+0x4c4>
100076d0:	f8dc 6000 	ldr.w	r6, [ip]
100076d4:	428e      	cmp	r6, r1
100076d6:	f4ff af5f 	bcc.w	10007598 <I2C_tx+0x4c4>
100076da:	f8dc 6000 	ldr.w	r6, [ip]
100076de:	42a6      	cmp	r6, r4
100076e0:	f4bf af5a 	bcs.w	10007598 <I2C_tx+0x4c4>
100076e4:	f8dc 6000 	ldr.w	r6, [ip]
100076e8:	428e      	cmp	r6, r1
100076ea:	f4ff af55 	bcc.w	10007598 <I2C_tx+0x4c4>
100076ee:	f8dc 6000 	ldr.w	r6, [ip]
100076f2:	42a6      	cmp	r6, r4
100076f4:	d3d8      	bcc.n	100076a8 <I2C_tx+0x5d4>
100076f6:	e74f      	b.n	10007598 <I2C_tx+0x4c4>
100076f8:	f8c0 9000 	str.w	r9, [r0]
100076fc:	f8dc 1000 	ldr.w	r1, [ip]
10007700:	f111 0f10 	cmn.w	r1, #16
10007704:	f101 040f 	add.w	r4, r1, #15
10007708:	d922      	bls.n	10007750 <I2C_tx+0x67c>
1000770a:	bf00      	nop
1000770c:	f8dc 6000 	ldr.w	r6, [ip]
10007710:	428e      	cmp	r6, r1
10007712:	d30b      	bcc.n	1000772c <I2C_tx+0x658>
10007714:	f8dc 6000 	ldr.w	r6, [ip]
10007718:	428e      	cmp	r6, r1
1000771a:	d307      	bcc.n	1000772c <I2C_tx+0x658>
1000771c:	f8dc 6000 	ldr.w	r6, [ip]
10007720:	428e      	cmp	r6, r1
10007722:	d303      	bcc.n	1000772c <I2C_tx+0x658>
10007724:	f8dc 6000 	ldr.w	r6, [ip]
10007728:	428e      	cmp	r6, r1
1000772a:	d2ef      	bcs.n	1000770c <I2C_tx+0x638>
1000772c:	f8dc 1000 	ldr.w	r1, [ip]
10007730:	42a1      	cmp	r1, r4
10007732:	d22d      	bcs.n	10007790 <I2C_tx+0x6bc>
10007734:	f8dc 1000 	ldr.w	r1, [ip]
10007738:	42a1      	cmp	r1, r4
1000773a:	d229      	bcs.n	10007790 <I2C_tx+0x6bc>
1000773c:	f8dc 1000 	ldr.w	r1, [ip]
10007740:	42a1      	cmp	r1, r4
10007742:	d225      	bcs.n	10007790 <I2C_tx+0x6bc>
10007744:	f8dc 1000 	ldr.w	r1, [ip]
10007748:	42a1      	cmp	r1, r4
1000774a:	d3ef      	bcc.n	1000772c <I2C_tx+0x658>
1000774c:	e020      	b.n	10007790 <I2C_tx+0x6bc>
1000774e:	bf00      	nop
10007750:	f8dc 6000 	ldr.w	r6, [ip]
10007754:	428e      	cmp	r6, r1
10007756:	d31b      	bcc.n	10007790 <I2C_tx+0x6bc>
10007758:	f8dc 6000 	ldr.w	r6, [ip]
1000775c:	42a6      	cmp	r6, r4
1000775e:	d217      	bcs.n	10007790 <I2C_tx+0x6bc>
10007760:	f8dc 6000 	ldr.w	r6, [ip]
10007764:	428e      	cmp	r6, r1
10007766:	d313      	bcc.n	10007790 <I2C_tx+0x6bc>
10007768:	f8dc 6000 	ldr.w	r6, [ip]
1000776c:	42a6      	cmp	r6, r4
1000776e:	d20f      	bcs.n	10007790 <I2C_tx+0x6bc>
10007770:	f8dc 6000 	ldr.w	r6, [ip]
10007774:	428e      	cmp	r6, r1
10007776:	d30b      	bcc.n	10007790 <I2C_tx+0x6bc>
10007778:	f8dc 6000 	ldr.w	r6, [ip]
1000777c:	42a6      	cmp	r6, r4
1000777e:	d207      	bcs.n	10007790 <I2C_tx+0x6bc>
10007780:	f8dc 6000 	ldr.w	r6, [ip]
10007784:	428e      	cmp	r6, r1
10007786:	d303      	bcc.n	10007790 <I2C_tx+0x6bc>
10007788:	f8dc 6000 	ldr.w	r6, [ip]
1000778c:	42a6      	cmp	r6, r4
1000778e:	d3df      	bcc.n	10007750 <I2C_tx+0x67c>
10007790:	f8c0 b000 	str.w	fp, [r0]
10007794:	f8dc 1000 	ldr.w	r1, [ip]
10007798:	f111 0f10 	cmn.w	r1, #16
1000779c:	f101 040f 	add.w	r4, r1, #15
100077a0:	d924      	bls.n	100077ec <I2C_tx+0x718>
100077a2:	bf00      	nop
100077a4:	f8dc 6000 	ldr.w	r6, [ip]
100077a8:	428e      	cmp	r6, r1
100077aa:	d30b      	bcc.n	100077c4 <I2C_tx+0x6f0>
100077ac:	f8dc 6000 	ldr.w	r6, [ip]
100077b0:	428e      	cmp	r6, r1
100077b2:	d307      	bcc.n	100077c4 <I2C_tx+0x6f0>
100077b4:	f8dc 6000 	ldr.w	r6, [ip]
100077b8:	428e      	cmp	r6, r1
100077ba:	d303      	bcc.n	100077c4 <I2C_tx+0x6f0>
100077bc:	f8dc 6000 	ldr.w	r6, [ip]
100077c0:	428e      	cmp	r6, r1
100077c2:	d2ef      	bcs.n	100077a4 <I2C_tx+0x6d0>
100077c4:	f8dc 1000 	ldr.w	r1, [ip]
100077c8:	42a1      	cmp	r1, r4
100077ca:	f4bf aed9 	bcs.w	10007580 <I2C_tx+0x4ac>
100077ce:	f8dc 1000 	ldr.w	r1, [ip]
100077d2:	42a1      	cmp	r1, r4
100077d4:	f4bf aed4 	bcs.w	10007580 <I2C_tx+0x4ac>
100077d8:	f8dc 1000 	ldr.w	r1, [ip]
100077dc:	42a1      	cmp	r1, r4
100077de:	f4bf aecf 	bcs.w	10007580 <I2C_tx+0x4ac>
100077e2:	f8dc 1000 	ldr.w	r1, [ip]
100077e6:	42a1      	cmp	r1, r4
100077e8:	d3ec      	bcc.n	100077c4 <I2C_tx+0x6f0>
100077ea:	e6c9      	b.n	10007580 <I2C_tx+0x4ac>
100077ec:	f8dc 6000 	ldr.w	r6, [ip]
100077f0:	428e      	cmp	r6, r1
100077f2:	f4ff aec5 	bcc.w	10007580 <I2C_tx+0x4ac>
100077f6:	f8dc 6000 	ldr.w	r6, [ip]
100077fa:	42a6      	cmp	r6, r4
100077fc:	f4bf aec0 	bcs.w	10007580 <I2C_tx+0x4ac>
10007800:	f8dc 6000 	ldr.w	r6, [ip]
10007804:	428e      	cmp	r6, r1
10007806:	f4ff aebb 	bcc.w	10007580 <I2C_tx+0x4ac>
1000780a:	f8dc 6000 	ldr.w	r6, [ip]
1000780e:	42a6      	cmp	r6, r4
10007810:	f4bf aeb6 	bcs.w	10007580 <I2C_tx+0x4ac>
10007814:	f8dc 6000 	ldr.w	r6, [ip]
10007818:	428e      	cmp	r6, r1
1000781a:	f4ff aeb1 	bcc.w	10007580 <I2C_tx+0x4ac>
1000781e:	f8dc 6000 	ldr.w	r6, [ip]
10007822:	42a6      	cmp	r6, r4
10007824:	f4bf aeac 	bcs.w	10007580 <I2C_tx+0x4ac>
10007828:	f8dc 6000 	ldr.w	r6, [ip]
1000782c:	428e      	cmp	r6, r1
1000782e:	f4ff aea7 	bcc.w	10007580 <I2C_tx+0x4ac>
10007832:	f8dc 6000 	ldr.w	r6, [ip]
10007836:	42a6      	cmp	r6, r4
10007838:	d3d8      	bcc.n	100077ec <I2C_tx+0x718>
1000783a:	e6a1      	b.n	10007580 <I2C_tx+0x4ac>
1000783c:	68b9      	ldr	r1, [r7, #8]
1000783e:	b119      	cbz	r1, 10007848 <I2C_tx+0x774>
10007840:	b001      	add	sp, #4
10007842:	e8bd 0f00 	ldmia.w	sp!, {r8, r9, sl, fp}
10007846:	bdf0      	pop	{r4, r5, r6, r7, pc}
10007848:	2102      	movs	r1, #2
1000784a:	6041      	str	r1, [r0, #4]
1000784c:	f8dc 2000 	ldr.w	r2, [ip]
10007850:	f112 0f10 	cmn.w	r2, #16
10007854:	f102 010f 	add.w	r1, r2, #15
10007858:	d924      	bls.n	100078a4 <I2C_tx+0x7d0>
1000785a:	bf00      	nop
1000785c:	f8dc 3000 	ldr.w	r3, [ip]
10007860:	4293      	cmp	r3, r2
10007862:	d319      	bcc.n	10007898 <I2C_tx+0x7c4>
10007864:	f8dc 3000 	ldr.w	r3, [ip]
10007868:	4293      	cmp	r3, r2
1000786a:	d315      	bcc.n	10007898 <I2C_tx+0x7c4>
1000786c:	f8dc 3000 	ldr.w	r3, [ip]
10007870:	4293      	cmp	r3, r2
10007872:	d311      	bcc.n	10007898 <I2C_tx+0x7c4>
10007874:	f8dc 3000 	ldr.w	r3, [ip]
10007878:	4293      	cmp	r3, r2
1000787a:	d2ef      	bcs.n	1000785c <I2C_tx+0x788>
1000787c:	e00c      	b.n	10007898 <I2C_tx+0x7c4>
1000787e:	bf00      	nop
10007880:	f8dc 2000 	ldr.w	r2, [ip]
10007884:	428a      	cmp	r2, r1
10007886:	d22d      	bcs.n	100078e4 <I2C_tx+0x810>
10007888:	f8dc 2000 	ldr.w	r2, [ip]
1000788c:	428a      	cmp	r2, r1
1000788e:	d229      	bcs.n	100078e4 <I2C_tx+0x810>
10007890:	f8dc 2000 	ldr.w	r2, [ip]
10007894:	428a      	cmp	r2, r1
10007896:	d225      	bcs.n	100078e4 <I2C_tx+0x810>
10007898:	f8dc 2000 	ldr.w	r2, [ip]
1000789c:	428a      	cmp	r2, r1
1000789e:	d3ef      	bcc.n	10007880 <I2C_tx+0x7ac>
100078a0:	e020      	b.n	100078e4 <I2C_tx+0x810>
100078a2:	bf00      	nop
100078a4:	f8dc 3000 	ldr.w	r3, [ip]
100078a8:	4293      	cmp	r3, r2
100078aa:	d31b      	bcc.n	100078e4 <I2C_tx+0x810>
100078ac:	f8dc 3000 	ldr.w	r3, [ip]
100078b0:	428b      	cmp	r3, r1
100078b2:	d217      	bcs.n	100078e4 <I2C_tx+0x810>
100078b4:	f8dc 3000 	ldr.w	r3, [ip]
100078b8:	4293      	cmp	r3, r2
100078ba:	d313      	bcc.n	100078e4 <I2C_tx+0x810>
100078bc:	f8dc 3000 	ldr.w	r3, [ip]
100078c0:	428b      	cmp	r3, r1
100078c2:	d20f      	bcs.n	100078e4 <I2C_tx+0x810>
100078c4:	f8dc 3000 	ldr.w	r3, [ip]
100078c8:	4293      	cmp	r3, r2
100078ca:	d30b      	bcc.n	100078e4 <I2C_tx+0x810>
100078cc:	f8dc 3000 	ldr.w	r3, [ip]
100078d0:	428b      	cmp	r3, r1
100078d2:	d207      	bcs.n	100078e4 <I2C_tx+0x810>
100078d4:	f8dc 3000 	ldr.w	r3, [ip]
100078d8:	4293      	cmp	r3, r2
100078da:	d303      	bcc.n	100078e4 <I2C_tx+0x810>
100078dc:	f8dc 3000 	ldr.w	r3, [ip]
100078e0:	428b      	cmp	r3, r1
100078e2:	d3df      	bcc.n	100078a4 <I2C_tx+0x7d0>
100078e4:	2101      	movs	r1, #1
100078e6:	6001      	str	r1, [r0, #0]
100078e8:	f8dc 2000 	ldr.w	r2, [ip]
100078ec:	f112 0f10 	cmn.w	r2, #16
100078f0:	f102 010f 	add.w	r1, r2, #15
100078f4:	d924      	bls.n	10007940 <I2C_tx+0x86c>
100078f6:	bf00      	nop
100078f8:	f8dc 3000 	ldr.w	r3, [ip]
100078fc:	4293      	cmp	r3, r2
100078fe:	d319      	bcc.n	10007934 <I2C_tx+0x860>
10007900:	f8dc 3000 	ldr.w	r3, [ip]
10007904:	4293      	cmp	r3, r2
10007906:	d315      	bcc.n	10007934 <I2C_tx+0x860>
10007908:	f8dc 3000 	ldr.w	r3, [ip]
1000790c:	4293      	cmp	r3, r2
1000790e:	d311      	bcc.n	10007934 <I2C_tx+0x860>
10007910:	f8dc 3000 	ldr.w	r3, [ip]
10007914:	4293      	cmp	r3, r2
10007916:	d2ef      	bcs.n	100078f8 <I2C_tx+0x824>
10007918:	e00c      	b.n	10007934 <I2C_tx+0x860>
1000791a:	bf00      	nop
1000791c:	f8dc 2000 	ldr.w	r2, [ip]
10007920:	428a      	cmp	r2, r1
10007922:	d22d      	bcs.n	10007980 <I2C_tx+0x8ac>
10007924:	f8dc 2000 	ldr.w	r2, [ip]
10007928:	428a      	cmp	r2, r1
1000792a:	d229      	bcs.n	10007980 <I2C_tx+0x8ac>
1000792c:	f8dc 2000 	ldr.w	r2, [ip]
10007930:	428a      	cmp	r2, r1
10007932:	d225      	bcs.n	10007980 <I2C_tx+0x8ac>
10007934:	f8dc 2000 	ldr.w	r2, [ip]
10007938:	428a      	cmp	r2, r1
1000793a:	d3ef      	bcc.n	1000791c <I2C_tx+0x848>
1000793c:	e020      	b.n	10007980 <I2C_tx+0x8ac>
1000793e:	bf00      	nop
10007940:	f8dc 3000 	ldr.w	r3, [ip]
10007944:	4293      	cmp	r3, r2
10007946:	d31b      	bcc.n	10007980 <I2C_tx+0x8ac>
10007948:	f8dc 3000 	ldr.w	r3, [ip]
1000794c:	428b      	cmp	r3, r1
1000794e:	d217      	bcs.n	10007980 <I2C_tx+0x8ac>
10007950:	f8dc 3000 	ldr.w	r3, [ip]
10007954:	4293      	cmp	r3, r2
10007956:	d313      	bcc.n	10007980 <I2C_tx+0x8ac>
10007958:	f8dc 3000 	ldr.w	r3, [ip]
1000795c:	428b      	cmp	r3, r1
1000795e:	d20f      	bcs.n	10007980 <I2C_tx+0x8ac>
10007960:	f8dc 3000 	ldr.w	r3, [ip]
10007964:	4293      	cmp	r3, r2
10007966:	d30b      	bcc.n	10007980 <I2C_tx+0x8ac>
10007968:	f8dc 3000 	ldr.w	r3, [ip]
1000796c:	428b      	cmp	r3, r1
1000796e:	d207      	bcs.n	10007980 <I2C_tx+0x8ac>
10007970:	f8dc 3000 	ldr.w	r3, [ip]
10007974:	4293      	cmp	r3, r2
10007976:	d303      	bcc.n	10007980 <I2C_tx+0x8ac>
10007978:	f8dc 3000 	ldr.w	r3, [ip]
1000797c:	428b      	cmp	r3, r1
1000797e:	d3df      	bcc.n	10007940 <I2C_tx+0x86c>
10007980:	2102      	movs	r1, #2
10007982:	6001      	str	r1, [r0, #0]
10007984:	f8dc 1000 	ldr.w	r1, [ip]
10007988:	f111 0f10 	cmn.w	r1, #16
1000798c:	f101 000f 	add.w	r0, r1, #15
10007990:	d926      	bls.n	100079e0 <I2C_tx+0x90c>
10007992:	bf00      	nop
10007994:	f8dc 2000 	ldr.w	r2, [ip]
10007998:	428a      	cmp	r2, r1
1000799a:	d31c      	bcc.n	100079d6 <I2C_tx+0x902>
1000799c:	f8dc 2000 	ldr.w	r2, [ip]
100079a0:	428a      	cmp	r2, r1
100079a2:	d318      	bcc.n	100079d6 <I2C_tx+0x902>
100079a4:	f8dc 2000 	ldr.w	r2, [ip]
100079a8:	428a      	cmp	r2, r1
100079aa:	d314      	bcc.n	100079d6 <I2C_tx+0x902>
100079ac:	f8dc 2000 	ldr.w	r2, [ip]
100079b0:	428a      	cmp	r2, r1
100079b2:	d2ef      	bcs.n	10007994 <I2C_tx+0x8c0>
100079b4:	e00f      	b.n	100079d6 <I2C_tx+0x902>
100079b6:	bf00      	nop
100079b8:	f8dc 1000 	ldr.w	r1, [ip]
100079bc:	4281      	cmp	r1, r0
100079be:	f4bf af3f 	bcs.w	10007840 <I2C_tx+0x76c>
100079c2:	f8dc 1000 	ldr.w	r1, [ip]
100079c6:	4281      	cmp	r1, r0
100079c8:	f4bf af3a 	bcs.w	10007840 <I2C_tx+0x76c>
100079cc:	f8dc 1000 	ldr.w	r1, [ip]
100079d0:	4281      	cmp	r1, r0
100079d2:	f4bf af35 	bcs.w	10007840 <I2C_tx+0x76c>
100079d6:	f8dc 1000 	ldr.w	r1, [ip]
100079da:	4281      	cmp	r1, r0
100079dc:	d3ec      	bcc.n	100079b8 <I2C_tx+0x8e4>
100079de:	e72f      	b.n	10007840 <I2C_tx+0x76c>
100079e0:	f8dc 2000 	ldr.w	r2, [ip]
100079e4:	428a      	cmp	r2, r1
100079e6:	f4ff af2b 	bcc.w	10007840 <I2C_tx+0x76c>
100079ea:	f8dc 2000 	ldr.w	r2, [ip]
100079ee:	4282      	cmp	r2, r0
100079f0:	f4bf af26 	bcs.w	10007840 <I2C_tx+0x76c>
100079f4:	f8dc 2000 	ldr.w	r2, [ip]
100079f8:	428a      	cmp	r2, r1
100079fa:	f4ff af21 	bcc.w	10007840 <I2C_tx+0x76c>
100079fe:	f8dc 2000 	ldr.w	r2, [ip]
10007a02:	4282      	cmp	r2, r0
10007a04:	f4bf af1c 	bcs.w	10007840 <I2C_tx+0x76c>
10007a08:	f8dc 2000 	ldr.w	r2, [ip]
10007a0c:	428a      	cmp	r2, r1
10007a0e:	f4ff af17 	bcc.w	10007840 <I2C_tx+0x76c>
10007a12:	f8dc 2000 	ldr.w	r2, [ip]
10007a16:	4282      	cmp	r2, r0
10007a18:	f4bf af12 	bcs.w	10007840 <I2C_tx+0x76c>
10007a1c:	f8dc 2000 	ldr.w	r2, [ip]
10007a20:	428a      	cmp	r2, r1
10007a22:	f4ff af0d 	bcc.w	10007840 <I2C_tx+0x76c>
10007a26:	f8dc 2000 	ldr.w	r2, [ip]
10007a2a:	4282      	cmp	r2, r0
10007a2c:	d3d8      	bcc.n	100079e0 <I2C_tx+0x90c>
10007a2e:	e707      	b.n	10007840 <I2C_tx+0x76c>

10007a30 <I2C_rx>:
10007a30:	b5f0      	push	{r4, r5, r6, r7, lr}
10007a32:	af03      	add	r7, sp, #12
10007a34:	e92d 0f00 	stmdb	sp!, {r8, r9, sl, fp}
10007a38:	f242 0c18 	movw	ip, #8216	@ 0x2018
10007a3c:	2603      	movs	r6, #3
10007a3e:	f2c5 0c30 	movt	ip, #20528	@ 0x5030
10007a42:	6006      	str	r6, [r0, #0]
10007a44:	f8dc 5000 	ldr.w	r5, [ip]
10007a48:	f115 0f10 	cmn.w	r5, #16
10007a4c:	f105 060f 	add.w	r6, r5, #15
10007a50:	d924      	bls.n	10007a9c <I2C_rx+0x6c>
10007a52:	bf00      	nop
10007a54:	f8dc 4000 	ldr.w	r4, [ip]
10007a58:	42ac      	cmp	r4, r5
10007a5a:	d319      	bcc.n	10007a90 <I2C_rx+0x60>
10007a5c:	f8dc 4000 	ldr.w	r4, [ip]
10007a60:	42ac      	cmp	r4, r5
10007a62:	d315      	bcc.n	10007a90 <I2C_rx+0x60>
10007a64:	f8dc 4000 	ldr.w	r4, [ip]
10007a68:	42ac      	cmp	r4, r5
10007a6a:	d311      	bcc.n	10007a90 <I2C_rx+0x60>
10007a6c:	f8dc 4000 	ldr.w	r4, [ip]
10007a70:	42ac      	cmp	r4, r5
10007a72:	d2ef      	bcs.n	10007a54 <I2C_rx+0x24>
10007a74:	e00c      	b.n	10007a90 <I2C_rx+0x60>
10007a76:	bf00      	nop
10007a78:	f8dc 5000 	ldr.w	r5, [ip]
10007a7c:	42b5      	cmp	r5, r6
10007a7e:	d22d      	bcs.n	10007adc <I2C_rx+0xac>
10007a80:	f8dc 5000 	ldr.w	r5, [ip]
10007a84:	42b5      	cmp	r5, r6
10007a86:	d229      	bcs.n	10007adc <I2C_rx+0xac>
10007a88:	f8dc 5000 	ldr.w	r5, [ip]
10007a8c:	42b5      	cmp	r5, r6
10007a8e:	d225      	bcs.n	10007adc <I2C_rx+0xac>
10007a90:	f8dc 5000 	ldr.w	r5, [ip]
10007a94:	42b5      	cmp	r5, r6
10007a96:	d3ef      	bcc.n	10007a78 <I2C_rx+0x48>
10007a98:	e020      	b.n	10007adc <I2C_rx+0xac>
10007a9a:	bf00      	nop
10007a9c:	f8dc 4000 	ldr.w	r4, [ip]
10007aa0:	42ac      	cmp	r4, r5
10007aa2:	d31b      	bcc.n	10007adc <I2C_rx+0xac>
10007aa4:	f8dc 4000 	ldr.w	r4, [ip]
10007aa8:	42b4      	cmp	r4, r6
10007aaa:	d217      	bcs.n	10007adc <I2C_rx+0xac>
10007aac:	f8dc 4000 	ldr.w	r4, [ip]
10007ab0:	42ac      	cmp	r4, r5
10007ab2:	d313      	bcc.n	10007adc <I2C_rx+0xac>
10007ab4:	f8dc 4000 	ldr.w	r4, [ip]
10007ab8:	42b4      	cmp	r4, r6
10007aba:	d20f      	bcs.n	10007adc <I2C_rx+0xac>
10007abc:	f8dc 4000 	ldr.w	r4, [ip]
10007ac0:	42ac      	cmp	r4, r5
10007ac2:	d30b      	bcc.n	10007adc <I2C_rx+0xac>
10007ac4:	f8dc 4000 	ldr.w	r4, [ip]
10007ac8:	42b4      	cmp	r4, r6
10007aca:	d207      	bcs.n	10007adc <I2C_rx+0xac>
10007acc:	f8dc 4000 	ldr.w	r4, [ip]
10007ad0:	42ac      	cmp	r4, r5
10007ad2:	d303      	bcc.n	10007adc <I2C_rx+0xac>
10007ad4:	f8dc 4000 	ldr.w	r4, [ip]
10007ad8:	42b4      	cmp	r4, r6
10007ada:	d3df      	bcc.n	10007a9c <I2C_rx+0x6c>
10007adc:	2602      	movs	r6, #2
10007ade:	6046      	str	r6, [r0, #4]
10007ae0:	f8dc 5000 	ldr.w	r5, [ip]
10007ae4:	f115 0f10 	cmn.w	r5, #16
10007ae8:	f105 060f 	add.w	r6, r5, #15
10007aec:	d924      	bls.n	10007b38 <I2C_rx+0x108>
10007aee:	bf00      	nop
10007af0:	f8dc 4000 	ldr.w	r4, [ip]
10007af4:	42ac      	cmp	r4, r5
10007af6:	d319      	bcc.n	10007b2c <I2C_rx+0xfc>
10007af8:	f8dc 4000 	ldr.w	r4, [ip]
10007afc:	42ac      	cmp	r4, r5
10007afe:	d315      	bcc.n	10007b2c <I2C_rx+0xfc>
10007b00:	f8dc 4000 	ldr.w	r4, [ip]
10007b04:	42ac      	cmp	r4, r5
10007b06:	d311      	bcc.n	10007b2c <I2C_rx+0xfc>
10007b08:	f8dc 4000 	ldr.w	r4, [ip]
10007b0c:	42ac      	cmp	r4, r5
10007b0e:	d2ef      	bcs.n	10007af0 <I2C_rx+0xc0>
10007b10:	e00c      	b.n	10007b2c <I2C_rx+0xfc>
10007b12:	bf00      	nop
10007b14:	f8dc 5000 	ldr.w	r5, [ip]
10007b18:	42b5      	cmp	r5, r6
10007b1a:	d22d      	bcs.n	10007b78 <I2C_rx+0x148>
10007b1c:	f8dc 5000 	ldr.w	r5, [ip]
10007b20:	42b5      	cmp	r5, r6
10007b22:	d229      	bcs.n	10007b78 <I2C_rx+0x148>
10007b24:	f8dc 5000 	ldr.w	r5, [ip]
10007b28:	42b5      	cmp	r5, r6
10007b2a:	d225      	bcs.n	10007b78 <I2C_rx+0x148>
10007b2c:	f8dc 5000 	ldr.w	r5, [ip]
10007b30:	42b5      	cmp	r5, r6
10007b32:	d3ef      	bcc.n	10007b14 <I2C_rx+0xe4>
10007b34:	e020      	b.n	10007b78 <I2C_rx+0x148>
10007b36:	bf00      	nop
10007b38:	f8dc 4000 	ldr.w	r4, [ip]
10007b3c:	42ac      	cmp	r4, r5
10007b3e:	d31b      	bcc.n	10007b78 <I2C_rx+0x148>
10007b40:	f8dc 4000 	ldr.w	r4, [ip]
10007b44:	42b4      	cmp	r4, r6
10007b46:	d217      	bcs.n	10007b78 <I2C_rx+0x148>
10007b48:	f8dc 4000 	ldr.w	r4, [ip]
10007b4c:	42ac      	cmp	r4, r5
10007b4e:	d313      	bcc.n	10007b78 <I2C_rx+0x148>
10007b50:	f8dc 4000 	ldr.w	r4, [ip]
10007b54:	42b4      	cmp	r4, r6
10007b56:	d20f      	bcs.n	10007b78 <I2C_rx+0x148>
10007b58:	f8dc 4000 	ldr.w	r4, [ip]
10007b5c:	42ac      	cmp	r4, r5
10007b5e:	d30b      	bcc.n	10007b78 <I2C_rx+0x148>
10007b60:	f8dc 4000 	ldr.w	r4, [ip]
10007b64:	42b4      	cmp	r4, r6
10007b66:	d207      	bcs.n	10007b78 <I2C_rx+0x148>
10007b68:	f8dc 4000 	ldr.w	r4, [ip]
10007b6c:	42ac      	cmp	r4, r5
10007b6e:	d303      	bcc.n	10007b78 <I2C_rx+0x148>
10007b70:	f8dc 4000 	ldr.w	r4, [ip]
10007b74:	42b4      	cmp	r4, r6
10007b76:	d3df      	bcc.n	10007b38 <I2C_rx+0x108>
10007b78:	2601      	movs	r6, #1
10007b7a:	6046      	str	r6, [r0, #4]
10007b7c:	f8dc 5000 	ldr.w	r5, [ip]
10007b80:	f115 0f10 	cmn.w	r5, #16
10007b84:	f105 060f 	add.w	r6, r5, #15
10007b88:	d924      	bls.n	10007bd4 <I2C_rx+0x1a4>
10007b8a:	bf00      	nop
10007b8c:	f8dc 4000 	ldr.w	r4, [ip]
10007b90:	42ac      	cmp	r4, r5
10007b92:	d319      	bcc.n	10007bc8 <I2C_rx+0x198>
10007b94:	f8dc 4000 	ldr.w	r4, [ip]
10007b98:	42ac      	cmp	r4, r5
10007b9a:	d315      	bcc.n	10007bc8 <I2C_rx+0x198>
10007b9c:	f8dc 4000 	ldr.w	r4, [ip]
10007ba0:	42ac      	cmp	r4, r5
10007ba2:	d311      	bcc.n	10007bc8 <I2C_rx+0x198>
10007ba4:	f8dc 4000 	ldr.w	r4, [ip]
10007ba8:	42ac      	cmp	r4, r5
10007baa:	d2ef      	bcs.n	10007b8c <I2C_rx+0x15c>
10007bac:	e00c      	b.n	10007bc8 <I2C_rx+0x198>
10007bae:	bf00      	nop
10007bb0:	f8dc 5000 	ldr.w	r5, [ip]
10007bb4:	42b5      	cmp	r5, r6
10007bb6:	d22d      	bcs.n	10007c14 <I2C_rx+0x1e4>
10007bb8:	f8dc 5000 	ldr.w	r5, [ip]
10007bbc:	42b5      	cmp	r5, r6
10007bbe:	d229      	bcs.n	10007c14 <I2C_rx+0x1e4>
10007bc0:	f8dc 5000 	ldr.w	r5, [ip]
10007bc4:	42b5      	cmp	r5, r6
10007bc6:	d225      	bcs.n	10007c14 <I2C_rx+0x1e4>
10007bc8:	f8dc 5000 	ldr.w	r5, [ip]
10007bcc:	42b5      	cmp	r5, r6
10007bce:	d3ef      	bcc.n	10007bb0 <I2C_rx+0x180>
10007bd0:	e020      	b.n	10007c14 <I2C_rx+0x1e4>
10007bd2:	bf00      	nop
10007bd4:	f8dc 4000 	ldr.w	r4, [ip]
10007bd8:	42ac      	cmp	r4, r5
10007bda:	d31b      	bcc.n	10007c14 <I2C_rx+0x1e4>
10007bdc:	f8dc 4000 	ldr.w	r4, [ip]
10007be0:	42b4      	cmp	r4, r6
10007be2:	d217      	bcs.n	10007c14 <I2C_rx+0x1e4>
10007be4:	f8dc 4000 	ldr.w	r4, [ip]
10007be8:	42ac      	cmp	r4, r5
10007bea:	d313      	bcc.n	10007c14 <I2C_rx+0x1e4>
10007bec:	f8dc 4000 	ldr.w	r4, [ip]
10007bf0:	42b4      	cmp	r4, r6
10007bf2:	d20f      	bcs.n	10007c14 <I2C_rx+0x1e4>
10007bf4:	f8dc 4000 	ldr.w	r4, [ip]
10007bf8:	42ac      	cmp	r4, r5
10007bfa:	d30b      	bcc.n	10007c14 <I2C_rx+0x1e4>
10007bfc:	f8dc 4000 	ldr.w	r4, [ip]
10007c00:	42b4      	cmp	r4, r6
10007c02:	d207      	bcs.n	10007c14 <I2C_rx+0x1e4>
10007c04:	f8dc 4000 	ldr.w	r4, [ip]
10007c08:	42ac      	cmp	r4, r5
10007c0a:	d303      	bcc.n	10007c14 <I2C_rx+0x1e4>
10007c0c:	f8dc 4000 	ldr.w	r4, [ip]
10007c10:	42b4      	cmp	r4, r6
10007c12:	d3df      	bcc.n	10007bd4 <I2C_rx+0x1a4>
10007c14:	f8d7 e008 	ldr.w	lr, [r7, #8]
10007c18:	f04f 0a00 	mov.w	sl, #0
10007c1c:	f04f 0802 	mov.w	r8, #2
10007c20:	f04f 0901 	mov.w	r9, #1
10007c24:	e009      	b.n	10007c3a <I2C_rx+0x20a>
10007c26:	bf00      	nop
10007c28:	0049      	lsls	r1, r1, #1
10007c2a:	f1ba 0f07 	cmp.w	sl, #7
10007c2e:	f10a 0a01 	add.w	sl, sl, #1
10007c32:	f8c0 9004 	str.w	r9, [r0, #4]
10007c36:	f080 80a7 	bcs.w	10007d88 <I2C_rx+0x358>
10007c3a:	b24d      	sxtb	r5, r1
10007c3c:	2d00      	cmp	r5, #0
10007c3e:	4605      	mov	r5, r0
10007c40:	bf58      	it	pl
10007c42:	3504      	addpl	r5, #4
10007c44:	f8c5 8000 	str.w	r8, [r5]
10007c48:	f8dc 6000 	ldr.w	r6, [ip]
10007c4c:	f116 0f10 	cmn.w	r6, #16
10007c50:	f106 050f 	add.w	r5, r6, #15
10007c54:	d922      	bls.n	10007c9c <I2C_rx+0x26c>
10007c56:	bf00      	nop
10007c58:	f8dc 4000 	ldr.w	r4, [ip]
10007c5c:	42b4      	cmp	r4, r6
10007c5e:	d30b      	bcc.n	10007c78 <I2C_rx+0x248>
10007c60:	f8dc 4000 	ldr.w	r4, [ip]
10007c64:	42b4      	cmp	r4, r6
10007c66:	d307      	bcc.n	10007c78 <I2C_rx+0x248>
10007c68:	f8dc 4000 	ldr.w	r4, [ip]
10007c6c:	42b4      	cmp	r4, r6
10007c6e:	d303      	bcc.n	10007c78 <I2C_rx+0x248>
10007c70:	f8dc 4000 	ldr.w	r4, [ip]
10007c74:	42b4      	cmp	r4, r6
10007c76:	d2ef      	bcs.n	10007c58 <I2C_rx+0x228>
10007c78:	f8dc 4000 	ldr.w	r4, [ip]
10007c7c:	42ac      	cmp	r4, r5
10007c7e:	d22d      	bcs.n	10007cdc <I2C_rx+0x2ac>
10007c80:	f8dc 4000 	ldr.w	r4, [ip]
10007c84:	42ac      	cmp	r4, r5
10007c86:	d229      	bcs.n	10007cdc <I2C_rx+0x2ac>
10007c88:	f8dc 4000 	ldr.w	r4, [ip]
10007c8c:	42ac      	cmp	r4, r5
10007c8e:	d225      	bcs.n	10007cdc <I2C_rx+0x2ac>
10007c90:	f8dc 4000 	ldr.w	r4, [ip]
10007c94:	42ac      	cmp	r4, r5
10007c96:	d3ef      	bcc.n	10007c78 <I2C_rx+0x248>
10007c98:	e020      	b.n	10007cdc <I2C_rx+0x2ac>
10007c9a:	bf00      	nop
10007c9c:	f8dc 4000 	ldr.w	r4, [ip]
10007ca0:	42b4      	cmp	r4, r6
10007ca2:	d31b      	bcc.n	10007cdc <I2C_rx+0x2ac>
10007ca4:	f8dc 4000 	ldr.w	r4, [ip]
10007ca8:	42ac      	cmp	r4, r5
10007caa:	d217      	bcs.n	10007cdc <I2C_rx+0x2ac>
10007cac:	f8dc 4000 	ldr.w	r4, [ip]
10007cb0:	42b4      	cmp	r4, r6
10007cb2:	d313      	bcc.n	10007cdc <I2C_rx+0x2ac>
10007cb4:	f8dc 4000 	ldr.w	r4, [ip]
10007cb8:	42ac      	cmp	r4, r5
10007cba:	d20f      	bcs.n	10007cdc <I2C_rx+0x2ac>
10007cbc:	f8dc 4000 	ldr.w	r4, [ip]
10007cc0:	42b4      	cmp	r4, r6
10007cc2:	d30b      	bcc.n	10007cdc <I2C_rx+0x2ac>
10007cc4:	f8dc 4000 	ldr.w	r4, [ip]
10007cc8:	42ac      	cmp	r4, r5
10007cca:	d207      	bcs.n	10007cdc <I2C_rx+0x2ac>
10007ccc:	f8dc 4000 	ldr.w	r4, [ip]
10007cd0:	42b4      	cmp	r4, r6
10007cd2:	d303      	bcc.n	10007cdc <I2C_rx+0x2ac>
10007cd4:	f8dc 4000 	ldr.w	r4, [ip]
10007cd8:	42ac      	cmp	r4, r5
10007cda:	d3df      	bcc.n	10007c9c <I2C_rx+0x26c>
10007cdc:	f8c0 9000 	str.w	r9, [r0]
10007ce0:	f8dc 6000 	ldr.w	r6, [ip]
10007ce4:	f116 0f10 	cmn.w	r6, #16
10007ce8:	f106 050f 	add.w	r5, r6, #15
10007cec:	d924      	bls.n	10007d38 <I2C_rx+0x308>
10007cee:	bf00      	nop
10007cf0:	f8dc 4000 	ldr.w	r4, [ip]
10007cf4:	42b4      	cmp	r4, r6
10007cf6:	d30b      	bcc.n	10007d10 <I2C_rx+0x2e0>
10007cf8:	f8dc 4000 	ldr.w	r4, [ip]
10007cfc:	42b4      	cmp	r4, r6
10007cfe:	d307      	bcc.n	10007d10 <I2C_rx+0x2e0>
10007d00:	f8dc 4000 	ldr.w	r4, [ip]
10007d04:	42b4      	cmp	r4, r6
10007d06:	d303      	bcc.n	10007d10 <I2C_rx+0x2e0>
10007d08:	f8dc 4000 	ldr.w	r4, [ip]
10007d0c:	42b4      	cmp	r4, r6
10007d0e:	d2ef      	bcs.n	10007cf0 <I2C_rx+0x2c0>
10007d10:	f8dc 4000 	ldr.w	r4, [ip]
10007d14:	42ac      	cmp	r4, r5
10007d16:	f4bf af87 	bcs.w	10007c28 <I2C_rx+0x1f8>
10007d1a:	f8dc 4000 	ldr.w	r4, [ip]
10007d1e:	42ac      	cmp	r4, r5
10007d20:	f4bf af82 	bcs.w	10007c28 <I2C_rx+0x1f8>
10007d24:	f8dc 4000 	ldr.w	r4, [ip]
10007d28:	42ac      	cmp	r4, r5
10007d2a:	f4bf af7d 	bcs.w	10007c28 <I2C_rx+0x1f8>
10007d2e:	f8dc 4000 	ldr.w	r4, [ip]
10007d32:	42ac      	cmp	r4, r5
10007d34:	d3ec      	bcc.n	10007d10 <I2C_rx+0x2e0>
10007d36:	e777      	b.n	10007c28 <I2C_rx+0x1f8>
10007d38:	f8dc 4000 	ldr.w	r4, [ip]
10007d3c:	42b4      	cmp	r4, r6
10007d3e:	f4ff af73 	bcc.w	10007c28 <I2C_rx+0x1f8>
10007d42:	f8dc 4000 	ldr.w	r4, [ip]
10007d46:	42ac      	cmp	r4, r5
10007d48:	f4bf af6e 	bcs.w	10007c28 <I2C_rx+0x1f8>
10007d4c:	f8dc 4000 	ldr.w	r4, [ip]
10007d50:	42b4      	cmp	r4, r6
10007d52:	f4ff af69 	bcc.w	10007c28 <I2C_rx+0x1f8>
10007d56:	f8dc 4000 	ldr.w	r4, [ip]
10007d5a:	42ac      	cmp	r4, r5
10007d5c:	f4bf af64 	bcs.w	10007c28 <I2C_rx+0x1f8>
10007d60:	f8dc 4000 	ldr.w	r4, [ip]
10007d64:	42b4      	cmp	r4, r6
10007d66:	f4ff af5f 	bcc.w	10007c28 <I2C_rx+0x1f8>
10007d6a:	f8dc 4000 	ldr.w	r4, [ip]
10007d6e:	42ac      	cmp	r4, r5
10007d70:	f4bf af5a 	bcs.w	10007c28 <I2C_rx+0x1f8>
10007d74:	f8dc 4000 	ldr.w	r4, [ip]
10007d78:	42b4      	cmp	r4, r6
10007d7a:	f4ff af55 	bcc.w	10007c28 <I2C_rx+0x1f8>
10007d7e:	f8dc 4000 	ldr.w	r4, [ip]
10007d82:	42ac      	cmp	r4, r5
10007d84:	d3d8      	bcc.n	10007d38 <I2C_rx+0x308>
10007d86:	e74f      	b.n	10007c28 <I2C_rx+0x1f8>
10007d88:	2102      	movs	r1, #2
10007d8a:	6001      	str	r1, [r0, #0]
10007d8c:	f8dc 4000 	ldr.w	r4, [ip]
10007d90:	f114 0f10 	cmn.w	r4, #16
10007d94:	f104 010f 	add.w	r1, r4, #15
10007d98:	d924      	bls.n	10007de4 <I2C_rx+0x3b4>
10007d9a:	bf00      	nop
10007d9c:	f8dc 5000 	ldr.w	r5, [ip]
10007da0:	42a5      	cmp	r5, r4
10007da2:	d319      	bcc.n	10007dd8 <I2C_rx+0x3a8>
10007da4:	f8dc 5000 	ldr.w	r5, [ip]
10007da8:	42a5      	cmp	r5, r4
10007daa:	d315      	bcc.n	10007dd8 <I2C_rx+0x3a8>
10007dac:	f8dc 5000 	ldr.w	r5, [ip]
10007db0:	42a5      	cmp	r5, r4
10007db2:	d311      	bcc.n	10007dd8 <I2C_rx+0x3a8>
10007db4:	f8dc 5000 	ldr.w	r5, [ip]
10007db8:	42a5      	cmp	r5, r4
10007dba:	d2ef      	bcs.n	10007d9c <I2C_rx+0x36c>
10007dbc:	e00c      	b.n	10007dd8 <I2C_rx+0x3a8>
10007dbe:	bf00      	nop
10007dc0:	f8dc 4000 	ldr.w	r4, [ip]
10007dc4:	428c      	cmp	r4, r1
10007dc6:	d22d      	bcs.n	10007e24 <I2C_rx+0x3f4>
10007dc8:	f8dc 4000 	ldr.w	r4, [ip]
10007dcc:	428c      	cmp	r4, r1
10007dce:	d229      	bcs.n	10007e24 <I2C_rx+0x3f4>
10007dd0:	f8dc 4000 	ldr.w	r4, [ip]
10007dd4:	428c      	cmp	r4, r1
10007dd6:	d225      	bcs.n	10007e24 <I2C_rx+0x3f4>
10007dd8:	f8dc 4000 	ldr.w	r4, [ip]
10007ddc:	428c      	cmp	r4, r1
10007dde:	d3ef      	bcc.n	10007dc0 <I2C_rx+0x390>
10007de0:	e020      	b.n	10007e24 <I2C_rx+0x3f4>
10007de2:	bf00      	nop
10007de4:	f8dc 5000 	ldr.w	r5, [ip]
10007de8:	42a5      	cmp	r5, r4
10007dea:	d31b      	bcc.n	10007e24 <I2C_rx+0x3f4>
10007dec:	f8dc 5000 	ldr.w	r5, [ip]
10007df0:	428d      	cmp	r5, r1
10007df2:	d217      	bcs.n	10007e24 <I2C_rx+0x3f4>
10007df4:	f8dc 5000 	ldr.w	r5, [ip]
10007df8:	42a5      	cmp	r5, r4
10007dfa:	d313      	bcc.n	10007e24 <I2C_rx+0x3f4>
10007dfc:	f8dc 5000 	ldr.w	r5, [ip]
10007e00:	428d      	cmp	r5, r1
10007e02:	d20f      	bcs.n	10007e24 <I2C_rx+0x3f4>
10007e04:	f8dc 5000 	ldr.w	r5, [ip]
10007e08:	42a5      	cmp	r5, r4
10007e0a:	d30b      	bcc.n	10007e24 <I2C_rx+0x3f4>
10007e0c:	f8dc 5000 	ldr.w	r5, [ip]
10007e10:	428d      	cmp	r5, r1
10007e12:	d207      	bcs.n	10007e24 <I2C_rx+0x3f4>
10007e14:	f8dc 5000 	ldr.w	r5, [ip]
10007e18:	42a5      	cmp	r5, r4
10007e1a:	d303      	bcc.n	10007e24 <I2C_rx+0x3f4>
10007e1c:	f8dc 5000 	ldr.w	r5, [ip]
10007e20:	428d      	cmp	r5, r1
10007e22:	d3df      	bcc.n	10007de4 <I2C_rx+0x3b4>
10007e24:	2101      	movs	r1, #1
10007e26:	6001      	str	r1, [r0, #0]
10007e28:	f8dc 4000 	ldr.w	r4, [ip]
10007e2c:	f114 0f10 	cmn.w	r4, #16
10007e30:	f104 010f 	add.w	r1, r4, #15
10007e34:	d924      	bls.n	10007e80 <I2C_rx+0x450>
10007e36:	bf00      	nop
10007e38:	f8dc 5000 	ldr.w	r5, [ip]
10007e3c:	42a5      	cmp	r5, r4
10007e3e:	d319      	bcc.n	10007e74 <I2C_rx+0x444>
10007e40:	f8dc 5000 	ldr.w	r5, [ip]
10007e44:	42a5      	cmp	r5, r4
10007e46:	d315      	bcc.n	10007e74 <I2C_rx+0x444>
10007e48:	f8dc 5000 	ldr.w	r5, [ip]
10007e4c:	42a5      	cmp	r5, r4
10007e4e:	d311      	bcc.n	10007e74 <I2C_rx+0x444>
10007e50:	f8dc 5000 	ldr.w	r5, [ip]
10007e54:	42a5      	cmp	r5, r4
10007e56:	d2ef      	bcs.n	10007e38 <I2C_rx+0x408>
10007e58:	e00c      	b.n	10007e74 <I2C_rx+0x444>
10007e5a:	bf00      	nop
10007e5c:	f8dc 4000 	ldr.w	r4, [ip]
10007e60:	428c      	cmp	r4, r1
10007e62:	d22d      	bcs.n	10007ec0 <I2C_rx+0x490>
10007e64:	f8dc 4000 	ldr.w	r4, [ip]
10007e68:	428c      	cmp	r4, r1
10007e6a:	d229      	bcs.n	10007ec0 <I2C_rx+0x490>
10007e6c:	f8dc 4000 	ldr.w	r4, [ip]
10007e70:	428c      	cmp	r4, r1
10007e72:	d225      	bcs.n	10007ec0 <I2C_rx+0x490>
10007e74:	f8dc 4000 	ldr.w	r4, [ip]
10007e78:	428c      	cmp	r4, r1
10007e7a:	d3ef      	bcc.n	10007e5c <I2C_rx+0x42c>
10007e7c:	e020      	b.n	10007ec0 <I2C_rx+0x490>
10007e7e:	bf00      	nop
10007e80:	f8dc 5000 	ldr.w	r5, [ip]
10007e84:	42a5      	cmp	r5, r4
10007e86:	d31b      	bcc.n	10007ec0 <I2C_rx+0x490>
10007e88:	f8dc 5000 	ldr.w	r5, [ip]
10007e8c:	428d      	cmp	r5, r1
10007e8e:	d217      	bcs.n	10007ec0 <I2C_rx+0x490>
10007e90:	f8dc 5000 	ldr.w	r5, [ip]
10007e94:	42a5      	cmp	r5, r4
10007e96:	d313      	bcc.n	10007ec0 <I2C_rx+0x490>
10007e98:	f8dc 5000 	ldr.w	r5, [ip]
10007e9c:	428d      	cmp	r5, r1
10007e9e:	d20f      	bcs.n	10007ec0 <I2C_rx+0x490>
10007ea0:	f8dc 5000 	ldr.w	r5, [ip]
10007ea4:	42a5      	cmp	r5, r4
10007ea6:	d30b      	bcc.n	10007ec0 <I2C_rx+0x490>
10007ea8:	f8dc 5000 	ldr.w	r5, [ip]
10007eac:	428d      	cmp	r5, r1
10007eae:	d207      	bcs.n	10007ec0 <I2C_rx+0x490>
10007eb0:	f8dc 5000 	ldr.w	r5, [ip]
10007eb4:	42a5      	cmp	r5, r4
10007eb6:	d303      	bcc.n	10007ec0 <I2C_rx+0x490>
10007eb8:	f8dc 5000 	ldr.w	r5, [ip]
10007ebc:	428d      	cmp	r5, r1
10007ebe:	d3df      	bcc.n	10007e80 <I2C_rx+0x450>
10007ec0:	6801      	ldr	r1, [r0, #0]
10007ec2:	f04f 0901 	mov.w	r9, #1
10007ec6:	f04f 0a00 	mov.w	sl, #0
10007eca:	f04f 0802 	mov.w	r8, #2
10007ece:	2600      	movs	r6, #0
10007ed0:	f8c0 9004 	str.w	r9, [r0, #4]
10007ed4:	e00e      	b.n	10007ef4 <I2C_rx+0x4c4>
10007ed6:	bf00      	nop
10007ed8:	6801      	ldr	r1, [r0, #0]
10007eda:	ea4f 044a 	mov.w	r4, sl, lsl #1
10007ede:	f3c1 0140 	ubfx	r1, r1, #1, #1
10007ee2:	ea41 0a04 	orr.w	sl, r1, r4
10007ee6:	2e07      	cmp	r6, #7
10007ee8:	f106 0601 	add.w	r6, r6, #1
10007eec:	f8c0 9004 	str.w	r9, [r0, #4]
10007ef0:	f080 80a2 	bcs.w	10008038 <I2C_rx+0x608>
10007ef4:	f8c0 8000 	str.w	r8, [r0]
10007ef8:	f8dc 1000 	ldr.w	r1, [ip]
10007efc:	f111 0f10 	cmn.w	r1, #16
10007f00:	f101 050f 	add.w	r5, r1, #15
10007f04:	d922      	bls.n	10007f4c <I2C_rx+0x51c>
10007f06:	bf00      	nop
10007f08:	f8dc 4000 	ldr.w	r4, [ip]
10007f0c:	428c      	cmp	r4, r1
10007f0e:	d30b      	bcc.n	10007f28 <I2C_rx+0x4f8>
10007f10:	f8dc 4000 	ldr.w	r4, [ip]
10007f14:	428c      	cmp	r4, r1
10007f16:	d307      	bcc.n	10007f28 <I2C_rx+0x4f8>
10007f18:	f8dc 4000 	ldr.w	r4, [ip]
10007f1c:	428c      	cmp	r4, r1
10007f1e:	d303      	bcc.n	10007f28 <I2C_rx+0x4f8>
10007f20:	f8dc 4000 	ldr.w	r4, [ip]
10007f24:	428c      	cmp	r4, r1
10007f26:	d2ef      	bcs.n	10007f08 <I2C_rx+0x4d8>
10007f28:	f8dc 1000 	ldr.w	r1, [ip]
10007f2c:	42a9      	cmp	r1, r5
10007f2e:	d22d      	bcs.n	10007f8c <I2C_rx+0x55c>
10007f30:	f8dc 1000 	ldr.w	r1, [ip]
10007f34:	42a9      	cmp	r1, r5
10007f36:	d229      	bcs.n	10007f8c <I2C_rx+0x55c>
10007f38:	f8dc 1000 	ldr.w	r1, [ip]
10007f3c:	42a9      	cmp	r1, r5
10007f3e:	d225      	bcs.n	10007f8c <I2C_rx+0x55c>
10007f40:	f8dc 1000 	ldr.w	r1, [ip]
10007f44:	42a9      	cmp	r1, r5
10007f46:	d3ef      	bcc.n	10007f28 <I2C_rx+0x4f8>
10007f48:	e020      	b.n	10007f8c <I2C_rx+0x55c>
10007f4a:	bf00      	nop
10007f4c:	f8dc 4000 	ldr.w	r4, [ip]
10007f50:	428c      	cmp	r4, r1
10007f52:	d31b      	bcc.n	10007f8c <I2C_rx+0x55c>
10007f54:	f8dc 4000 	ldr.w	r4, [ip]
10007f58:	42ac      	cmp	r4, r5
10007f5a:	d217      	bcs.n	10007f8c <I2C_rx+0x55c>
10007f5c:	f8dc 4000 	ldr.w	r4, [ip]
10007f60:	428c      	cmp	r4, r1
10007f62:	d313      	bcc.n	10007f8c <I2C_rx+0x55c>
10007f64:	f8dc 4000 	ldr.w	r4, [ip]
10007f68:	42ac      	cmp	r4, r5
10007f6a:	d20f      	bcs.n	10007f8c <I2C_rx+0x55c>
10007f6c:	f8dc 4000 	ldr.w	r4, [ip]
10007f70:	428c      	cmp	r4, r1
10007f72:	d30b      	bcc.n	10007f8c <I2C_rx+0x55c>
10007f74:	f8dc 4000 	ldr.w	r4, [ip]
10007f78:	42ac      	cmp	r4, r5
10007f7a:	d207      	bcs.n	10007f8c <I2C_rx+0x55c>
10007f7c:	f8dc 4000 	ldr.w	r4, [ip]
10007f80:	428c      	cmp	r4, r1
10007f82:	d303      	bcc.n	10007f8c <I2C_rx+0x55c>
10007f84:	f8dc 4000 	ldr.w	r4, [ip]
10007f88:	42ac      	cmp	r4, r5
10007f8a:	d3df      	bcc.n	10007f4c <I2C_rx+0x51c>
10007f8c:	f8c0 9000 	str.w	r9, [r0]
10007f90:	f8dc 1000 	ldr.w	r1, [ip]
10007f94:	f111 0f10 	cmn.w	r1, #16
10007f98:	f101 050f 	add.w	r5, r1, #15
10007f9c:	d924      	bls.n	10007fe8 <I2C_rx+0x5b8>
10007f9e:	bf00      	nop
10007fa0:	f8dc 4000 	ldr.w	r4, [ip]
10007fa4:	428c      	cmp	r4, r1
10007fa6:	d30b      	bcc.n	10007fc0 <I2C_rx+0x590>
10007fa8:	f8dc 4000 	ldr.w	r4, [ip]
10007fac:	428c      	cmp	r4, r1
10007fae:	d307      	bcc.n	10007fc0 <I2C_rx+0x590>
10007fb0:	f8dc 4000 	ldr.w	r4, [ip]
10007fb4:	428c      	cmp	r4, r1
10007fb6:	d303      	bcc.n	10007fc0 <I2C_rx+0x590>
10007fb8:	f8dc 4000 	ldr.w	r4, [ip]
10007fbc:	428c      	cmp	r4, r1
10007fbe:	d2ef      	bcs.n	10007fa0 <I2C_rx+0x570>
10007fc0:	f8dc 1000 	ldr.w	r1, [ip]
10007fc4:	42a9      	cmp	r1, r5
10007fc6:	f4bf af87 	bcs.w	10007ed8 <I2C_rx+0x4a8>
10007fca:	f8dc 1000 	ldr.w	r1, [ip]
10007fce:	42a9      	cmp	r1, r5
10007fd0:	f4bf af82 	bcs.w	10007ed8 <I2C_rx+0x4a8>
10007fd4:	f8dc 1000 	ldr.w	r1, [ip]
10007fd8:	42a9      	cmp	r1, r5
10007fda:	f4bf af7d 	bcs.w	10007ed8 <I2C_rx+0x4a8>
10007fde:	f8dc 1000 	ldr.w	r1, [ip]
10007fe2:	42a9      	cmp	r1, r5
10007fe4:	d3ec      	bcc.n	10007fc0 <I2C_rx+0x590>
10007fe6:	e777      	b.n	10007ed8 <I2C_rx+0x4a8>
10007fe8:	f8dc 4000 	ldr.w	r4, [ip]
10007fec:	428c      	cmp	r4, r1
10007fee:	f4ff af73 	bcc.w	10007ed8 <I2C_rx+0x4a8>
10007ff2:	f8dc 4000 	ldr.w	r4, [ip]
10007ff6:	42ac      	cmp	r4, r5
10007ff8:	f4bf af6e 	bcs.w	10007ed8 <I2C_rx+0x4a8>
10007ffc:	f8dc 4000 	ldr.w	r4, [ip]
10008000:	428c      	cmp	r4, r1
10008002:	f4ff af69 	bcc.w	10007ed8 <I2C_rx+0x4a8>
10008006:	f8dc 4000 	ldr.w	r4, [ip]
1000800a:	42ac      	cmp	r4, r5
1000800c:	f4bf af64 	bcs.w	10007ed8 <I2C_rx+0x4a8>
10008010:	f8dc 4000 	ldr.w	r4, [ip]
10008014:	428c      	cmp	r4, r1
10008016:	f4ff af5f 	bcc.w	10007ed8 <I2C_rx+0x4a8>
1000801a:	f8dc 4000 	ldr.w	r4, [ip]
1000801e:	42ac      	cmp	r4, r5
10008020:	f4bf af5a 	bcs.w	10007ed8 <I2C_rx+0x4a8>
10008024:	f8dc 4000 	ldr.w	r4, [ip]
10008028:	428c      	cmp	r4, r1
1000802a:	f4ff af55 	bcc.w	10007ed8 <I2C_rx+0x4a8>
1000802e:	f8dc 4000 	ldr.w	r4, [ip]
10008032:	42ac      	cmp	r4, r5
10008034:	d3d8      	bcc.n	10007fe8 <I2C_rx+0x5b8>
10008036:	e74f      	b.n	10007ed8 <I2C_rx+0x4a8>
10008038:	2b02      	cmp	r3, #2
1000803a:	f882 a000 	strb.w	sl, [r2]
1000803e:	f0c0 815b 	bcc.w	100082f8 <I2C_rx+0x8c8>
10008042:	f04f 0a01 	mov.w	sl, #1
10008046:	f04f 0902 	mov.w	r9, #2
1000804a:	f04f 0801 	mov.w	r8, #1
1000804e:	e006      	b.n	1000805e <I2C_rx+0x62e>
10008050:	f802 b008 	strb.w	fp, [r2, r8]
10008054:	f108 0801 	add.w	r8, r8, #1
10008058:	4598      	cmp	r8, r3
1000805a:	f000 814d 	beq.w	100082f8 <I2C_rx+0x8c8>
1000805e:	f8c0 9004 	str.w	r9, [r0, #4]
10008062:	f8dc 4000 	ldr.w	r4, [ip]
10008066:	f114 0f10 	cmn.w	r4, #16
1000806a:	f104 050f 	add.w	r5, r4, #15
1000806e:	d921      	bls.n	100080b4 <I2C_rx+0x684>
10008070:	f8dc 1000 	ldr.w	r1, [ip]
10008074:	42a1      	cmp	r1, r4
10008076:	d30b      	bcc.n	10008090 <I2C_rx+0x660>
10008078:	f8dc 1000 	ldr.w	r1, [ip]
1000807c:	42a1      	cmp	r1, r4
1000807e:	d307      	bcc.n	10008090 <I2C_rx+0x660>
10008080:	f8dc 1000 	ldr.w	r1, [ip]
10008084:	42a1      	cmp	r1, r4
10008086:	d303      	bcc.n	10008090 <I2C_rx+0x660>
10008088:	f8dc 1000 	ldr.w	r1, [ip]
1000808c:	42a1      	cmp	r1, r4
1000808e:	d2ef      	bcs.n	10008070 <I2C_rx+0x640>
10008090:	f8dc 1000 	ldr.w	r1, [ip]
10008094:	42a9      	cmp	r1, r5
10008096:	d22d      	bcs.n	100080f4 <I2C_rx+0x6c4>
10008098:	f8dc 1000 	ldr.w	r1, [ip]
1000809c:	42a9      	cmp	r1, r5
1000809e:	d229      	bcs.n	100080f4 <I2C_rx+0x6c4>
100080a0:	f8dc 1000 	ldr.w	r1, [ip]
100080a4:	42a9      	cmp	r1, r5
100080a6:	d225      	bcs.n	100080f4 <I2C_rx+0x6c4>
100080a8:	f8dc 1000 	ldr.w	r1, [ip]
100080ac:	42a9      	cmp	r1, r5
100080ae:	d3ef      	bcc.n	10008090 <I2C_rx+0x660>
100080b0:	e020      	b.n	100080f4 <I2C_rx+0x6c4>
100080b2:	bf00      	nop
100080b4:	f8dc 1000 	ldr.w	r1, [ip]
100080b8:	42a1      	cmp	r1, r4
100080ba:	d31b      	bcc.n	100080f4 <I2C_rx+0x6c4>
100080bc:	f8dc 1000 	ldr.w	r1, [ip]
100080c0:	42a9      	cmp	r1, r5
100080c2:	d217      	bcs.n	100080f4 <I2C_rx+0x6c4>
100080c4:	f8dc 1000 	ldr.w	r1, [ip]
100080c8:	42a1      	cmp	r1, r4
100080ca:	d313      	bcc.n	100080f4 <I2C_rx+0x6c4>
100080cc:	f8dc 1000 	ldr.w	r1, [ip]
100080d0:	42a9      	cmp	r1, r5
100080d2:	d20f      	bcs.n	100080f4 <I2C_rx+0x6c4>
100080d4:	f8dc 1000 	ldr.w	r1, [ip]
100080d8:	42a1      	cmp	r1, r4
100080da:	d30b      	bcc.n	100080f4 <I2C_rx+0x6c4>
100080dc:	f8dc 1000 	ldr.w	r1, [ip]
100080e0:	42a9      	cmp	r1, r5
100080e2:	d207      	bcs.n	100080f4 <I2C_rx+0x6c4>
100080e4:	f8dc 1000 	ldr.w	r1, [ip]
100080e8:	42a1      	cmp	r1, r4
100080ea:	d303      	bcc.n	100080f4 <I2C_rx+0x6c4>
100080ec:	f8dc 1000 	ldr.w	r1, [ip]
100080f0:	42a9      	cmp	r1, r5
100080f2:	d3df      	bcc.n	100080b4 <I2C_rx+0x684>
100080f4:	f8c0 a000 	str.w	sl, [r0]
100080f8:	f8dc 4000 	ldr.w	r4, [ip]
100080fc:	f114 0f10 	cmn.w	r4, #16
10008100:	f104 050f 	add.w	r5, r4, #15
10008104:	d922      	bls.n	1000814c <I2C_rx+0x71c>
10008106:	bf00      	nop
10008108:	f8dc 1000 	ldr.w	r1, [ip]
1000810c:	42a1      	cmp	r1, r4
1000810e:	d30b      	bcc.n	10008128 <I2C_rx+0x6f8>
10008110:	f8dc 1000 	ldr.w	r1, [ip]
10008114:	42a1      	cmp	r1, r4
10008116:	d307      	bcc.n	10008128 <I2C_rx+0x6f8>
10008118:	f8dc 1000 	ldr.w	r1, [ip]
1000811c:	42a1      	cmp	r1, r4
1000811e:	d303      	bcc.n	10008128 <I2C_rx+0x6f8>
10008120:	f8dc 1000 	ldr.w	r1, [ip]
10008124:	42a1      	cmp	r1, r4
10008126:	d2ef      	bcs.n	10008108 <I2C_rx+0x6d8>
10008128:	f8dc 1000 	ldr.w	r1, [ip]
1000812c:	42a9      	cmp	r1, r5
1000812e:	d22d      	bcs.n	1000818c <I2C_rx+0x75c>
10008130:	f8dc 1000 	ldr.w	r1, [ip]
10008134:	42a9      	cmp	r1, r5
10008136:	d229      	bcs.n	1000818c <I2C_rx+0x75c>
10008138:	f8dc 1000 	ldr.w	r1, [ip]
1000813c:	42a9      	cmp	r1, r5
1000813e:	d225      	bcs.n	1000818c <I2C_rx+0x75c>
10008140:	f8dc 1000 	ldr.w	r1, [ip]
10008144:	42a9      	cmp	r1, r5
10008146:	d3ef      	bcc.n	10008128 <I2C_rx+0x6f8>
10008148:	e020      	b.n	1000818c <I2C_rx+0x75c>
1000814a:	bf00      	nop
1000814c:	f8dc 1000 	ldr.w	r1, [ip]
10008150:	42a1      	cmp	r1, r4
10008152:	d31b      	bcc.n	1000818c <I2C_rx+0x75c>
10008154:	f8dc 1000 	ldr.w	r1, [ip]
10008158:	42a9      	cmp	r1, r5
1000815a:	d217      	bcs.n	1000818c <I2C_rx+0x75c>
1000815c:	f8dc 1000 	ldr.w	r1, [ip]
10008160:	42a1      	cmp	r1, r4
10008162:	d313      	bcc.n	1000818c <I2C_rx+0x75c>
10008164:	f8dc 1000 	ldr.w	r1, [ip]
10008168:	42a9      	cmp	r1, r5
1000816a:	d20f      	bcs.n	1000818c <I2C_rx+0x75c>
1000816c:	f8dc 1000 	ldr.w	r1, [ip]
10008170:	42a1      	cmp	r1, r4
10008172:	d30b      	bcc.n	1000818c <I2C_rx+0x75c>
10008174:	f8dc 1000 	ldr.w	r1, [ip]
10008178:	42a9      	cmp	r1, r5
1000817a:	d207      	bcs.n	1000818c <I2C_rx+0x75c>
1000817c:	f8dc 1000 	ldr.w	r1, [ip]
10008180:	42a1      	cmp	r1, r4
10008182:	d303      	bcc.n	1000818c <I2C_rx+0x75c>
10008184:	f8dc 1000 	ldr.w	r1, [ip]
10008188:	42a9      	cmp	r1, r5
1000818a:	d3df      	bcc.n	1000814c <I2C_rx+0x71c>
1000818c:	f04f 0b00 	mov.w	fp, #0
10008190:	2500      	movs	r5, #0
10008192:	f8c0 a004 	str.w	sl, [r0, #4]
10008196:	e00d      	b.n	100081b4 <I2C_rx+0x784>
10008198:	6801      	ldr	r1, [r0, #0]
1000819a:	ea4f 044b 	mov.w	r4, fp, lsl #1
1000819e:	f3c1 0140 	ubfx	r1, r1, #1, #1
100081a2:	ea41 0b04 	orr.w	fp, r1, r4
100081a6:	2d07      	cmp	r5, #7
100081a8:	f105 0501 	add.w	r5, r5, #1
100081ac:	f8c0 a004 	str.w	sl, [r0, #4]
100081b0:	f4bf af4e 	bcs.w	10008050 <I2C_rx+0x620>
100081b4:	f8c0 9000 	str.w	r9, [r0]
100081b8:	f8dc 1000 	ldr.w	r1, [ip]
100081bc:	f111 0f10 	cmn.w	r1, #16
100081c0:	f101 040f 	add.w	r4, r1, #15
100081c4:	d922      	bls.n	1000820c <I2C_rx+0x7dc>
100081c6:	bf00      	nop
100081c8:	f8dc 6000 	ldr.w	r6, [ip]
100081cc:	428e      	cmp	r6, r1
100081ce:	d30b      	bcc.n	100081e8 <I2C_rx+0x7b8>
100081d0:	f8dc 6000 	ldr.w	r6, [ip]
100081d4:	428e      	cmp	r6, r1
100081d6:	d307      	bcc.n	100081e8 <I2C_rx+0x7b8>
100081d8:	f8dc 6000 	ldr.w	r6, [ip]
100081dc:	428e      	cmp	r6, r1
100081de:	d303      	bcc.n	100081e8 <I2C_rx+0x7b8>
100081e0:	f8dc 6000 	ldr.w	r6, [ip]
100081e4:	428e      	cmp	r6, r1
100081e6:	d2ef      	bcs.n	100081c8 <I2C_rx+0x798>
100081e8:	f8dc 1000 	ldr.w	r1, [ip]
100081ec:	42a1      	cmp	r1, r4
100081ee:	d22d      	bcs.n	1000824c <I2C_rx+0x81c>
100081f0:	f8dc 1000 	ldr.w	r1, [ip]
100081f4:	42a1      	cmp	r1, r4
100081f6:	d229      	bcs.n	1000824c <I2C_rx+0x81c>
100081f8:	f8dc 1000 	ldr.w	r1, [ip]
100081fc:	42a1      	cmp	r1, r4
100081fe:	d225      	bcs.n	1000824c <I2C_rx+0x81c>
10008200:	f8dc 1000 	ldr.w	r1, [ip]
10008204:	42a1      	cmp	r1, r4
10008206:	d3ef      	bcc.n	100081e8 <I2C_rx+0x7b8>
10008208:	e020      	b.n	1000824c <I2C_rx+0x81c>
1000820a:	bf00      	nop
1000820c:	f8dc 6000 	ldr.w	r6, [ip]
10008210:	428e      	cmp	r6, r1
10008212:	d31b      	bcc.n	1000824c <I2C_rx+0x81c>
10008214:	f8dc 6000 	ldr.w	r6, [ip]
10008218:	42a6      	cmp	r6, r4
1000821a:	d217      	bcs.n	1000824c <I2C_rx+0x81c>
1000821c:	f8dc 6000 	ldr.w	r6, [ip]
10008220:	428e      	cmp	r6, r1
10008222:	d313      	bcc.n	1000824c <I2C_rx+0x81c>
10008224:	f8dc 6000 	ldr.w	r6, [ip]
10008228:	42a6      	cmp	r6, r4
1000822a:	d20f      	bcs.n	1000824c <I2C_rx+0x81c>
1000822c:	f8dc 6000 	ldr.w	r6, [ip]
10008230:	428e      	cmp	r6, r1
10008232:	d30b      	bcc.n	1000824c <I2C_rx+0x81c>
10008234:	f8dc 6000 	ldr.w	r6, [ip]
10008238:	42a6      	cmp	r6, r4
1000823a:	d207      	bcs.n	1000824c <I2C_rx+0x81c>
1000823c:	f8dc 6000 	ldr.w	r6, [ip]
10008240:	428e      	cmp	r6, r1
10008242:	d303      	bcc.n	1000824c <I2C_rx+0x81c>
10008244:	f8dc 6000 	ldr.w	r6, [ip]
10008248:	42a6      	cmp	r6, r4
1000824a:	d3df      	bcc.n	1000820c <I2C_rx+0x7dc>
1000824c:	f8c0 a000 	str.w	sl, [r0]
10008250:	f8dc 1000 	ldr.w	r1, [ip]
10008254:	f111 0f10 	cmn.w	r1, #16
10008258:	f101 040f 	add.w	r4, r1, #15
1000825c:	d924      	bls.n	100082a8 <I2C_rx+0x878>
1000825e:	bf00      	nop
10008260:	f8dc 6000 	ldr.w	r6, [ip]
10008264:	428e      	cmp	r6, r1
10008266:	d30b      	bcc.n	10008280 <I2C_rx+0x850>
10008268:	f8dc 6000 	ldr.w	r6, [ip]
1000826c:	428e      	cmp	r6, r1
1000826e:	d307      	bcc.n	10008280 <I2C_rx+0x850>
10008270:	f8dc 6000 	ldr.w	r6, [ip]
10008274:	428e      	cmp	r6, r1
10008276:	d303      	bcc.n	10008280 <I2C_rx+0x850>
10008278:	f8dc 6000 	ldr.w	r6, [ip]
1000827c:	428e      	cmp	r6, r1
1000827e:	d2ef      	bcs.n	10008260 <I2C_rx+0x830>
10008280:	f8dc 1000 	ldr.w	r1, [ip]
10008284:	42a1      	cmp	r1, r4
10008286:	f4bf af87 	bcs.w	10008198 <I2C_rx+0x768>
1000828a:	f8dc 1000 	ldr.w	r1, [ip]
1000828e:	42a1      	cmp	r1, r4
10008290:	f4bf af82 	bcs.w	10008198 <I2C_rx+0x768>
10008294:	f8dc 1000 	ldr.w	r1, [ip]
10008298:	42a1      	cmp	r1, r4
1000829a:	f4bf af7d 	bcs.w	10008198 <I2C_rx+0x768>
1000829e:	f8dc 1000 	ldr.w	r1, [ip]
100082a2:	42a1      	cmp	r1, r4
100082a4:	d3ec      	bcc.n	10008280 <I2C_rx+0x850>
100082a6:	e777      	b.n	10008198 <I2C_rx+0x768>
100082a8:	f8dc 6000 	ldr.w	r6, [ip]
100082ac:	428e      	cmp	r6, r1
100082ae:	f4ff af73 	bcc.w	10008198 <I2C_rx+0x768>
100082b2:	f8dc 6000 	ldr.w	r6, [ip]
100082b6:	42a6      	cmp	r6, r4
100082b8:	f4bf af6e 	bcs.w	10008198 <I2C_rx+0x768>
100082bc:	f8dc 6000 	ldr.w	r6, [ip]
100082c0:	428e      	cmp	r6, r1
100082c2:	f4ff af69 	bcc.w	10008198 <I2C_rx+0x768>
100082c6:	f8dc 6000 	ldr.w	r6, [ip]
100082ca:	42a6      	cmp	r6, r4
100082cc:	f4bf af64 	bcs.w	10008198 <I2C_rx+0x768>
100082d0:	f8dc 6000 	ldr.w	r6, [ip]
100082d4:	428e      	cmp	r6, r1
100082d6:	f4ff af5f 	bcc.w	10008198 <I2C_rx+0x768>
100082da:	f8dc 6000 	ldr.w	r6, [ip]
100082de:	42a6      	cmp	r6, r4
100082e0:	f4bf af5a 	bcs.w	10008198 <I2C_rx+0x768>
100082e4:	f8dc 6000 	ldr.w	r6, [ip]
100082e8:	428e      	cmp	r6, r1
100082ea:	f4ff af55 	bcc.w	10008198 <I2C_rx+0x768>
100082ee:	f8dc 6000 	ldr.w	r6, [ip]
100082f2:	42a6      	cmp	r6, r4
100082f4:	d3d8      	bcc.n	100082a8 <I2C_rx+0x878>
100082f6:	e74f      	b.n	10008198 <I2C_rx+0x768>
100082f8:	2102      	movs	r1, #2
100082fa:	6001      	str	r1, [r0, #0]
100082fc:	f8dc 2000 	ldr.w	r2, [ip]
10008300:	f112 0f10 	cmn.w	r2, #16
10008304:	f102 010f 	add.w	r1, r2, #15
10008308:	d924      	bls.n	10008354 <I2C_rx+0x924>
1000830a:	bf00      	nop
1000830c:	f8dc 3000 	ldr.w	r3, [ip]
10008310:	4293      	cmp	r3, r2
10008312:	d319      	bcc.n	10008348 <I2C_rx+0x918>
10008314:	f8dc 3000 	ldr.w	r3, [ip]
10008318:	4293      	cmp	r3, r2
1000831a:	d315      	bcc.n	10008348 <I2C_rx+0x918>
1000831c:	f8dc 3000 	ldr.w	r3, [ip]
10008320:	4293      	cmp	r3, r2
10008322:	d311      	bcc.n	10008348 <I2C_rx+0x918>
10008324:	f8dc 3000 	ldr.w	r3, [ip]
10008328:	4293      	cmp	r3, r2
1000832a:	d2ef      	bcs.n	1000830c <I2C_rx+0x8dc>
1000832c:	e00c      	b.n	10008348 <I2C_rx+0x918>
1000832e:	bf00      	nop
10008330:	f8dc 2000 	ldr.w	r2, [ip]
10008334:	428a      	cmp	r2, r1
10008336:	d22d      	bcs.n	10008394 <I2C_rx+0x964>
10008338:	f8dc 2000 	ldr.w	r2, [ip]
1000833c:	428a      	cmp	r2, r1
1000833e:	d229      	bcs.n	10008394 <I2C_rx+0x964>
10008340:	f8dc 2000 	ldr.w	r2, [ip]
10008344:	428a      	cmp	r2, r1
10008346:	d225      	bcs.n	10008394 <I2C_rx+0x964>
10008348:	f8dc 2000 	ldr.w	r2, [ip]
1000834c:	428a      	cmp	r2, r1
1000834e:	d3ef      	bcc.n	10008330 <I2C_rx+0x900>
10008350:	e020      	b.n	10008394 <I2C_rx+0x964>
10008352:	bf00      	nop
10008354:	f8dc 3000 	ldr.w	r3, [ip]
10008358:	4293      	cmp	r3, r2
1000835a:	d31b      	bcc.n	10008394 <I2C_rx+0x964>
1000835c:	f8dc 3000 	ldr.w	r3, [ip]
10008360:	428b      	cmp	r3, r1
10008362:	d217      	bcs.n	10008394 <I2C_rx+0x964>
10008364:	f8dc 3000 	ldr.w	r3, [ip]
10008368:	4293      	cmp	r3, r2
1000836a:	d313      	bcc.n	10008394 <I2C_rx+0x964>
1000836c:	f8dc 3000 	ldr.w	r3, [ip]
10008370:	428b      	cmp	r3, r1
10008372:	d20f      	bcs.n	10008394 <I2C_rx+0x964>
10008374:	f8dc 3000 	ldr.w	r3, [ip]
10008378:	4293      	cmp	r3, r2
1000837a:	d30b      	bcc.n	10008394 <I2C_rx+0x964>
1000837c:	f8dc 3000 	ldr.w	r3, [ip]
10008380:	428b      	cmp	r3, r1
10008382:	d207      	bcs.n	10008394 <I2C_rx+0x964>
10008384:	f8dc 3000 	ldr.w	r3, [ip]
10008388:	4293      	cmp	r3, r2
1000838a:	d303      	bcc.n	10008394 <I2C_rx+0x964>
1000838c:	f8dc 3000 	ldr.w	r3, [ip]
10008390:	428b      	cmp	r3, r1
10008392:	d3df      	bcc.n	10008354 <I2C_rx+0x924>
10008394:	2101      	movs	r1, #1
10008396:	6001      	str	r1, [r0, #0]
10008398:	f8dc 2000 	ldr.w	r2, [ip]
1000839c:	f112 0f10 	cmn.w	r2, #16
100083a0:	f102 010f 	add.w	r1, r2, #15
100083a4:	d924      	bls.n	100083f0 <I2C_rx+0x9c0>
100083a6:	bf00      	nop
100083a8:	f8dc 3000 	ldr.w	r3, [ip]
100083ac:	4293      	cmp	r3, r2
100083ae:	d319      	bcc.n	100083e4 <I2C_rx+0x9b4>
100083b0:	f8dc 3000 	ldr.w	r3, [ip]
100083b4:	4293      	cmp	r3, r2
100083b6:	d315      	bcc.n	100083e4 <I2C_rx+0x9b4>
100083b8:	f8dc 3000 	ldr.w	r3, [ip]
100083bc:	4293      	cmp	r3, r2
100083be:	d311      	bcc.n	100083e4 <I2C_rx+0x9b4>
100083c0:	f8dc 3000 	ldr.w	r3, [ip]
100083c4:	4293      	cmp	r3, r2
100083c6:	d2ef      	bcs.n	100083a8 <I2C_rx+0x978>
100083c8:	e00c      	b.n	100083e4 <I2C_rx+0x9b4>
100083ca:	bf00      	nop
100083cc:	f8dc 2000 	ldr.w	r2, [ip]
100083d0:	428a      	cmp	r2, r1
100083d2:	d22d      	bcs.n	10008430 <I2C_rx+0xa00>
100083d4:	f8dc 2000 	ldr.w	r2, [ip]
100083d8:	428a      	cmp	r2, r1
100083da:	d229      	bcs.n	10008430 <I2C_rx+0xa00>
100083dc:	f8dc 2000 	ldr.w	r2, [ip]
100083e0:	428a      	cmp	r2, r1
100083e2:	d225      	bcs.n	10008430 <I2C_rx+0xa00>
100083e4:	f8dc 2000 	ldr.w	r2, [ip]
100083e8:	428a      	cmp	r2, r1
100083ea:	d3ef      	bcc.n	100083cc <I2C_rx+0x99c>
100083ec:	e020      	b.n	10008430 <I2C_rx+0xa00>
100083ee:	bf00      	nop
100083f0:	f8dc 3000 	ldr.w	r3, [ip]
100083f4:	4293      	cmp	r3, r2
100083f6:	d31b      	bcc.n	10008430 <I2C_rx+0xa00>
100083f8:	f8dc 3000 	ldr.w	r3, [ip]
100083fc:	428b      	cmp	r3, r1
100083fe:	d217      	bcs.n	10008430 <I2C_rx+0xa00>
10008400:	f8dc 3000 	ldr.w	r3, [ip]
10008404:	4293      	cmp	r3, r2
10008406:	d313      	bcc.n	10008430 <I2C_rx+0xa00>
10008408:	f8dc 3000 	ldr.w	r3, [ip]
1000840c:	428b      	cmp	r3, r1
1000840e:	d20f      	bcs.n	10008430 <I2C_rx+0xa00>
10008410:	f8dc 3000 	ldr.w	r3, [ip]
10008414:	4293      	cmp	r3, r2
10008416:	d30b      	bcc.n	10008430 <I2C_rx+0xa00>
10008418:	f8dc 3000 	ldr.w	r3, [ip]
1000841c:	428b      	cmp	r3, r1
1000841e:	d207      	bcs.n	10008430 <I2C_rx+0xa00>
10008420:	f8dc 3000 	ldr.w	r3, [ip]
10008424:	4293      	cmp	r3, r2
10008426:	d303      	bcc.n	10008430 <I2C_rx+0xa00>
10008428:	f8dc 3000 	ldr.w	r3, [ip]
1000842c:	428b      	cmp	r3, r1
1000842e:	d3df      	bcc.n	100083f0 <I2C_rx+0x9c0>
10008430:	2101      	movs	r1, #1
10008432:	f1be 0f00 	cmp.w	lr, #0
10008436:	6041      	str	r1, [r0, #4]
10008438:	d002      	beq.n	10008440 <I2C_rx+0xa10>
1000843a:	e8bd 0f00 	ldmia.w	sp!, {r8, r9, sl, fp}
1000843e:	bdf0      	pop	{r4, r5, r6, r7, pc}
10008440:	2102      	movs	r1, #2
10008442:	6041      	str	r1, [r0, #4]
10008444:	f8dc 2000 	ldr.w	r2, [ip]
10008448:	f112 0f10 	cmn.w	r2, #16
1000844c:	f102 010f 	add.w	r1, r2, #15
10008450:	d924      	bls.n	1000849c <I2C_rx+0xa6c>
10008452:	bf00      	nop
10008454:	f8dc 3000 	ldr.w	r3, [ip]
10008458:	4293      	cmp	r3, r2
1000845a:	d319      	bcc.n	10008490 <I2C_rx+0xa60>
1000845c:	f8dc 3000 	ldr.w	r3, [ip]
10008460:	4293      	cmp	r3, r2
10008462:	d315      	bcc.n	10008490 <I2C_rx+0xa60>
10008464:	f8dc 3000 	ldr.w	r3, [ip]
10008468:	4293      	cmp	r3, r2
1000846a:	d311      	bcc.n	10008490 <I2C_rx+0xa60>
1000846c:	f8dc 3000 	ldr.w	r3, [ip]
10008470:	4293      	cmp	r3, r2
10008472:	d2ef      	bcs.n	10008454 <I2C_rx+0xa24>
10008474:	e00c      	b.n	10008490 <I2C_rx+0xa60>
10008476:	bf00      	nop
10008478:	f8dc 2000 	ldr.w	r2, [ip]
1000847c:	428a      	cmp	r2, r1
1000847e:	d22d      	bcs.n	100084dc <I2C_rx+0xaac>
10008480:	f8dc 2000 	ldr.w	r2, [ip]
10008484:	428a      	cmp	r2, r1
10008486:	d229      	bcs.n	100084dc <I2C_rx+0xaac>
10008488:	f8dc 2000 	ldr.w	r2, [ip]
1000848c:	428a      	cmp	r2, r1
1000848e:	d225      	bcs.n	100084dc <I2C_rx+0xaac>
10008490:	f8dc 2000 	ldr.w	r2, [ip]
10008494:	428a      	cmp	r2, r1
10008496:	d3ef      	bcc.n	10008478 <I2C_rx+0xa48>
10008498:	e020      	b.n	100084dc <I2C_rx+0xaac>
1000849a:	bf00      	nop
1000849c:	f8dc 3000 	ldr.w	r3, [ip]
100084a0:	4293      	cmp	r3, r2
100084a2:	d31b      	bcc.n	100084dc <I2C_rx+0xaac>
100084a4:	f8dc 3000 	ldr.w	r3, [ip]
100084a8:	428b      	cmp	r3, r1
100084aa:	d217      	bcs.n	100084dc <I2C_rx+0xaac>
100084ac:	f8dc 3000 	ldr.w	r3, [ip]
100084b0:	4293      	cmp	r3, r2
100084b2:	d313      	bcc.n	100084dc <I2C_rx+0xaac>
100084b4:	f8dc 3000 	ldr.w	r3, [ip]
100084b8:	428b      	cmp	r3, r1
100084ba:	d20f      	bcs.n	100084dc <I2C_rx+0xaac>
100084bc:	f8dc 3000 	ldr.w	r3, [ip]
100084c0:	4293      	cmp	r3, r2
100084c2:	d30b      	bcc.n	100084dc <I2C_rx+0xaac>
100084c4:	f8dc 3000 	ldr.w	r3, [ip]
100084c8:	428b      	cmp	r3, r1
100084ca:	d207      	bcs.n	100084dc <I2C_rx+0xaac>
100084cc:	f8dc 3000 	ldr.w	r3, [ip]
100084d0:	4293      	cmp	r3, r2
100084d2:	d303      	bcc.n	100084dc <I2C_rx+0xaac>
100084d4:	f8dc 3000 	ldr.w	r3, [ip]
100084d8:	428b      	cmp	r3, r1
100084da:	d3df      	bcc.n	1000849c <I2C_rx+0xa6c>
100084dc:	2101      	movs	r1, #1
100084de:	6001      	str	r1, [r0, #0]
100084e0:	f8dc 2000 	ldr.w	r2, [ip]
100084e4:	f112 0f10 	cmn.w	r2, #16
100084e8:	f102 010f 	add.w	r1, r2, #15
100084ec:	d924      	bls.n	10008538 <I2C_rx+0xb08>
100084ee:	bf00      	nop
100084f0:	f8dc 3000 	ldr.w	r3, [ip]
100084f4:	4293      	cmp	r3, r2
100084f6:	d319      	bcc.n	1000852c <I2C_rx+0xafc>
100084f8:	f8dc 3000 	ldr.w	r3, [ip]
100084fc:	4293      	cmp	r3, r2
100084fe:	d315      	bcc.n	1000852c <I2C_rx+0xafc>
10008500:	f8dc 3000 	ldr.w	r3, [ip]
10008504:	4293      	cmp	r3, r2
10008506:	d311      	bcc.n	1000852c <I2C_rx+0xafc>
10008508:	f8dc 3000 	ldr.w	r3, [ip]
1000850c:	4293      	cmp	r3, r2
1000850e:	d2ef      	bcs.n	100084f0 <I2C_rx+0xac0>
10008510:	e00c      	b.n	1000852c <I2C_rx+0xafc>
10008512:	bf00      	nop
10008514:	f8dc 2000 	ldr.w	r2, [ip]
10008518:	428a      	cmp	r2, r1
1000851a:	d22d      	bcs.n	10008578 <I2C_rx+0xb48>
1000851c:	f8dc 2000 	ldr.w	r2, [ip]
10008520:	428a      	cmp	r2, r1
10008522:	d229      	bcs.n	10008578 <I2C_rx+0xb48>
10008524:	f8dc 2000 	ldr.w	r2, [ip]
10008528:	428a      	cmp	r2, r1
1000852a:	d225      	bcs.n	10008578 <I2C_rx+0xb48>
1000852c:	f8dc 2000 	ldr.w	r2, [ip]
10008530:	428a      	cmp	r2, r1
10008532:	d3ef      	bcc.n	10008514 <I2C_rx+0xae4>
10008534:	e020      	b.n	10008578 <I2C_rx+0xb48>
10008536:	bf00      	nop
10008538:	f8dc 3000 	ldr.w	r3, [ip]
1000853c:	4293      	cmp	r3, r2
1000853e:	d31b      	bcc.n	10008578 <I2C_rx+0xb48>
10008540:	f8dc 3000 	ldr.w	r3, [ip]
10008544:	428b      	cmp	r3, r1
10008546:	d217      	bcs.n	10008578 <I2C_rx+0xb48>
10008548:	f8dc 3000 	ldr.w	r3, [ip]
1000854c:	4293      	cmp	r3, r2
1000854e:	d313      	bcc.n	10008578 <I2C_rx+0xb48>
10008550:	f8dc 3000 	ldr.w	r3, [ip]
10008554:	428b      	cmp	r3, r1
10008556:	d20f      	bcs.n	10008578 <I2C_rx+0xb48>
10008558:	f8dc 3000 	ldr.w	r3, [ip]
1000855c:	4293      	cmp	r3, r2
1000855e:	d30b      	bcc.n	10008578 <I2C_rx+0xb48>
10008560:	f8dc 3000 	ldr.w	r3, [ip]
10008564:	428b      	cmp	r3, r1
10008566:	d207      	bcs.n	10008578 <I2C_rx+0xb48>
10008568:	f8dc 3000 	ldr.w	r3, [ip]
1000856c:	4293      	cmp	r3, r2
1000856e:	d303      	bcc.n	10008578 <I2C_rx+0xb48>
10008570:	f8dc 3000 	ldr.w	r3, [ip]
10008574:	428b      	cmp	r3, r1
10008576:	d3df      	bcc.n	10008538 <I2C_rx+0xb08>
10008578:	2102      	movs	r1, #2
1000857a:	6001      	str	r1, [r0, #0]
1000857c:	f8dc 1000 	ldr.w	r1, [ip]
10008580:	f111 0f10 	cmn.w	r1, #16
10008584:	f101 000f 	add.w	r0, r1, #15
10008588:	d926      	bls.n	100085d8 <I2C_rx+0xba8>
1000858a:	bf00      	nop
1000858c:	f8dc 2000 	ldr.w	r2, [ip]
10008590:	428a      	cmp	r2, r1
10008592:	d31c      	bcc.n	100085ce <I2C_rx+0xb9e>
10008594:	f8dc 2000 	ldr.w	r2, [ip]
10008598:	428a      	cmp	r2, r1
1000859a:	d318      	bcc.n	100085ce <I2C_rx+0xb9e>
1000859c:	f8dc 2000 	ldr.w	r2, [ip]
100085a0:	428a      	cmp	r2, r1
100085a2:	d314      	bcc.n	100085ce <I2C_rx+0xb9e>
100085a4:	f8dc 2000 	ldr.w	r2, [ip]
100085a8:	428a      	cmp	r2, r1
100085aa:	d2ef      	bcs.n	1000858c <I2C_rx+0xb5c>
100085ac:	e00f      	b.n	100085ce <I2C_rx+0xb9e>
100085ae:	bf00      	nop
100085b0:	f8dc 1000 	ldr.w	r1, [ip]
100085b4:	4281      	cmp	r1, r0
100085b6:	f4bf af40 	bcs.w	1000843a <I2C_rx+0xa0a>
100085ba:	f8dc 1000 	ldr.w	r1, [ip]
100085be:	4281      	cmp	r1, r0
100085c0:	f4bf af3b 	bcs.w	1000843a <I2C_rx+0xa0a>
100085c4:	f8dc 1000 	ldr.w	r1, [ip]
100085c8:	4281      	cmp	r1, r0
100085ca:	f4bf af36 	bcs.w	1000843a <I2C_rx+0xa0a>
100085ce:	f8dc 1000 	ldr.w	r1, [ip]
100085d2:	4281      	cmp	r1, r0
100085d4:	d3ec      	bcc.n	100085b0 <I2C_rx+0xb80>
100085d6:	e730      	b.n	1000843a <I2C_rx+0xa0a>
100085d8:	f8dc 2000 	ldr.w	r2, [ip]
100085dc:	428a      	cmp	r2, r1
100085de:	f4ff af2c 	bcc.w	1000843a <I2C_rx+0xa0a>
100085e2:	f8dc 2000 	ldr.w	r2, [ip]
100085e6:	4282      	cmp	r2, r0
100085e8:	f4bf af27 	bcs.w	1000843a <I2C_rx+0xa0a>
100085ec:	f8dc 2000 	ldr.w	r2, [ip]
100085f0:	428a      	cmp	r2, r1
100085f2:	f4ff af22 	bcc.w	1000843a <I2C_rx+0xa0a>
100085f6:	f8dc 2000 	ldr.w	r2, [ip]
100085fa:	4282      	cmp	r2, r0
100085fc:	f4bf af1d 	bcs.w	1000843a <I2C_rx+0xa0a>
10008600:	f8dc 2000 	ldr.w	r2, [ip]
10008604:	428a      	cmp	r2, r1
10008606:	f4ff af18 	bcc.w	1000843a <I2C_rx+0xa0a>
1000860a:	f8dc 2000 	ldr.w	r2, [ip]
1000860e:	4282      	cmp	r2, r0
10008610:	f4bf af13 	bcs.w	1000843a <I2C_rx+0xa0a>
10008614:	f8dc 2000 	ldr.w	r2, [ip]
10008618:	428a      	cmp	r2, r1
1000861a:	f4ff af0e 	bcc.w	1000843a <I2C_rx+0xa0a>
1000861e:	f8dc 2000 	ldr.w	r2, [ip]
10008622:	4282      	cmp	r2, r0
10008624:	d3d8      	bcc.n	100085d8 <I2C_rx+0xba8>
10008626:	e708      	b.n	1000843a <I2C_rx+0xa0a>

10008628 <Touch_Initialize>:
10008628:	b5f0      	push	{r4, r5, r6, r7, lr}
1000862a:	af03      	add	r7, sp, #12
1000862c:	e92d 0700 	stmdb	sp!, {r8, r9, sl}
10008630:	b082      	sub	sp, #8
10008632:	f247 0400 	movw	r4, #28672	@ 0x7000
10008636:	f2c5 0420 	movt	r4, #20512	@ 0x5020
1000863a:	f000 f9b2 	bl	100089a2 <I2C_clear>
1000863e:	ad01      	add	r5, sp, #4
10008640:	f04f 0a00 	mov.w	sl, #0
10008644:	2601      	movs	r6, #1
10008646:	4620      	mov	r0, r4
10008648:	2182      	movs	r1, #130	@ 0x82
1000864a:	462a      	mov	r2, r5
1000864c:	2301      	movs	r3, #1
1000864e:	f88d a004 	strb.w	sl, [sp, #4]
10008652:	9600      	str	r6, [sp, #0]
10008654:	f7fe fd3e 	bl	100070d4 <I2C_tx>
10008658:	4620      	mov	r0, r4
1000865a:	2183      	movs	r1, #131	@ 0x83
1000865c:	462a      	mov	r2, r5
1000865e:	2302      	movs	r3, #2
10008660:	f8cd a000 	str.w	sl, [sp]
10008664:	2502      	movs	r5, #2
10008666:	f7ff f9e3 	bl	10007a30 <I2C_rx>
1000866a:	2003      	movs	r0, #3
1000866c:	f807 0c1a 	strb.w	r0, [r7, #-26]
10008670:	f1a7 021a 	sub.w	r2, r7, #26
10008674:	4620      	mov	r0, r4
10008676:	2182      	movs	r1, #130	@ 0x82
10008678:	2302      	movs	r3, #2
1000867a:	f807 5c19 	strb.w	r5, [r7, #-25]
1000867e:	f8cd a000 	str.w	sl, [sp]
10008682:	f7fe fd27 	bl	100070d4 <I2C_tx>
10008686:	f240 0514 	movw	r5, #20
1000868a:	f6c3 0500 	movt	r5, #14336	@ 0x3800
1000868e:	6828      	ldr	r0, [r5, #0]
10008690:	f644 59d3 	movw	r9, #19923	@ 0x4dd3
10008694:	f5b0 7f7a 	cmp.w	r0, #1000	@ 0x3e8
10008698:	f2c1 0962 	movt	r9, #4194	@ 0x1062
1000869c:	d30e      	bcc.n	100086bc <Touch_Initialize+0x94>
1000869e:	fba0 0109 	umull	r0, r1, r0, r9
100086a2:	0988      	lsrs	r0, r1, #6
100086a4:	eb00 0080 	add.w	r0, r0, r0, lsl #2
100086a8:	4240      	negs	r0, r0
100086aa:	0040      	lsls	r0, r0, #1
100086ac:	3001      	adds	r0, #1
100086ae:	bf00      	nop
100086b0:	bf00      	nop
100086b2:	bf00      	nop
100086b4:	bf00      	nop
100086b6:	bf00      	nop
100086b8:	bf00      	nop
100086ba:	d3f7      	bcc.n	100086ac <Touch_Initialize+0x84>
100086bc:	2004      	movs	r0, #4
100086be:	f807 0c1a 	strb.w	r0, [r7, #-26]
100086c2:	200c      	movs	r0, #12
100086c4:	f807 0c19 	strb.w	r0, [r7, #-25]
100086c8:	f1a7 021a 	sub.w	r2, r7, #26
100086cc:	4620      	mov	r0, r4
100086ce:	2182      	movs	r1, #130	@ 0x82
100086d0:	2302      	movs	r3, #2
100086d2:	f8cd a000 	str.w	sl, [sp]
100086d6:	f7fe fcfd 	bl	100070d4 <I2C_tx>
100086da:	200a      	movs	r0, #10
100086dc:	f807 0c1a 	strb.w	r0, [r7, #-26]
100086e0:	f04f 0807 	mov.w	r8, #7
100086e4:	f1a7 021a 	sub.w	r2, r7, #26
100086e8:	4620      	mov	r0, r4
100086ea:	2182      	movs	r1, #130	@ 0x82
100086ec:	2302      	movs	r3, #2
100086ee:	f807 8c19 	strb.w	r8, [r7, #-25]
100086f2:	f8cd a000 	str.w	sl, [sp]
100086f6:	f7fe fced 	bl	100070d4 <I2C_tx>
100086fa:	2020      	movs	r0, #32
100086fc:	f807 0c1a 	strb.w	r0, [r7, #-26]
10008700:	2069      	movs	r0, #105	@ 0x69
10008702:	f807 0c19 	strb.w	r0, [r7, #-25]
10008706:	f1a7 021a 	sub.w	r2, r7, #26
1000870a:	4620      	mov	r0, r4
1000870c:	2182      	movs	r1, #130	@ 0x82
1000870e:	2302      	movs	r3, #2
10008710:	f8cd a000 	str.w	sl, [sp]
10008714:	f7fe fcde 	bl	100070d4 <I2C_tx>
10008718:	6828      	ldr	r0, [r5, #0]
1000871a:	f5b0 7f7a 	cmp.w	r0, #1000	@ 0x3e8
1000871e:	d30f      	bcc.n	10008740 <Touch_Initialize+0x118>
10008720:	fba0 0109 	umull	r0, r1, r0, r9
10008724:	0988      	lsrs	r0, r1, #6
10008726:	eb00 0080 	add.w	r0, r0, r0, lsl #2
1000872a:	4240      	negs	r0, r0
1000872c:	0040      	lsls	r0, r0, #1
1000872e:	bf00      	nop
10008730:	3001      	adds	r0, #1
10008732:	bf00      	nop
10008734:	bf00      	nop
10008736:	bf00      	nop
10008738:	bf00      	nop
1000873a:	bf00      	nop
1000873c:	bf00      	nop
1000873e:	d3f7      	bcc.n	10008730 <Touch_Initialize+0x108>
10008740:	2021      	movs	r0, #33	@ 0x21
10008742:	f807 0c1a 	strb.w	r0, [r7, #-26]
10008746:	f04f 0901 	mov.w	r9, #1
1000874a:	2500      	movs	r5, #0
1000874c:	f1a7 021a 	sub.w	r2, r7, #26
10008750:	4620      	mov	r0, r4
10008752:	2182      	movs	r1, #130	@ 0x82
10008754:	2302      	movs	r3, #2
10008756:	f807 9c19 	strb.w	r9, [r7, #-25]
1000875a:	9500      	str	r5, [sp, #0]
1000875c:	f7fe fcba 	bl	100070d4 <I2C_tx>
10008760:	2041      	movs	r0, #65	@ 0x41
10008762:	f807 0c1a 	strb.w	r0, [r7, #-26]
10008766:	20c2      	movs	r0, #194	@ 0xc2
10008768:	f807 0c19 	strb.w	r0, [r7, #-25]
1000876c:	f1a7 021a 	sub.w	r2, r7, #26
10008770:	4620      	mov	r0, r4
10008772:	2182      	movs	r1, #130	@ 0x82
10008774:	2302      	movs	r3, #2
10008776:	9500      	str	r5, [sp, #0]
10008778:	f7fe fcac 	bl	100070d4 <I2C_tx>
1000877c:	204a      	movs	r0, #74	@ 0x4a
1000877e:	f807 0c1a 	strb.w	r0, [r7, #-26]
10008782:	f1a7 021a 	sub.w	r2, r7, #26
10008786:	4620      	mov	r0, r4
10008788:	2182      	movs	r1, #130	@ 0x82
1000878a:	2302      	movs	r3, #2
1000878c:	f807 9c19 	strb.w	r9, [r7, #-25]
10008790:	9500      	str	r5, [sp, #0]
10008792:	f7fe fc9f 	bl	100070d4 <I2C_tx>
10008796:	264b      	movs	r6, #75	@ 0x4b
10008798:	f1a7 021a 	sub.w	r2, r7, #26
1000879c:	4620      	mov	r0, r4
1000879e:	2182      	movs	r1, #130	@ 0x82
100087a0:	2302      	movs	r3, #2
100087a2:	f807 6c1a 	strb.w	r6, [r7, #-26]
100087a6:	f807 9c19 	strb.w	r9, [r7, #-25]
100087aa:	9500      	str	r5, [sp, #0]
100087ac:	f7fe fc92 	bl	100070d4 <I2C_tx>
100087b0:	f1a7 021a 	sub.w	r2, r7, #26
100087b4:	4620      	mov	r0, r4
100087b6:	2182      	movs	r1, #130	@ 0x82
100087b8:	2302      	movs	r3, #2
100087ba:	f807 6c1a 	strb.w	r6, [r7, #-26]
100087be:	f807 5c19 	strb.w	r5, [r7, #-25]
100087c2:	9500      	str	r5, [sp, #0]
100087c4:	f7fe fc86 	bl	100070d4 <I2C_tx>
100087c8:	2056      	movs	r0, #86	@ 0x56
100087ca:	f807 0c1a 	strb.w	r0, [r7, #-26]
100087ce:	f1a7 021a 	sub.w	r2, r7, #26
100087d2:	4620      	mov	r0, r4
100087d4:	2182      	movs	r1, #130	@ 0x82
100087d6:	2302      	movs	r3, #2
100087d8:	f807 8c19 	strb.w	r8, [r7, #-25]
100087dc:	9500      	str	r5, [sp, #0]
100087de:	f7fe fc79 	bl	100070d4 <I2C_tx>
100087e2:	2058      	movs	r0, #88	@ 0x58
100087e4:	f807 0c1a 	strb.w	r0, [r7, #-26]
100087e8:	f1a7 021a 	sub.w	r2, r7, #26
100087ec:	4620      	mov	r0, r4
100087ee:	2182      	movs	r1, #130	@ 0x82
100087f0:	2302      	movs	r3, #2
100087f2:	f807 9c19 	strb.w	r9, [r7, #-25]
100087f6:	9500      	str	r5, [sp, #0]
100087f8:	f7fe fc6c 	bl	100070d4 <I2C_tx>
100087fc:	2017      	movs	r0, #23
100087fe:	f807 0c1a 	strb.w	r0, [r7, #-26]
10008802:	f1a7 021a 	sub.w	r2, r7, #26
10008806:	4620      	mov	r0, r4
10008808:	2182      	movs	r1, #130	@ 0x82
1000880a:	2302      	movs	r3, #2
1000880c:	f807 5c19 	strb.w	r5, [r7, #-25]
10008810:	9500      	str	r5, [sp, #0]
10008812:	f7fe fc5f 	bl	100070d4 <I2C_tx>
10008816:	2040      	movs	r0, #64	@ 0x40
10008818:	f807 0c1a 	strb.w	r0, [r7, #-26]
1000881c:	f1a7 021a 	sub.w	r2, r7, #26
10008820:	4620      	mov	r0, r4
10008822:	2182      	movs	r1, #130	@ 0x82
10008824:	2302      	movs	r3, #2
10008826:	f807 9c19 	strb.w	r9, [r7, #-25]
1000882a:	9500      	str	r5, [sp, #0]
1000882c:	f7fe fc52 	bl	100070d4 <I2C_tx>
10008830:	200b      	movs	r0, #11
10008832:	f807 0c1a 	strb.w	r0, [r7, #-26]
10008836:	20ff      	movs	r0, #255	@ 0xff
10008838:	f807 0c19 	strb.w	r0, [r7, #-25]
1000883c:	f1a7 021a 	sub.w	r2, r7, #26
10008840:	4620      	mov	r0, r4
10008842:	2182      	movs	r1, #130	@ 0x82
10008844:	2302      	movs	r3, #2
10008846:	9500      	str	r5, [sp, #0]
10008848:	f7fe fc44 	bl	100070d4 <I2C_tx>
1000884c:	2000      	movs	r0, #0
1000884e:	b002      	add	sp, #8
10008850:	e8bd 0700 	ldmia.w	sp!, {r8, r9, sl}
10008854:	bdf0      	pop	{r4, r5, r6, r7, pc}

10008856 <Touch_Uninitialize>:
10008856:	b580      	push	{r7, lr}
10008858:	466f      	mov	r7, sp
1000885a:	b082      	sub	sp, #8
1000885c:	2003      	movs	r0, #3
1000885e:	f807 0c02 	strb.w	r0, [r7, #-2]
10008862:	2002      	movs	r0, #2
10008864:	f807 0c01 	strb.w	r0, [r7, #-1]
10008868:	f247 0000 	movw	r0, #28672	@ 0x7000
1000886c:	f04f 0c00 	mov.w	ip, #0
10008870:	f2c5 0020 	movt	r0, #20512	@ 0x5020
10008874:	1eba      	subs	r2, r7, #2
10008876:	2182      	movs	r1, #130	@ 0x82
10008878:	2302      	movs	r3, #2
1000887a:	f8cd c000 	str.w	ip, [sp]
1000887e:	f7fe fc29 	bl	100070d4 <I2C_tx>
10008882:	f000 f88e 	bl	100089a2 <I2C_clear>
10008886:	2000      	movs	r0, #0
10008888:	b002      	add	sp, #8
1000888a:	bd80      	pop	{r7, pc}

1000888c <Touch_GetState>:
1000888c:	b5f0      	push	{r4, r5, r6, r7, lr}
1000888e:	af03      	add	r7, sp, #12
10008890:	e92d 0f00 	stmdb	sp!, {r8, r9, sl, fp}
10008894:	b085      	sub	sp, #20
10008896:	f247 0a00 	movw	sl, #28672	@ 0x7000
1000889a:	4606      	mov	r6, r0
1000889c:	f2c5 0a20 	movt	sl, #20512	@ 0x5020
100088a0:	2040      	movs	r0, #64	@ 0x40
100088a2:	f88d 0010 	strb.w	r0, [sp, #16]
100088a6:	2501      	movs	r5, #1
100088a8:	aa04      	add	r2, sp, #16
100088aa:	4650      	mov	r0, sl
100088ac:	2182      	movs	r1, #130	@ 0x82
100088ae:	2301      	movs	r3, #1
100088b0:	9500      	str	r5, [sp, #0]
100088b2:	f7fe fc0f 	bl	100070d4 <I2C_tx>
100088b6:	f04f 0900 	mov.w	r9, #0
100088ba:	f1a7 0221 	sub.w	r2, r7, #33	@ 0x21
100088be:	4650      	mov	r0, sl
100088c0:	2183      	movs	r1, #131	@ 0x83
100088c2:	2301      	movs	r3, #1
100088c4:	f8cd 9000 	str.w	r9, [sp]
100088c8:	f7ff f8b2 	bl	10007a30 <I2C_rx>
100088cc:	f817 0c21 	ldrb.w	r0, [r7, #-33]
100088d0:	b241      	sxtb	r1, r0
100088d2:	09c0      	lsrs	r0, r0, #7
100088d4:	f1b1 3fff 	cmp.w	r1, #4294967295	@ 0xffffffff
100088d8:	7130      	strb	r0, [r6, #4]
100088da:	dc46      	bgt.n	1000896a <Touch_GetState+0xde>
100088dc:	20d7      	movs	r0, #215	@ 0xd7
100088de:	f807 0c21 	strb.w	r0, [r7, #-33]
100088e2:	204c      	movs	r0, #76	@ 0x4c
100088e4:	f807 0c1f 	strb.w	r0, [r7, #-31]
100088e8:	f1a7 021f 	sub.w	r2, r7, #31
100088ec:	4650      	mov	r0, sl
100088ee:	2182      	movs	r1, #130	@ 0x82
100088f0:	2301      	movs	r3, #1
100088f2:	9500      	str	r5, [sp, #0]
100088f4:	f7fe fbee 	bl	100070d4 <I2C_tx>
100088f8:	f1a7 0222 	sub.w	r2, r7, #34	@ 0x22
100088fc:	4650      	mov	r0, sl
100088fe:	2183      	movs	r1, #131	@ 0x83
10008900:	2301      	movs	r3, #1
10008902:	f8cd 9000 	str.w	r9, [sp]
10008906:	f7ff f893 	bl	10007a30 <I2C_rx>
1000890a:	f817 4c22 	ldrb.w	r4, [r7, #-34]
1000890e:	2c00      	cmp	r4, #0
10008910:	d040      	beq.n	10008994 <Touch_GetState+0x108>
10008912:	9601      	str	r6, [sp, #4]
10008914:	f04f 0b01 	mov.w	fp, #1
10008918:	f1a7 0621 	sub.w	r6, r7, #33	@ 0x21
1000891c:	f04f 0800 	mov.w	r8, #0
10008920:	f1a7 0526 	sub.w	r5, r7, #38	@ 0x26
10008924:	4650      	mov	r0, sl
10008926:	2182      	movs	r1, #130	@ 0x82
10008928:	4632      	mov	r2, r6
1000892a:	2301      	movs	r3, #1
1000892c:	3c01      	subs	r4, #1
1000892e:	f8cd b000 	str.w	fp, [sp]
10008932:	f7fe fbcf 	bl	100070d4 <I2C_tx>
10008936:	4650      	mov	r0, sl
10008938:	2183      	movs	r1, #131	@ 0x83
1000893a:	462a      	mov	r2, r5
1000893c:	2304      	movs	r3, #4
1000893e:	f8cd 8000 	str.w	r8, [sp]
10008942:	f7ff f875 	bl	10007a30 <I2C_rx>
10008946:	0620      	lsls	r0, r4, #24
10008948:	d1ec      	bne.n	10008924 <Touch_GetState+0x98>
1000894a:	f817 0c26 	ldrb.w	r0, [r7, #-38]
1000894e:	f817 1c25 	ldrb.w	r1, [r7, #-37]
10008952:	0100      	lsls	r0, r0, #4
10008954:	9b01      	ldr	r3, [sp, #4]
10008956:	f817 2c24 	ldrb.w	r2, [r7, #-36]
1000895a:	ea40 1011 	orr.w	r0, r0, r1, lsr #4
1000895e:	8018      	strh	r0, [r3, #0]
10008960:	f001 000f 	and.w	r0, r1, #15
10008964:	ea42 2000 	orr.w	r0, r2, r0, lsl #8
10008968:	8058      	strh	r0, [r3, #2]
1000896a:	200b      	movs	r0, #11
1000896c:	f807 0c1e 	strb.w	r0, [r7, #-30]
10008970:	201f      	movs	r0, #31
10008972:	f807 0c1d 	strb.w	r0, [r7, #-29]
10008976:	f1a7 021e 	sub.w	r2, r7, #30
1000897a:	4650      	mov	r0, sl
1000897c:	2182      	movs	r1, #130	@ 0x82
1000897e:	2302      	movs	r3, #2
10008980:	f8cd 9000 	str.w	r9, [sp]
10008984:	f7fe fba6 	bl	100070d4 <I2C_tx>
10008988:	4648      	mov	r0, r9
1000898a:	b005      	add	sp, #20
1000898c:	e8bd 0f00 	ldmia.w	sp!, {r8, r9, sl, fp}
10008990:	bdf0      	pop	{r4, r5, r6, r7, pc}
10008992:	bf00      	nop
10008994:	f04f 39ff 	mov.w	r9, #4294967295	@ 0xffffffff
10008998:	4648      	mov	r0, r9
1000899a:	b005      	add	sp, #20
1000899c:	e8bd 0f00 	ldmia.w	sp!, {r8, r9, sl, fp}
100089a0:	bdf0      	pop	{r4, r5, r6, r7, pc}

100089a2 <I2C_clear>:
100089a2:	b5b0      	push	{r4, r5, r7, lr}
100089a4:	af02      	add	r7, sp, #8
100089a6:	f242 0018 	movw	r0, #8216	@ 0x2018
100089aa:	f247 0200 	movw	r2, #28672	@ 0x7000
100089ae:	f2c5 0030 	movt	r0, #20528	@ 0x5030
100089b2:	2100      	movs	r1, #0
100089b4:	f2c5 0220 	movt	r2, #20512	@ 0x5020
100089b8:	f04f 0c02 	mov.w	ip, #2
100089bc:	f04f 0e01 	mov.w	lr, #1
100089c0:	e004      	b.n	100089cc <I2C_clear+0x2a>
100089c2:	bf00      	nop
100089c4:	3101      	adds	r1, #1
100089c6:	2905      	cmp	r1, #5
100089c8:	bf08      	it	eq
100089ca:	bdb0      	popeq	{r4, r5, r7, pc}
100089cc:	f8c2 c004 	str.w	ip, [r2, #4]
100089d0:	6804      	ldr	r4, [r0, #0]
100089d2:	f114 0f10 	cmn.w	r4, #16
100089d6:	f104 030f 	add.w	r3, r4, #15
100089da:	d919      	bls.n	10008a10 <I2C_clear+0x6e>
100089dc:	6805      	ldr	r5, [r0, #0]
100089de:	42a5      	cmp	r5, r4
100089e0:	d308      	bcc.n	100089f4 <I2C_clear+0x52>
100089e2:	6805      	ldr	r5, [r0, #0]
100089e4:	42a5      	cmp	r5, r4
100089e6:	d305      	bcc.n	100089f4 <I2C_clear+0x52>
100089e8:	6805      	ldr	r5, [r0, #0]
100089ea:	42a5      	cmp	r5, r4
100089ec:	d302      	bcc.n	100089f4 <I2C_clear+0x52>
100089ee:	6805      	ldr	r5, [r0, #0]
100089f0:	42a5      	cmp	r5, r4
100089f2:	d2f3      	bcs.n	100089dc <I2C_clear+0x3a>
100089f4:	6804      	ldr	r4, [r0, #0]
100089f6:	429c      	cmp	r4, r3
100089f8:	d222      	bcs.n	10008a40 <I2C_clear+0x9e>
100089fa:	6804      	ldr	r4, [r0, #0]
100089fc:	429c      	cmp	r4, r3
100089fe:	d21f      	bcs.n	10008a40 <I2C_clear+0x9e>
10008a00:	6804      	ldr	r4, [r0, #0]
10008a02:	429c      	cmp	r4, r3
10008a04:	d21c      	bcs.n	10008a40 <I2C_clear+0x9e>
10008a06:	6804      	ldr	r4, [r0, #0]
10008a08:	429c      	cmp	r4, r3
10008a0a:	d3f3      	bcc.n	100089f4 <I2C_clear+0x52>
10008a0c:	e018      	b.n	10008a40 <I2C_clear+0x9e>
10008a0e:	bf00      	nop
10008a10:	6805      	ldr	r5, [r0, #0]
10008a12:	42a5      	cmp	r5, r4
10008a14:	d314      	bcc.n	10008a40 <I2C_clear+0x9e>
10008a16:	6805      	ldr	r5, [r0, #0]
10008a18:	429d      	cmp	r5, r3
10008a1a:	d211      	bcs.n	10008a40 <I2C_clear+0x9e>
10008a1c:	6805      	ldr	r5, [r0, #0]
10008a1e:	42a5      	cmp	r5, r4
10008a20:	d30e      	bcc.n	10008a40 <I2C_clear+0x9e>
10008a22:	6805      	ldr	r5, [r0, #0]
10008a24:	429d      	cmp	r5, r3
10008a26:	d20b      	bcs.n	10008a40 <I2C_clear+0x9e>
10008a28:	6805      	ldr	r5, [r0, #0]
10008a2a:	42a5      	cmp	r5, r4
10008a2c:	d308      	bcc.n	10008a40 <I2C_clear+0x9e>
10008a2e:	6805      	ldr	r5, [r0, #0]
10008a30:	429d      	cmp	r5, r3
10008a32:	d205      	bcs.n	10008a40 <I2C_clear+0x9e>
10008a34:	6805      	ldr	r5, [r0, #0]
10008a36:	42a5      	cmp	r5, r4
10008a38:	d302      	bcc.n	10008a40 <I2C_clear+0x9e>
10008a3a:	6805      	ldr	r5, [r0, #0]
10008a3c:	429d      	cmp	r5, r3
10008a3e:	d3e7      	bcc.n	10008a10 <I2C_clear+0x6e>
10008a40:	f8c2 e004 	str.w	lr, [r2, #4]
10008a44:	6804      	ldr	r4, [r0, #0]
10008a46:	f114 0f10 	cmn.w	r4, #16
10008a4a:	f104 030f 	add.w	r3, r4, #15
10008a4e:	d919      	bls.n	10008a84 <I2C_clear+0xe2>
10008a50:	6805      	ldr	r5, [r0, #0]
10008a52:	42a5      	cmp	r5, r4
10008a54:	d308      	bcc.n	10008a68 <I2C_clear+0xc6>
10008a56:	6805      	ldr	r5, [r0, #0]
10008a58:	42a5      	cmp	r5, r4
10008a5a:	d305      	bcc.n	10008a68 <I2C_clear+0xc6>
10008a5c:	6805      	ldr	r5, [r0, #0]
10008a5e:	42a5      	cmp	r5, r4
10008a60:	d302      	bcc.n	10008a68 <I2C_clear+0xc6>
10008a62:	6805      	ldr	r5, [r0, #0]
10008a64:	42a5      	cmp	r5, r4
10008a66:	d2f3      	bcs.n	10008a50 <I2C_clear+0xae>
10008a68:	6804      	ldr	r4, [r0, #0]
10008a6a:	429c      	cmp	r4, r3
10008a6c:	d222      	bcs.n	10008ab4 <I2C_clear+0x112>
10008a6e:	6804      	ldr	r4, [r0, #0]
10008a70:	429c      	cmp	r4, r3
10008a72:	d21f      	bcs.n	10008ab4 <I2C_clear+0x112>
10008a74:	6804      	ldr	r4, [r0, #0]
10008a76:	429c      	cmp	r4, r3
10008a78:	d21c      	bcs.n	10008ab4 <I2C_clear+0x112>
10008a7a:	6804      	ldr	r4, [r0, #0]
10008a7c:	429c      	cmp	r4, r3
10008a7e:	d3f3      	bcc.n	10008a68 <I2C_clear+0xc6>
10008a80:	e018      	b.n	10008ab4 <I2C_clear+0x112>
10008a82:	bf00      	nop
10008a84:	6805      	ldr	r5, [r0, #0]
10008a86:	42a5      	cmp	r5, r4
10008a88:	d314      	bcc.n	10008ab4 <I2C_clear+0x112>
10008a8a:	6805      	ldr	r5, [r0, #0]
10008a8c:	429d      	cmp	r5, r3
10008a8e:	d211      	bcs.n	10008ab4 <I2C_clear+0x112>
10008a90:	6805      	ldr	r5, [r0, #0]
10008a92:	42a5      	cmp	r5, r4
10008a94:	d30e      	bcc.n	10008ab4 <I2C_clear+0x112>
10008a96:	6805      	ldr	r5, [r0, #0]
10008a98:	429d      	cmp	r5, r3
10008a9a:	d20b      	bcs.n	10008ab4 <I2C_clear+0x112>
10008a9c:	6805      	ldr	r5, [r0, #0]
10008a9e:	42a5      	cmp	r5, r4
10008aa0:	d308      	bcc.n	10008ab4 <I2C_clear+0x112>
10008aa2:	6805      	ldr	r5, [r0, #0]
10008aa4:	429d      	cmp	r5, r3
10008aa6:	d205      	bcs.n	10008ab4 <I2C_clear+0x112>
10008aa8:	6805      	ldr	r5, [r0, #0]
10008aaa:	42a5      	cmp	r5, r4
10008aac:	d302      	bcc.n	10008ab4 <I2C_clear+0x112>
10008aae:	6805      	ldr	r5, [r0, #0]
10008ab0:	429d      	cmp	r5, r3
10008ab2:	d3e7      	bcc.n	10008a84 <I2C_clear+0xe2>
10008ab4:	f8c2 e000 	str.w	lr, [r2]
10008ab8:	6804      	ldr	r4, [r0, #0]
10008aba:	f114 0f10 	cmn.w	r4, #16
10008abe:	f104 030f 	add.w	r3, r4, #15
10008ac2:	d919      	bls.n	10008af8 <I2C_clear+0x156>
10008ac4:	6805      	ldr	r5, [r0, #0]
10008ac6:	42a5      	cmp	r5, r4
10008ac8:	d308      	bcc.n	10008adc <I2C_clear+0x13a>
10008aca:	6805      	ldr	r5, [r0, #0]
10008acc:	42a5      	cmp	r5, r4
10008ace:	d305      	bcc.n	10008adc <I2C_clear+0x13a>
10008ad0:	6805      	ldr	r5, [r0, #0]
10008ad2:	42a5      	cmp	r5, r4
10008ad4:	d302      	bcc.n	10008adc <I2C_clear+0x13a>
10008ad6:	6805      	ldr	r5, [r0, #0]
10008ad8:	42a5      	cmp	r5, r4
10008ada:	d2f3      	bcs.n	10008ac4 <I2C_clear+0x122>
10008adc:	6804      	ldr	r4, [r0, #0]
10008ade:	429c      	cmp	r4, r3
10008ae0:	d222      	bcs.n	10008b28 <I2C_clear+0x186>
10008ae2:	6804      	ldr	r4, [r0, #0]
10008ae4:	429c      	cmp	r4, r3
10008ae6:	d21f      	bcs.n	10008b28 <I2C_clear+0x186>
10008ae8:	6804      	ldr	r4, [r0, #0]
10008aea:	429c      	cmp	r4, r3
10008aec:	d21c      	bcs.n	10008b28 <I2C_clear+0x186>
10008aee:	6804      	ldr	r4, [r0, #0]
10008af0:	429c      	cmp	r4, r3
10008af2:	d3f3      	bcc.n	10008adc <I2C_clear+0x13a>
10008af4:	e018      	b.n	10008b28 <I2C_clear+0x186>
10008af6:	bf00      	nop
10008af8:	6805      	ldr	r5, [r0, #0]
10008afa:	42a5      	cmp	r5, r4
10008afc:	d314      	bcc.n	10008b28 <I2C_clear+0x186>
10008afe:	6805      	ldr	r5, [r0, #0]
10008b00:	429d      	cmp	r5, r3
10008b02:	d211      	bcs.n	10008b28 <I2C_clear+0x186>
10008b04:	6805      	ldr	r5, [r0, #0]
10008b06:	42a5      	cmp	r5, r4
10008b08:	d30e      	bcc.n	10008b28 <I2C_clear+0x186>
10008b0a:	6805      	ldr	r5, [r0, #0]
10008b0c:	429d      	cmp	r5, r3
10008b0e:	d20b      	bcs.n	10008b28 <I2C_clear+0x186>
10008b10:	6805      	ldr	r5, [r0, #0]
10008b12:	42a5      	cmp	r5, r4
10008b14:	d308      	bcc.n	10008b28 <I2C_clear+0x186>
10008b16:	6805      	ldr	r5, [r0, #0]
10008b18:	429d      	cmp	r5, r3
10008b1a:	d205      	bcs.n	10008b28 <I2C_clear+0x186>
10008b1c:	6805      	ldr	r5, [r0, #0]
10008b1e:	42a5      	cmp	r5, r4
10008b20:	d302      	bcc.n	10008b28 <I2C_clear+0x186>
10008b22:	6805      	ldr	r5, [r0, #0]
10008b24:	429d      	cmp	r5, r3
10008b26:	d3e7      	bcc.n	10008af8 <I2C_clear+0x156>
10008b28:	f8c2 c000 	str.w	ip, [r2]
10008b2c:	6804      	ldr	r4, [r0, #0]
10008b2e:	f114 0f10 	cmn.w	r4, #16
10008b32:	f104 030f 	add.w	r3, r4, #15
10008b36:	d91b      	bls.n	10008b70 <I2C_clear+0x1ce>
10008b38:	6805      	ldr	r5, [r0, #0]
10008b3a:	42a5      	cmp	r5, r4
10008b3c:	d308      	bcc.n	10008b50 <I2C_clear+0x1ae>
10008b3e:	6805      	ldr	r5, [r0, #0]
10008b40:	42a5      	cmp	r5, r4
10008b42:	d305      	bcc.n	10008b50 <I2C_clear+0x1ae>
10008b44:	6805      	ldr	r5, [r0, #0]
10008b46:	42a5      	cmp	r5, r4
10008b48:	d302      	bcc.n	10008b50 <I2C_clear+0x1ae>
10008b4a:	6805      	ldr	r5, [r0, #0]
10008b4c:	42a5      	cmp	r5, r4
10008b4e:	d2f3      	bcs.n	10008b38 <I2C_clear+0x196>
10008b50:	6804      	ldr	r4, [r0, #0]
10008b52:	429c      	cmp	r4, r3
10008b54:	f4bf af36 	bcs.w	100089c4 <I2C_clear+0x22>
10008b58:	6804      	ldr	r4, [r0, #0]
10008b5a:	429c      	cmp	r4, r3
10008b5c:	f4bf af32 	bcs.w	100089c4 <I2C_clear+0x22>
10008b60:	6804      	ldr	r4, [r0, #0]
10008b62:	429c      	cmp	r4, r3
10008b64:	f4bf af2e 	bcs.w	100089c4 <I2C_clear+0x22>
10008b68:	6804      	ldr	r4, [r0, #0]
10008b6a:	429c      	cmp	r4, r3
10008b6c:	d3f0      	bcc.n	10008b50 <I2C_clear+0x1ae>
10008b6e:	e729      	b.n	100089c4 <I2C_clear+0x22>
10008b70:	6805      	ldr	r5, [r0, #0]
10008b72:	42a5      	cmp	r5, r4
10008b74:	f4ff af26 	bcc.w	100089c4 <I2C_clear+0x22>
10008b78:	6805      	ldr	r5, [r0, #0]
10008b7a:	429d      	cmp	r5, r3
10008b7c:	f4bf af22 	bcs.w	100089c4 <I2C_clear+0x22>
10008b80:	6805      	ldr	r5, [r0, #0]
10008b82:	42a5      	cmp	r5, r4
10008b84:	f4ff af1e 	bcc.w	100089c4 <I2C_clear+0x22>
10008b88:	6805      	ldr	r5, [r0, #0]
10008b8a:	429d      	cmp	r5, r3
10008b8c:	f4bf af1a 	bcs.w	100089c4 <I2C_clear+0x22>
10008b90:	6805      	ldr	r5, [r0, #0]
10008b92:	42a5      	cmp	r5, r4
10008b94:	f4ff af16 	bcc.w	100089c4 <I2C_clear+0x22>
10008b98:	6805      	ldr	r5, [r0, #0]
10008b9a:	429d      	cmp	r5, r3
10008b9c:	f4bf af12 	bcs.w	100089c4 <I2C_clear+0x22>
10008ba0:	6805      	ldr	r5, [r0, #0]
10008ba2:	42a5      	cmp	r5, r4
10008ba4:	f4ff af0e 	bcc.w	100089c4 <I2C_clear+0x22>
10008ba8:	6805      	ldr	r5, [r0, #0]
10008baa:	429d      	cmp	r5, r3
10008bac:	d3e0      	bcc.n	10008b70 <I2C_clear+0x1ce>
10008bae:	e709      	b.n	100089c4 <I2C_clear+0x22>

10008bb0 <UART0RX_Handler>:
10008bb0:	b5f0      	push	{r4, r5, r6, r7, lr}
10008bb2:	af03      	add	r7, sp, #12
10008bb4:	f84d bd04 	str.w	fp, [sp, #-4]!
10008bb8:	2408      	movs	r4, #8
10008bba:	f240 0034 	movw	r0, #52	@ 0x34
10008bbe:	f2c5 0420 	movt	r4, #20512	@ 0x5020
10008bc2:	f6c3 0000 	movt	r0, #14336	@ 0x3800
10008bc6:	6866      	ldr	r6, [r4, #4]
10008bc8:	6981      	ldr	r1, [r0, #24]
10008bca:	b129      	cbz	r1, 10008bd8 <UART0RX_Handler+0x28>
10008bcc:	f854 2c08 	ldr.w	r2, [r4, #-8]
10008bd0:	6a03      	ldr	r3, [r0, #32]
10008bd2:	1c5d      	adds	r5, r3, #1
10008bd4:	6205      	str	r5, [r0, #32]
10008bd6:	54ca      	strb	r2, [r1, r3]
10008bd8:	6901      	ldr	r1, [r0, #16]
10008bda:	6a02      	ldr	r2, [r0, #32]
10008bdc:	428a      	cmp	r2, r1
10008bde:	d30a      	bcc.n	10008bf6 <UART0RX_Handler+0x46>
10008be0:	2100      	movs	r1, #0
10008be2:	6101      	str	r1, [r0, #16]
10008be4:	7101      	strb	r1, [r0, #4]
10008be6:	6821      	ldr	r1, [r4, #0]
10008be8:	f021 0108 	bic.w	r1, r1, #8
10008bec:	6021      	str	r1, [r4, #0]
10008bee:	68c1      	ldr	r1, [r0, #12]
10008bf0:	b109      	cbz	r1, 10008bf6 <UART0RX_Handler+0x46>
10008bf2:	2002      	movs	r0, #2
10008bf4:	4788      	blx	r1
10008bf6:	6066      	str	r6, [r4, #4]
10008bf8:	f85d bb04 	ldr.w	fp, [sp], #4
10008bfc:	bdf0      	pop	{r4, r5, r6, r7, pc}

10008bfe <UART0TX_Handler>:
10008bfe:	b5b0      	push	{r4, r5, r7, lr}
10008c00:	af02      	add	r7, sp, #8
10008c02:	2408      	movs	r4, #8
10008c04:	f240 0034 	movw	r0, #52	@ 0x34
10008c08:	f2c5 0420 	movt	r4, #20512	@ 0x5020
10008c0c:	f6c3 0000 	movt	r0, #14336	@ 0x3800
10008c10:	6865      	ldr	r5, [r4, #4]
10008c12:	6941      	ldr	r1, [r0, #20]
10008c14:	b1a9      	cbz	r1, 10008c42 <UART0TX_Handler+0x44>
10008c16:	6a42      	ldr	r2, [r0, #36]	@ 0x24
10008c18:	3201      	adds	r2, #1
10008c1a:	428a      	cmp	r2, r1
10008c1c:	6242      	str	r2, [r0, #36]	@ 0x24
10008c1e:	d205      	bcs.n	10008c2c <UART0TX_Handler+0x2e>
10008c20:	69c0      	ldr	r0, [r0, #28]
10008c22:	5c80      	ldrb	r0, [r0, r2]
10008c24:	f844 0c08 	str.w	r0, [r4, #-8]
10008c28:	6065      	str	r5, [r4, #4]
10008c2a:	bdb0      	pop	{r4, r5, r7, pc}
10008c2c:	2100      	movs	r1, #0
10008c2e:	6141      	str	r1, [r0, #20]
10008c30:	7001      	strb	r1, [r0, #0]
10008c32:	6821      	ldr	r1, [r4, #0]
10008c34:	f021 0104 	bic.w	r1, r1, #4
10008c38:	6021      	str	r1, [r4, #0]
10008c3a:	68c1      	ldr	r1, [r0, #12]
10008c3c:	b109      	cbz	r1, 10008c42 <UART0TX_Handler+0x44>
10008c3e:	2001      	movs	r0, #1
10008c40:	4788      	blx	r1
10008c42:	6065      	str	r5, [r4, #4]
10008c44:	bdb0      	pop	{r4, r5, r7, pc}

10008c46 <USARTx_GetVersion>:
10008c46:	f240 2004 	movw	r0, #516	@ 0x204
10008c4a:	f2c0 1000 	movt	r0, #256	@ 0x100
10008c4e:	4770      	bx	lr

10008c50 <USART0_GetCapabilities>:
10008c50:	f240 6001 	movw	r0, #1537	@ 0x601
10008c54:	4770      	bx	lr

10008c56 <USART0_Initialize>:
10008c56:	f240 0134 	movw	r1, #52	@ 0x34
10008c5a:	f6c3 0100 	movt	r1, #14336	@ 0x3800
10008c5e:	7a0a      	ldrb	r2, [r1, #8]
10008c60:	07d2      	lsls	r2, r2, #31
10008c62:	d115      	bne.n	10008c90 <USART0_Initialize+0x3a>
10008c64:	2200      	movs	r2, #0
10008c66:	e9c1 0203 	strd	r0, r2, [r1, #12]
10008c6a:	f241 0018 	movw	r0, #4120	@ 0x1018
10008c6e:	e9c1 2205 	strd	r2, r2, [r1, #20]
10008c72:	e9c1 2207 	strd	r2, r2, [r1, #28]
10008c76:	624a      	str	r2, [r1, #36]	@ 0x24
10008c78:	f2c5 0010 	movt	r0, #20496	@ 0x5010
10008c7c:	6802      	ldr	r2, [r0, #0]
10008c7e:	f042 0201 	orr.w	r2, r2, #1
10008c82:	6002      	str	r2, [r0, #0]
10008c84:	6802      	ldr	r2, [r0, #0]
10008c86:	f042 0202 	orr.w	r2, r2, #2
10008c8a:	6002      	str	r2, [r0, #0]
10008c8c:	2001      	movs	r0, #1
10008c8e:	7208      	strb	r0, [r1, #8]
10008c90:	2000      	movs	r0, #0
10008c92:	4770      	bx	lr

10008c94 <USART0_Uninitialize>:
10008c94:	f241 0018 	movw	r0, #4120	@ 0x1018
10008c98:	f2c5 0010 	movt	r0, #20496	@ 0x5010
10008c9c:	6801      	ldr	r1, [r0, #0]
10008c9e:	2200      	movs	r2, #0
10008ca0:	f021 0101 	bic.w	r1, r1, #1
10008ca4:	6001      	str	r1, [r0, #0]
10008ca6:	6801      	ldr	r1, [r0, #0]
10008ca8:	f021 0102 	bic.w	r1, r1, #2
10008cac:	6001      	str	r1, [r0, #0]
10008cae:	f240 0134 	movw	r1, #52	@ 0x34
10008cb2:	f6c3 0100 	movt	r1, #14336	@ 0x3800
10008cb6:	2000      	movs	r0, #0
10008cb8:	720a      	strb	r2, [r1, #8]
10008cba:	4770      	bx	lr

10008cbc <USART0_PowerControl>:
10008cbc:	2802      	cmp	r0, #2
10008cbe:	d023      	beq.n	10008d08 <USART0_PowerControl+0x4c>
10008cc0:	2801      	cmp	r0, #1
10008cc2:	bf04      	itt	eq
10008cc4:	f06f 0003 	mvneq.w	r0, #3
10008cc8:	4770      	bxeq	lr
10008cca:	b9d8      	cbnz	r0, 10008d04 <USART0_PowerControl+0x48>
10008ccc:	f240 0034 	movw	r0, #52	@ 0x34
10008cd0:	f6c3 0000 	movt	r0, #14336	@ 0x3800
10008cd4:	7a01      	ldrb	r1, [r0, #8]
10008cd6:	2201      	movs	r2, #1
10008cd8:	f001 01fd 	and.w	r1, r1, #253	@ 0xfd
10008cdc:	7201      	strb	r1, [r0, #8]
10008cde:	f24e 2184 	movw	r1, #57988	@ 0xe284
10008ce2:	f06f 00ff 	mvn.w	r0, #255	@ 0xff
10008ce6:	f2ce 0100 	movt	r1, #57344	@ 0xe000
10008cea:	500a      	str	r2, [r1, r0]
10008cec:	f3bf 8f4f 	dsb	sy
10008cf0:	f3bf 8f6f 	isb	sy
10008cf4:	600a      	str	r2, [r1, #0]
10008cf6:	2202      	movs	r2, #2
10008cf8:	500a      	str	r2, [r1, r0]
10008cfa:	f3bf 8f4f 	dsb	sy
10008cfe:	f3bf 8f6f 	isb	sy
10008d02:	600a      	str	r2, [r1, #0]
10008d04:	2000      	movs	r0, #0
10008d06:	4770      	bx	lr
10008d08:	f240 0134 	movw	r1, #52	@ 0x34
10008d0c:	f6c3 0100 	movt	r1, #14336	@ 0x3800
10008d10:	7a08      	ldrb	r0, [r1, #8]
10008d12:	07c2      	lsls	r2, r0, #31
10008d14:	bf04      	itt	eq
10008d16:	f04f 30ff 	moveq.w	r0, #4294967295	@ 0xffffffff
10008d1a:	4770      	bxeq	lr
10008d1c:	0780      	lsls	r0, r0, #30
10008d1e:	f04f 0000 	mov.w	r0, #0
10008d22:	bf48      	it	mi
10008d24:	4770      	bxmi	lr
10008d26:	7008      	strb	r0, [r1, #0]
10008d28:	7108      	strb	r0, [r1, #4]
10008d2a:	2003      	movs	r0, #3
10008d2c:	7208      	strb	r0, [r1, #8]
10008d2e:	f24e 2084 	movw	r0, #57988	@ 0xe284
10008d32:	f2ce 0000 	movt	r0, #57344	@ 0xe000
10008d36:	2101      	movs	r1, #1
10008d38:	f64f 6280 	movw	r2, #65152	@ 0xfe80
10008d3c:	6001      	str	r1, [r0, #0]
10008d3e:	f6cf 72ff 	movt	r2, #65535	@ 0xffff
10008d42:	5081      	str	r1, [r0, r2]
10008d44:	2102      	movs	r1, #2
10008d46:	6001      	str	r1, [r0, #0]
10008d48:	5081      	str	r1, [r0, r2]
10008d4a:	2000      	movs	r0, #0
10008d4c:	4770      	bx	lr

10008d4e <USART0_Send>:
10008d4e:	2800      	cmp	r0, #0
10008d50:	f06f 0204 	mvn.w	r2, #4
10008d54:	bf18      	it	ne
10008d56:	2900      	cmpne	r1, #0
10008d58:	d102      	bne.n	10008d60 <USART0_Send+0x12>
10008d5a:	4610      	mov	r0, r2
10008d5c:	4770      	bx	lr
10008d5e:	bf00      	nop
10008d60:	f240 0334 	movw	r3, #52	@ 0x34
10008d64:	f6c3 0300 	movt	r3, #14336	@ 0x3800
10008d68:	7a1a      	ldrb	r2, [r3, #8]
10008d6a:	0752      	lsls	r2, r2, #29
10008d6c:	bf5c      	itt	pl
10008d6e:	f04f 30ff 	movpl.w	r0, #4294967295	@ 0xffffffff
10008d72:	4770      	bxpl	lr
10008d74:	781a      	ldrb	r2, [r3, #0]
10008d76:	b9ca      	cbnz	r2, 10008dac <USART0_Send+0x5e>
10008d78:	f240 0c08 	movw	ip, #8
10008d7c:	f2c5 0c20 	movt	ip, #20512	@ 0x5020
10008d80:	f85c 2c04 	ldr.w	r2, [ip, #-4]
10008d84:	07d2      	lsls	r2, r2, #31
10008d86:	d111      	bne.n	10008dac <USART0_Send+0x5e>
10008d88:	2201      	movs	r2, #1
10008d8a:	701a      	strb	r2, [r3, #0]
10008d8c:	2200      	movs	r2, #0
10008d8e:	61d8      	str	r0, [r3, #28]
10008d90:	6159      	str	r1, [r3, #20]
10008d92:	625a      	str	r2, [r3, #36]	@ 0x24
10008d94:	f8dc 1000 	ldr.w	r1, [ip]
10008d98:	f041 0104 	orr.w	r1, r1, #4
10008d9c:	f8cc 1000 	str.w	r1, [ip]
10008da0:	7800      	ldrb	r0, [r0, #0]
10008da2:	f84c 0c08 	str.w	r0, [ip, #-8]
10008da6:	4610      	mov	r0, r2
10008da8:	4770      	bx	lr
10008daa:	bf00      	nop
10008dac:	f06f 0001 	mvn.w	r0, #1
10008db0:	4770      	bx	lr

10008db2 <USART0_Receive>:
10008db2:	4602      	mov	r2, r0
10008db4:	2800      	cmp	r0, #0
10008db6:	f06f 0004 	mvn.w	r0, #4
10008dba:	bf18      	it	ne
10008dbc:	2900      	cmpne	r1, #0
10008dbe:	d101      	bne.n	10008dc4 <USART0_Receive+0x12>
10008dc0:	4770      	bx	lr
10008dc2:	bf00      	nop
10008dc4:	f240 0334 	movw	r3, #52	@ 0x34
10008dc8:	f6c3 0300 	movt	r3, #14336	@ 0x3800
10008dcc:	7a18      	ldrb	r0, [r3, #8]
10008dce:	0740      	lsls	r0, r0, #29
10008dd0:	bf5c      	itt	pl
10008dd2:	f04f 30ff 	movpl.w	r0, #4294967295	@ 0xffffffff
10008dd6:	4770      	bxpl	lr
10008dd8:	7918      	ldrb	r0, [r3, #4]
10008dda:	b9a8      	cbnz	r0, 10008e08 <USART0_Receive+0x56>
10008ddc:	f240 0c08 	movw	ip, #8
10008de0:	f2c5 0c20 	movt	ip, #20512	@ 0x5020
10008de4:	f85c 0c04 	ldr.w	r0, [ip, #-4]
10008de8:	0780      	lsls	r0, r0, #30
10008dea:	d40d      	bmi.n	10008e08 <USART0_Receive+0x56>
10008dec:	6119      	str	r1, [r3, #16]
10008dee:	2000      	movs	r0, #0
10008df0:	2101      	movs	r1, #1
10008df2:	619a      	str	r2, [r3, #24]
10008df4:	6218      	str	r0, [r3, #32]
10008df6:	7119      	strb	r1, [r3, #4]
10008df8:	f8dc 1000 	ldr.w	r1, [ip]
10008dfc:	f041 0108 	orr.w	r1, r1, #8
10008e00:	f8cc 1000 	str.w	r1, [ip]
10008e04:	4770      	bx	lr
10008e06:	bf00      	nop
10008e08:	f06f 0001 	mvn.w	r0, #1
10008e0c:	4770      	bx	lr

10008e0e <USART0_Transfer>:
10008e0e:	f06f 0003 	mvn.w	r0, #3
10008e12:	4770      	bx	lr

10008e14 <USART0_GetTxCount>:
10008e14:	f240 0034 	movw	r0, #52	@ 0x34
10008e18:	f6c3 0000 	movt	r0, #14336	@ 0x3800
10008e1c:	6a40      	ldr	r0, [r0, #36]	@ 0x24
10008e1e:	4770      	bx	lr

10008e20 <USART0_GetRxCount>:
10008e20:	f240 0034 	movw	r0, #52	@ 0x34
10008e24:	f6c3 0000 	movt	r0, #14336	@ 0x3800
10008e28:	6a00      	ldr	r0, [r0, #32]
10008e2a:	4770      	bx	lr

10008e2c <USART0_Control>:
10008e2c:	b5d0      	push	{r4, r6, r7, lr}
10008e2e:	af02      	add	r7, sp, #8
10008e30:	f240 0c34 	movw	ip, #52	@ 0x34
10008e34:	f6c3 0c00 	movt	ip, #14336	@ 0x3800
10008e38:	f89c 4008 	ldrb.w	r4, [ip, #8]
10008e3c:	07a2      	lsls	r2, r4, #30
10008e3e:	bf5c      	itt	pl
10008e40:	f04f 30ff 	movpl.w	r0, #4294967295	@ 0xffffffff
10008e44:	bdd0      	poppl	{r4, r6, r7, pc}
10008e46:	4686      	mov	lr, r0
10008e48:	f06f 0014 	mvn.w	r0, #20
10008e4c:	fa50 f28e 	uxtab	r2, r0, lr
10008e50:	2a05      	cmp	r2, #5
10008e52:	d809      	bhi.n	10008e68 <USART0_Control+0x3c>
10008e54:	f06f 0003 	mvn.w	r0, #3
10008e58:	e8df f002 	tbb	[pc, r2]
10008e5c:	6c045c4e 	.word	0x6c045c4e
10008e60:	bf000478 	.word	0xbf000478
10008e64:	bdd0      	pop	{r4, r6, r7, pc}
10008e66:	bf00      	nop
10008e68:	f89c 0000 	ldrb.w	r0, [ip]
10008e6c:	2800      	cmp	r0, #0
10008e6e:	f06f 0001 	mvn.w	r0, #1
10008e72:	bf18      	it	ne
10008e74:	bdd0      	popne	{r4, r6, r7, pc}
10008e76:	f89c 2004 	ldrb.w	r2, [ip, #4]
10008e7a:	2a00      	cmp	r2, #0
10008e7c:	d1f2      	bne.n	10008e64 <USART0_Control+0x38>
10008e7e:	2008      	movs	r0, #8
10008e80:	f2c5 0020 	movt	r0, #20512	@ 0x5020
10008e84:	f850 2c04 	ldr.w	r2, [r0, #-4]
10008e88:	0792      	lsls	r2, r2, #30
10008e8a:	bf1c      	itt	ne
10008e8c:	f06f 0001 	mvnne.w	r0, #1
10008e90:	bdd0      	popne	{r4, r6, r7, pc}
10008e92:	fa5f f28e 	uxtb.w	r2, lr
10008e96:	2a01      	cmp	r2, #1
10008e98:	bf1c      	itt	ne
10008e9a:	f06f 0003 	mvnne.w	r0, #3
10008e9e:	bdd0      	popne	{r4, r6, r7, pc}
10008ea0:	f41e 6fe0 	tst.w	lr, #1792	@ 0x700
10008ea4:	bf1c      	itt	ne
10008ea6:	f06f 0008 	mvnne.w	r0, #8
10008eaa:	bdd0      	popne	{r4, r6, r7, pc}
10008eac:	f41e 5f40 	tst.w	lr, #12288	@ 0x3000
10008eb0:	bf1c      	itt	ne
10008eb2:	f06f 0009 	mvnne.w	r0, #9
10008eb6:	bdd0      	popne	{r4, r6, r7, pc}
10008eb8:	f41e 4f40 	tst.w	lr, #49152	@ 0xc000
10008ebc:	bf1c      	itt	ne
10008ebe:	f06f 000a 	mvnne.w	r0, #10
10008ec2:	bdd0      	popne	{r4, r6, r7, pc}
10008ec4:	f41e 3f40 	tst.w	lr, #196608	@ 0x30000
10008ec8:	bf1c      	itt	ne
10008eca:	f06f 000b 	mvnne.w	r0, #11
10008ece:	bdd0      	popne	{r4, r6, r7, pc}
10008ed0:	f240 0214 	movw	r2, #20
10008ed4:	f6c3 0200 	movt	r2, #14336	@ 0x3800
10008ed8:	6812      	ldr	r2, [r2, #0]
10008eda:	fbb2 f1f1 	udiv	r1, r2, r1
10008ede:	2910      	cmp	r1, #16
10008ee0:	bf3c      	itt	cc
10008ee2:	f06f 0007 	mvncc.w	r0, #7
10008ee6:	bdd0      	popcc	{r4, r6, r7, pc}
10008ee8:	6081      	str	r1, [r0, #8]
10008eea:	f044 0004 	orr.w	r0, r4, #4
10008eee:	f88c 0008 	strb.w	r0, [ip, #8]
10008ef2:	2000      	movs	r0, #0
10008ef4:	bdd0      	pop	{r4, r6, r7, pc}
10008ef6:	bf00      	nop
10008ef8:	f044 0008 	orr.w	r0, r4, #8
10008efc:	f88c 0008 	strb.w	r0, [ip, #8]
10008f00:	2008      	movs	r0, #8
10008f02:	f2c5 0020 	movt	r0, #20512	@ 0x5020
10008f06:	6802      	ldr	r2, [r0, #0]
10008f08:	f001 0101 	and.w	r1, r1, #1
10008f0c:	4311      	orrs	r1, r2
10008f0e:	6001      	str	r1, [r0, #0]
10008f10:	2000      	movs	r0, #0
10008f12:	bdd0      	pop	{r4, r6, r7, pc}
10008f14:	f044 0010 	orr.w	r0, r4, #16
10008f18:	f88c 0008 	strb.w	r0, [ip, #8]
10008f1c:	2008      	movs	r0, #8
10008f1e:	f2c5 0020 	movt	r0, #20512	@ 0x5020
10008f22:	6802      	ldr	r2, [r0, #0]
10008f24:	f001 0101 	and.w	r1, r1, #1
10008f28:	ea42 0141 	orr.w	r1, r2, r1, lsl #1
10008f2c:	6001      	str	r1, [r0, #0]
10008f2e:	2000      	movs	r0, #0
10008f30:	bdd0      	pop	{r4, r6, r7, pc}
10008f32:	bf00      	nop
10008f34:	2008      	movs	r0, #8
10008f36:	f2c5 0020 	movt	r0, #20512	@ 0x5020
10008f3a:	6801      	ldr	r1, [r0, #0]
10008f3c:	f021 0104 	bic.w	r1, r1, #4
10008f40:	6001      	str	r1, [r0, #0]
10008f42:	2000      	movs	r0, #0
10008f44:	f88c 0000 	strb.w	r0, [ip]
10008f48:	bdd0      	pop	{r4, r6, r7, pc}
10008f4a:	bf00      	nop
10008f4c:	2008      	movs	r0, #8
10008f4e:	f2c5 0020 	movt	r0, #20512	@ 0x5020
10008f52:	6801      	ldr	r1, [r0, #0]
10008f54:	f021 0108 	bic.w	r1, r1, #8
10008f58:	6001      	str	r1, [r0, #0]
10008f5a:	2000      	movs	r0, #0
10008f5c:	f88c 0004 	strb.w	r0, [ip, #4]
10008f60:	bdd0      	pop	{r4, r6, r7, pc}

10008f62 <USART0_GetStatus>:
10008f62:	f240 0134 	movw	r1, #52	@ 0x34
10008f66:	f6c3 0100 	movt	r1, #14336	@ 0x3800
10008f6a:	7808      	ldrb	r0, [r1, #0]
10008f6c:	7909      	ldrb	r1, [r1, #4]
10008f6e:	f361 0041 	bfi	r0, r1, #1, #1
10008f72:	4770      	bx	lr

10008f74 <USART0_SetModemControl>:
10008f74:	f06f 0003 	mvn.w	r0, #3
10008f78:	4770      	bx	lr

10008f7a <USART0_GetModemStatus>:
10008f7a:	2000      	movs	r0, #0
10008f7c:	4770      	bx	lr
10008f7e:	d4d4      	bmi.n	10008f2a <USART0_Control+0xfe>

10008f80 <_sys_open>:
10008f80:	b5d0      	push	{r4, r6, r7, lr}
10008f82:	af02      	add	r7, sp, #8
10008f84:	b310      	cbz	r0, 10008fcc <_sys_open+0x4c>
10008f86:	4604      	mov	r4, r0
10008f88:	7800      	ldrb	r0, [r0, #0]
10008f8a:	283a      	cmp	r0, #58	@ 0x3a
10008f8c:	d11e      	bne.n	10008fcc <_sys_open+0x4c>
10008f8e:	f64a 510c 	movw	r1, #44300	@ 0xad0c
10008f92:	f2c1 0100 	movt	r1, #4096	@ 0x1000
10008f96:	4620      	mov	r0, r4
10008f98:	f000 f9de 	bl	10009358 <strcmp>
10008f9c:	b1d0      	cbz	r0, 10008fd4 <_sys_open+0x54>
10008f9e:	f64a 5113 	movw	r1, #44307	@ 0xad13
10008fa2:	f2c1 0100 	movt	r1, #4096	@ 0x1000
10008fa6:	4620      	mov	r0, r4
10008fa8:	f000 f9d6 	bl	10009358 <strcmp>
10008fac:	b1b0      	cbz	r0, 10008fdc <_sys_open+0x5c>
10008fae:	f64a 511b 	movw	r1, #44315	@ 0xad1b
10008fb2:	f2c1 0100 	movt	r1, #4096	@ 0x1000
10008fb6:	4620      	mov	r0, r4
10008fb8:	f000 f9ce 	bl	10009358 <strcmp>
10008fbc:	4601      	mov	r1, r0
10008fbe:	f04f 30ff 	mov.w	r0, #4294967295	@ 0xffffffff
10008fc2:	2900      	cmp	r1, #0
10008fc4:	bf08      	it	eq
10008fc6:	f248 0003 	movweq	r0, #32771	@ 0x8003
10008fca:	bdd0      	pop	{r4, r6, r7, pc}
10008fcc:	f04f 30ff 	mov.w	r0, #4294967295	@ 0xffffffff
10008fd0:	bdd0      	pop	{r4, r6, r7, pc}
10008fd2:	bf00      	nop
10008fd4:	f248 0001 	movw	r0, #32769	@ 0x8001
10008fd8:	bdd0      	pop	{r4, r6, r7, pc}
10008fda:	bf00      	nop
10008fdc:	f248 0002 	movw	r0, #32770	@ 0x8002
10008fe0:	bdd0      	pop	{r4, r6, r7, pc}

10008fe2 <_sys_close>:
10008fe2:	f248 0104 	movw	r1, #32772	@ 0x8004
10008fe6:	1a41      	subs	r1, r0, r1
10008fe8:	2000      	movs	r0, #0
10008fea:	f111 0f03 	cmn.w	r1, #3
10008fee:	bf38      	it	cc
10008ff0:	f04f 30ff 	movcc.w	r0, #4294967295	@ 0xffffffff
10008ff4:	4770      	bx	lr

10008ff6 <_sys_write>:
10008ff6:	b5b0      	push	{r4, r5, r7, lr}
10008ff8:	af02      	add	r7, sp, #8
10008ffa:	4614      	mov	r4, r2
10008ffc:	f248 0203 	movw	r2, #32771	@ 0x8003
10009000:	4290      	cmp	r0, r2
10009002:	d00b      	beq.n	1000901c <_sys_write+0x26>
10009004:	f248 0202 	movw	r2, #32770	@ 0x8002
10009008:	4290      	cmp	r0, r2
1000900a:	d109      	bne.n	10009020 <_sys_write+0x2a>
1000900c:	b134      	cbz	r4, 1000901c <_sys_write+0x26>
1000900e:	1e4d      	subs	r5, r1, #1
10009010:	f815 0f01 	ldrb.w	r0, [r5, #1]!
10009014:	f000 f83e 	bl	10009094 <stdout_putchar>
10009018:	3c01      	subs	r4, #1
1000901a:	d1f9      	bne.n	10009010 <_sys_write+0x1a>
1000901c:	2000      	movs	r0, #0
1000901e:	bdb0      	pop	{r4, r5, r7, pc}
10009020:	f04f 30ff 	mov.w	r0, #4294967295	@ 0xffffffff
10009024:	bdb0      	pop	{r4, r5, r7, pc}

10009026 <_sys_read>:
10009026:	f248 0301 	movw	r3, #32769	@ 0x8001
1000902a:	f04f 31ff 	mov.w	r1, #4294967295	@ 0xffffffff
1000902e:	4298      	cmp	r0, r3
10009030:	bf08      	it	eq
10009032:	f042 4100 	orreq.w	r1, r2, #2147483648	@ 0x80000000
10009036:	4608      	mov	r0, r1
10009038:	4770      	bx	lr

1000903a <_sys_istty>:
1000903a:	f248 0101 	movw	r1, #32769	@ 0x8001
1000903e:	1a41      	subs	r1, r0, r1
10009040:	2000      	movs	r0, #0
10009042:	2903      	cmp	r1, #3
10009044:	bf38      	it	cc
10009046:	2001      	movcc	r0, #1
10009048:	4770      	bx	lr

1000904a <_sys_seek>:
1000904a:	f04f 30ff 	mov.w	r0, #4294967295	@ 0xffffffff
1000904e:	4770      	bx	lr

10009050 <_sys_flen>:
10009050:	2000      	movs	r0, #0
10009052:	4770      	bx	lr

10009054 <stdout_init>:
10009054:	b5d0      	push	{r4, r6, r7, lr}
10009056:	af02      	add	r7, sp, #8
10009058:	f64a 44d4 	movw	r4, #44244	@ 0xacd4
1000905c:	f2c1 0400 	movt	r4, #4096	@ 0x1000
10009060:	68a1      	ldr	r1, [r4, #8]
10009062:	2000      	movs	r0, #0
10009064:	4788      	blx	r1
10009066:	b948      	cbnz	r0, 1000907c <stdout_init+0x28>
10009068:	6921      	ldr	r1, [r4, #16]
1000906a:	2002      	movs	r0, #2
1000906c:	4788      	blx	r1
1000906e:	b928      	cbnz	r0, 1000907c <stdout_init+0x28>
10009070:	6aa4      	ldr	r4, [r4, #40]	@ 0x28
10009072:	2001      	movs	r0, #1
10009074:	f44f 31e1 	mov.w	r1, #115200	@ 0x1c200
10009078:	47a0      	blx	r4
1000907a:	b118      	cbz	r0, 10009084 <stdout_init+0x30>
1000907c:	f04f 30ff 	mov.w	r0, #4294967295	@ 0xffffffff
10009080:	bdd0      	pop	{r4, r6, r7, pc}
10009082:	bf00      	nop
10009084:	2015      	movs	r0, #21
10009086:	2101      	movs	r1, #1
10009088:	47a0      	blx	r4
1000908a:	2800      	cmp	r0, #0
1000908c:	bf18      	it	ne
1000908e:	f04f 30ff 	movne.w	r0, #4294967295	@ 0xffffffff
10009092:	bdd0      	pop	{r4, r6, r7, pc}

10009094 <stdout_putchar>:
10009094:	b5b0      	push	{r4, r5, r7, lr}
10009096:	af02      	add	r7, sp, #8
10009098:	b082      	sub	sp, #8
1000909a:	f64a 45d4 	movw	r5, #44244	@ 0xacd4
1000909e:	f2c1 0500 	movt	r5, #4096	@ 0x1000
100090a2:	696a      	ldr	r2, [r5, #20]
100090a4:	4604      	mov	r4, r0
100090a6:	f807 0c09 	strb.w	r0, [r7, #-9]
100090aa:	f1a7 0009 	sub.w	r0, r7, #9
100090ae:	2101      	movs	r1, #1
100090b0:	4790      	blx	r2
100090b2:	b118      	cbz	r0, 100090bc <stdout_putchar+0x28>
100090b4:	f04f 34ff 	mov.w	r4, #4294967295	@ 0xffffffff
100090b8:	e005      	b.n	100090c6 <stdout_putchar+0x32>
100090ba:	bf00      	nop
100090bc:	6a2d      	ldr	r5, [r5, #32]
100090be:	bf00      	nop
100090c0:	47a8      	blx	r5
100090c2:	2801      	cmp	r0, #1
100090c4:	d1fc      	bne.n	100090c0 <stdout_putchar+0x2c>
100090c6:	4620      	mov	r0, r4
100090c8:	b002      	add	sp, #8
100090ca:	bdb0      	pop	{r4, r5, r7, pc}

100090cc <Default_Handler>:
100090cc:	e7fe      	b.n	100090cc <Default_Handler>

100090ce <Reset_Handler>:
100090ce:	b580      	push	{r7, lr}
100090d0:	466f      	mov	r7, sp
100090d2:	f240 0000 	movw	r0, #0
100090d6:	f6c3 0020 	movt	r0, #14368	@ 0x3820
100090da:	f380 8809 	msr	PSP, r0
100090de:	f240 0000 	movw	r0, #0
100090e2:	f6c3 0000 	movt	r0, #14336	@ 0x3800
100090e6:	f380 880a 	msr	MSPLIM, r0
100090ea:	f380 880b 	msr	PSPLIM, r0
100090ee:	f64f 7000 	movw	r0, #65280	@ 0xff00
100090f2:	f64e 51a5 	movw	r1, #60837	@ 0xeda5
100090f6:	f6c3 001f 	movt	r0, #14367	@ 0x381f
100090fa:	f6cf 61f5 	movt	r1, #65269	@ 0xfef5
100090fe:	e9c0 1100 	strd	r1, r1, [r0]
10009102:	f000 f89b 	bl	1000923c <SystemInit>
10009106:	f240 0c18 	movw	ip, #24
1000910a:	f240 0000 	movw	r0, #0
1000910e:	f6c3 0c00 	movt	ip, #14336	@ 0x3800
10009112:	f6c3 0000 	movt	r0, #14336	@ 0x3800
10009116:	4560      	cmp	r0, ip
10009118:	d248      	bcs.n	100091ac <Reset_Handler+0xde>
1000911a:	f240 0800 	movw	r8, #0
1000911e:	f6c3 0800 	movt	r8, #14336	@ 0x3800
10009122:	e003      	b.n	1000912c <Reset_Handler+0x5e>
10009124:	f108 080c 	add.w	r8, r8, #12
10009128:	45e0      	cmp	r8, ip
1000912a:	d23f      	bcs.n	100091ac <Reset_Handler+0xde>
1000912c:	f8d8 e008 	ldr.w	lr, [r8, #8]
10009130:	f1be 0f00 	cmp.w	lr, #0
10009134:	d0f6      	beq.n	10009124 <Reset_Handler+0x56>
10009136:	e9d8 a300 	ldrd	sl, r3, [r8]
1000913a:	ea5f 019e 	movs.w	r1, lr, lsr #2
1000913e:	f04f 0500 	mov.w	r5, #0
10009142:	d01d      	beq.n	10009180 <Reset_Handler+0xb2>
10009144:	f10a 0008 	add.w	r0, sl, #8
10009148:	f103 0408 	add.w	r4, r3, #8
1000914c:	eba5 0981 	sub.w	r9, r5, r1, lsl #2
10009150:	2100      	movs	r1, #0
10009152:	bf00      	nop
10009154:	f85a 6001 	ldr.w	r6, [sl, r1]
10009158:	1862      	adds	r2, r4, r1
1000915a:	505e      	str	r6, [r3, r1]
1000915c:	1846      	adds	r6, r0, r1
1000915e:	f856 6c04 	ldr.w	r6, [r6, #-4]
10009162:	3d04      	subs	r5, #4
10009164:	f842 6c04 	str.w	r6, [r2, #-4]
10009168:	5842      	ldr	r2, [r0, r1]
1000916a:	eb0a 0601 	add.w	r6, sl, r1
1000916e:	5062      	str	r2, [r4, r1]
10009170:	68f2      	ldr	r2, [r6, #12]
10009172:	185e      	adds	r6, r3, r1
10009174:	45a9      	cmp	r9, r5
10009176:	f101 0110 	add.w	r1, r1, #16
1000917a:	60f2      	str	r2, [r6, #12]
1000917c:	d1ea      	bne.n	10009154 <Reset_Handler+0x86>
1000917e:	426d      	negs	r5, r5
10009180:	f01e 0003 	ands.w	r0, lr, #3
10009184:	d0ce      	beq.n	10009124 <Reset_Handler+0x56>
10009186:	f85a 1025 	ldr.w	r1, [sl, r5, lsl #2]
1000918a:	2801      	cmp	r0, #1
1000918c:	f843 1025 	str.w	r1, [r3, r5, lsl #2]
10009190:	d0c8      	beq.n	10009124 <Reset_Handler+0x56>
10009192:	1c69      	adds	r1, r5, #1
10009194:	f85a 6021 	ldr.w	r6, [sl, r1, lsl #2]
10009198:	2802      	cmp	r0, #2
1000919a:	f843 6021 	str.w	r6, [r3, r1, lsl #2]
1000919e:	d0c1      	beq.n	10009124 <Reset_Handler+0x56>
100091a0:	1ca8      	adds	r0, r5, #2
100091a2:	f85a 1020 	ldr.w	r1, [sl, r0, lsl #2]
100091a6:	f843 1020 	str.w	r1, [r3, r0, lsl #2]
100091aa:	e7bb      	b.n	10009124 <Reset_Handler+0x56>
100091ac:	f240 045c 	movw	r4, #92	@ 0x5c
100091b0:	f240 0018 	movw	r0, #24
100091b4:	f6c3 0400 	movt	r4, #14336	@ 0x3800
100091b8:	f6c3 0000 	movt	r0, #14336	@ 0x3800
100091bc:	42a0      	cmp	r0, r4
100091be:	d22f      	bcs.n	10009220 <Reset_Handler+0x152>
100091c0:	f240 0518 	movw	r5, #24
100091c4:	f6c3 0500 	movt	r5, #14336	@ 0x3800
100091c8:	e003      	b.n	100091d2 <Reset_Handler+0x104>
100091ca:	bf00      	nop
100091cc:	3520      	adds	r5, #32
100091ce:	42a5      	cmp	r5, r4
100091d0:	d226      	bcs.n	10009220 <Reset_Handler+0x152>
100091d2:	6869      	ldr	r1, [r5, #4]
100091d4:	b119      	cbz	r1, 100091de <Reset_Handler+0x110>
100091d6:	6828      	ldr	r0, [r5, #0]
100091d8:	0089      	lsls	r1, r1, #2
100091da:	f003 fae7 	bl	1000c7ac <__aeabi_memclr>
100091de:	f105 0008 	add.w	r0, r5, #8
100091e2:	42a0      	cmp	r0, r4
100091e4:	d21c      	bcs.n	10009220 <Reset_Handler+0x152>
100091e6:	68e9      	ldr	r1, [r5, #12]
100091e8:	b119      	cbz	r1, 100091f2 <Reset_Handler+0x124>
100091ea:	6800      	ldr	r0, [r0, #0]
100091ec:	0089      	lsls	r1, r1, #2
100091ee:	f003 fadd 	bl	1000c7ac <__aeabi_memclr>
100091f2:	f105 0010 	add.w	r0, r5, #16
100091f6:	42a0      	cmp	r0, r4
100091f8:	d212      	bcs.n	10009220 <Reset_Handler+0x152>
100091fa:	6969      	ldr	r1, [r5, #20]
100091fc:	b119      	cbz	r1, 10009206 <Reset_Handler+0x138>
100091fe:	6800      	ldr	r0, [r0, #0]
10009200:	0089      	lsls	r1, r1, #2
10009202:	f003 fad3 	bl	1000c7ac <__aeabi_memclr>
10009206:	f105 0018 	add.w	r0, r5, #24
1000920a:	42a0      	cmp	r0, r4
1000920c:	d208      	bcs.n	10009220 <Reset_Handler+0x152>
1000920e:	69e9      	ldr	r1, [r5, #28]
10009210:	2900      	cmp	r1, #0
10009212:	d0db      	beq.n	100091cc <Reset_Handler+0xfe>
10009214:	6800      	ldr	r0, [r0, #0]
10009216:	0089      	lsls	r1, r1, #2
10009218:	f003 fac8 	bl	1000c7ac <__aeabi_memclr>
1000921c:	e7d6      	b.n	100091cc <Reset_Handler+0xfe>
1000921e:	bf00      	nop
10009220:	f000 f8ae 	bl	10009380 <stderr>

10009224 <HardFault_Handler>:
10009224:	e7fe      	b.n	10009224 <HardFault_Handler>
10009226:	d4d4      	bmi.n	100091d2 <Reset_Handler+0x104>

10009228 <SystemCoreClockUpdate>:
10009228:	f240 0014 	movw	r0, #20
1000922c:	f647 0140 	movw	r1, #30784	@ 0x7840
10009230:	f6c3 0000 	movt	r0, #14336	@ 0x3800
10009234:	f2c0 117d 	movt	r1, #381	@ 0x17d
10009238:	6001      	str	r1, [r0, #0]
1000923a:	4770      	bx	lr

1000923c <SystemInit>:
1000923c:	f240 0100 	movw	r1, #0
10009240:	f64e 50d8 	movw	r0, #60888	@ 0xedd8
10009244:	f2c1 0100 	movt	r1, #4096	@ 0x1000
10009248:	f2ce 0000 	movt	r0, #57344	@ 0xe000
1000924c:	f840 1cd0 	str.w	r1, [r0, #-208]
10009250:	f850 1c50 	ldr.w	r1, [r0, #-80]
10009254:	2300      	movs	r3, #0
10009256:	f441 0170 	orr.w	r1, r1, #15728640	@ 0xf00000
1000925a:	f840 1c50 	str.w	r1, [r0, #-80]
1000925e:	f850 1cb4 	ldr.w	r1, [r0, #-180]
10009262:	f04f 0c00 	mov.w	ip, #0
10009266:	f441 2170 	orr.w	r1, r1, #983040	@ 0xf0000
1000926a:	f840 1cb4 	str.w	r1, [r0, #-180]
1000926e:	f850 1cb0 	ldr.w	r1, [r0, #-176]
10009272:	f6cf 73ff 	movt	r3, #65535	@ 0xffff
10009276:	f441 7100 	orr.w	r1, r1, #512	@ 0x200
1000927a:	f840 1cb0 	str.w	r1, [r0, #-176]
1000927e:	f247 0100 	movw	r1, #28672	@ 0x7000
10009282:	f6c5 0100 	movt	r1, #22528	@ 0x5800
10009286:	680a      	ldr	r2, [r1, #0]
10009288:	f422 7280 	bic.w	r2, r2, #256	@ 0x100
1000928c:	600a      	str	r2, [r1, #0]
1000928e:	f8c1 c018 	str.w	ip, [r1, #24]
10009292:	61cb      	str	r3, [r1, #28]
10009294:	f249 0100 	movw	r1, #36864	@ 0x9000
10009298:	f6c5 0100 	movt	r1, #22528	@ 0x5800
1000929c:	680b      	ldr	r3, [r1, #0]
1000929e:	f04f 32ff 	mov.w	r2, #4294967295	@ 0xffffffff
100092a2:	f423 7380 	bic.w	r3, r3, #256	@ 0x100
100092a6:	600b      	str	r3, [r1, #0]
100092a8:	2301      	movs	r3, #1
100092aa:	618b      	str	r3, [r1, #24]
100092ac:	61ca      	str	r2, [r1, #28]
100092ae:	2114      	movs	r1, #20
100092b0:	f2c5 0108 	movt	r1, #20488	@ 0x5008
100092b4:	680a      	ldr	r2, [r1, #0]
100092b6:	f042 0201 	orr.w	r2, r2, #1
100092ba:	600a      	str	r2, [r1, #0]
100092bc:	f04f 5180 	mov.w	r1, #268435456	@ 0x10000000
100092c0:	f8c0 c000 	str.w	ip, [r0]
100092c4:	6041      	str	r1, [r0, #4]
100092c6:	f64f 71e3 	movw	r1, #65507	@ 0xffe3
100092ca:	f2c1 011f 	movt	r1, #4127	@ 0x101f
100092ce:	6081      	str	r1, [r0, #8]
100092d0:	f44f 1100 	mov.w	r1, #2097152	@ 0x200000
100092d4:	6003      	str	r3, [r0, #0]
100092d6:	6041      	str	r1, [r0, #4]
100092d8:	f64f 71e1 	movw	r1, #65505	@ 0xffe1
100092dc:	f2c0 013f 	movt	r1, #63	@ 0x3f
100092e0:	6081      	str	r1, [r0, #8]
100092e2:	2102      	movs	r1, #2
100092e4:	6001      	str	r1, [r0, #0]
100092e6:	2100      	movs	r1, #0
100092e8:	f6c2 0120 	movt	r1, #10272	@ 0x2820
100092ec:	6041      	str	r1, [r0, #4]
100092ee:	f64f 71e1 	movw	r1, #65505	@ 0xffe1
100092f2:	f6c2 013f 	movt	r1, #10303	@ 0x283f
100092f6:	2203      	movs	r2, #3
100092f8:	6081      	str	r1, [r0, #8]
100092fa:	6002      	str	r2, [r0, #0]
100092fc:	f04f 4280 	mov.w	r2, #1073741824	@ 0x40000000
10009300:	f101 51c0 	add.w	r1, r1, #402653184	@ 0x18000000
10009304:	6042      	str	r2, [r0, #4]
10009306:	6081      	str	r1, [r0, #8]
10009308:	f850 1cc8 	ldr.w	r1, [r0, #-200]
1000930c:	f649 72f7 	movw	r2, #40951	@ 0x9ff7
10009310:	f041 0108 	orr.w	r1, r1, #8
10009314:	f840 1cc8 	str.w	r1, [r0, #-200]
10009318:	f850 1ccc 	ldr.w	r1, [r0, #-204]
1000931c:	4011      	ands	r1, r2
1000931e:	f041 61b8 	orr.w	r1, r1, #96468992	@ 0x5c00000
10009322:	f441 1169 	orr.w	r1, r1, #3817472	@ 0x3a4000
10009326:	f840 1ccc 	str.w	r1, [r0, #-204]
1000932a:	f850 1c4c 	ldr.w	r1, [r0, #-76]
1000932e:	2204      	movs	r2, #4
10009330:	f441 6140 	orr.w	r1, r1, #3072	@ 0xc00
10009334:	f840 1c4c 	str.w	r1, [r0, #-76]
10009338:	f8d0 115c 	ldr.w	r1, [r0, #348]	@ 0x15c
1000933c:	f362 619c 	bfi	r1, r2, #26, #3
10009340:	f8c0 115c 	str.w	r1, [r0, #348]	@ 0x15c
10009344:	f240 0014 	movw	r0, #20
10009348:	f647 0140 	movw	r1, #30784	@ 0x7840
1000934c:	f6c3 0000 	movt	r0, #14336	@ 0x3800
10009350:	f2c0 117d 	movt	r1, #381	@ 0x17d
10009354:	6001      	str	r1, [r0, #0]
10009356:	4770      	bx	lr

10009358 <strcmp>:
10009358:	f810 2b01 	ldrb.w	r2, [r0], #1
1000935c:	f811 3b01 	ldrb.w	r3, [r1], #1
10009360:	2a01      	cmp	r2, #1
10009362:	bf28      	it	cs
10009364:	429a      	cmpcs	r2, r3
10009366:	d0f7      	beq.n	10009358 <strcmp>
10009368:	1ad0      	subs	r0, r2, r3
1000936a:	4770      	bx	lr

1000936c <__aeabi_uldivmod>:
1000936c:	b540      	push	{r6, lr}
1000936e:	b084      	sub	sp, #16
10009370:	ae02      	add	r6, sp, #8
10009372:	9600      	str	r6, [sp, #0]
10009374:	f003 fa4b 	bl	1000c80e <__udivmoddi4>
10009378:	9a02      	ldr	r2, [sp, #8]
1000937a:	9b03      	ldr	r3, [sp, #12]
1000937c:	b004      	add	sp, #16
1000937e:	bd40      	pop	{r6, pc}

10009380 <stderr>:
10009380:	0000 3800 6548 6c6c 206f 6f57 6c72 0064     ...8Hello World.
10009390:	2020 6f43 7472 7865 4d2d 3333 2020 2020       Cortex-M33    
100093a0:	2020 2020 2800 756e 6c6c 0029 6f54 6375         .(null).Touc
100093b0:	3a68 2000 4320 726f 6574 2d78 324d 2033     h:.  Cortex-M23 
100093c0:	2020 2020 2020 0020 454c 3a44 6e00 6e61            .LED:.nan
100093d0:	6900 666e 2000 2020 3256 2d4d 504d 3253     .inf.   V2M-MPS2
100093e0:	4420 6d65 206f 2020 0020 2020 6e75 6e6b      Demo    .  unkn
100093f0:	776f 206e 6f43 7472 7865 4d2d 2020 2500     own Cortex-M  .%
10009400:	0d73 000a 454b 3a59 2000 2020 7777 2e77     s...KEY:.   www.
10009410:	656b 6c69 632e 6d6f 2020 2020 0020 2020     keil.com     .  
10009420:	2020 2020 6c42 6e69 796b 2020 2020 2020         Blinky      
10009430:	2020 d400                                     ..

10009434 <Font_6x8_h>:
	...
1000943c:	0404 0404 0004 0004 0a0a 000a 0000 0000     ................
1000944c:	0a0a 0a1f 0a1f 000a 1e04 0e05 0f14 0004     ................
1000945c:	1303 0408 1902 0018 0502 0205 0915 0016     ................
1000946c:	0c0c 0204 0000 0000 0408 0202 0402 0008     ................
1000947c:	0402 0808 0408 0002 0400 0e15 150e 0004     ................
1000948c:	0400 1f04 0404 0000 0000 0000 0c0c 0204     ................
1000949c:	0000 1f00 0000 0000 0000 0000 0c00 000c     ................
100094ac:	1000 0408 0102 0000 110e 1513 1119 000e     ................
100094bc:	0604 0404 0404 000e 110e 0e10 0101 001f     ................
100094cc:	101f 0c08 1110 000e 0c08 090a 081f 0008     ................
100094dc:	011f 100f 1110 000e 021c 0f01 1111 000e     ................
100094ec:	101f 0810 0204 0001 110e 0e11 1111 000e     ................
100094fc:	110e 1e11 0810 0007 0000 0004 0004 0000     ................
1000950c:	0000 0004 0404 0002 0810 0204 0804 0010     ................
1000951c:	0000 001f 001f 0000 0402 1008 0408 0002     ................
1000952c:	110e 0c10 0004 0004 110e 1d15 010d 001e     ................
1000953c:	0a04 1111 111f 0011 110f 0f11 1111 000f     ................
1000954c:	110e 0101 1101 000e 110f 1111 1111 000f     ................
1000955c:	011f 0f01 0101 001f 011f 0f01 0101 0001     ................
1000956c:	111e 0101 1119 001e 1111 1f11 1111 0011     ................
1000957c:	040e 0404 0404 000e 081c 0808 0908 0006     ................
1000958c:	0911 0305 0905 0011 0101 0101 0101 001f     ................
1000959c:	1b11 1515 1115 0011 1111 1513 1119 0011     ................
100095ac:	110e 1111 1111 000e 110f 0f11 0101 0001     ................
100095bc:	110e 1111 0915 0016 110f 0f11 0905 0011     ................
100095cc:	110e 0e01 1110 000e 151f 0404 0404 0004     ................
100095dc:	1111 1111 1111 000e 1111 1111 0a11 0004     ................
100095ec:	1111 1511 1515 000a 1111 040a 110a 0011     ................
100095fc:	1111 040a 0404 0004 101f 0e08 0102 001f     ................
1000960c:	021e 0202 0202 001e 0100 0402 1008 0000     ................
1000961c:	101e 1010 1010 001e 0a04 0011 0000 0000     ................
1000962c:	0000 0000 0000 001f 0606 0804 0000 0000     ................
1000963c:	0000 0806 090e 001e 0101 130d 1311 000d     ................
1000964c:	0000 110e 1101 000e 1010 1916 1911 0016     ................
1000965c:	0000 110e 011f 000e 1408 0e04 0404 0004     ................
1000966c:	0000 190e 1619 0e10 0101 130d 1111 0011     ................
1000967c:	0004 0406 0404 000e 0008 0808 0908 0006     ................
1000968c:	0101 0509 0503 0009 0406 0404 0404 000e     ................
1000969c:	0000 150b 1515 0015 0000 130d 1111 0011     ................
100096ac:	0000 110e 1111 000e 0000 130d 0d13 0101     ................
100096bc:	0000 1916 1619 1010 0000 130d 0101 0001     ................
100096cc:	0000 011e 100e 000f 0404 041f 1404 0008     ................
100096dc:	0000 1111 1911 0016 0000 1111 0a11 0004     ................
100096ec:	0000 1111 1515 000a 0000 0a11 0a04 0011     ................
100096fc:	0000 1111 101e 0e11 0000 081f 0204 001f     ................
1000970c:	0408 0204 0404 0008 0404 0004 0404 0004     ................
1000971c:	0402 0804 0404 0002 1502 0008 0000 0000     ................
	...
10009734:	0000 120c 0c12 0000 0000 1e0c 0c1e 0000     ................
10009744:	0000 121e 1e12 0000 0000 1e1e 1e1e 0000     ................
10009754:	0000 0c0c 1e12 0000 0000 0c0c 1e1e 0000     ................
10009764:	0000 121e 0c0c 0000 0000 1e1e 0c0c 0000     ................
10009774:	0000 1618 1816 0000 0000 1e18 181e 0000     ................
10009784:	0000 1a06 061a 0000 0000 1e06 061e 0000     ................
10009794:	0000 120c 0c12 0000 0000 1e0c 0c1e 0000     ................
100097a4:	0000 121e 1e12 0000 0000 1e1e 1e1e 0000     ................

100097b4 <GLCD_Font_6x8>:
100097b4:	0006 0008 0020 0000 0070 0000 9434 1000     .... ...p...4...

100097c4 <Font_16x24_h>:
	...
100097f4:	0000 0180 0180 0180 0180 0180 0180 0180     ................
10009804:	0180 0180 0180 0180 0180 0180 0000 0000     ................
10009814:	0180 0180 0000 0000 0000 0000 0000 0000     ................
10009824:	0000 0000 00cc 00cc 00cc 00cc 00cc 00cc     ................
	...
10009860:	0c60 0c60 0c60 0630 0630 1ffe 1ffe 0630     `.`.`.0.0.....0.
10009870:	0738 0318 1ffe 1ffe 0318 0318 018c 018c     8...............
10009880:	018c 0000 0000 0080 03e0 0ff8 0e9c 1c8c     ................
10009890:	188c 008c 0098 01f8 07e0 0e80 1c80 188c     ................
100098a0:	188c 189c 0cb8 0ff0 03e0 0080 0080 0000     ................
	...
100098b8:	0000 180e 0c1b 0c11 0611 0611 0311 0311     ................
100098c8:	019b 018e 38c0 6cc0 4460 4460 4430 4430     .....8.l`D`D0D0D
100098d8:	4418 6c18 380c 0000 0000 0000 0000 01e0     .D.l.8..........
100098e8:	03f0 0738 0618 0618 0330 01f0 00f0 00f8     ..8.....0.......
100098f8:	319c 330e 1e06 1c06 1c06 3f06 73fc 21f0     .1.3.......?.s.!
	...
10009918:	000c 000c 000c 000c 000c 000c 0000 0000     ................
	...
10009944:	0000 0200 0300 0180 00c0 00c0 0060 0060     ............`.`.
10009954:	0030 0030 0030 0030 0030 0030 0030 0030     0.0.0.0.0.0.0.0.
10009964:	0060 0060 00c0 00c0 0180 0300 0200 0000     `.`.............
10009974:	0000 0020 0060 00c0 0180 0180 0300 0300     .. .`...........
10009984:	0600 0600 0600 0600 0600 0600 0600 0600     ................
10009994:	0300 0300 0180 0180 00c0 0060 0020 0000     ..........`. ...
	...
100099b0:	00c0 00c0 06d8 07f8 01e0 0330 0738 0000     ..........0.8...
	...
100099e0:	0180 0180 0180 0180 0180 3ffc 3ffc 0180     ...........?.?..
100099f0:	0180 0180 0180 0180 0000 0000 0000 0000     ................
	...
10009a24:	0000 0180 0180 0100 0100 0080 0000 0000     ................
	...
10009a4c:	07e0 07e0 0000 0000 0000 0000 0000 0000     ................
	...
10009a84:	0000 00c0 00c0 0000 0000 0000 0000 0000     ................
10009a94:	0000 0c00 0c00 0600 0600 0600 0300 0300     ................
10009aa4:	0300 0380 0180 0180 0180 00c0 00c0 00c0     ................
10009ab4:	0060 0060 0000 0000 0000 0000 0000 0000     `.`.............
10009ac4:	0000 03e0 07f0 0e38 0c18 180c 180c 180c     ......8.........
10009ad4:	180c 180c 180c 180c 180c 180c 0c18 0e38     ..............8.
10009ae4:	07f0 03e0 0000 0000 0000 0000 0000 0000     ................
10009af4:	0000 0100 0180 01c0 01f0 0198 0188 0180     ................
10009b04:	0180 0180 0180 0180 0180 0180 0180 0180     ................
10009b14:	0180 0180 0000 0000 0000 0000 0000 0000     ................
10009b24:	0000 03e0 0ff8 0c18 180c 180c 1800 1800     ................
10009b34:	0c00 0600 0300 0180 00c0 0060 0030 0018     ..........`.0...
10009b44:	1ffc 1ffc 0000 0000 0000 0000 0000 0000     ................
10009b54:	0000 01e0 07f8 0e18 0c0c 0c0c 0c00 0600     ................
10009b64:	03c0 07c0 0c00 1800 1800 180c 180c 0c18     ................
10009b74:	07f8 03e0 0000 0000 0000 0000 0000 0000     ................
10009b84:	0000 0c00 0e00 0f00 0f00 0d80 0cc0 0c60     ..............`.
10009b94:	0c60 0c30 0c18 0c0c 3ffc 3ffc 0c00 0c00     `.0......?.?....
10009ba4:	0c00 0c00 0000 0000 0000 0000 0000 0000     ................
10009bb4:	0000 0ff8 0ff8 0018 0018 000c 03ec 07fc     ................
10009bc4:	0e1c 1c00 1800 1800 1800 180c 0c1c 0e18     ................
10009bd4:	07f8 03e0 0000 0000 0000 0000 0000 0000     ................
10009be4:	0000 07c0 0ff0 1c38 1818 0018 000c 03cc     ......8.........
10009bf4:	0fec 0e3c 1c1c 180c 180c 180c 1c18 0e38     ..<...........8.
10009c04:	07f0 03e0 0000 0000 0000 0000 0000 0000     ................
10009c14:	0000 1ffc 1ffc 0c00 0600 0600 0300 0380     ................
10009c24:	0180 01c0 00c0 00e0 0060 0060 0070 0030     ........`.`.p.0.
10009c34:	0030 0030 0000 0000 0000 0000 0000 0000     0.0.............
10009c44:	0000 03e0 07f0 0e38 0c18 0c18 0c18 0638     ......8.......8.
10009c54:	07f0 07f0 0c18 180c 180c 180c 180c 0c38     ..............8.
10009c64:	0ff8 03e0 0000 0000 0000 0000 0000 0000     ................
10009c74:	0000 03e0 07f0 0e38 0c1c 180c 180c 180c     ......8.........
10009c84:	1c1c 1e38 1bf8 19e0 1800 0c00 0c00 0e1c     ..8.............
10009c94:	07f8 01f0 0000 0000 0000 0000 0000 0000     ................
	...
10009cb0:	0180 0180 0000 0000 0000 0000 0000 0000     ................
10009cc0:	0000 0000 0180 0180 0000 0000 0000 0000     ................
	...
10009ce0:	0180 0180 0000 0000 0000 0000 0000 0000     ................
10009cf0:	0000 0000 0180 0180 0100 0100 0080 0000     ................
	...
10009d14:	1000 1c00 0f80 03e0 00f8 0018 00f8 03e0     ................
10009d24:	0f80 1c00 1000 0000 0000 0000 0000 0000     ................
	...
10009d44:	1ff8 0000 0000 0000 1ff8 0000 0000 0000     ................
	...
10009d74:	0008 0038 01f0 07c0 1f00 1800 1f00 07c0     ..8.............
10009d84:	01f0 0038 0008 0000 0000 0000 0000 0000     ..8.............
10009d94:	0000 03e0 0ff8 0c18 180c 180c 1800 0c00     ................
10009da4:	0600 0300 0180 00c0 00c0 00c0 0000 0000     ................
10009db4:	00c0 00c0 0000 0000 0000 0000 0000 0000     ................
10009dc4:	0000 0000 07e0 1818 2004 29c2 4a22 4411     ......... .)"J.D
10009dd4:	4409 4409 4409 2209 1311 0ce2 4002 2004     .D.D.D.".....@. 
10009de4:	1818 07e0 0000 0000 0000 0000 0000 0000     ................
10009df4:	0000 0380 0380 06c0 06c0 06c0 0c60 0c60     ............`.`.
10009e04:	1830 1830 1830 3ff8 3ff8 701c 600c 600c     0.0.0..?.?.p.`.`
10009e14:	c006 c006 0000 0000 0000 0000 0000 0000     ................
10009e24:	0000 03fc 0ffc 0c0c 180c 180c 180c 0c0c     ................
10009e34:	07fc 0ffc 180c 300c 300c 300c 300c 180c     .......0.0.0.0..
10009e44:	1ffc 07fc 0000 0000 0000 0000 0000 0000     ................
10009e54:	0000 07c0 1ff0 3838 301c 700c 6006 0006     ......88.0.p.`..
10009e64:	0006 0006 0006 0006 0006 6006 700c 301c     ...........`.p.0
10009e74:	1ff0 07e0 0000 0000 0000 0000 0000 0000     ................
10009e84:	0000 03fe 0ffe 0e06 1806 1806 3006 3006     .............0.0
10009e94:	3006 3006 3006 3006 3006 1806 1806 0e06     .0.0.0.0.0......
10009ea4:	0ffe 03fe 0000 0000 0000 0000 0000 0000     ................
10009eb4:	0000 3ffc 3ffc 000c 000c 000c 000c 000c     ...?.?..........
10009ec4:	1ffc 1ffc 000c 000c 000c 000c 000c 000c     ................
10009ed4:	3ffc 3ffc 0000 0000 0000 0000 0000 0000     .?.?............
10009ee4:	0000 3ff8 3ff8 0018 0018 0018 0018 0018     ...?.?..........
10009ef4:	1ff8 1ff8 0018 0018 0018 0018 0018 0018     ................
10009f04:	0018 0018 0000 0000 0000 0000 0000 0000     ................
10009f14:	0000 0fe0 3ff8 783c 600e e006 c007 0003     .....?<x.`......
10009f24:	0003 fe03 fe03 c003 c007 c006 c00e f03c     ..............<.
10009f34:	3ff8 0fe0 0000 0000 0000 0000 0000 0000     .?..............
10009f44:	0000 300c 300c 300c 300c 300c 300c 300c     ...0.0.0.0.0.0.0
10009f54:	3ffc 3ffc 300c 300c 300c 300c 300c 300c     .?.?.0.0.0.0.0.0
10009f64:	300c 300c 0000 0000 0000 0000 0000 0000     .0.0............
10009f74:	0000 0180 0180 0180 0180 0180 0180 0180     ................
10009f84:	0180 0180 0180 0180 0180 0180 0180 0180     ................
10009f94:	0180 0180 0000 0000 0000 0000 0000 0000     ................
10009fa4:	0000 0600 0600 0600 0600 0600 0600 0600     ................
10009fb4:	0600 0600 0600 0600 0600 0618 0618 0738     ..............8.
10009fc4:	03f0 01e0 0000 0000 0000 0000 0000 0000     ................
10009fd4:	0000 3006 1806 0c06 0606 0306 0186 00c6     ...0............
10009fe4:	0066 0076 00de 018e 0306 0606 0c06 1806     f.v.............
10009ff4:	3006 6006 0000 0000 0000 0000 0000 0000     .0.`............
1000a004:	0000 0018 0018 0018 0018 0018 0018 0018     ................
1000a014:	0018 0018 0018 0018 0018 0018 0018 0018     ................
1000a024:	1ff8 1ff8 0000 0000 0000 0000 0000 0000     ................
1000a034:	0000 e00e f01e f01e f01e d836 d836 d836     ..........6.6.6.
1000a044:	d836 cc66 cc66 cc66 c6c6 c6c6 c6c6 c6c6     6.f.f.f.........
1000a054:	c386 c386 0000 0000 0000 0000 0000 0000     ................
1000a064:	0000 300c 301c 303c 303c 306c 306c 30cc     ...0.0<0<0l0l0.0
1000a074:	30cc 318c 330c 330c 360c 360c 3c0c 3c0c     .0.1.3.3.6.6.<.<
1000a084:	380c 300c 0000 0000 0000 0000 0000 0000     .8.0............
1000a094:	0000 07e0 1ff8 381c 700e 6006 c003 c003     .......8.p.`....
1000a0a4:	c003 c003 c003 c003 c003 6006 700e 381c     ...........`.p.8
1000a0b4:	1ff8 07e0 0000 0000 0000 0000 0000 0000     ................
1000a0c4:	0000 0ffc 1ffc 380c 300c 300c 300c 300c     .......8.0.0.0.0
1000a0d4:	180c 1ffc 07fc 000c 000c 000c 000c 000c     ................
1000a0e4:	000c 000c 0000 0000 0000 0000 0000 0000     ................
1000a0f4:	0000 07e0 1ff8 381c 700e 6006 e003 c003     .......8.p.`....
1000a104:	c003 c003 c003 c003 e007 6306 3f0e 3c1c     ...........c.?.<
1000a114:	3ff8 f7e0 c000 0000 0000 0000 0000 0000     .?..............
1000a124:	0000 0ffe 1ffe 3806 3006 3006 3006 3806     .......8.0.0.0.8
1000a134:	1ffe 07fe 0306 0606 0c06 1806 1806 3006     ...............0
1000a144:	3006 6006 0000 0000 0000 0000 0000 0000     .0.`............
1000a154:	0000 03e0 0ff8 0c1c 180c 180c 000c 001c     ................
1000a164:	03f8 0fe0 1e00 3800 3006 3006 300e 1c1c     .......8.0.0.0..
1000a174:	0ff8 07e0 0000 0000 0000 0000 0000 0000     ................
1000a184:	0000 7ffe 7ffe 0180 0180 0180 0180 0180     ................
1000a194:	0180 0180 0180 0180 0180 0180 0180 0180     ................
1000a1a4:	0180 0180 0000 0000 0000 0000 0000 0000     ................
1000a1b4:	0000 300c 300c 300c 300c 300c 300c 300c     ...0.0.0.0.0.0.0
1000a1c4:	300c 300c 300c 300c 300c 300c 300c 1818     .0.0.0.0.0.0.0..
1000a1d4:	1ff8 07e0 0000 0000 0000 0000 0000 0000     ................
1000a1e4:	0000 6003 3006 3006 3006 180c 180c 180c     ...`.0.0.0......
1000a1f4:	0c18 0c18 0e38 0630 0630 0770 0360 0360     ....8.0.0.p.`.`.
1000a204:	01c0 01c0 0000 0000 0000 0000 0000 0000     ................
1000a214:	0000 6003 61c3 61c3 61c3 3366 3366 3366     ...`.a.a.af3f3f3
1000a224:	3366 3366 3366 1b6c 1b6c 1b6c 1a2c 1e3c     f3f3f3l.l.l.,.<.
1000a234:	0e38 0e38 0000 0000 0000 0000 0000 0000     8.8.............
1000a244:	0000 e00f 700c 3018 1830 0c70 0e60 07c0     .....p.00.p.`...
1000a254:	0380 0380 03c0 06e0 0c70 1c30 1818 300c     ........p.0....0
1000a264:	600e e007 0000 0000 0000 0000 0000 0000     .`..............
1000a274:	0000 c003 6006 300c 381c 1838 0c30 0660     .....`.0.88.0.`.
1000a284:	07e0 03c0 0180 0180 0180 0180 0180 0180     ................
1000a294:	0180 0180 0000 0000 0000 0000 0000 0000     ................
1000a2a4:	0000 7ffc 7ffc 6000 3000 1800 0c00 0600     .......`.0......
1000a2b4:	0300 0180 00c0 0060 0030 0018 000c 0006     ......`.0.......
1000a2c4:	7ffe 7ffe 0000 0000 0000 0000 0000 0000     ................
1000a2d4:	0000 03e0 03e0 0060 0060 0060 0060 0060     ......`.`.`.`.`.
1000a2e4:	0060 0060 0060 0060 0060 0060 0060 0060     `.`.`.`.`.`.`.`.
1000a2f4:	0060 0060 0060 0060 0060 03e0 03e0 0000     `.`.`.`.`.......
1000a304:	0000 0030 0030 0060 0060 0060 00c0 00c0     ..0.0.`.`.`.....
1000a314:	00c0 01c0 0180 0180 0180 0300 0300 0300     ................
1000a324:	0600 0600 0000 0000 0000 0000 0000 0000     ................
1000a334:	0000 03e0 03e0 0300 0300 0300 0300 0300     ................
1000a344:	0300 0300 0300 0300 0300 0300 0300 0300     ................
1000a354:	0300 0300 0300 0300 0300 03e0 03e0 0000     ................
1000a364:	0000 0000 01c0 01c0 0360 0360 0360 0630     ........`.`.`.0.
1000a374:	0630 0c18 0c18 0000 0000 0000 0000 0000     0...............
	...
1000a3b4:	0000 ffff ffff 0000 0000 0000 0000 0000     ................
1000a3c4:	0000 000c 000c 000c 000c 000c 000c 0000     ................
	...
1000a400:	03f0 07f8 0c1c 0c0c 0f00 0ff0 0cf8 0c0c     ................
1000a410:	0c0c 0f1c 0ff8 18f0 0000 0000 0000 0000     ................
1000a420:	0000 0000 0000 0018 0018 0018 0018 0018     ................
1000a430:	03d8 0ff8 0c38 1818 1818 1818 1818 1818     ....8...........
1000a440:	1818 0c38 0ff8 03d8 0000 0000 0000 0000     ..8.............
	...
1000a460:	03c0 07f0 0e30 0c18 0018 0018 0018 0018     ....0...........
1000a470:	0c18 0e30 07f0 03c0 0000 0000 0000 0000     ..0.............
1000a480:	0000 0000 0000 1800 1800 1800 1800 1800     ................
1000a490:	1bc0 1ff0 1c30 1818 1818 1818 1818 1818     ....0...........
1000a4a0:	1818 1c30 1ff0 1bc0 0000 0000 0000 0000     ..0.............
	...
1000a4c0:	03c0 0ff0 0c30 1818 1ff8 1ff8 0018 0018     ....0...........
1000a4d0:	1838 1c30 0ff0 07c0 0000 0000 0000 0000     8.0.............
1000a4e0:	0000 0000 0000 0f80 0fc0 00c0 00c0 00c0     ................
1000a4f0:	07f0 07f0 00c0 00c0 00c0 00c0 00c0 00c0     ................
1000a500:	00c0 00c0 00c0 00c0 0000 0000 0000 0000     ................
	...
1000a520:	0de0 0ff8 0e18 0c0c 0c0c 0c0c 0c0c 0c0c     ................
1000a530:	0c0c 0e18 0ff8 0de0 0c00 0c0c 061c 07f8     ................
1000a540:	01f0 0000 0000 0018 0018 0018 0018 0018     ................
1000a550:	07d8 0ff8 1c38 1818 1818 1818 1818 1818     ....8...........
1000a560:	1818 1818 1818 1818 0000 0000 0000 0000     ................
1000a570:	0000 0000 0000 00c0 00c0 0000 0000 0000     ................
1000a580:	00c0 00c0 00c0 00c0 00c0 00c0 00c0 00c0     ................
1000a590:	00c0 00c0 00c0 00c0 0000 0000 0000 0000     ................
1000a5a0:	0000 0000 0000 00c0 00c0 0000 0000 0000     ................
1000a5b0:	00c0 00c0 00c0 00c0 00c0 00c0 00c0 00c0     ................
1000a5c0:	00c0 00c0 00c0 00c0 00c0 00c0 00c0 00f8     ................
1000a5d0:	0078 0000 0000 000c 000c 000c 000c 000c     x...............
1000a5e0:	0c0c 060c 030c 018c 00cc 006c 00fc 019c     ..........l.....
1000a5f0:	038c 030c 060c 0c0c 0000 0000 0000 0000     ................
1000a600:	0000 0000 0000 00c0 00c0 00c0 00c0 00c0     ................
1000a610:	00c0 00c0 00c0 00c0 00c0 00c0 00c0 00c0     ................
1000a620:	00c0 00c0 00c0 00c0 0000 0000 0000 0000     ................
	...
1000a640:	3c7c 7eff e3c7 c183 c183 c183 c183 c183     |<.~............
1000a650:	c183 c183 c183 c183 0000 0000 0000 0000     ................
	...
1000a670:	0798 0ff8 1c38 1818 1818 1818 1818 1818     ....8...........
1000a680:	1818 1818 1818 1818 0000 0000 0000 0000     ................
	...
1000a6a0:	03c0 0ff0 0c30 1818 1818 1818 1818 1818     ....0...........
1000a6b0:	1818 0c30 0ff0 03c0 0000 0000 0000 0000     ..0.............
	...
1000a6d0:	03d8 0ff8 0c38 1818 1818 1818 1818 1818     ....8...........
1000a6e0:	1818 0c38 0ff8 03d8 0018 0018 0018 0018     ..8.............
1000a6f0:	0018 0000 0000 0000 0000 0000 0000 0000     ................
1000a700:	1bc0 1ff0 1c30 1818 1818 1818 1818 1818     ....0...........
1000a710:	1818 1c30 1ff0 1bc0 1800 1800 1800 1800     ..0.............
1000a720:	1800 0000 0000 0000 0000 0000 0000 0000     ................
1000a730:	07b0 03f0 0070 0030 0030 0030 0030 0030     ....p.0.0.0.0.0.
1000a740:	0030 0030 0030 0030 0000 0000 0000 0000     0.0.0.0.........
	...
1000a760:	03e0 03f0 0e38 0c18 0038 03f0 07c0 0c00     ....8...8.......
1000a770:	0c18 0e38 07f0 03e0 0000 0000 0000 0000     ..8.............
	...
1000a788:	0080 00c0 00c0 00c0 07f0 07f0 00c0 00c0     ................
1000a798:	00c0 00c0 00c0 00c0 00c0 00c0 07c0 0780     ................
	...
1000a7c0:	1818 1818 1818 1818 1818 1818 1818 1818     ................
1000a7d0:	1818 1c38 1ff0 19e0 0000 0000 0000 0000     ..8.............
	...
1000a7f0:	180c 0c18 0c18 0c18 0630 0630 0630 0360     ........0.0.0.`.
1000a800:	0360 0360 01c0 01c0 0000 0000 0000 0000     `.`.............
	...
1000a820:	41c1 41c1 61c3 6363 6363 6363 3636 3636     .A.A.acccccc6666
1000a830:	3636 1c1c 1c1c 1c1c 0000 0000 0000 0000     66..............
	...
1000a850:	381c 1c38 0c30 0660 03c0 03c0 03c0 03c0     .88.0.`.........
1000a860:	0660 0c30 1c38 381c 0000 0000 0000 0000     `.0.8..8........
	...
1000a880:	3018 1830 1830 1870 0c60 0c60 0ce0 06c0     .00.0.p.`.`.....
1000a890:	06c0 0380 0380 0380 0180 0180 01c0 00f0     ................
1000a8a0:	0070 0000 0000 0000 0000 0000 0000 0000     p...............
1000a8b0:	1ffc 1ffc 0c00 0600 0300 0180 00c0 0060     ..............`.
1000a8c0:	0030 0018 1ffc 1ffc 0000 0000 0000 0000     0...............
1000a8d0:	0000 0000 0000 0300 0180 00c0 00c0 00c0     ................
1000a8e0:	00c0 00c0 00c0 0060 0060 0030 0060 0040     ......`.`.0.`.@.
1000a8f0:	00c0 00c0 00c0 00c0 00c0 00c0 0180 0300     ................
1000a900:	0000 0000 0000 0180 0180 0180 0180 0180     ................
1000a910:	0180 0180 0180 0180 0180 0180 0180 0180     ................
1000a920:	0180 0180 0180 0180 0180 0180 0180 0180     ................
1000a930:	0180 0000 0000 0060 00c0 01c0 0180 0180     ......`.........
1000a940:	0180 0180 0180 0300 0300 0600 0300 0100     ................
1000a950:	0180 0180 0180 0180 0180 0180 00c0 0060     ..............`.
	...
1000a974:	10f0 1ff8 0f08 0000 0000 0000 0000 0000     ................
	...
1000a9cc:	0000 03c0 0c30 1008 2004 2004 4002 4002     ....0.... . .@.@
1000a9dc:	4002 4002 4002 2004 2004 1008 0c30 03c0     .@.@.@. . ..0...
	...
1000a9fc:	0000 03c0 0ff0 1ff8 3ffc 3ffc 7ffe 7ffe     .........?.?....
1000aa0c:	7ffe 7ffe 7ffe 3ffc 3ffc 1ff8 0ff0 03c0     .......?.?......
	...
1000aa30:	0000 07e0 0ff0 1818 1818 1818 1818 1818     ................
1000aa40:	1818 0ff0 07e0 0000 0000 0000 0000 0000     ................
	...
1000aa60:	0000 07e0 0ff0 1ff8 1ff8 1ff8 1ff8 1ff8     ................
1000aa70:	1ff8 0ff0 07e0 0000 0000 0000 0000 0000     ................
	...
1000aa9c:	0180 03c0 0660 0c30 1818 1818 1ff8 1ff8     ....`.0.........
	...
1000aacc:	0180 03c0 07e0 0ff0 1ff8 1ff8 1ff8 1ff8     ................
	...
1000aaec:	1ff8 1ff8 1818 1818 0c30 0660 03c0 0180     ........0.`.....
	...
1000ab1c:	1ff8 1ff8 1ff8 1ff8 0ff0 07e0 03c0 0180     ................
	...
1000ab50:	0000 01e0 01f0 0198 018c 0186 0186 018c     ................
1000ab60:	0198 01f0 01e0 0000 0000 0000 0000 0000     ................
	...
1000ab80:	0000 01e0 01f0 01f8 01fc 01fe 01fe 01fc     ................
1000ab90:	01f8 01f0 01e0 0000 0000 0000 0000 0000     ................
	...
1000abb0:	0000 0780 0f80 1980 3180 6180 6180 3180     .........1.a.a.1
1000abc0:	1980 0f80 0780 0000 0000 0000 0000 0000     ................
	...
1000abe0:	0000 0780 0f80 1f80 3f80 7f80 7f80 3f80     .........?.....?
1000abf0:	1f80 0f80 0780 0000 0000 0000 0000 0000     ................
1000ac00:	0000 0000 0000 01c0 0220 0220 0140 0630     ........ . .@.0.
1000ac10:	0808 0808 0808 0808 0808 0808 0808 0220     .............. .
1000ac20:	0220 0220 0220 0220 0220 0220 0220 0220      . . . . . . . .
1000ac30:	0220 0000 0000 01c0 03e0 03e0 01c0 07f0      ...............
1000ac40:	0dd8 0dd8 0dd8 0dd8 0dd8 0dd8 0dd8 0360     ..............`.
1000ac50:	0360 0360 0360 0360 0360 0360 0360 0360     `.`.`.`.`.`.`.`.
1000ac60:	0360 0000 0000 01c0 0220 0220 0140 0630     `....... . .@.0.
1000ac70:	0808 0808 0808 1004 2002 2002 0140 0220     ......... . @. .
1000ac80:	0220 0410 0808 0808 1004 1004 2004 4004      ............ .@
1000ac90:	0000 0000 0000 01c0 03e0 03e0 01c0 07f0     ................
1000aca0:	0dd8 0dd8 0dd8 19cc 31c6 61c2 01c0 0360     .........1.a..`.
1000acb0:	0360 0670 0c38 0c18 180c 180c 300c 600c     `.p.8........0.`
1000acc0:	0000 0000                                   ....

1000acc4 <GLCD_Font_16x24>:
1000acc4:	0010 0018 0020 0000 0070 0000 97c4 1000     .... ...p.......

1000acd4 <Driver_USART0>:
1000acd4:	8c47 1000 8c51 1000 8c57 1000 8c95 1000     G...Q...W.......
1000ace4:	8cbd 1000 8d4f 1000 8db3 1000 8e0f 1000     ....O...........
1000acf4:	8e15 1000 8e21 1000 8e2d 1000 8f63 1000     ....!...-...c...
1000ad04:	8f75 1000 8f7b 1000                         u...{...

1000ad0c <__stdin_name>:
1000ad0c:	533a 4454 4e49                               :STDIN.

1000ad13 <__stdout_name>:
1000ad13:	533a 4454 554f 0054                         :STDOUT.

1000ad1b <__stderr_name>:
1000ad1b:	533a 4454 5245 0052 d4d4 d4d4                :STDERR......

1000ad28 <DOUBLE_POW5_SPLIT2>:
	...
1000ad34:	0000 1000 0000 0000 0000 0000 34b9 3203     .............4.2
1000ad44:	f4b7 14ad db10 b31a 9208 0e54 300d 957d     ..........T..0}.
1000ad54:	4714 1aba 0866 4d8f ad26 6dc6 98f5 85bf     .G..f..M&..m....
1000ad64:	b7e2 1145 96ca 3d85 bd92 eb1d a1fc 6018     ..E....=.......`
1000ad74:	efdc 1652 923c 22ae b80b b4c1 9d83 5b2d     ..R.<.."......-[
1000ad84:	6205 1cda 4c30 8f7e 8b4e 5bb2 f416 9f52     .b..0L~.N..[..R.
1000ad94:	568b 12a5 d4fb 7682 ed43 f08a e78f 31f9     .V.....vC......1
1000ada4:	6515 1819 f150 d99b 134a b4ee 4c28 a6f0     .e..P...J...(L..
1000adb4:	c186 1f25 5f03 70c2 9ecb 1649 42e6 9c88     ..%.._.p..I..B..
1000adc4:	eb44 1420 65b0 3608 6ead 85a5 f085 14ca     D. ..e.6.n......
1000add4:	fde2 1a03 890b 7999 b1d5 093d dad8 3a97     .......y..=....:
1000ade4:	eb35 10cf 36ac 5e3f bb73 cf38 673e fa52     5....6?^s.8.>gR.
1000adf4:	af44 15ba                                   D...

1000adf8 <DOUBLE_POW5_TABLE>:
1000adf8:	0001 0000 0000 0000 0005 0000 0000 0000     ................
1000ae08:	0019 0000 0000 0000 007d 0000 0000 0000     ........}.......
1000ae18:	0271 0000 0000 0000 0c35 0000 0000 0000     q.......5.......
1000ae28:	3d09 0000 0000 0000 312d 0001 0000 0000     .=......-1......
1000ae38:	f5e1 0005 0000 0000 cd65 001d 0000 0000     ........e.......
1000ae48:	02f9 0095 0000 0000 0edd 02e9 0000 0000     ................
1000ae58:	4a51 0e8d 0000 0000 7395 48c2 0000 0000     QJ.......s.H....
1000ae68:	41e9 6bcc 0001 0000 498d 1afd 0007 0000     .A.k.....I......
1000ae78:	6fc1 86f2 0023 0000 2ec5 a2bc 00b1 0000     .o..#...........
1000ae88:	e9d9 2dac 0378 0000 913d e460 1158 0000     ...-x...=.`.X...
1000ae98:	d631 75e2 56bc 0000 2ef5 4d6e b1ae 0001     1..u.V....nM....
1000aea8:	eac9 8326 7867 0008 95ed 8fc2 5a05 002a     ..&.gx.......Z*.
1000aeb8:	eda1 cecc c21b 00d3 a425 0a00 ca8b 0422     ........%.....".

1000aec8 <POW5_OFFSETS>:
	...
1000aed8:	0000 4000 5995 5969 5555 5554 5515 5655     ...@.YiYUUTU.UUV
1000aee8:	0504 4115 5410 4055 5145 4455 4540 4450     ...A.TU@EQUD@EPD
1000aef8:	5550 4555 4000 4000 0440 9644 5565 5556     PUUE.@.@@.D.eUVU
1000af08:	4045 5445 4151 4015 9155 5555 5555 5140     E@ETQA.@U.UUUU@Q
1000af18:	0105 0000 0000 0000                         ........

1000af20 <DOUBLE_POW5_INV_SPLIT2>:
1000af20:	0001 0000 0000 0000 0000 0000 0000 2000     ............... 
1000af30:	5034 c065 c95f 52a6 13bb aecb 40c4 18c2     4Pe._..R.....@..
1000af40:	c806 71df d500 7ca8 6ff5 da0f fc58 1327     ...q...|.o..X.'.
1000af50:	476e 3556 247d 6520 c702 68e7 8ce4 1da4     nGV5}$ e...h....
1000af60:	e6e9 6802 cdd7 6139 7779 c2fc 5b40 16ef     ...h..9ayw..@[..
1000af70:	8c79 43de a7ff f951 f391 78b2 bdf5 11be     y..C..Q....x....
1000af80:	57e8 d6e9 bee8 7be8 54b0 8fac 8d84 1b75     .W.....{.T....u.
1000af90:	23ea 99a4 f9e9 8bd3 a3b7 4071 da61 153e     .#........q@a.>.
1000afa0:	e3ce cb3e f973 0848 978c 27b4 1bd5 1070     ..>.s.H....'..p.
1000afb0:	bfa2 b9ef 85eb 1532 b44d b44d bb9b 196f     ......2.M.M...o.
1000afc0:	b696 6c07 e7f8 adee d936 f5b4 3591 13ae     ...l....6....5..
1000afd0:	2222 af18 6a4e 4d68 da91 3daa 404f 1e74     ""..NjhM...=O@t.
1000afe0:	bd9f e09e a106 98c0 c257 fda7 0ea4 1790     ........W.......
1000aff0:	7d0e 7149 e373 8f20 20b2 76d8 1405 123b     .}Iqs. .. .v..;.
1000b000:	3d85 3474 1381 b043 29ad 5f7a f427 1c35     .=t4..C..)z_'.5.

1000b010 <POW5_INV_OFFSETS>:
1000b010:	4554 5454 5545 0405 1000 1004 0414 0040     TETTEU........@.
1000b020:	0000 4001 5555 4115 0454 0000 0044 0001     ...@UU.AT...D...
1000b030:	0000 4000 0041 4400 4450 5045 0054 5555     ...@A..DPDEPT.UU
1000b040:	5554 5165 4000 4000 0001 0100 0500 0001     TUeQ.@.@........
1000b050:	5411 5151 5554 0555 0000 0000 0000 0000     .TQQTUU.........
1000b060:	0000 0000                                   ....

Disassembly of section .text.printf:

1000b064 <printf>:
1000b064:	b083      	sub	sp, #12
1000b066:	b5d8      	push	{r3, r4, r6, r7, lr}
1000b068:	af03      	add	r7, sp, #12
1000b06a:	4604      	mov	r4, r0
1000b06c:	f107 0008 	add.w	r0, r7, #8
1000b070:	c00e      	stmia	r0!, {r1, r2, r3}
1000b072:	f107 0208 	add.w	r2, r7, #8
1000b076:	4621      	mov	r1, r4
1000b078:	4804      	ldr	r0, [pc, #16]	@ (1000b08c <printf+0x28>)
1000b07a:	9200      	str	r2, [sp, #0]
1000b07c:	6800      	ldr	r0, [r0, #0]
1000b07e:	f000 f807 	bl	1000b090 <__d_vfprintf>
1000b082:	e8bd 40d8 	ldmia.w	sp!, {r3, r4, r6, r7, lr}
1000b086:	b003      	add	sp, #12
1000b088:	4770      	bx	lr
1000b08a:	bf00      	nop
1000b08c:	10009380 	.word	0x10009380

Disassembly of section .text.vfprintf:

1000b090 <__d_vfprintf>:
1000b090:	b5f0      	push	{r4, r5, r6, r7, lr}
1000b092:	af03      	add	r7, sp, #12
1000b094:	e92d 0f00 	stmdb	sp!, {r8, r9, sl, fp}
1000b098:	b097      	sub	sp, #92	@ 0x5c
1000b09a:	4682      	mov	sl, r0
1000b09c:	7880      	ldrb	r0, [r0, #2]
1000b09e:	9216      	str	r2, [sp, #88]	@ 0x58
1000b0a0:	0780      	lsls	r0, r0, #30
1000b0a2:	d405      	bmi.n	1000b0b0 <__d_vfprintf+0x20>
1000b0a4:	f04f 30ff 	mov.w	r0, #4294967295	@ 0xffffffff
1000b0a8:	b017      	add	sp, #92	@ 0x5c
1000b0aa:	e8bd 0f00 	ldmia.w	sp!, {r8, r9, sl, fp}
1000b0ae:	bdf0      	pop	{r4, r5, r6, r7, pc}
1000b0b0:	f8da 8004 	ldr.w	r8, [sl, #4]
1000b0b4:	468b      	mov	fp, r1
1000b0b6:	9816      	ldr	r0, [sp, #88]	@ 0x58
1000b0b8:	f04f 0900 	mov.w	r9, #0
1000b0bc:	9015      	str	r0, [sp, #84]	@ 0x54
1000b0be:	a80f      	add	r0, sp, #60	@ 0x3c
1000b0c0:	1d41      	adds	r1, r0, #5
1000b0c2:	3801      	subs	r0, #1
1000b0c4:	9107      	str	r1, [sp, #28]
1000b0c6:	9006      	str	r0, [sp, #24]
1000b0c8:	f8cd b02c 	str.w	fp, [sp, #44]	@ 0x2c
1000b0cc:	e9cd a80d 	strd	sl, r8, [sp, #52]	@ 0x34
1000b0d0:	4659      	mov	r1, fp
1000b0d2:	f811 0b01 	ldrb.w	r0, [r1], #1
1000b0d6:	2825      	cmp	r0, #37	@ 0x25
1000b0d8:	d003      	beq.n	1000b0e2 <__d_vfprintf+0x52>
1000b0da:	468b      	mov	fp, r1
1000b0dc:	b948      	cbnz	r0, 1000b0f2 <__d_vfprintf+0x62>
1000b0de:	f000 bda6 	b.w	1000bc2e <__d_vfprintf+0xb9e>
1000b0e2:	f89b 5001 	ldrb.w	r5, [fp, #1]
1000b0e6:	f10b 0b02 	add.w	fp, fp, #2
1000b0ea:	2d25      	cmp	r5, #37	@ 0x25
1000b0ec:	d108      	bne.n	1000b100 <__d_vfprintf+0x70>
1000b0ee:	f8dd 8038 	ldr.w	r8, [sp, #56]	@ 0x38
1000b0f2:	4651      	mov	r1, sl
1000b0f4:	47c0      	blx	r8
1000b0f6:	f109 0901 	add.w	r9, r9, #1
1000b0fa:	2800      	cmp	r0, #0
1000b0fc:	d5e8      	bpl.n	1000b0d0 <__d_vfprintf+0x40>
1000b0fe:	e7d1      	b.n	1000b0a4 <__d_vfprintf+0x14>
1000b100:	2400      	movs	r4, #0
1000b102:	2600      	movs	r6, #0
1000b104:	f04f 0c00 	mov.w	ip, #0
1000b108:	f04f 0a00 	mov.w	sl, #0
1000b10c:	fa1f f18a 	uxth.w	r1, sl
1000b110:	291f      	cmp	r1, #31
1000b112:	d80d      	bhi.n	1000b130 <__d_vfprintf+0xa0>
1000b114:	f1a5 0027 	sub.w	r0, r5, #39	@ 0x27
1000b118:	2809      	cmp	r0, #9
1000b11a:	d826      	bhi.n	1000b16a <__d_vfprintf+0xda>
1000b11c:	e8df f000 	tbb	[pc, r0]
1000b120:	0a0a0a99 	.word	0x0a0a0a99
1000b124:	0a5f0a05 	.word	0x0a5f0a05
1000b128:	620a      	.short	0x620a
1000b12a:	f04a 0a02 	orr.w	sl, sl, #2
1000b12e:	e04b      	b.n	1000b1c8 <__d_vfprintf+0x138>
1000b130:	297f      	cmp	r1, #127	@ 0x7f
1000b132:	d80d      	bhi.n	1000b150 <__d_vfprintf+0xc0>
1000b134:	f1a5 0230 	sub.w	r2, r5, #48	@ 0x30
1000b138:	0648      	lsls	r0, r1, #25
1000b13a:	2a09      	cmp	r2, #9
1000b13c:	d81c      	bhi.n	1000b178 <__d_vfprintf+0xe8>
1000b13e:	2800      	cmp	r0, #0
1000b140:	d448      	bmi.n	1000b1d4 <__d_vfprintf+0x144>
1000b142:	eb0c 008c 	add.w	r0, ip, ip, lsl #2
1000b146:	f04a 0a20 	orr.w	sl, sl, #32
1000b14a:	eb02 0c40 	add.w	ip, r2, r0, lsl #1
1000b14e:	e080      	b.n	1000b252 <__d_vfprintf+0x1c2>
1000b150:	2d4c      	cmp	r5, #76	@ 0x4c
1000b152:	d03c      	beq.n	1000b1ce <__d_vfprintf+0x13e>
1000b154:	2d68      	cmp	r5, #104	@ 0x68
1000b156:	d048      	beq.n	1000b1ea <__d_vfprintf+0x15a>
1000b158:	2d6a      	cmp	r5, #106	@ 0x6a
1000b15a:	d038      	beq.n	1000b1ce <__d_vfprintf+0x13e>
1000b15c:	2d7a      	cmp	r5, #122	@ 0x7a
1000b15e:	bf18      	it	ne
1000b160:	2d74      	cmpne	r5, #116	@ 0x74
1000b162:	d076      	beq.n	1000b252 <__d_vfprintf+0x1c2>
1000b164:	2d6c      	cmp	r5, #108	@ 0x6c
1000b166:	d047      	beq.n	1000b1f8 <__d_vfprintf+0x168>
1000b168:	e079      	b.n	1000b25e <__d_vfprintf+0x1ce>
1000b16a:	2d20      	cmp	r5, #32
1000b16c:	d02c      	beq.n	1000b1c8 <__d_vfprintf+0x138>
1000b16e:	2d23      	cmp	r5, #35	@ 0x23
1000b170:	d1e0      	bne.n	1000b134 <__d_vfprintf+0xa4>
1000b172:	f04a 0a10 	orr.w	sl, sl, #16
1000b176:	e06c      	b.n	1000b252 <__d_vfprintf+0x1c2>
1000b178:	2d24      	cmp	r5, #36	@ 0x24
1000b17a:	d044      	beq.n	1000b206 <__d_vfprintf+0x176>
1000b17c:	2d7a      	cmp	r5, #122	@ 0x7a
1000b17e:	d068      	beq.n	1000b252 <__d_vfprintf+0x1c2>
1000b180:	2d2e      	cmp	r5, #46	@ 0x2e
1000b182:	d057      	beq.n	1000b234 <__d_vfprintf+0x1a4>
1000b184:	2d4c      	cmp	r5, #76	@ 0x4c
1000b186:	d022      	beq.n	1000b1ce <__d_vfprintf+0x13e>
1000b188:	2d68      	cmp	r5, #104	@ 0x68
1000b18a:	d02e      	beq.n	1000b1ea <__d_vfprintf+0x15a>
1000b18c:	2d6a      	cmp	r5, #106	@ 0x6a
1000b18e:	d01e      	beq.n	1000b1ce <__d_vfprintf+0x13e>
1000b190:	2d6c      	cmp	r5, #108	@ 0x6c
1000b192:	d031      	beq.n	1000b1f8 <__d_vfprintf+0x168>
1000b194:	2d74      	cmp	r5, #116	@ 0x74
1000b196:	d05c      	beq.n	1000b252 <__d_vfprintf+0x1c2>
1000b198:	2d2a      	cmp	r5, #42	@ 0x2a
1000b19a:	d160      	bne.n	1000b25e <__d_vfprintf+0x1ce>
1000b19c:	2c00      	cmp	r4, #0
1000b19e:	d158      	bne.n	1000b252 <__d_vfprintf+0x1c2>
1000b1a0:	9915      	ldr	r1, [sp, #84]	@ 0x54
1000b1a2:	1d0a      	adds	r2, r1, #4
1000b1a4:	9215      	str	r2, [sp, #84]	@ 0x54
1000b1a6:	6809      	ldr	r1, [r1, #0]
1000b1a8:	2800      	cmp	r0, #0
1000b1aa:	d450      	bmi.n	1000b24e <__d_vfprintf+0x1be>
1000b1ac:	f1b1 3fff 	cmp.w	r1, #4294967295	@ 0xffffffff
1000b1b0:	bfdd      	ittte	le
1000b1b2:	f04a 0a28 	orrle.w	sl, sl, #40	@ 0x28
1000b1b6:	f1c1 0c00 	rsble	ip, r1, #0
1000b1ba:	2400      	movle	r4, #0
1000b1bc:	f04a 0a20 	orrgt.w	sl, sl, #32
1000b1c0:	bfc4      	itt	gt
1000b1c2:	2400      	movgt	r4, #0
1000b1c4:	468c      	movgt	ip, r1
1000b1c6:	e044      	b.n	1000b252 <__d_vfprintf+0x1c2>
1000b1c8:	f04a 0a04 	orr.w	sl, sl, #4
1000b1cc:	e041      	b.n	1000b252 <__d_vfprintf+0x1c2>
1000b1ce:	f44a 7a20 	orr.w	sl, sl, #640	@ 0x280
1000b1d2:	e03e      	b.n	1000b252 <__d_vfprintf+0x1c2>
1000b1d4:	eb06 0086 	add.w	r0, r6, r6, lsl #2
1000b1d8:	eb02 0640 	add.w	r6, r2, r0, lsl #1
1000b1dc:	e039      	b.n	1000b252 <__d_vfprintf+0x1c2>
1000b1de:	f04a 0a08 	orr.w	sl, sl, #8
1000b1e2:	e036      	b.n	1000b252 <__d_vfprintf+0x1c2>
1000b1e4:	f04a 0a01 	orr.w	sl, sl, #1
1000b1e8:	e033      	b.n	1000b252 <__d_vfprintf+0x1c2>
1000b1ea:	f40a 7080 	and.w	r0, sl, #256	@ 0x100
1000b1ee:	ea4a 0040 	orr.w	r0, sl, r0, lsl #1
1000b1f2:	f440 7a80 	orr.w	sl, r0, #256	@ 0x100
1000b1f6:	e02c      	b.n	1000b252 <__d_vfprintf+0x1c2>
1000b1f8:	f00a 0080 	and.w	r0, sl, #128	@ 0x80
1000b1fc:	ea4a 0080 	orr.w	r0, sl, r0, lsl #2
1000b200:	f040 0a80 	orr.w	sl, r0, #128	@ 0x80
1000b204:	e025      	b.n	1000b252 <__d_vfprintf+0x1c2>
1000b206:	b1dc      	cbz	r4, 1000b240 <__d_vfprintf+0x1b0>
1000b208:	9816      	ldr	r0, [sp, #88]	@ 0x58
1000b20a:	4632      	mov	r2, r6
1000b20c:	9015      	str	r0, [sp, #84]	@ 0x54
1000b20e:	f011 0540 	ands.w	r5, r1, #64	@ 0x40
1000b212:	bf08      	it	eq
1000b214:	4662      	moveq	r2, ip
1000b216:	980b      	ldr	r0, [sp, #44]	@ 0x2c
1000b218:	a915      	add	r1, sp, #84	@ 0x54
1000b21a:	46e0      	mov	r8, ip
1000b21c:	f000 fd10 	bl	1000bc40 <skip_to_arg>
1000b220:	9815      	ldr	r0, [sp, #84]	@ 0x54
1000b222:	46c4      	mov	ip, r8
1000b224:	1d01      	adds	r1, r0, #4
1000b226:	9115      	str	r1, [sp, #84]	@ 0x54
1000b228:	6800      	ldr	r0, [r0, #0]
1000b22a:	2d00      	cmp	r5, #0
1000b22c:	bf0c      	ite	eq
1000b22e:	4684      	moveq	ip, r0
1000b230:	4606      	movne	r6, r0
1000b232:	e00e      	b.n	1000b252 <__d_vfprintf+0x1c2>
1000b234:	2800      	cmp	r0, #0
1000b236:	f100 84fa 	bmi.w	1000bc2e <__d_vfprintf+0xb9e>
1000b23a:	f04a 0a40 	orr.w	sl, sl, #64	@ 0x40
1000b23e:	e008      	b.n	1000b252 <__d_vfprintf+0x1c2>
1000b240:	4664      	mov	r4, ip
1000b242:	2600      	movs	r6, #0
1000b244:	f04f 0c00 	mov.w	ip, #0
1000b248:	f04f 0a00 	mov.w	sl, #0
1000b24c:	e001      	b.n	1000b252 <__d_vfprintf+0x1c2>
1000b24e:	2400      	movs	r4, #0
1000b250:	460e      	mov	r6, r1
1000b252:	f81b 5b01 	ldrb.w	r5, [fp], #1
1000b256:	2d00      	cmp	r5, #0
1000b258:	f47f af58 	bne.w	1000b10c <__d_vfprintf+0x7c>
1000b25c:	2500      	movs	r5, #0
1000b25e:	980b      	ldr	r0, [sp, #44]	@ 0x2c
1000b260:	f8cd c030 	str.w	ip, [sp, #48]	@ 0x30
1000b264:	b13c      	cbz	r4, 1000b276 <__d_vfprintf+0x1e6>
1000b266:	9916      	ldr	r1, [sp, #88]	@ 0x58
1000b268:	4622      	mov	r2, r4
1000b26a:	9115      	str	r1, [sp, #84]	@ 0x54
1000b26c:	a915      	add	r1, sp, #84	@ 0x54
1000b26e:	f000 fce7 	bl	1000bc40 <skip_to_arg>
1000b272:	f8dd c030 	ldr.w	ip, [sp, #48]	@ 0x30
1000b276:	f045 0020 	orr.w	r0, r5, #32
1000b27a:	2e00      	cmp	r6, #0
1000b27c:	ea26 78e6 	bic.w	r8, r6, r6, asr #31
1000b280:	f1a0 0165 	sub.w	r1, r0, #101	@ 0x65
1000b284:	bf48      	it	mi
1000b286:	f02a 0a40 	bicmi.w	sl, sl, #64	@ 0x40
1000b28a:	2903      	cmp	r1, #3
1000b28c:	d301      	bcc.n	1000b292 <__d_vfprintf+0x202>
1000b28e:	2861      	cmp	r0, #97	@ 0x61
1000b290:	d136      	bne.n	1000b300 <__d_vfprintf+0x270>
1000b292:	9915      	ldr	r1, [sp, #84]	@ 0x54
1000b294:	3107      	adds	r1, #7
1000b296:	f021 0107 	bic.w	r1, r1, #7
1000b29a:	f101 0208 	add.w	r2, r1, #8
1000b29e:	9215      	str	r2, [sp, #84]	@ 0x54
1000b2a0:	1b42      	subs	r2, r0, r5
1000b2a2:	ed91 0b00 	vldr	d0, [r1]
1000b2a6:	2861      	cmp	r0, #97	@ 0x61
1000b2a8:	9209      	str	r2, [sp, #36]	@ 0x24
1000b2aa:	d114      	bne.n	1000b2d6 <__d_vfprintf+0x246>
1000b2ac:	ec50 6b10 	vmov	r6, r0, d0
1000b2b0:	2330      	movs	r3, #48	@ 0x30
1000b2b2:	f88d 3041 	strb.w	r3, [sp, #65]	@ 0x41
1000b2b6:	4605      	mov	r5, r0
1000b2b8:	f3c0 520a 	ubfx	r2, r0, #20, #11
1000b2bc:	ea42 0106 	orr.w	r1, r2, r6
1000b2c0:	f36f 551f 	bfc	r5, #20, #12
1000b2c4:	4329      	orrs	r1, r5
1000b2c6:	d032      	beq.n	1000b32e <__d_vfprintf+0x29e>
1000b2c8:	2a00      	cmp	r2, #0
1000b2ca:	d068      	beq.n	1000b39e <__d_vfprintf+0x30e>
1000b2cc:	2331      	movs	r3, #49	@ 0x31
1000b2ce:	4611      	mov	r1, r2
1000b2d0:	f88d 3041 	strb.w	r3, [sp, #65]	@ 0x41
1000b2d4:	e064      	b.n	1000b3a0 <__d_vfprintf+0x310>
1000b2d6:	ea5f 614a 	movs.w	r1, sl, lsl #25
1000b2da:	bf58      	it	pl
1000b2dc:	f04f 0806 	movpl.w	r8, #6
1000b2e0:	b2c1      	uxtb	r1, r0
1000b2e2:	f8cd 8028 	str.w	r8, [sp, #40]	@ 0x28
1000b2e6:	2966      	cmp	r1, #102	@ 0x66
1000b2e8:	d023      	beq.n	1000b332 <__d_vfprintf+0x2a2>
1000b2ea:	f8dd 8038 	ldr.w	r8, [sp, #56]	@ 0x38
1000b2ee:	2965      	cmp	r1, #101	@ 0x65
1000b2f0:	d128      	bne.n	1000b344 <__d_vfprintf+0x2b4>
1000b2f2:	980a      	ldr	r0, [sp, #40]	@ 0x28
1000b2f4:	f44a 5a80 	orr.w	sl, sl, #4096	@ 0x1000
1000b2f8:	2300      	movs	r3, #0
1000b2fa:	1c41      	adds	r1, r0, #1
1000b2fc:	2065      	movs	r0, #101	@ 0x65
1000b2fe:	e028      	b.n	1000b352 <__d_vfprintf+0x2c2>
1000b300:	b2ec      	uxtb	r4, r5
1000b302:	f1a4 016f 	sub.w	r1, r4, #111	@ 0x6f
1000b306:	2906      	cmp	r1, #6
1000b308:	d832      	bhi.n	1000b370 <__d_vfprintf+0x2e0>
1000b30a:	2308      	movs	r3, #8
1000b30c:	f04f 0e00 	mov.w	lr, #0
1000b310:	e8df f011 	tbh	[pc, r1, lsl #1]
1000b314:	000702b9 	.word	0x000702b9
1000b318:	02b002b0 	.word	0x02b002b0
1000b31c:	02b00266 	.word	0x02b00266
1000b320:	0296      	.short	0x0296
1000b322:	f04a 0a10 	orr.w	sl, sl, #16
1000b326:	2310      	movs	r3, #16
1000b328:	f04f 0e78 	mov.w	lr, #120	@ 0x78
1000b32c:	e2ab      	b.n	1000b886 <__d_vfprintf+0x7f6>
1000b32e:	9208      	str	r2, [sp, #32]
1000b330:	e039      	b.n	1000b3a6 <__d_vfprintf+0x316>
1000b332:	4643      	mov	r3, r8
1000b334:	f44a 5a00 	orr.w	sl, sl, #8192	@ 0x2000
1000b338:	2201      	movs	r2, #1
1000b33a:	2066      	movs	r0, #102	@ 0x66
1000b33c:	2111      	movs	r1, #17
1000b33e:	f8dd 8038 	ldr.w	r8, [sp, #56]	@ 0x38
1000b342:	e007      	b.n	1000b354 <__d_vfprintf+0x2c4>
1000b344:	9a0a      	ldr	r2, [sp, #40]	@ 0x28
1000b346:	0611      	lsls	r1, r2, #24
1000b348:	4611      	mov	r1, r2
1000b34a:	bf08      	it	eq
1000b34c:	2101      	moveq	r1, #1
1000b34e:	3802      	subs	r0, #2
1000b350:	2300      	movs	r3, #0
1000b352:	2200      	movs	r2, #0
1000b354:	b2c9      	uxtb	r1, r1
1000b356:	9004      	str	r0, [sp, #16]
1000b358:	2911      	cmp	r1, #17
1000b35a:	bf28      	it	cs
1000b35c:	2111      	movcs	r1, #17
1000b35e:	a80f      	add	r0, sp, #60	@ 0x3c
1000b360:	f000 fd6d 	bl	1000be3e <__dtoa_engine>
1000b364:	9b0f      	ldr	r3, [sp, #60]	@ 0x3c
1000b366:	4605      	mov	r5, r0
1000b368:	f8dd c030 	ldr.w	ip, [sp, #48]	@ 0x30
1000b36c:	2602      	movs	r6, #2
1000b36e:	e0a9      	b.n	1000b4c4 <__d_vfprintf+0x434>
1000b370:	2c69      	cmp	r4, #105	@ 0x69
1000b372:	bf18      	it	ne
1000b374:	2c64      	cmpne	r4, #100	@ 0x64
1000b376:	f040 821f 	bne.w	1000b7b8 <__d_vfprintf+0x728>
1000b37a:	fa1f f08a 	uxth.w	r0, sl
1000b37e:	ea5f 610a 	movs.w	r1, sl, lsl #24
1000b382:	f100 8224 	bmi.w	1000b7ce <__d_vfprintf+0x73e>
1000b386:	9915      	ldr	r1, [sp, #84]	@ 0x54
1000b388:	1d0a      	adds	r2, r1, #4
1000b38a:	9215      	str	r2, [sp, #84]	@ 0x54
1000b38c:	680a      	ldr	r2, [r1, #0]
1000b38e:	05c1      	lsls	r1, r0, #23
1000b390:	f140 8224 	bpl.w	1000b7dc <__d_vfprintf+0x74c>
1000b394:	0580      	lsls	r0, r0, #22
1000b396:	bf54      	ite	pl
1000b398:	b212      	sxthpl	r2, r2
1000b39a:	b252      	sxtbmi	r2, r2
1000b39c:	e21e      	b.n	1000b7dc <__d_vfprintf+0x74c>
1000b39e:	2101      	movs	r1, #1
1000b3a0:	f2a1 31ff 	subw	r1, r1, #1023	@ 0x3ff
1000b3a4:	9108      	str	r1, [sp, #32]
1000b3a6:	0fc1      	lsrs	r1, r0, #31
1000b3a8:	ea5f 604a 	movs.w	r0, sl, lsl #25
1000b3ac:	f88d 1040 	strb.w	r1, [sp, #64]	@ 0x40
1000b3b0:	d402      	bmi.n	1000b3b8 <__d_vfprintf+0x328>
1000b3b2:	f04f 0800 	mov.w	r8, #0
1000b3b6:	e047      	b.n	1000b448 <__d_vfprintf+0x3b8>
1000b3b8:	f1b8 0f0c 	cmp.w	r8, #12
1000b3bc:	d902      	bls.n	1000b3c4 <__d_vfprintf+0x334>
1000b3be:	f04f 080d 	mov.w	r8, #13
1000b3c2:	e041      	b.n	1000b448 <__d_vfprintf+0x3b8>
1000b3c4:	2033      	movs	r0, #51	@ 0x33
1000b3c6:	eba0 0288 	sub.w	r2, r0, r8, lsl #2
1000b3ca:	910a      	str	r1, [sp, #40]	@ 0x28
1000b3cc:	2002      	movs	r0, #2
1000b3ce:	2100      	movs	r1, #0
1000b3d0:	9301      	str	r3, [sp, #4]
1000b3d2:	9203      	str	r2, [sp, #12]
1000b3d4:	f001 f9f5 	bl	1000c7c2 <__aeabi_llsl>
1000b3d8:	4242      	negs	r2, r0
1000b3da:	9205      	str	r2, [sp, #20]
1000b3dc:	f04f 0200 	mov.w	r2, #0
1000b3e0:	418a      	sbcs	r2, r1
1000b3e2:	9204      	str	r2, [sp, #16]
1000b3e4:	1e44      	subs	r4, r0, #1
1000b3e6:	f161 0000 	sbc.w	r0, r1, #0
1000b3ea:	9a03      	ldr	r2, [sp, #12]
1000b3ec:	4028      	ands	r0, r5
1000b3ee:	9002      	str	r0, [sp, #8]
1000b3f0:	2001      	movs	r0, #1
1000b3f2:	2100      	movs	r1, #0
1000b3f4:	f001 f9e5 	bl	1000c7c2 <__aeabi_llsl>
1000b3f8:	4602      	mov	r2, r0
1000b3fa:	ea06 0004 	and.w	r0, r6, r4
1000b3fe:	1a10      	subs	r0, r2, r0
1000b400:	f8dd c030 	ldr.w	ip, [sp, #48]	@ 0x30
1000b404:	9802      	ldr	r0, [sp, #8]
1000b406:	eb71 0000 	sbcs.w	r0, r1, r0
1000b40a:	d30f      	bcc.n	1000b42c <__d_vfprintf+0x39c>
1000b40c:	ea4f 0088 	mov.w	r0, r8, lsl #2
1000b410:	9203      	str	r2, [sp, #12]
1000b412:	f1c0 0234 	rsb	r2, r0, #52	@ 0x34
1000b416:	460c      	mov	r4, r1
1000b418:	4630      	mov	r0, r6
1000b41a:	4629      	mov	r1, r5
1000b41c:	f001 f9e4 	bl	1000c7e8 <__aeabi_llsr>
1000b420:	9a03      	ldr	r2, [sp, #12]
1000b422:	4621      	mov	r1, r4
1000b424:	f8dd c030 	ldr.w	ip, [sp, #48]	@ 0x30
1000b428:	07c0      	lsls	r0, r0, #31
1000b42a:	d008      	beq.n	1000b43e <__d_vfprintf+0x3ae>
1000b42c:	18b6      	adds	r6, r6, r2
1000b42e:	414d      	adcs	r5, r1
1000b430:	f5b5 1f80 	cmp.w	r5, #1048576	@ 0x100000
1000b434:	bf22      	ittt	cs
1000b436:	9801      	ldrcs	r0, [sp, #4]
1000b438:	3001      	addcs	r0, #1
1000b43a:	f88d 0041 	strbcs.w	r0, [sp, #65]	@ 0x41
1000b43e:	9805      	ldr	r0, [sp, #20]
1000b440:	990a      	ldr	r1, [sp, #40]	@ 0x28
1000b442:	4006      	ands	r6, r0
1000b444:	9804      	ldr	r0, [sp, #16]
1000b446:	4005      	ands	r5, r0
1000b448:	9808      	ldr	r0, [sp, #32]
1000b44a:	f44a 5ac0 	orr.w	sl, sl, #6144	@ 0x1800
1000b44e:	f5b0 6f80 	cmp.w	r0, #1024	@ 0x400
1000b452:	d112      	bne.n	1000b47a <__d_vfprintf+0x3ea>
1000b454:	ea56 0005 	orrs.w	r0, r6, r5
1000b458:	f8cd 8028 	str.w	r8, [sp, #40]	@ 0x28
1000b45c:	f04f 0008 	mov.w	r0, #8
1000b460:	f44f 6380 	mov.w	r3, #1024	@ 0x400
1000b464:	bf08      	it	eq
1000b466:	2004      	moveq	r0, #4
1000b468:	f8dd 8038 	ldr.w	r8, [sp, #56]	@ 0x38
1000b46c:	4408      	add	r0, r1
1000b46e:	f88d 0040 	strb.w	r0, [sp, #64]	@ 0x40
1000b472:	250e      	movs	r5, #14
1000b474:	2070      	movs	r0, #112	@ 0x70
1000b476:	9004      	str	r0, [sp, #16]
1000b478:	e02d      	b.n	1000b4d6 <__d_vfprintf+0x446>
1000b47a:	9809      	ldr	r0, [sp, #36]	@ 0x24
1000b47c:	2112      	movs	r1, #18
1000b47e:	f1c0 0057 	rsb	r0, r0, #87	@ 0x57
1000b482:	1f4a      	subs	r2, r1, #5
1000b484:	d015      	beq.n	1000b4b2 <__d_vfprintf+0x422>
1000b486:	f016 030f 	ands.w	r3, r6, #15
1000b48a:	d101      	bne.n	1000b490 <__d_vfprintf+0x400>
1000b48c:	4590      	cmp	r8, r2
1000b48e:	db0a      	blt.n	1000b4a6 <__d_vfprintf+0x416>
1000b490:	18c4      	adds	r4, r0, r3
1000b492:	2b0a      	cmp	r3, #10
1000b494:	bf38      	it	cc
1000b496:	f103 0430 	addcc.w	r4, r3, #48	@ 0x30
1000b49a:	ab0f      	add	r3, sp, #60	@ 0x3c
1000b49c:	545c      	strb	r4, [r3, r1]
1000b49e:	4590      	cmp	r8, r2
1000b4a0:	bfc8      	it	gt
1000b4a2:	4642      	movgt	r2, r8
1000b4a4:	4690      	mov	r8, r2
1000b4a6:	0932      	lsrs	r2, r6, #4
1000b4a8:	ea42 7605 	orr.w	r6, r2, r5, lsl #28
1000b4ac:	092d      	lsrs	r5, r5, #4
1000b4ae:	3901      	subs	r1, #1
1000b4b0:	e7e7      	b.n	1000b482 <__d_vfprintf+0x3f2>
1000b4b2:	2070      	movs	r0, #112	@ 0x70
1000b4b4:	f8cd 8028 	str.w	r8, [sp, #40]	@ 0x28
1000b4b8:	9004      	str	r0, [sp, #16]
1000b4ba:	2601      	movs	r6, #1
1000b4bc:	250e      	movs	r5, #14
1000b4be:	f8dd 8038 	ldr.w	r8, [sp, #56]	@ 0x38
1000b4c2:	9b08      	ldr	r3, [sp, #32]
1000b4c4:	f113 0f09 	cmn.w	r3, #9
1000b4c8:	da07      	bge.n	1000b4da <__d_vfprintf+0x44a>
1000b4ca:	f113 0f63 	cmn.w	r3, #99	@ 0x63
1000b4ce:	d20d      	bcs.n	1000b4ec <__d_vfprintf+0x45c>
1000b4d0:	f513 7f7a 	cmn.w	r3, #1000	@ 0x3e8
1000b4d4:	d808      	bhi.n	1000b4e8 <__d_vfprintf+0x458>
1000b4d6:	2604      	movs	r6, #4
1000b4d8:	e009      	b.n	1000b4ee <__d_vfprintf+0x45e>
1000b4da:	2b09      	cmp	r3, #9
1000b4dc:	dd07      	ble.n	1000b4ee <__d_vfprintf+0x45e>
1000b4de:	2b63      	cmp	r3, #99	@ 0x63
1000b4e0:	d904      	bls.n	1000b4ec <__d_vfprintf+0x45c>
1000b4e2:	f5b3 7f7a 	cmp.w	r3, #1000	@ 0x3e8
1000b4e6:	d2f6      	bcs.n	1000b4d6 <__d_vfprintf+0x446>
1000b4e8:	2603      	movs	r6, #3
1000b4ea:	e000      	b.n	1000b4ee <__d_vfprintf+0x45e>
1000b4ec:	2602      	movs	r6, #2
1000b4ee:	f89d 1040 	ldrb.w	r1, [sp, #64]	@ 0x40
1000b4f2:	fa1f fe8a 	uxth.w	lr, sl
1000b4f6:	07c8      	lsls	r0, r1, #31
1000b4f8:	d108      	bne.n	1000b50c <__d_vfprintf+0x47c>
1000b4fa:	ea5f 728a 	movs.w	r2, sl, lsl #30
1000b4fe:	d407      	bmi.n	1000b510 <__d_vfprintf+0x480>
1000b500:	ea5f 724e 	movs.w	r2, lr, lsl #29
1000b504:	d406      	bmi.n	1000b514 <__d_vfprintf+0x484>
1000b506:	2000      	movs	r0, #0
1000b508:	2401      	movs	r4, #1
1000b50a:	e005      	b.n	1000b518 <__d_vfprintf+0x488>
1000b50c:	202d      	movs	r0, #45	@ 0x2d
1000b50e:	e002      	b.n	1000b516 <__d_vfprintf+0x486>
1000b510:	202b      	movs	r0, #43	@ 0x2b
1000b512:	e000      	b.n	1000b516 <__d_vfprintf+0x486>
1000b514:	2020      	movs	r0, #32
1000b516:	2400      	movs	r4, #0
1000b518:	f011 0f0c 	tst.w	r1, #12
1000b51c:	d01e      	beq.n	1000b55c <__d_vfprintf+0x4cc>
1000b51e:	2c00      	cmp	r4, #0
1000b520:	f04f 0204 	mov.w	r2, #4
1000b524:	bf18      	it	ne
1000b526:	2203      	movne	r2, #3
1000b528:	4594      	cmp	ip, r2
1000b52a:	dd29      	ble.n	1000b580 <__d_vfprintf+0x4f0>
1000b52c:	9d09      	ldr	r5, [sp, #36]	@ 0x24
1000b52e:	ea5f 710a 	movs.w	r1, sl, lsl #28
1000b532:	d42a      	bmi.n	1000b58a <__d_vfprintf+0x4fa>
1000b534:	f8dd a034 	ldr.w	sl, [sp, #52]	@ 0x34
1000b538:	940c      	str	r4, [sp, #48]	@ 0x30
1000b53a:	eba2 040c 	sub.w	r4, r2, ip
1000b53e:	9003      	str	r0, [sp, #12]
1000b540:	2020      	movs	r0, #32
1000b542:	4651      	mov	r1, sl
1000b544:	47c0      	blx	r8
1000b546:	2800      	cmp	r0, #0
1000b548:	f53f adac 	bmi.w	1000b0a4 <__d_vfprintf+0x14>
1000b54c:	3401      	adds	r4, #1
1000b54e:	f109 0901 	add.w	r9, r9, #1
1000b552:	d3f5      	bcc.n	1000b540 <__d_vfprintf+0x4b0>
1000b554:	9803      	ldr	r0, [sp, #12]
1000b556:	2600      	movs	r6, #0
1000b558:	9c0c      	ldr	r4, [sp, #48]	@ 0x30
1000b55a:	e01a      	b.n	1000b592 <__d_vfprintf+0x502>
1000b55c:	f41a 5f40 	tst.w	sl, #12288	@ 0x3000
1000b560:	9003      	str	r0, [sp, #12]
1000b562:	d149      	bne.n	1000b5f8 <__d_vfprintf+0x568>
1000b564:	46a0      	mov	r8, r4
1000b566:	9c0a      	ldr	r4, [sp, #40]	@ 0x28
1000b568:	2c00      	cmp	r4, #0
1000b56a:	bf08      	it	eq
1000b56c:	2401      	moveq	r4, #1
1000b56e:	b2e9      	uxtb	r1, r5
1000b570:	b371      	cbz	r1, 1000b5d0 <__d_vfprintf+0x540>
1000b572:	aa0f      	add	r2, sp, #60	@ 0x3c
1000b574:	440a      	add	r2, r1
1000b576:	7912      	ldrb	r2, [r2, #4]
1000b578:	2a30      	cmp	r2, #48	@ 0x30
1000b57a:	d129      	bne.n	1000b5d0 <__d_vfprintf+0x540>
1000b57c:	3d01      	subs	r5, #1
1000b57e:	e7f6      	b.n	1000b56e <__d_vfprintf+0x4de>
1000b580:	2600      	movs	r6, #0
1000b582:	f8dd a034 	ldr.w	sl, [sp, #52]	@ 0x34
1000b586:	9d09      	ldr	r5, [sp, #36]	@ 0x24
1000b588:	e003      	b.n	1000b592 <__d_vfprintf+0x502>
1000b58a:	ebac 0602 	sub.w	r6, ip, r2
1000b58e:	f8dd a034 	ldr.w	sl, [sp, #52]	@ 0x34
1000b592:	b934      	cbnz	r4, 1000b5a2 <__d_vfprintf+0x512>
1000b594:	4651      	mov	r1, sl
1000b596:	47c0      	blx	r8
1000b598:	2800      	cmp	r0, #0
1000b59a:	f53f ad83 	bmi.w	1000b0a4 <__d_vfprintf+0x14>
1000b59e:	f109 0901 	add.w	r9, r9, #1
1000b5a2:	f89d 0040 	ldrb.w	r0, [sp, #64]	@ 0x40
1000b5a6:	f8df 4694 	ldr.w	r4, [pc, #1684]	@ 1000bc3c <__d_vfprintf+0xbac>
1000b5aa:	0700      	lsls	r0, r0, #28
1000b5ac:	f8df 0688 	ldr.w	r0, [pc, #1672]	@ 1000bc38 <__d_vfprintf+0xba8>
1000b5b0:	bf58      	it	pl
1000b5b2:	4604      	movpl	r4, r0
1000b5b4:	7820      	ldrb	r0, [r4, #0]
1000b5b6:	2800      	cmp	r0, #0
1000b5b8:	f000 8327 	beq.w	1000bc0a <__d_vfprintf+0xb7a>
1000b5bc:	1b40      	subs	r0, r0, r5
1000b5be:	4651      	mov	r1, sl
1000b5c0:	b2c0      	uxtb	r0, r0
1000b5c2:	47c0      	blx	r8
1000b5c4:	3401      	adds	r4, #1
1000b5c6:	f109 0901 	add.w	r9, r9, #1
1000b5ca:	2800      	cmp	r0, #0
1000b5cc:	d5f2      	bpl.n	1000b5b4 <__d_vfprintf+0x524>
1000b5ce:	e569      	b.n	1000b0a4 <__d_vfprintf+0x14>
1000b5d0:	ea5f 60ce 	movs.w	r0, lr, lsl #27
1000b5d4:	bf48      	it	mi
1000b5d6:	4621      	movmi	r1, r4
1000b5d8:	f113 0f04 	cmn.w	r3, #4
1000b5dc:	db09      	blt.n	1000b5f2 <__d_vfprintf+0x562>
1000b5de:	42a3      	cmp	r3, r4
1000b5e0:	da07      	bge.n	1000b5f2 <__d_vfprintf+0x562>
1000b5e2:	428b      	cmp	r3, r1
1000b5e4:	f44a 5a00 	orr.w	sl, sl, #8192	@ 0x2000
1000b5e8:	bfae      	itee	ge
1000b5ea:	2000      	movge	r0, #0
1000b5ec:	43d8      	mvnlt	r0, r3
1000b5ee:	4408      	addlt	r0, r1
1000b5f0:	e000      	b.n	1000b5f4 <__d_vfprintf+0x564>
1000b5f2:	1e48      	subs	r0, r1, #1
1000b5f4:	4644      	mov	r4, r8
1000b5f6:	900a      	str	r0, [sp, #40]	@ 0x28
1000b5f8:	fa1f f18a 	uxth.w	r1, sl
1000b5fc:	ea5f 428a 	movs.w	r2, sl, lsl #18
1000b600:	ea4f 5e01 	mov.w	lr, r1, lsl #20
1000b604:	46a0      	mov	r8, r4
1000b606:	9105      	str	r1, [sp, #20]
1000b608:	9308      	str	r3, [sp, #32]
1000b60a:	9602      	str	r6, [sp, #8]
1000b60c:	d406      	bmi.n	1000b61c <__d_vfprintf+0x58c>
1000b60e:	2005      	movs	r0, #5
1000b610:	f1be 0f00 	cmp.w	lr, #0
1000b614:	bf58      	it	pl
1000b616:	2003      	movpl	r0, #3
1000b618:	4430      	add	r0, r6
1000b61a:	e003      	b.n	1000b624 <__d_vfprintf+0x594>
1000b61c:	1c58      	adds	r0, r3, #1
1000b61e:	2b01      	cmp	r3, #1
1000b620:	bfb8      	it	lt
1000b622:	2001      	movlt	r0, #1
1000b624:	9a0a      	ldr	r2, [sp, #40]	@ 0x28
1000b626:	f8dd a034 	ldr.w	sl, [sp, #52]	@ 0x34
1000b62a:	1c51      	adds	r1, r2, #1
1000b62c:	9c05      	ldr	r4, [sp, #20]
1000b62e:	2a00      	cmp	r2, #0
1000b630:	f088 0201 	eor.w	r2, r8, #1
1000b634:	bf08      	it	eq
1000b636:	f3c4 1100 	ubfxeq	r1, r4, #4, #1
1000b63a:	188b      	adds	r3, r1, r2
1000b63c:	4403      	add	r3, r0
1000b63e:	ebbc 0603 	subs.w	r6, ip, r3
1000b642:	f04f 0300 	mov.w	r3, #0
1000b646:	bfd8      	it	le
1000b648:	461e      	movle	r6, r3
1000b64a:	f014 0f09 	tst.w	r4, #9
1000b64e:	950c      	str	r5, [sp, #48]	@ 0x30
1000b650:	d115      	bne.n	1000b67e <__d_vfprintf+0x5ee>
1000b652:	b1a6      	cbz	r6, 1000b67e <__d_vfprintf+0x5ee>
1000b654:	4408      	add	r0, r1
1000b656:	f8cd e004 	str.w	lr, [sp, #4]
1000b65a:	4410      	add	r0, r2
1000b65c:	eba0 040c 	sub.w	r4, r0, ip
1000b660:	9a0e      	ldr	r2, [sp, #56]	@ 0x38
1000b662:	2020      	movs	r0, #32
1000b664:	4651      	mov	r1, sl
1000b666:	4790      	blx	r2
1000b668:	2800      	cmp	r0, #0
1000b66a:	f53f ad1b 	bmi.w	1000b0a4 <__d_vfprintf+0x14>
1000b66e:	3401      	adds	r4, #1
1000b670:	f109 0901 	add.w	r9, r9, #1
1000b674:	d3f4      	bcc.n	1000b660 <__d_vfprintf+0x5d0>
1000b676:	9d0c      	ldr	r5, [sp, #48]	@ 0x30
1000b678:	2600      	movs	r6, #0
1000b67a:	f8dd e004 	ldr.w	lr, [sp, #4]
1000b67e:	9803      	ldr	r0, [sp, #12]
1000b680:	f1b8 0f00 	cmp.w	r8, #0
1000b684:	d10a      	bne.n	1000b69c <__d_vfprintf+0x60c>
1000b686:	9a0e      	ldr	r2, [sp, #56]	@ 0x38
1000b688:	4651      	mov	r1, sl
1000b68a:	4674      	mov	r4, lr
1000b68c:	4790      	blx	r2
1000b68e:	2800      	cmp	r0, #0
1000b690:	f53f ad08 	bmi.w	1000b0a4 <__d_vfprintf+0x14>
1000b694:	9d0c      	ldr	r5, [sp, #48]	@ 0x30
1000b696:	f109 0901 	add.w	r9, r9, #1
1000b69a:	46a6      	mov	lr, r4
1000b69c:	f1be 0f00 	cmp.w	lr, #0
1000b6a0:	d401      	bmi.n	1000b6a6 <__d_vfprintf+0x616>
1000b6a2:	9c0e      	ldr	r4, [sp, #56]	@ 0x38
1000b6a4:	e012      	b.n	1000b6cc <__d_vfprintf+0x63c>
1000b6a6:	9c0e      	ldr	r4, [sp, #56]	@ 0x38
1000b6a8:	2030      	movs	r0, #48	@ 0x30
1000b6aa:	4651      	mov	r1, sl
1000b6ac:	47a0      	blx	r4
1000b6ae:	2800      	cmp	r0, #0
1000b6b0:	f53f acf8 	bmi.w	1000b0a4 <__d_vfprintf+0x14>
1000b6b4:	9809      	ldr	r0, [sp, #36]	@ 0x24
1000b6b6:	4651      	mov	r1, sl
1000b6b8:	f1c0 0078 	rsb	r0, r0, #120	@ 0x78
1000b6bc:	b2c0      	uxtb	r0, r0
1000b6be:	47a0      	blx	r4
1000b6c0:	2800      	cmp	r0, #0
1000b6c2:	f53f acef 	bmi.w	1000b0a4 <__d_vfprintf+0x14>
1000b6c6:	9d0c      	ldr	r5, [sp, #48]	@ 0x30
1000b6c8:	f109 0902 	add.w	r9, r9, #2
1000b6cc:	9805      	ldr	r0, [sp, #20]
1000b6ce:	0700      	lsls	r0, r0, #28
1000b6d0:	d40b      	bmi.n	1000b6ea <__d_vfprintf+0x65a>
1000b6d2:	b156      	cbz	r6, 1000b6ea <__d_vfprintf+0x65a>
1000b6d4:	44b1      	add	r9, r6
1000b6d6:	2030      	movs	r0, #48	@ 0x30
1000b6d8:	4651      	mov	r1, sl
1000b6da:	47a0      	blx	r4
1000b6dc:	2800      	cmp	r0, #0
1000b6de:	f53f ace1 	bmi.w	1000b0a4 <__d_vfprintf+0x14>
1000b6e2:	3e01      	subs	r6, #1
1000b6e4:	d1f7      	bne.n	1000b6d6 <__d_vfprintf+0x646>
1000b6e6:	9d0c      	ldr	r5, [sp, #48]	@ 0x30
1000b6e8:	2600      	movs	r6, #0
1000b6ea:	9805      	ldr	r0, [sp, #20]
1000b6ec:	0480      	lsls	r0, r0, #18
1000b6ee:	d432      	bmi.n	1000b756 <__d_vfprintf+0x6c6>
1000b6f0:	f89d 0041 	ldrb.w	r0, [sp, #65]	@ 0x41
1000b6f4:	2831      	cmp	r0, #49	@ 0x31
1000b6f6:	bf1e      	ittt	ne
1000b6f8:	f89d 1040 	ldrbne.w	r1, [sp, #64]	@ 0x40
1000b6fc:	f001 01ef 	andne.w	r1, r1, #239	@ 0xef
1000b700:	f88d 1040 	strbne.w	r1, [sp, #64]	@ 0x40
1000b704:	4651      	mov	r1, sl
1000b706:	47a0      	blx	r4
1000b708:	2800      	cmp	r0, #0
1000b70a:	f53f accb 	bmi.w	1000b0a4 <__d_vfprintf+0x14>
1000b70e:	980a      	ldr	r0, [sp, #40]	@ 0x28
1000b710:	2801      	cmp	r0, #1
1000b712:	f2c0 80f9 	blt.w	1000b908 <__d_vfprintf+0x878>
1000b716:	202e      	movs	r0, #46	@ 0x2e
1000b718:	4651      	mov	r1, sl
1000b71a:	47a0      	blx	r4
1000b71c:	2800      	cmp	r0, #0
1000b71e:	f53f acc1 	bmi.w	1000b0a4 <__d_vfprintf+0x14>
1000b722:	f8dd 8028 	ldr.w	r8, [sp, #40]	@ 0x28
1000b726:	f109 0502 	add.w	r5, r9, #2
1000b72a:	2401      	movs	r4, #1
1000b72c:	b2e0      	uxtb	r0, r4
1000b72e:	4580      	cmp	r8, r0
1000b730:	f2c0 80f1 	blt.w	1000b916 <__d_vfprintf+0x886>
1000b734:	990c      	ldr	r1, [sp, #48]	@ 0x30
1000b736:	b2c9      	uxtb	r1, r1
1000b738:	4288      	cmp	r0, r1
1000b73a:	990d      	ldr	r1, [sp, #52]	@ 0x34
1000b73c:	bf2f      	iteee	cs
1000b73e:	2030      	movcs	r0, #48	@ 0x30
1000b740:	aa0f      	addcc	r2, sp, #60	@ 0x3c
1000b742:	4410      	addcc	r0, r2
1000b744:	7940      	ldrbcc	r0, [r0, #5]
1000b746:	9a0e      	ldr	r2, [sp, #56]	@ 0x38
1000b748:	4790      	blx	r2
1000b74a:	3501      	adds	r5, #1
1000b74c:	3401      	adds	r4, #1
1000b74e:	f000 fb55 	bl	1000bdfc <OUTLINED_FUNCTION_0>
1000b752:	d5eb      	bpl.n	1000b72c <__d_vfprintf+0x69c>
1000b754:	e4a8      	b.n	1000b0a8 <__d_vfprintf+0x18>
1000b756:	e9dd 0107 	ldrd	r0, r1, [sp, #28]
1000b75a:	ea21 7ae1 	bic.w	sl, r1, r1, asr #31
1000b75e:	4408      	add	r0, r1
1000b760:	9009      	str	r0, [sp, #36]	@ 0x24
1000b762:	980a      	ldr	r0, [sp, #40]	@ 0x28
1000b764:	f1ca 0400 	rsb	r4, sl, #0
1000b768:	f1c0 0800 	rsb	r8, r0, #0
1000b76c:	b2e8      	uxtb	r0, r5
1000b76e:	460d      	mov	r5, r1
1000b770:	900c      	str	r0, [sp, #48]	@ 0x30
1000b772:	2c01      	cmp	r4, #1
1000b774:	d108      	bne.n	1000b788 <__d_vfprintf+0x6f8>
1000b776:	e9dd 120d 	ldrd	r1, r2, [sp, #52]	@ 0x34
1000b77a:	202e      	movs	r0, #46	@ 0x2e
1000b77c:	4790      	blx	r2
1000b77e:	2800      	cmp	r0, #0
1000b780:	f53f ac90 	bmi.w	1000b0a4 <__d_vfprintf+0x14>
1000b784:	f109 0901 	add.w	r9, r9, #1
1000b788:	1929      	adds	r1, r5, r4
1000b78a:	f04f 0030 	mov.w	r0, #48	@ 0x30
1000b78e:	d404      	bmi.n	1000b79a <__d_vfprintf+0x70a>
1000b790:	9a0c      	ldr	r2, [sp, #48]	@ 0x30
1000b792:	4291      	cmp	r1, r2
1000b794:	bfbc      	itt	lt
1000b796:	9809      	ldrlt	r0, [sp, #36]	@ 0x24
1000b798:	5d00      	ldrblt	r0, [r0, r4]
1000b79a:	45c2      	cmp	sl, r8
1000b79c:	dd58      	ble.n	1000b850 <__d_vfprintf+0x7c0>
1000b79e:	e9dd 120d 	ldrd	r1, r2, [sp, #52]	@ 0x34
1000b7a2:	4790      	blx	r2
1000b7a4:	f1aa 0a01 	sub.w	sl, sl, #1
1000b7a8:	3401      	adds	r4, #1
1000b7aa:	f109 0901 	add.w	r9, r9, #1
1000b7ae:	f000 fb25 	bl	1000bdfc <OUTLINED_FUNCTION_0>
1000b7b2:	d5de      	bpl.n	1000b772 <__d_vfprintf+0x6e2>
1000b7b4:	f7ff bc78 	b.w	1000b0a8 <__d_vfprintf+0x18>
1000b7b8:	2c63      	cmp	r4, #99	@ 0x63
1000b7ba:	d15b      	bne.n	1000b874 <__d_vfprintf+0x7e4>
1000b7bc:	9815      	ldr	r0, [sp, #84]	@ 0x54
1000b7be:	2401      	movs	r4, #1
1000b7c0:	1d01      	adds	r1, r0, #4
1000b7c2:	9115      	str	r1, [sp, #84]	@ 0x54
1000b7c4:	6800      	ldr	r0, [r0, #0]
1000b7c6:	f88d 003c 	strb.w	r0, [sp, #60]	@ 0x3c
1000b7ca:	ad0f      	add	r5, sp, #60	@ 0x3c
1000b7cc:	e01d      	b.n	1000b80a <__d_vfprintf+0x77a>
1000b7ce:	0580      	lsls	r0, r0, #22
1000b7d0:	9815      	ldr	r0, [sp, #84]	@ 0x54
1000b7d2:	f100 80a6 	bmi.w	1000b922 <__d_vfprintf+0x892>
1000b7d6:	1d01      	adds	r1, r0, #4
1000b7d8:	9115      	str	r1, [sp, #84]	@ 0x54
1000b7da:	6802      	ldr	r2, [r0, #0]
1000b7dc:	17d3      	asrs	r3, r2, #31
1000b7de:	e0a8      	b.n	1000b932 <__d_vfprintf+0x8a2>
1000b7e0:	9815      	ldr	r0, [sp, #84]	@ 0x54
1000b7e2:	1d01      	adds	r1, r0, #4
1000b7e4:	9115      	str	r1, [sp, #84]	@ 0x54
1000b7e6:	ea5f 614a 	movs.w	r1, sl, lsl #25
1000b7ea:	bf58      	it	pl
1000b7ec:	f04f 38ff 	movpl.w	r8, #4294967295	@ 0xffffffff
1000b7f0:	6805      	ldr	r5, [r0, #0]
1000b7f2:	4641      	mov	r1, r8
1000b7f4:	f8df 043c 	ldr.w	r0, [pc, #1084]	@ 1000bc34 <__d_vfprintf+0xba4>
1000b7f8:	2d00      	cmp	r5, #0
1000b7fa:	bf08      	it	eq
1000b7fc:	4605      	moveq	r5, r0
1000b7fe:	4628      	mov	r0, r5
1000b800:	f000 fb10 	bl	1000be24 <strnlen>
1000b804:	f8dd c030 	ldr.w	ip, [sp, #48]	@ 0x30
1000b808:	4604      	mov	r4, r0
1000b80a:	ea5f 700a 	movs.w	r0, sl, lsl #28
1000b80e:	f100 81e9 	bmi.w	1000bbe4 <__d_vfprintf+0xb54>
1000b812:	46a0      	mov	r8, r4
1000b814:	45a4      	cmp	ip, r4
1000b816:	bf38      	it	cc
1000b818:	46e0      	movcc	r8, ip
1000b81a:	f8dd a034 	ldr.w	sl, [sp, #52]	@ 0x34
1000b81e:	45a4      	cmp	ip, r4
1000b820:	f240 81df 	bls.w	1000bbe2 <__d_vfprintf+0xb52>
1000b824:	9a0e      	ldr	r2, [sp, #56]	@ 0x38
1000b826:	2020      	movs	r0, #32
1000b828:	4651      	mov	r1, sl
1000b82a:	4666      	mov	r6, ip
1000b82c:	4790      	blx	r2
1000b82e:	2800      	cmp	r0, #0
1000b830:	f53f ac38 	bmi.w	1000b0a4 <__d_vfprintf+0x14>
1000b834:	46b4      	mov	ip, r6
1000b836:	f109 0901 	add.w	r9, r9, #1
1000b83a:	f1a6 0c01 	sub.w	ip, r6, #1
1000b83e:	e7ee      	b.n	1000b81e <__d_vfprintf+0x78e>
1000b840:	f64f 70ef 	movw	r0, #65519	@ 0xffef
1000b844:	ea0a 0a00 	and.w	sl, sl, r0
1000b848:	230a      	movs	r3, #10
1000b84a:	f04f 0e75 	mov.w	lr, #117	@ 0x75
1000b84e:	e01a      	b.n	1000b886 <__d_vfprintf+0x7f6>
1000b850:	3101      	adds	r1, #1
1000b852:	f0c0 812a 	bcc.w	1000baaa <__d_vfprintf+0xa1a>
1000b856:	f89d 1041 	ldrb.w	r1, [sp, #65]	@ 0x41
1000b85a:	e9dd a80d 	ldrd	sl, r8, [sp, #52]	@ 0x34
1000b85e:	2935      	cmp	r1, #53	@ 0x35
1000b860:	d806      	bhi.n	1000b870 <__d_vfprintf+0x7e0>
1000b862:	f040 8124 	bne.w	1000baae <__d_vfprintf+0xa1e>
1000b866:	f89d 1040 	ldrb.w	r1, [sp, #64]	@ 0x40
1000b86a:	06c9      	lsls	r1, r1, #27
1000b86c:	f100 811f 	bmi.w	1000baae <__d_vfprintf+0xa1e>
1000b870:	2031      	movs	r0, #49	@ 0x31
1000b872:	e11c      	b.n	1000baae <__d_vfprintf+0xa1e>
1000b874:	2878      	cmp	r0, #120	@ 0x78
1000b876:	f040 8130 	bne.w	1000bada <__d_vfprintf+0xa4a>
1000b87a:	2310      	movs	r3, #16
1000b87c:	2d58      	cmp	r5, #88	@ 0x58
1000b87e:	bf08      	it	eq
1000b880:	f44f 7304 	moveq.w	r3, #528	@ 0x210
1000b884:	46ae      	mov	lr, r5
1000b886:	f64f 70f9 	movw	r0, #65529	@ 0xfff9
1000b88a:	ea0a 0400 	and.w	r4, sl, r0
1000b88e:	ea5f 600a 	movs.w	r0, sl, lsl #24
1000b892:	d40a      	bmi.n	1000b8aa <__d_vfprintf+0x81a>
1000b894:	9815      	ldr	r0, [sp, #84]	@ 0x54
1000b896:	1d01      	adds	r1, r0, #4
1000b898:	9115      	str	r1, [sp, #84]	@ 0x54
1000b89a:	6800      	ldr	r0, [r0, #0]
1000b89c:	05e1      	lsls	r1, r4, #23
1000b89e:	d50a      	bpl.n	1000b8b6 <__d_vfprintf+0x826>
1000b8a0:	05a1      	lsls	r1, r4, #22
1000b8a2:	bf54      	ite	pl
1000b8a4:	b280      	uxthpl	r0, r0
1000b8a6:	b2c0      	uxtbmi	r0, r0
1000b8a8:	e005      	b.n	1000b8b6 <__d_vfprintf+0x826>
1000b8aa:	05a0      	lsls	r0, r4, #22
1000b8ac:	9815      	ldr	r0, [sp, #84]	@ 0x54
1000b8ae:	d404      	bmi.n	1000b8ba <__d_vfprintf+0x82a>
1000b8b0:	1d01      	adds	r1, r0, #4
1000b8b2:	9115      	str	r1, [sp, #84]	@ 0x54
1000b8b4:	6800      	ldr	r0, [r0, #0]
1000b8b6:	2100      	movs	r1, #0
1000b8b8:	e007      	b.n	1000b8ca <__d_vfprintf+0x83a>
1000b8ba:	3007      	adds	r0, #7
1000b8bc:	f020 0107 	bic.w	r1, r0, #7
1000b8c0:	460a      	mov	r2, r1
1000b8c2:	6849      	ldr	r1, [r1, #4]
1000b8c4:	f852 0b08 	ldr.w	r0, [r2], #8
1000b8c8:	9215      	str	r2, [sp, #84]	@ 0x54
1000b8ca:	ea50 0201 	orrs.w	r2, r0, r1
1000b8ce:	bf08      	it	eq
1000b8d0:	f02a 0416 	biceq.w	r4, sl, #22
1000b8d4:	d00c      	beq.n	1000b8f0 <__d_vfprintf+0x860>
1000b8d6:	4625      	mov	r5, r4
1000b8d8:	ac0f      	add	r4, sp, #60	@ 0x3c
1000b8da:	4676      	mov	r6, lr
1000b8dc:	4622      	mov	r2, r4
1000b8de:	f000 fa63 	bl	1000bda8 <__ultoa_invert>
1000b8e2:	f8dd c030 	ldr.w	ip, [sp, #48]	@ 0x30
1000b8e6:	eba0 0a04 	sub.w	sl, r0, r4
1000b8ea:	462c      	mov	r4, r5
1000b8ec:	4635      	mov	r5, r6
1000b8ee:	e03b      	b.n	1000b968 <__d_vfprintf+0x8d8>
1000b8f0:	0662      	lsls	r2, r4, #25
1000b8f2:	d5f0      	bpl.n	1000b8d6 <__d_vfprintf+0x846>
1000b8f4:	2e01      	cmp	r6, #1
1000b8f6:	daee      	bge.n	1000b8d6 <__d_vfprintf+0x846>
1000b8f8:	f64f 70e9 	movw	r0, #65513	@ 0xffe9
1000b8fc:	ea0a 0400 	and.w	r4, sl, r0
1000b900:	f04f 0a00 	mov.w	sl, #0
1000b904:	4675      	mov	r5, lr
1000b906:	e02f      	b.n	1000b968 <__d_vfprintf+0x8d8>
1000b908:	9805      	ldr	r0, [sp, #20]
1000b90a:	06c0      	lsls	r0, r0, #27
1000b90c:	f100 80f6 	bmi.w	1000bafc <__d_vfprintf+0xa6c>
1000b910:	f109 0501 	add.w	r5, r9, #1
1000b914:	e001      	b.n	1000b91a <__d_vfprintf+0x88a>
1000b916:	f8dd a034 	ldr.w	sl, [sp, #52]	@ 0x34
1000b91a:	f44f 797a 	mov.w	r9, #1000	@ 0x3e8
1000b91e:	9809      	ldr	r0, [sp, #36]	@ 0x24
1000b920:	e0f7      	b.n	1000bb12 <__d_vfprintf+0xa82>
1000b922:	3007      	adds	r0, #7
1000b924:	f020 0007 	bic.w	r0, r0, #7
1000b928:	4601      	mov	r1, r0
1000b92a:	6843      	ldr	r3, [r0, #4]
1000b92c:	f851 2b08 	ldr.w	r2, [r1], #8
1000b930:	9115      	str	r1, [sp, #84]	@ 0x54
1000b932:	2b00      	cmp	r3, #0
1000b934:	ea82 70e3 	eor.w	r0, r2, r3, asr #31
1000b938:	bf48      	it	mi
1000b93a:	f44a 6a80 	orrmi.w	sl, sl, #1024	@ 0x400
1000b93e:	ea83 71e3 	eor.w	r1, r3, r3, asr #31
1000b942:	ebb0 70e3 	subs.w	r0, r0, r3, asr #31
1000b946:	eb61 71e3 	sbc.w	r1, r1, r3, asr #31
1000b94a:	f02a 0410 	bic.w	r4, sl, #16
1000b94e:	431a      	orrs	r2, r3
1000b950:	d074      	beq.n	1000ba3c <__d_vfprintf+0x9ac>
1000b952:	4626      	mov	r6, r4
1000b954:	ac0f      	add	r4, sp, #60	@ 0x3c
1000b956:	230a      	movs	r3, #10
1000b958:	4622      	mov	r2, r4
1000b95a:	f000 fa25 	bl	1000bda8 <__ultoa_invert>
1000b95e:	eba0 0a04 	sub.w	sl, r0, r4
1000b962:	f8dd c030 	ldr.w	ip, [sp, #48]	@ 0x30
1000b966:	4634      	mov	r4, r6
1000b968:	0660      	lsls	r0, r4, #25
1000b96a:	d402      	bmi.n	1000b972 <__d_vfprintf+0x8e2>
1000b96c:	4621      	mov	r1, r4
1000b96e:	4650      	mov	r0, sl
1000b970:	e00b      	b.n	1000b98a <__d_vfprintf+0x8fa>
1000b972:	f64f 70fe 	movw	r0, #65534	@ 0xfffe
1000b976:	ea04 0100 	and.w	r1, r4, r0
1000b97a:	45c2      	cmp	sl, r8
1000b97c:	4650      	mov	r0, sl
1000b97e:	da04      	bge.n	1000b98a <__d_vfprintf+0x8fa>
1000b980:	4640      	mov	r0, r8
1000b982:	2d00      	cmp	r5, #0
1000b984:	bf08      	it	eq
1000b986:	f024 0111 	biceq.w	r1, r4, #17
1000b98a:	b28a      	uxth	r2, r1
1000b98c:	06c9      	lsls	r1, r1, #27
1000b98e:	d405      	bmi.n	1000b99c <__d_vfprintf+0x90c>
1000b990:	f240 4106 	movw	r1, #1030	@ 0x406
1000b994:	4011      	ands	r1, r2
1000b996:	bf18      	it	ne
1000b998:	2101      	movne	r1, #1
1000b99a:	e003      	b.n	1000b9a4 <__d_vfprintf+0x914>
1000b99c:	2102      	movs	r1, #2
1000b99e:	2d00      	cmp	r5, #0
1000b9a0:	bf08      	it	eq
1000b9a2:	2101      	moveq	r1, #1
1000b9a4:	180e      	adds	r6, r1, r0
1000b9a6:	0710      	lsls	r0, r2, #28
1000b9a8:	d41f      	bmi.n	1000b9ea <__d_vfprintf+0x95a>
1000b9aa:	07d0      	lsls	r0, r2, #31
1000b9ac:	920a      	str	r2, [sp, #40]	@ 0x28
1000b9ae:	d007      	beq.n	1000b9c0 <__d_vfprintf+0x930>
1000b9b0:	46d0      	mov	r8, sl
1000b9b2:	45b4      	cmp	ip, r6
1000b9b4:	bfc2      	ittt	gt
1000b9b6:	eb0a 000c 	addgt.w	r0, sl, ip
1000b9ba:	eba0 0806 	subgt.w	r8, r0, r6
1000b9be:	4666      	movgt	r6, ip
1000b9c0:	4634      	mov	r4, r6
1000b9c2:	45b4      	cmp	ip, r6
1000b9c4:	bfc8      	it	gt
1000b9c6:	4664      	movgt	r4, ip
1000b9c8:	4566      	cmp	r6, ip
1000b9ca:	da0c      	bge.n	1000b9e6 <__d_vfprintf+0x956>
1000b9cc:	e9dd 120d 	ldrd	r1, r2, [sp, #52]	@ 0x34
1000b9d0:	2020      	movs	r0, #32
1000b9d2:	4790      	blx	r2
1000b9d4:	2800      	cmp	r0, #0
1000b9d6:	f53f ab65 	bmi.w	1000b0a4 <__d_vfprintf+0x14>
1000b9da:	3601      	adds	r6, #1
1000b9dc:	f109 0901 	add.w	r9, r9, #1
1000b9e0:	f8dd c030 	ldr.w	ip, [sp, #48]	@ 0x30
1000b9e4:	e7f0      	b.n	1000b9c8 <__d_vfprintf+0x938>
1000b9e6:	9a0a      	ldr	r2, [sp, #40]	@ 0x28
1000b9e8:	4626      	mov	r6, r4
1000b9ea:	06d0      	lsls	r0, r2, #27
1000b9ec:	d414      	bmi.n	1000ba18 <__d_vfprintf+0x988>
1000b9ee:	f240 4006 	movw	r0, #1030	@ 0x406
1000b9f2:	4202      	tst	r2, r0
1000b9f4:	d02c      	beq.n	1000ba50 <__d_vfprintf+0x9c0>
1000b9f6:	0790      	lsls	r0, r2, #30
1000b9f8:	f04f 002b 	mov.w	r0, #43	@ 0x2b
1000b9fc:	bf58      	it	pl
1000b9fe:	2020      	movpl	r0, #32
1000ba00:	0551      	lsls	r1, r2, #21
1000ba02:	bf48      	it	mi
1000ba04:	202d      	movmi	r0, #45	@ 0x2d
1000ba06:	e9dd 140d 	ldrd	r1, r4, [sp, #52]	@ 0x34
1000ba0a:	47a0      	blx	r4
1000ba0c:	2800      	cmp	r0, #0
1000ba0e:	f53f ab49 	bmi.w	1000b0a4 <__d_vfprintf+0x14>
1000ba12:	f109 0901 	add.w	r9, r9, #1
1000ba16:	e020      	b.n	1000ba5a <__d_vfprintf+0x9ca>
1000ba18:	e9dd 120d 	ldrd	r1, r2, [sp, #52]	@ 0x34
1000ba1c:	2030      	movs	r0, #48	@ 0x30
1000ba1e:	4790      	blx	r2
1000ba20:	2800      	cmp	r0, #0
1000ba22:	f53f ab3f 	bmi.w	1000b0a4 <__d_vfprintf+0x14>
1000ba26:	b1ad      	cbz	r5, 1000ba54 <__d_vfprintf+0x9c4>
1000ba28:	e9dd 140d 	ldrd	r1, r4, [sp, #52]	@ 0x34
1000ba2c:	b2e8      	uxtb	r0, r5
1000ba2e:	47a0      	blx	r4
1000ba30:	2800      	cmp	r0, #0
1000ba32:	f53f ab37 	bmi.w	1000b0a4 <__d_vfprintf+0x14>
1000ba36:	f109 0902 	add.w	r9, r9, #2
1000ba3a:	e00e      	b.n	1000ba5a <__d_vfprintf+0x9ca>
1000ba3c:	ea5f 624a 	movs.w	r2, sl, lsl #25
1000ba40:	f57f af87 	bpl.w	1000b952 <__d_vfprintf+0x8c2>
1000ba44:	2e01      	cmp	r6, #1
1000ba46:	f6bf af84 	bge.w	1000b952 <__d_vfprintf+0x8c2>
1000ba4a:	f04f 0a00 	mov.w	sl, #0
1000ba4e:	e78b      	b.n	1000b968 <__d_vfprintf+0x8d8>
1000ba50:	9c0e      	ldr	r4, [sp, #56]	@ 0x38
1000ba52:	e004      	b.n	1000ba5e <__d_vfprintf+0x9ce>
1000ba54:	f109 0901 	add.w	r9, r9, #1
1000ba58:	9c0e      	ldr	r4, [sp, #56]	@ 0x38
1000ba5a:	f8dd c030 	ldr.w	ip, [sp, #48]	@ 0x30
1000ba5e:	ebac 0606 	sub.w	r6, ip, r6
1000ba62:	45d0      	cmp	r8, sl
1000ba64:	dd0a      	ble.n	1000ba7c <__d_vfprintf+0x9ec>
1000ba66:	990d      	ldr	r1, [sp, #52]	@ 0x34
1000ba68:	2030      	movs	r0, #48	@ 0x30
1000ba6a:	47a0      	blx	r4
1000ba6c:	2800      	cmp	r0, #0
1000ba6e:	f53f ab19 	bmi.w	1000b0a4 <__d_vfprintf+0x14>
1000ba72:	f1a8 0801 	sub.w	r8, r8, #1
1000ba76:	f109 0901 	add.w	r9, r9, #1
1000ba7a:	e7f2      	b.n	1000ba62 <__d_vfprintf+0x9d2>
1000ba7c:	9806      	ldr	r0, [sp, #24]
1000ba7e:	f1ca 0400 	rsb	r4, sl, #0
1000ba82:	2500      	movs	r5, #0
1000ba84:	eb00 080a 	add.w	r8, r0, sl
1000ba88:	f8dd a034 	ldr.w	sl, [sp, #52]	@ 0x34
1000ba8c:	42ac      	cmp	r4, r5
1000ba8e:	d009      	beq.n	1000baa4 <__d_vfprintf+0xa14>
1000ba90:	f818 0005 	ldrb.w	r0, [r8, r5]
1000ba94:	4651      	mov	r1, sl
1000ba96:	9a0e      	ldr	r2, [sp, #56]	@ 0x38
1000ba98:	4790      	blx	r2
1000ba9a:	3d01      	subs	r5, #1
1000ba9c:	2800      	cmp	r0, #0
1000ba9e:	d5f5      	bpl.n	1000ba8c <__d_vfprintf+0x9fc>
1000baa0:	f7ff bb00 	b.w	1000b0a4 <__d_vfprintf+0x14>
1000baa4:	eba9 0905 	sub.w	r9, r9, r5
1000baa8:	e0ad      	b.n	1000bc06 <__d_vfprintf+0xb76>
1000baaa:	e9dd a80d 	ldrd	sl, r8, [sp, #52]	@ 0x34
1000baae:	4651      	mov	r1, sl
1000bab0:	47c0      	blx	r8
1000bab2:	2800      	cmp	r0, #0
1000bab4:	f53f aaf6 	bmi.w	1000b0a4 <__d_vfprintf+0x14>
1000bab8:	9905      	ldr	r1, [sp, #20]
1000baba:	f109 0001 	add.w	r0, r9, #1
1000babe:	06c9      	lsls	r1, r1, #27
1000bac0:	d509      	bpl.n	1000bad6 <__d_vfprintf+0xa46>
1000bac2:	b944      	cbnz	r4, 1000bad6 <__d_vfprintf+0xa46>
1000bac4:	202e      	movs	r0, #46	@ 0x2e
1000bac6:	4651      	mov	r1, sl
1000bac8:	47c0      	blx	r8
1000baca:	2800      	cmp	r0, #0
1000bacc:	f53f aaea 	bmi.w	1000b0a4 <__d_vfprintf+0x14>
1000bad0:	f109 0902 	add.w	r9, r9, #2
1000bad4:	e099      	b.n	1000bc0a <__d_vfprintf+0xb7a>
1000bad6:	4681      	mov	r9, r0
1000bad8:	e097      	b.n	1000bc0a <__d_vfprintf+0xb7a>
1000bada:	f8dd a034 	ldr.w	sl, [sp, #52]	@ 0x34
1000bade:	2025      	movs	r0, #37	@ 0x25
1000bae0:	f8dd 8038 	ldr.w	r8, [sp, #56]	@ 0x38
1000bae4:	4651      	mov	r1, sl
1000bae6:	47c0      	blx	r8
1000bae8:	2800      	cmp	r0, #0
1000baea:	f53f aadb 	bmi.w	1000b0a4 <__d_vfprintf+0x14>
1000baee:	4620      	mov	r0, r4
1000baf0:	4651      	mov	r1, sl
1000baf2:	47c0      	blx	r8
1000baf4:	f109 0902 	add.w	r9, r9, #2
1000baf8:	f7ff baff 	b.w	1000b0fa <__d_vfprintf+0x6a>
1000bafc:	202e      	movs	r0, #46	@ 0x2e
1000bafe:	4651      	mov	r1, sl
1000bb00:	47a0      	blx	r4
1000bb02:	2800      	cmp	r0, #0
1000bb04:	9809      	ldr	r0, [sp, #36]	@ 0x24
1000bb06:	f53f aacd 	bmi.w	1000b0a4 <__d_vfprintf+0x14>
1000bb0a:	f109 0502 	add.w	r5, r9, #2
1000bb0e:	f44f 797a 	mov.w	r9, #1000	@ 0x3e8
1000bb12:	9904      	ldr	r1, [sp, #16]
1000bb14:	9a0e      	ldr	r2, [sp, #56]	@ 0x38
1000bb16:	1a08      	subs	r0, r1, r0
1000bb18:	4651      	mov	r1, sl
1000bb1a:	b2c0      	uxtb	r0, r0
1000bb1c:	4790      	blx	r2
1000bb1e:	2800      	cmp	r0, #0
1000bb20:	f53f aac0 	bmi.w	1000b0a4 <__d_vfprintf+0x14>
1000bb24:	9808      	ldr	r0, [sp, #32]
1000bb26:	2800      	cmp	r0, #0
1000bb28:	d408      	bmi.n	1000bb3c <__d_vfprintf+0xaac>
1000bb2a:	d105      	bne.n	1000bb38 <__d_vfprintf+0xaa8>
1000bb2c:	f89d 0040 	ldrb.w	r0, [sp, #64]	@ 0x40
1000bb30:	06c0      	lsls	r0, r0, #27
1000bb32:	d403      	bmi.n	1000bb3c <__d_vfprintf+0xaac>
1000bb34:	2000      	movs	r0, #0
1000bb36:	9008      	str	r0, [sp, #32]
1000bb38:	202b      	movs	r0, #43	@ 0x2b
1000bb3a:	e003      	b.n	1000bb44 <__d_vfprintf+0xab4>
1000bb3c:	9808      	ldr	r0, [sp, #32]
1000bb3e:	4240      	negs	r0, r0
1000bb40:	9008      	str	r0, [sp, #32]
1000bb42:	202d      	movs	r0, #45	@ 0x2d
1000bb44:	9a0e      	ldr	r2, [sp, #56]	@ 0x38
1000bb46:	4651      	mov	r1, sl
1000bb48:	4790      	blx	r2
1000bb4a:	2800      	cmp	r0, #0
1000bb4c:	f53f aaaa 	bmi.w	1000b0a4 <__d_vfprintf+0x14>
1000bb50:	9802      	ldr	r0, [sp, #8]
1000bb52:	2804      	cmp	r0, #4
1000bb54:	d310      	bcc.n	1000bb78 <__d_vfprintf+0xae8>
1000bb56:	9c08      	ldr	r4, [sp, #32]
1000bb58:	4651      	mov	r1, sl
1000bb5a:	9a0e      	ldr	r2, [sp, #56]	@ 0x38
1000bb5c:	fbb4 f8f9 	udiv	r8, r4, r9
1000bb60:	f108 0030 	add.w	r0, r8, #48	@ 0x30
1000bb64:	b2c0      	uxtb	r0, r0
1000bb66:	4790      	blx	r2
1000bb68:	2800      	cmp	r0, #0
1000bb6a:	f53f aa9b 	bmi.w	1000b0a4 <__d_vfprintf+0x14>
1000bb6e:	fb08 4419 	mls	r4, r8, r9, r4
1000bb72:	f105 0903 	add.w	r9, r5, #3
1000bb76:	e004      	b.n	1000bb82 <__d_vfprintf+0xaf2>
1000bb78:	f105 0902 	add.w	r9, r5, #2
1000bb7c:	2803      	cmp	r0, #3
1000bb7e:	d152      	bne.n	1000bc26 <__d_vfprintf+0xb96>
1000bb80:	9c08      	ldr	r4, [sp, #32]
1000bb82:	f04f 0864 	mov.w	r8, #100	@ 0x64
1000bb86:	fbb4 f5f8 	udiv	r5, r4, r8
1000bb8a:	9a0e      	ldr	r2, [sp, #56]	@ 0x38
1000bb8c:	f105 0030 	add.w	r0, r5, #48	@ 0x30
1000bb90:	4651      	mov	r1, sl
1000bb92:	b2c0      	uxtb	r0, r0
1000bb94:	4790      	blx	r2
1000bb96:	2800      	cmp	r0, #0
1000bb98:	f53f aa84 	bmi.w	1000b0a4 <__d_vfprintf+0x14>
1000bb9c:	fb05 4418 	mls	r4, r5, r8, r4
1000bba0:	f109 0901 	add.w	r9, r9, #1
1000bba4:	200a      	movs	r0, #10
1000bba6:	9a0e      	ldr	r2, [sp, #56]	@ 0x38
1000bba8:	fbb4 f5f0 	udiv	r5, r4, r0
1000bbac:	4651      	mov	r1, sl
1000bbae:	f105 0030 	add.w	r0, r5, #48	@ 0x30
1000bbb2:	b2c0      	uxtb	r0, r0
1000bbb4:	4790      	blx	r2
1000bbb6:	2800      	cmp	r0, #0
1000bbb8:	f53f aa74 	bmi.w	1000b0a4 <__d_vfprintf+0x14>
1000bbbc:	eb05 0085 	add.w	r0, r5, r5, lsl #2
1000bbc0:	f109 0901 	add.w	r9, r9, #1
1000bbc4:	eba4 0440 	sub.w	r4, r4, r0, lsl #1
1000bbc8:	f104 0030 	add.w	r0, r4, #48	@ 0x30
1000bbcc:	f8dd 8038 	ldr.w	r8, [sp, #56]	@ 0x38
1000bbd0:	b2c0      	uxtb	r0, r0
1000bbd2:	4651      	mov	r1, sl
1000bbd4:	47c0      	blx	r8
1000bbd6:	2800      	cmp	r0, #0
1000bbd8:	f53f aa64 	bmi.w	1000b0a4 <__d_vfprintf+0x14>
1000bbdc:	f109 0901 	add.w	r9, r9, #1
1000bbe0:	e013      	b.n	1000bc0a <__d_vfprintf+0xb7a>
1000bbe2:	46c4      	mov	ip, r8
1000bbe4:	44a1      	add	r9, r4
1000bbe6:	ebac 0604 	sub.w	r6, ip, r4
1000bbea:	b154      	cbz	r4, 1000bc02 <__d_vfprintf+0xb72>
1000bbec:	f815 0b01 	ldrb.w	r0, [r5], #1
1000bbf0:	e9dd 120d 	ldrd	r1, r2, [sp, #52]	@ 0x34
1000bbf4:	4790      	blx	r2
1000bbf6:	3c01      	subs	r4, #1
1000bbf8:	f000 f900 	bl	1000bdfc <OUTLINED_FUNCTION_0>
1000bbfc:	d5f5      	bpl.n	1000bbea <__d_vfprintf+0xb5a>
1000bbfe:	f7ff ba53 	b.w	1000b0a8 <__d_vfprintf+0x18>
1000bc02:	f8dd a034 	ldr.w	sl, [sp, #52]	@ 0x34
1000bc06:	f8dd 8038 	ldr.w	r8, [sp, #56]	@ 0x38
1000bc0a:	2e01      	cmp	r6, #1
1000bc0c:	f6ff aa60 	blt.w	1000b0d0 <__d_vfprintf+0x40>
1000bc10:	2020      	movs	r0, #32
1000bc12:	4651      	mov	r1, sl
1000bc14:	47c0      	blx	r8
1000bc16:	3e01      	subs	r6, #1
1000bc18:	f109 0901 	add.w	r9, r9, #1
1000bc1c:	f1b0 3fff 	cmp.w	r0, #4294967295	@ 0xffffffff
1000bc20:	dcf3      	bgt.n	1000bc0a <__d_vfprintf+0xb7a>
1000bc22:	f7ff ba3f 	b.w	1000b0a4 <__d_vfprintf+0x14>
1000bc26:	9c08      	ldr	r4, [sp, #32]
1000bc28:	2802      	cmp	r0, #2
1000bc2a:	d2bb      	bcs.n	1000bba4 <__d_vfprintf+0xb14>
1000bc2c:	e7cc      	b.n	1000bbc8 <__d_vfprintf+0xb38>
1000bc2e:	4648      	mov	r0, r9
1000bc30:	f7ff ba3a 	b.w	1000b0a8 <__d_vfprintf+0x18>
1000bc34:	100093a5 	.word	0x100093a5
1000bc38:	100093d1 	.word	0x100093d1
1000bc3c:	100093cd 	.word	0x100093cd

Disassembly of section .text.skip_to_arg:

1000bc40 <skip_to_arg>:
1000bc40:	b5f0      	push	{r4, r5, r6, r7, lr}
1000bc42:	af03      	add	r7, sp, #12
1000bc44:	e92d 0700 	stmdb	sp!, {r8, r9, sl}
1000bc48:	4682      	mov	sl, r0
1000bc4a:	4856      	ldr	r0, [pc, #344]	@ (1000bda4 <skip_to_arg+0x164>)
1000bc4c:	4689      	mov	r9, r1
1000bc4e:	f04f 0801 	mov.w	r8, #1
1000bc52:	f04f 0c01 	mov.w	ip, #1
1000bc56:	4655      	mov	r5, sl
1000bc58:	4594      	cmp	ip, r2
1000bc5a:	f280 809f 	bge.w	1000bd9c <skip_to_arg+0x15c>
1000bc5e:	462b      	mov	r3, r5
1000bc60:	f813 4b01 	ldrb.w	r4, [r3], #1
1000bc64:	2c25      	cmp	r4, #37	@ 0x25
1000bc66:	d003      	beq.n	1000bc70 <skip_to_arg+0x30>
1000bc68:	2c00      	cmp	r4, #0
1000bc6a:	461d      	mov	r5, r3
1000bc6c:	d1f7      	bne.n	1000bc5e <skip_to_arg+0x1e>
1000bc6e:	e095      	b.n	1000bd9c <skip_to_arg+0x15c>
1000bc70:	786c      	ldrb	r4, [r5, #1]
1000bc72:	3502      	adds	r5, #2
1000bc74:	2c25      	cmp	r4, #37	@ 0x25
1000bc76:	d0f2      	beq.n	1000bc5e <skip_to_arg+0x1e>
1000bc78:	2600      	movs	r6, #0
1000bc7a:	f04f 0e00 	mov.w	lr, #0
1000bc7e:	2300      	movs	r3, #0
1000bc80:	b2b1      	uxth	r1, r6
1000bc82:	291f      	cmp	r1, #31
1000bc84:	d808      	bhi.n	1000bc98 <skip_to_arg+0x58>
1000bc86:	f1a4 0120 	sub.w	r1, r4, #32
1000bc8a:	2910      	cmp	r1, #16
1000bc8c:	d806      	bhi.n	1000bc9c <skip_to_arg+0x5c>
1000bc8e:	fa08 f101 	lsl.w	r1, r8, r1
1000bc92:	4201      	tst	r1, r0
1000bc94:	d145      	bne.n	1000bd22 <skip_to_arg+0xe2>
1000bc96:	e001      	b.n	1000bc9c <skip_to_arg+0x5c>
1000bc98:	297f      	cmp	r1, #127	@ 0x7f
1000bc9a:	d80c      	bhi.n	1000bcb6 <skip_to_arg+0x76>
1000bc9c:	f1a4 0130 	sub.w	r1, r4, #48	@ 0x30
1000bca0:	2909      	cmp	r1, #9
1000bca2:	d815      	bhi.n	1000bcd0 <skip_to_arg+0x90>
1000bca4:	eb03 0183 	add.w	r1, r3, r3, lsl #2
1000bca8:	f046 0620 	orr.w	r6, r6, #32
1000bcac:	eb04 0141 	add.w	r1, r4, r1, lsl #1
1000bcb0:	f1a1 0330 	sub.w	r3, r1, #48	@ 0x30
1000bcb4:	e035      	b.n	1000bd22 <skip_to_arg+0xe2>
1000bcb6:	2c4c      	cmp	r4, #76	@ 0x4c
1000bcb8:	d023      	beq.n	1000bd02 <skip_to_arg+0xc2>
1000bcba:	2c68      	cmp	r4, #104	@ 0x68
1000bcbc:	d024      	beq.n	1000bd08 <skip_to_arg+0xc8>
1000bcbe:	2c6a      	cmp	r4, #106	@ 0x6a
1000bcc0:	d01f      	beq.n	1000bd02 <skip_to_arg+0xc2>
1000bcc2:	2c7a      	cmp	r4, #122	@ 0x7a
1000bcc4:	bf18      	it	ne
1000bcc6:	2c74      	cmpne	r4, #116	@ 0x74
1000bcc8:	d02b      	beq.n	1000bd22 <skip_to_arg+0xe2>
1000bcca:	2c6c      	cmp	r4, #108	@ 0x6c
1000bccc:	d023      	beq.n	1000bd16 <skip_to_arg+0xd6>
1000bcce:	e033      	b.n	1000bd38 <skip_to_arg+0xf8>
1000bcd0:	2c7a      	cmp	r4, #122	@ 0x7a
1000bcd2:	d026      	beq.n	1000bd22 <skip_to_arg+0xe2>
1000bcd4:	2c2a      	cmp	r4, #42	@ 0x2a
1000bcd6:	bf18      	it	ne
1000bcd8:	2c2e      	cmpne	r4, #46	@ 0x2e
1000bcda:	d101      	bne.n	1000bce0 <skip_to_arg+0xa0>
1000bcdc:	2300      	movs	r3, #0
1000bcde:	e020      	b.n	1000bd22 <skip_to_arg+0xe2>
1000bce0:	2c4c      	cmp	r4, #76	@ 0x4c
1000bce2:	d00e      	beq.n	1000bd02 <skip_to_arg+0xc2>
1000bce4:	2c68      	cmp	r4, #104	@ 0x68
1000bce6:	d00f      	beq.n	1000bd08 <skip_to_arg+0xc8>
1000bce8:	2c6a      	cmp	r4, #106	@ 0x6a
1000bcea:	d00a      	beq.n	1000bd02 <skip_to_arg+0xc2>
1000bcec:	2c6c      	cmp	r4, #108	@ 0x6c
1000bcee:	d012      	beq.n	1000bd16 <skip_to_arg+0xd6>
1000bcf0:	2c74      	cmp	r4, #116	@ 0x74
1000bcf2:	d016      	beq.n	1000bd22 <skip_to_arg+0xe2>
1000bcf4:	2c24      	cmp	r4, #36	@ 0x24
1000bcf6:	d11f      	bne.n	1000bd38 <skip_to_arg+0xf8>
1000bcf8:	f1be 0f00 	cmp.w	lr, #0
1000bcfc:	d116      	bne.n	1000bd2c <skip_to_arg+0xec>
1000bcfe:	469e      	mov	lr, r3
1000bd00:	e7ec      	b.n	1000bcdc <skip_to_arg+0x9c>
1000bd02:	f446 7620 	orr.w	r6, r6, #640	@ 0x280
1000bd06:	e00c      	b.n	1000bd22 <skip_to_arg+0xe2>
1000bd08:	f406 7180 	and.w	r1, r6, #256	@ 0x100
1000bd0c:	ea46 0141 	orr.w	r1, r6, r1, lsl #1
1000bd10:	f441 7680 	orr.w	r6, r1, #256	@ 0x100
1000bd14:	e005      	b.n	1000bd22 <skip_to_arg+0xe2>
1000bd16:	f006 0180 	and.w	r1, r6, #128	@ 0x80
1000bd1a:	ea46 0181 	orr.w	r1, r6, r1, lsl #2
1000bd1e:	f041 0680 	orr.w	r6, r1, #128	@ 0x80
1000bd22:	f815 4b01 	ldrb.w	r4, [r5], #1
1000bd26:	2c00      	cmp	r4, #0
1000bd28:	d1aa      	bne.n	1000bc80 <skip_to_arg+0x40>
1000bd2a:	e004      	b.n	1000bd36 <skip_to_arg+0xf6>
1000bd2c:	4563      	cmp	r3, ip
1000bd2e:	d1d5      	bne.n	1000bcdc <skip_to_arg+0x9c>
1000bd30:	2463      	movs	r4, #99	@ 0x63
1000bd32:	46e6      	mov	lr, ip
1000bd34:	e000      	b.n	1000bd38 <skip_to_arg+0xf8>
1000bd36:	2400      	movs	r4, #0
1000bd38:	f1be 0f00 	cmp.w	lr, #0
1000bd3c:	d02e      	beq.n	1000bd9c <skip_to_arg+0x15c>
1000bd3e:	45e6      	cmp	lr, ip
1000bd40:	f47f af8a 	bne.w	1000bc58 <skip_to_arg+0x18>
1000bd44:	f044 0320 	orr.w	r3, r4, #32
1000bd48:	f1a3 0165 	sub.w	r1, r3, #101	@ 0x65
1000bd4c:	2903      	cmp	r1, #3
1000bd4e:	d301      	bcc.n	1000bd54 <skip_to_arg+0x114>
1000bd50:	2b61      	cmp	r3, #97	@ 0x61
1000bd52:	d10b      	bne.n	1000bd6c <skip_to_arg+0x12c>
1000bd54:	f8d9 1000 	ldr.w	r1, [r9]
1000bd58:	3107      	adds	r1, #7
1000bd5a:	f021 0107 	bic.w	r1, r1, #7
1000bd5e:	f101 0308 	add.w	r3, r1, #8
1000bd62:	f8c9 3000 	str.w	r3, [r9]
1000bd66:	f10c 0c01 	add.w	ip, ip, #1
1000bd6a:	e774      	b.n	1000bc56 <skip_to_arg+0x16>
1000bd6c:	b2e3      	uxtb	r3, r4
1000bd6e:	2b73      	cmp	r3, #115	@ 0x73
1000bd70:	d00e      	beq.n	1000bd90 <skip_to_arg+0x150>
1000bd72:	2b64      	cmp	r3, #100	@ 0x64
1000bd74:	bf18      	it	ne
1000bd76:	2b69      	cmpne	r3, #105	@ 0x69
1000bd78:	d108      	bne.n	1000bd8c <skip_to_arg+0x14c>
1000bd7a:	0631      	lsls	r1, r6, #24
1000bd7c:	d508      	bpl.n	1000bd90 <skip_to_arg+0x150>
1000bd7e:	f8d9 3000 	ldr.w	r3, [r9]
1000bd82:	b2b1      	uxth	r1, r6
1000bd84:	0589      	lsls	r1, r1, #22
1000bd86:	d407      	bmi.n	1000bd98 <skip_to_arg+0x158>
1000bd88:	3304      	adds	r3, #4
1000bd8a:	e7ea      	b.n	1000bd62 <skip_to_arg+0x122>
1000bd8c:	2b63      	cmp	r3, #99	@ 0x63
1000bd8e:	d1f4      	bne.n	1000bd7a <skip_to_arg+0x13a>
1000bd90:	f8d9 1000 	ldr.w	r1, [r9]
1000bd94:	1d0b      	adds	r3, r1, #4
1000bd96:	e7e4      	b.n	1000bd62 <skip_to_arg+0x122>
1000bd98:	1dd9      	adds	r1, r3, #7
1000bd9a:	e7de      	b.n	1000bd5a <skip_to_arg+0x11a>
1000bd9c:	e8bd 0700 	ldmia.w	sp!, {r8, r9, sl}
1000bda0:	bdf0      	pop	{r4, r5, r6, r7, pc}
1000bda2:	bf00      	nop
1000bda4:	00012889 	.word	0x00012889

Disassembly of section .text.__ultoa_invert:

1000bda8 <__ultoa_invert>:
1000bda8:	b5f0      	push	{r4, r5, r6, r7, lr}
1000bdaa:	af03      	add	r7, sp, #12
1000bdac:	e92d 0b00 	stmdb	sp!, {r8, r9, fp}
1000bdb0:	f423 7800 	bic.w	r8, r3, #512	@ 0x200
1000bdb4:	4606      	mov	r6, r0
1000bdb6:	4614      	mov	r4, r2
1000bdb8:	460d      	mov	r5, r1
1000bdba:	f04f 0907 	mov.w	r9, #7
1000bdbe:	0598      	lsls	r0, r3, #22
1000bdc0:	bf58      	it	pl
1000bdc2:	f04f 0927 	movpl.w	r9, #39	@ 0x27
1000bdc6:	4630      	mov	r0, r6
1000bdc8:	4629      	mov	r1, r5
1000bdca:	4642      	mov	r2, r8
1000bdcc:	2300      	movs	r3, #0
1000bdce:	f7fd facd 	bl	1000936c <__aeabi_uldivmod>
1000bdd2:	fb00 6218 	mls	r2, r0, r8, r6
1000bdd6:	f002 03fe 	and.w	r3, r2, #254	@ 0xfe
1000bdda:	2b09      	cmp	r3, #9
1000bddc:	bf88      	it	hi
1000bdde:	444a      	addhi	r2, r9
1000bde0:	3230      	adds	r2, #48	@ 0x30
1000bde2:	f804 2b01 	strb.w	r2, [r4], #1
1000bde6:	ebb6 0208 	subs.w	r2, r6, r8
1000bdea:	4606      	mov	r6, r0
1000bdec:	f175 0200 	sbcs.w	r2, r5, #0
1000bdf0:	460d      	mov	r5, r1
1000bdf2:	d2e8      	bcs.n	1000bdc6 <__ultoa_invert+0x1e>
1000bdf4:	4620      	mov	r0, r4
1000bdf6:	e8bd 0b00 	ldmia.w	sp!, {r8, r9, fp}
1000bdfa:	bdf0      	pop	{r4, r5, r6, r7, pc}

Disassembly of section .text.OUTLINED_FUNCTION_0:

1000bdfc <OUTLINED_FUNCTION_0>:
1000bdfc:	4601      	mov	r1, r0
1000bdfe:	f04f 30ff 	mov.w	r0, #4294967295	@ 0xffffffff
1000be02:	2900      	cmp	r1, #0
1000be04:	4770      	bx	lr

1000be06 <OUTLINED_FUNCTION_0>:
1000be06:	4622      	mov	r2, r4
1000be08:	e9cd 1000 	strd	r1, r0, [sp]
1000be0c:	4629      	mov	r1, r5
1000be0e:	9810      	ldr	r0, [sp, #64]	@ 0x40
1000be10:	9002      	str	r0, [sp, #8]
1000be12:	4770      	bx	lr

1000be14 <OUTLINED_FUNCTION_0>:
1000be14:	e9dd 0106 	ldrd	r0, r1, [sp, #24]
1000be18:	3001      	adds	r0, #1
1000be1a:	9006      	str	r0, [sp, #24]
1000be1c:	f141 0000 	adc.w	r0, r1, #0
1000be20:	9007      	str	r0, [sp, #28]
1000be22:	4770      	bx	lr

Disassembly of section .text.strnlen:

1000be24 <strnlen>:
1000be24:	b5d0      	push	{r4, r6, r7, lr}
1000be26:	af02      	add	r7, sp, #8
1000be28:	1842      	adds	r2, r0, r1
1000be2a:	4603      	mov	r3, r0
1000be2c:	b129      	cbz	r1, 1000be3a <strnlen+0x16>
1000be2e:	781c      	ldrb	r4, [r3, #0]
1000be30:	b114      	cbz	r4, 1000be38 <strnlen+0x14>
1000be32:	3901      	subs	r1, #1
1000be34:	3301      	adds	r3, #1
1000be36:	e7f9      	b.n	1000be2c <strnlen+0x8>
1000be38:	461a      	mov	r2, r3
1000be3a:	1a10      	subs	r0, r2, r0
1000be3c:	bdd0      	pop	{r4, r6, r7, pc}

Disassembly of section .text.__dtoa_engine:

1000be3e <__dtoa_engine>:
1000be3e:	b5f0      	push	{r4, r5, r6, r7, lr}
1000be40:	af03      	add	r7, sp, #12
1000be42:	e92d 0f00 	stmdb	sp!, {r8, r9, sl, fp}
1000be46:	b09d      	sub	sp, #116	@ 0x74
1000be48:	ec56 8b10 	vmov	r8, r6, d0
1000be4c:	468b      	mov	fp, r1
1000be4e:	4635      	mov	r5, r6
1000be50:	ea4f 7cd6 	mov.w	ip, r6, lsr #31
1000be54:	f36f 551f 	bfc	r5, #20, #12
1000be58:	f3c6 560a 	ubfx	r6, r6, #20, #11
1000be5c:	ea58 0105 	orrs.w	r1, r8, r5
1000be60:	bf08      	it	eq
1000be62:	2e00      	cmpeq	r6, #0
1000be64:	d00c      	beq.n	1000be80 <__dtoa_engine+0x42>
1000be66:	f240 74ff 	movw	r4, #2047	@ 0x7ff
1000be6a:	42a6      	cmp	r6, r4
1000be6c:	d113      	bne.n	1000be96 <__dtoa_engine+0x58>
1000be6e:	2208      	movs	r2, #8
1000be70:	f04f 0b00 	mov.w	fp, #0
1000be74:	2900      	cmp	r1, #0
1000be76:	bf08      	it	eq
1000be78:	2204      	moveq	r2, #4
1000be7a:	eb02 010c 	add.w	r1, r2, ip
1000be7e:	e008      	b.n	1000be92 <__dtoa_engine+0x54>
1000be80:	2200      	movs	r2, #0
1000be82:	2130      	movs	r1, #48	@ 0x30
1000be84:	7141      	strb	r1, [r0, #5]
1000be86:	f10c 0102 	add.w	r1, ip, #2
1000be8a:	7182      	strb	r2, [r0, #6]
1000be8c:	f04f 0b01 	mov.w	fp, #1
1000be90:	6002      	str	r2, [r0, #0]
1000be92:	7101      	strb	r1, [r0, #4]
1000be94:	e1ff      	b.n	1000c296 <__dtoa_engine+0x458>
1000be96:	2400      	movs	r4, #0
1000be98:	f2a6 4935 	subw	r9, r6, #1077	@ 0x435
1000be9c:	2e02      	cmp	r6, #2
1000be9e:	bf38      	it	cc
1000bea0:	2401      	movcc	r4, #1
1000bea2:	2900      	cmp	r1, #0
1000bea4:	bf18      	it	ne
1000bea6:	2101      	movne	r1, #1
1000bea8:	4321      	orrs	r1, r4
1000beaa:	9110      	str	r1, [sp, #64]	@ 0x40
1000beac:	2e00      	cmp	r6, #0
1000beae:	bf18      	it	ne
1000beb0:	f505 1580 	addne.w	r5, r5, #1048576	@ 0x100000
1000beb4:	ea4f 0185 	mov.w	r1, r5, lsl #2
1000beb8:	bf04      	itt	eq
1000beba:	f64f 39cc 	movweq	r9, #64460	@ 0xfbcc
1000bebe:	f6cf 79ff 	movteq	r9, #65535	@ 0xffff
1000bec2:	ea41 7498 	orr.w	r4, r1, r8, lsr #30
1000bec6:	ea4f 0188 	mov.w	r1, r8, lsl #2
1000beca:	f1b9 0f00 	cmp.w	r9, #0
1000bece:	9112      	str	r1, [sp, #72]	@ 0x48
1000bed0:	f008 0101 	and.w	r1, r8, #1
1000bed4:	9104      	str	r1, [sp, #16]
1000bed6:	e9cd c008 	strd	ip, r0, [sp, #32]
1000beda:	e9cd b305 	strd	fp, r3, [sp, #20]
1000bede:	920a      	str	r2, [sp, #40]	@ 0x28
1000bee0:	9413      	str	r4, [sp, #76]	@ 0x4c
1000bee2:	d43c      	bmi.n	1000bf5e <__dtoa_engine+0x120>
1000bee4:	4648      	mov	r0, r9
1000bee6:	f000 fc11 	bl	1000c70c <__log10Pow2>
1000beea:	4606      	mov	r6, r0
1000beec:	f1b9 0f03 	cmp.w	r9, #3
1000bef0:	bf88      	it	hi
1000bef2:	3e01      	subhi	r6, #1
1000bef4:	4630      	mov	r0, r6
1000bef6:	f000 fc15 	bl	1000c724 <__pow5bits>
1000befa:	ac14      	add	r4, sp, #80	@ 0x50
1000befc:	4682      	mov	sl, r0
1000befe:	4630      	mov	r0, r6
1000bf00:	4621      	mov	r1, r4
1000bf02:	f000 fb79 	bl	1000c5f8 <__double_computeInvPow5>
1000bf06:	a818      	add	r0, sp, #96	@ 0x60
1000bf08:	a91a      	add	r1, sp, #104	@ 0x68
1000bf0a:	f7ff ff7c 	bl	1000be06 <OUTLINED_FUNCTION_0>
1000bf0e:	eba6 0009 	sub.w	r0, r6, r9
1000bf12:	4450      	add	r0, sl
1000bf14:	46b1      	mov	r9, r6
1000bf16:	f100 037c 	add.w	r3, r0, #124	@ 0x7c
1000bf1a:	4640      	mov	r0, r8
1000bf1c:	f000 f9dc 	bl	1000c2d8 <mulShiftAll64>
1000bf20:	4682      	mov	sl, r0
1000bf22:	2e15      	cmp	r6, #21
1000bf24:	9111      	str	r1, [sp, #68]	@ 0x44
1000bf26:	d851      	bhi.n	1000bfcc <__dtoa_engine+0x18e>
1000bf28:	9e12      	ldr	r6, [sp, #72]	@ 0x48
1000bf2a:	9c13      	ldr	r4, [sp, #76]	@ 0x4c
1000bf2c:	f8dd 8040 	ldr.w	r8, [sp, #64]	@ 0x40
1000bf30:	4630      	mov	r0, r6
1000bf32:	4621      	mov	r1, r4
1000bf34:	f000 f9c0 	bl	1000c2b8 <umulh>
1000bf38:	0882      	lsrs	r2, r0, #2
1000bf3a:	ea42 7181 	orr.w	r1, r2, r1, lsl #30
1000bf3e:	f020 0003 	bic.w	r0, r0, #3
1000bf42:	4408      	add	r0, r1
1000bf44:	4240      	negs	r0, r0
1000bf46:	42f0      	cmn	r0, r6
1000bf48:	d15c      	bne.n	1000c004 <__dtoa_engine+0x1c6>
1000bf4a:	4630      	mov	r0, r6
1000bf4c:	4621      	mov	r1, r4
1000bf4e:	f000 fac9 	bl	1000c4e4 <__pow5Factor>
1000bf52:	2100      	movs	r1, #0
1000bf54:	9110      	str	r1, [sp, #64]	@ 0x40
1000bf56:	4548      	cmp	r0, r9
1000bf58:	bf28      	it	cs
1000bf5a:	2101      	movcs	r1, #1
1000bf5c:	e039      	b.n	1000bfd2 <__dtoa_engine+0x194>
1000bf5e:	f1c9 0b00 	rsb	fp, r9, #0
1000bf62:	4658      	mov	r0, fp
1000bf64:	f000 fbd8 	bl	1000c718 <__log10Pow5>
1000bf68:	4682      	mov	sl, r0
1000bf6a:	f119 0001 	adds.w	r0, r9, #1
1000bf6e:	bf18      	it	ne
1000bf70:	f1aa 0a01 	subne.w	sl, sl, #1
1000bf74:	ebab 0b0a 	sub.w	fp, fp, sl
1000bf78:	4658      	mov	r0, fp
1000bf7a:	f000 fbd3 	bl	1000c724 <__pow5bits>
1000bf7e:	ac14      	add	r4, sp, #80	@ 0x50
1000bf80:	4606      	mov	r6, r0
1000bf82:	4658      	mov	r0, fp
1000bf84:	4621      	mov	r1, r4
1000bf86:	f000 facb 	bl	1000c520 <__double_computePow5>
1000bf8a:	a818      	add	r0, sp, #96	@ 0x60
1000bf8c:	a91a      	add	r1, sp, #104	@ 0x68
1000bf8e:	f7ff ff3a 	bl	1000be06 <OUTLINED_FUNCTION_0>
1000bf92:	ebaa 0006 	sub.w	r0, sl, r6
1000bf96:	f100 037d 	add.w	r3, r0, #125	@ 0x7d
1000bf9a:	4640      	mov	r0, r8
1000bf9c:	f000 f99c 	bl	1000c2d8 <mulShiftAll64>
1000bfa0:	44d1      	add	r9, sl
1000bfa2:	4606      	mov	r6, r0
1000bfa4:	f1ba 0f01 	cmp.w	sl, #1
1000bfa8:	9111      	str	r1, [sp, #68]	@ 0x44
1000bfaa:	d814      	bhi.n	1000bfd6 <__dtoa_engine+0x198>
1000bfac:	9804      	ldr	r0, [sp, #16]
1000bfae:	f8dd b014 	ldr.w	fp, [sp, #20]
1000bfb2:	9d0a      	ldr	r5, [sp, #40]	@ 0x28
1000bfb4:	b140      	cbz	r0, 1000bfc8 <__dtoa_engine+0x18a>
1000bfb6:	e9dd 011a 	ldrd	r0, r1, [sp, #104]	@ 0x68
1000bfba:	3801      	subs	r0, #1
1000bfbc:	901a      	str	r0, [sp, #104]	@ 0x68
1000bfbe:	f161 0000 	sbc.w	r0, r1, #0
1000bfc2:	901b      	str	r0, [sp, #108]	@ 0x6c
1000bfc4:	2000      	movs	r0, #0
1000bfc6:	9010      	str	r0, [sp, #64]	@ 0x40
1000bfc8:	2101      	movs	r1, #1
1000bfca:	e030      	b.n	1000c02e <__dtoa_engine+0x1f0>
1000bfcc:	2000      	movs	r0, #0
1000bfce:	2100      	movs	r1, #0
1000bfd0:	9010      	str	r0, [sp, #64]	@ 0x40
1000bfd2:	9d0a      	ldr	r5, [sp, #40]	@ 0x28
1000bfd4:	e041      	b.n	1000c05a <__dtoa_engine+0x21c>
1000bfd6:	f8dd b014 	ldr.w	fp, [sp, #20]
1000bfda:	f1ba 0f3e 	cmp.w	sl, #62	@ 0x3e
1000bfde:	d822      	bhi.n	1000c026 <__dtoa_engine+0x1e8>
1000bfe0:	f04f 30ff 	mov.w	r0, #4294967295	@ 0xffffffff
1000bfe4:	f04f 31ff 	mov.w	r1, #4294967295	@ 0xffffffff
1000bfe8:	4652      	mov	r2, sl
1000bfea:	f000 fbea 	bl	1000c7c2 <__aeabi_llsl>
1000bfee:	9a13      	ldr	r2, [sp, #76]	@ 0x4c
1000bff0:	ea22 0101 	bic.w	r1, r2, r1
1000bff4:	9a12      	ldr	r2, [sp, #72]	@ 0x48
1000bff6:	ea22 0000 	bic.w	r0, r2, r0
1000bffa:	4308      	orrs	r0, r1
1000bffc:	fab0 f080 	clz	r0, r0
1000c000:	0941      	lsrs	r1, r0, #5
1000c002:	e011      	b.n	1000c028 <__dtoa_engine+0x1ea>
1000c004:	9804      	ldr	r0, [sp, #16]
1000c006:	9d0a      	ldr	r5, [sp, #40]	@ 0x28
1000c008:	b998      	cbnz	r0, 1000c032 <__dtoa_engine+0x1f4>
1000c00a:	ea6f 0008 	mvn.w	r0, r8
1000c00e:	1980      	adds	r0, r0, r6
1000c010:	f164 0100 	sbc.w	r1, r4, #0
1000c014:	f000 fa66 	bl	1000c4e4 <__pow5Factor>
1000c018:	2100      	movs	r1, #0
1000c01a:	4548      	cmp	r0, r9
1000c01c:	f04f 0000 	mov.w	r0, #0
1000c020:	bf28      	it	cs
1000c022:	2001      	movcs	r0, #1
1000c024:	e018      	b.n	1000c058 <__dtoa_engine+0x21a>
1000c026:	2100      	movs	r1, #0
1000c028:	9d0a      	ldr	r5, [sp, #40]	@ 0x28
1000c02a:	2000      	movs	r0, #0
1000c02c:	9010      	str	r0, [sp, #64]	@ 0x40
1000c02e:	46b2      	mov	sl, r6
1000c030:	e013      	b.n	1000c05a <__dtoa_engine+0x21c>
1000c032:	f046 0002 	orr.w	r0, r6, #2
1000c036:	4621      	mov	r1, r4
1000c038:	f000 fa54 	bl	1000c4e4 <__pow5Factor>
1000c03c:	e9dd 1c1a 	ldrd	r1, ip, [sp, #104]	@ 0x68
1000c040:	1e4b      	subs	r3, r1, #1
1000c042:	f16c 0200 	sbc.w	r2, ip, #0
1000c046:	4548      	cmp	r0, r9
1000c048:	bf38      	it	cc
1000c04a:	460b      	movcc	r3, r1
1000c04c:	931a      	str	r3, [sp, #104]	@ 0x68
1000c04e:	bf38      	it	cc
1000c050:	4662      	movcc	r2, ip
1000c052:	2100      	movs	r1, #0
1000c054:	2000      	movs	r0, #0
1000c056:	921b      	str	r2, [sp, #108]	@ 0x6c
1000c058:	9010      	str	r0, [sp, #64]	@ 0x40
1000c05a:	4658      	mov	r0, fp
1000c05c:	910f      	str	r1, [sp, #60]	@ 0x3c
1000c05e:	b165      	cbz	r5, 1000c07a <__dtoa_engine+0x23c>
1000c060:	9911      	ldr	r1, [sp, #68]	@ 0x44
1000c062:	4650      	mov	r0, sl
1000c064:	f000 fa26 	bl	1000c4b4 <decimalLength17>
1000c068:	9906      	ldr	r1, [sp, #24]
1000c06a:	4449      	add	r1, r9
1000c06c:	4408      	add	r0, r1
1000c06e:	2801      	cmp	r0, #1
1000c070:	bfd8      	it	le
1000c072:	2001      	movle	r0, #1
1000c074:	4583      	cmp	fp, r0
1000c076:	bfb8      	it	lt
1000c078:	4658      	movlt	r0, fp
1000c07a:	f8cd 901c 	str.w	r9, [sp, #28]
1000c07e:	2500      	movs	r5, #0
1000c080:	e9dd 6918 	ldrd	r6, r9, [sp, #96]	@ 0x60
1000c084:	e9dd 411a 	ldrd	r4, r1, [sp, #104]	@ 0x68
1000c088:	900b      	str	r0, [sp, #44]	@ 0x2c
1000c08a:	2000      	movs	r0, #0
1000c08c:	e9cd 0012 	strd	r0, r0, [sp, #72]	@ 0x48
1000c090:	4620      	mov	r0, r4
1000c092:	940e      	str	r4, [sp, #56]	@ 0x38
1000c094:	910d      	str	r1, [sp, #52]	@ 0x34
1000c096:	f000 f905 	bl	1000c2a4 <div10>
1000c09a:	4604      	mov	r4, r0
1000c09c:	468b      	mov	fp, r1
1000c09e:	4630      	mov	r0, r6
1000c0a0:	4649      	mov	r1, r9
1000c0a2:	f8cd 9030 	str.w	r9, [sp, #48]	@ 0x30
1000c0a6:	f000 f8fd 	bl	1000c2a4 <div10>
1000c0aa:	4680      	mov	r8, r0
1000c0ac:	1b00      	subs	r0, r0, r4
1000c0ae:	4689      	mov	r9, r1
1000c0b0:	eb71 000b 	sbcs.w	r0, r1, fp
1000c0b4:	d30d      	bcc.n	1000c0d2 <__dtoa_engine+0x294>
1000c0b6:	9911      	ldr	r1, [sp, #68]	@ 0x44
1000c0b8:	4650      	mov	r0, sl
1000c0ba:	f000 f9fb 	bl	1000c4b4 <decimalLength17>
1000c0be:	990b      	ldr	r1, [sp, #44]	@ 0x2c
1000c0c0:	4288      	cmp	r0, r1
1000c0c2:	dd29      	ble.n	1000c118 <__dtoa_engine+0x2da>
1000c0c4:	462a      	mov	r2, r5
1000c0c6:	2501      	movs	r5, #1
1000c0c8:	b919      	cbnz	r1, 1000c0d2 <__dtoa_engine+0x294>
1000c0ca:	9811      	ldr	r0, [sp, #68]	@ 0x44
1000c0cc:	ea50 000a 	orrs.w	r0, r0, sl
1000c0d0:	d025      	beq.n	1000c11e <__dtoa_engine+0x2e0>
1000c0d2:	9911      	ldr	r1, [sp, #68]	@ 0x44
1000c0d4:	4650      	mov	r0, sl
1000c0d6:	f000 f8e5 	bl	1000c2a4 <div10>
1000c0da:	9111      	str	r1, [sp, #68]	@ 0x44
1000c0dc:	9912      	ldr	r1, [sp, #72]	@ 0x48
1000c0de:	9a0f      	ldr	r2, [sp, #60]	@ 0x3c
1000c0e0:	b2c9      	uxtb	r1, r1
1000c0e2:	fab1 f181 	clz	r1, r1
1000c0e6:	0949      	lsrs	r1, r1, #5
1000c0e8:	400a      	ands	r2, r1
1000c0ea:	eb00 0180 	add.w	r1, r0, r0, lsl #2
1000c0ee:	920f      	str	r2, [sp, #60]	@ 0x3c
1000c0f0:	ebaa 0141 	sub.w	r1, sl, r1, lsl #1
1000c0f4:	9112      	str	r1, [sp, #72]	@ 0x48
1000c0f6:	eb08 0188 	add.w	r1, r8, r8, lsl #2
1000c0fa:	9a10      	ldr	r2, [sp, #64]	@ 0x40
1000c0fc:	ebc6 0141 	rsb	r1, r6, r1, lsl #1
1000c100:	4646      	mov	r6, r8
1000c102:	fab1 f181 	clz	r1, r1
1000c106:	4682      	mov	sl, r0
1000c108:	0949      	lsrs	r1, r1, #5
1000c10a:	400a      	ands	r2, r1
1000c10c:	9913      	ldr	r1, [sp, #76]	@ 0x4c
1000c10e:	9210      	str	r2, [sp, #64]	@ 0x40
1000c110:	3101      	adds	r1, #1
1000c112:	9113      	str	r1, [sp, #76]	@ 0x4c
1000c114:	4659      	mov	r1, fp
1000c116:	e7bb      	b.n	1000c090 <__dtoa_engine+0x252>
1000c118:	f8dd b044 	ldr.w	fp, [sp, #68]	@ 0x44
1000c11c:	e004      	b.n	1000c128 <__dtoa_engine+0x2ea>
1000c11e:	f04f 0a00 	mov.w	sl, #0
1000c122:	f04f 0b00 	mov.w	fp, #0
1000c126:	4615      	mov	r5, r2
1000c128:	9c10      	ldr	r4, [sp, #64]	@ 0x40
1000c12a:	f8dd 903c 	ldr.w	r9, [sp, #60]	@ 0x3c
1000c12e:	07e0      	lsls	r0, r4, #31
1000c130:	d034      	beq.n	1000c19c <__dtoa_engine+0x35e>
1000c132:	f8dd 8030 	ldr.w	r8, [sp, #48]	@ 0x30
1000c136:	e9cd 4510 	strd	r4, r5, [sp, #64]	@ 0x40
1000c13a:	4630      	mov	r0, r6
1000c13c:	4641      	mov	r1, r8
1000c13e:	f000 f8b1 	bl	1000c2a4 <div10>
1000c142:	4604      	mov	r4, r0
1000c144:	eb00 0080 	add.w	r0, r0, r0, lsl #2
1000c148:	4240      	negs	r0, r0
1000c14a:	460d      	mov	r5, r1
1000c14c:	4271      	negs	r1, r6
1000c14e:	ebb1 0f40 	cmp.w	r1, r0, lsl #1
1000c152:	d11d      	bne.n	1000c190 <__dtoa_engine+0x352>
1000c154:	e9dd 100d 	ldrd	r1, r0, [sp, #52]	@ 0x34
1000c158:	f000 f8a4 	bl	1000c2a4 <div10>
1000c15c:	e9cd 100d 	strd	r1, r0, [sp, #52]	@ 0x34
1000c160:	4650      	mov	r0, sl
1000c162:	4659      	mov	r1, fp
1000c164:	f000 f89e 	bl	1000c2a4 <div10>
1000c168:	468b      	mov	fp, r1
1000c16a:	9912      	ldr	r1, [sp, #72]	@ 0x48
1000c16c:	4626      	mov	r6, r4
1000c16e:	46a8      	mov	r8, r5
1000c170:	b2c9      	uxtb	r1, r1
1000c172:	fab1 f181 	clz	r1, r1
1000c176:	0949      	lsrs	r1, r1, #5
1000c178:	ea09 0901 	and.w	r9, r9, r1
1000c17c:	eb00 0180 	add.w	r1, r0, r0, lsl #2
1000c180:	ebaa 0141 	sub.w	r1, sl, r1, lsl #1
1000c184:	9112      	str	r1, [sp, #72]	@ 0x48
1000c186:	9913      	ldr	r1, [sp, #76]	@ 0x4c
1000c188:	4682      	mov	sl, r0
1000c18a:	3101      	adds	r1, #1
1000c18c:	9113      	str	r1, [sp, #76]	@ 0x4c
1000c18e:	e7d4      	b.n	1000c13a <__dtoa_engine+0x2fc>
1000c190:	e9dd 4510 	ldrd	r4, r5, [sp, #64]	@ 0x40
1000c194:	f8cd 8030 	str.w	r8, [sp, #48]	@ 0x30
1000c198:	f8cd 903c 	str.w	r9, [sp, #60]	@ 0x3c
1000c19c:	9807      	ldr	r0, [sp, #28]
1000c19e:	9913      	ldr	r1, [sp, #76]	@ 0x4c
1000c1a0:	eb01 0900 	add.w	r9, r1, r0
1000c1a4:	9812      	ldr	r0, [sp, #72]	@ 0x48
1000c1a6:	b2c0      	uxtb	r0, r0
1000c1a8:	1f41      	subs	r1, r0, #5
1000c1aa:	bf18      	it	ne
1000c1ac:	2101      	movne	r1, #1
1000c1ae:	07ea      	lsls	r2, r5, #31
1000c1b0:	d10c      	bne.n	1000c1cc <__dtoa_engine+0x38e>
1000c1b2:	9b0c      	ldr	r3, [sp, #48]	@ 0x30
1000c1b4:	ea8a 0206 	eor.w	r2, sl, r6
1000c1b8:	ea83 030b 	eor.w	r3, r3, fp
1000c1bc:	431a      	orrs	r2, r3
1000c1be:	d105      	bne.n	1000c1cc <__dtoa_engine+0x38e>
1000c1c0:	9a04      	ldr	r2, [sp, #16]
1000c1c2:	f082 0201 	eor.w	r2, r2, #1
1000c1c6:	4022      	ands	r2, r4
1000c1c8:	2a01      	cmp	r2, #1
1000c1ca:	d169      	bne.n	1000c2a0 <__dtoa_engine+0x462>
1000c1cc:	9a0f      	ldr	r2, [sp, #60]	@ 0x3c
1000c1ce:	f082 0201 	eor.w	r2, r2, #1
1000c1d2:	4311      	orrs	r1, r2
1000c1d4:	2200      	movs	r2, #0
1000c1d6:	ea41 010a 	orr.w	r1, r1, sl
1000c1da:	2804      	cmp	r0, #4
1000c1dc:	bf88      	it	hi
1000c1de:	2201      	movhi	r2, #1
1000c1e0:	ea01 0402 	and.w	r4, r1, r2
1000c1e4:	eb1a 0604 	adds.w	r6, sl, r4
1000c1e8:	f14b 0a00 	adc.w	sl, fp, #0
1000c1ec:	4630      	mov	r0, r6
1000c1ee:	4651      	mov	r1, sl
1000c1f0:	f000 f960 	bl	1000c4b4 <decimalLength17>
1000c1f4:	4680      	mov	r8, r0
1000c1f6:	b1fc      	cbz	r4, 1000c238 <__dtoa_engine+0x3fa>
1000c1f8:	990b      	ldr	r1, [sp, #44]	@ 0x2c
1000c1fa:	4588      	cmp	r8, r1
1000c1fc:	dd1d      	ble.n	1000c23a <__dtoa_engine+0x3fc>
1000c1fe:	980a      	ldr	r0, [sp, #40]	@ 0x28
1000c200:	b140      	cbz	r0, 1000c214 <__dtoa_engine+0x3d6>
1000c202:	9806      	ldr	r0, [sp, #24]
1000c204:	4448      	add	r0, r9
1000c206:	4440      	add	r0, r8
1000c208:	ea20 71e0 	bic.w	r1, r0, r0, asr #31
1000c20c:	9805      	ldr	r0, [sp, #20]
1000c20e:	4288      	cmp	r0, r1
1000c210:	bfb8      	it	lt
1000c212:	4601      	movlt	r1, r0
1000c214:	4588      	cmp	r8, r1
1000c216:	dd10      	ble.n	1000c23a <__dtoa_engine+0x3fc>
1000c218:	1d70      	adds	r0, r6, #5
1000c21a:	460c      	mov	r4, r1
1000c21c:	f14a 0100 	adc.w	r1, sl, #0
1000c220:	220a      	movs	r2, #10
1000c222:	2300      	movs	r3, #0
1000c224:	f7fd f8a2 	bl	1000936c <__aeabi_uldivmod>
1000c228:	f1a8 0801 	sub.w	r8, r8, #1
1000c22c:	f109 0901 	add.w	r9, r9, #1
1000c230:	468a      	mov	sl, r1
1000c232:	4606      	mov	r6, r0
1000c234:	4621      	mov	r1, r4
1000c236:	e000      	b.n	1000c23a <__dtoa_engine+0x3fc>
1000c238:	990b      	ldr	r1, [sp, #44]	@ 0x2c
1000c23a:	4588      	cmp	r8, r1
1000c23c:	bfb8      	it	lt
1000c23e:	4641      	movlt	r1, r8
1000c240:	fa0f f089 	sxth.w	r0, r9
1000c244:	f8dd 9024 	ldr.w	r9, [sp, #36]	@ 0x24
1000c248:	fa0f fb81 	sxth.w	fp, r1
1000c24c:	f10b 0504 	add.w	r5, fp, #4
1000c250:	f1a0 0801 	sub.w	r8, r0, #1
1000c254:	2400      	movs	r4, #0
1000c256:	455c      	cmp	r4, fp
1000c258:	da12      	bge.n	1000c280 <__dtoa_engine+0x442>
1000c25a:	4630      	mov	r0, r6
1000c25c:	4651      	mov	r1, sl
1000c25e:	220a      	movs	r2, #10
1000c260:	2300      	movs	r3, #0
1000c262:	f7fd f883 	bl	1000936c <__aeabi_uldivmod>
1000c266:	468a      	mov	sl, r1
1000c268:	eb00 0180 	add.w	r1, r0, r0, lsl #2
1000c26c:	3401      	adds	r4, #1
1000c26e:	eba6 0141 	sub.w	r1, r6, r1, lsl #1
1000c272:	4606      	mov	r6, r0
1000c274:	f041 0130 	orr.w	r1, r1, #48	@ 0x30
1000c278:	f809 1005 	strb.w	r1, [r9, r5]
1000c27c:	3d01      	subs	r5, #1
1000c27e:	e7ea      	b.n	1000c256 <__dtoa_engine+0x418>
1000c280:	eb09 000b 	add.w	r0, r9, fp
1000c284:	2100      	movs	r1, #0
1000c286:	7141      	strb	r1, [r0, #5]
1000c288:	9808      	ldr	r0, [sp, #32]
1000c28a:	f889 0004 	strb.w	r0, [r9, #4]
1000c28e:	eb08 000b 	add.w	r0, r8, fp
1000c292:	f8c9 0000 	str.w	r0, [r9]
1000c296:	4658      	mov	r0, fp
1000c298:	b01d      	add	sp, #116	@ 0x74
1000c29a:	e8bd 0f00 	ldmia.w	sp!, {r8, r9, sl, fp}
1000c29e:	bdf0      	pop	{r4, r5, r6, r7, pc}
1000c2a0:	2401      	movs	r4, #1
1000c2a2:	e79f      	b.n	1000c1e4 <__dtoa_engine+0x3a6>

Disassembly of section .text.div10:

1000c2a4 <div10>:
1000c2a4:	b580      	push	{r7, lr}
1000c2a6:	466f      	mov	r7, sp
1000c2a8:	f000 f806 	bl	1000c2b8 <umulh>
1000c2ac:	08c0      	lsrs	r0, r0, #3
1000c2ae:	ea40 7041 	orr.w	r0, r0, r1, lsl #29
1000c2b2:	08c9      	lsrs	r1, r1, #3
1000c2b4:	bd80      	pop	{r7, pc}

Disassembly of section .text.umulh:

1000c2b8 <umulh>:
1000c2b8:	b5f8      	push	{r3, r4, r5, r6, r7, lr}
1000c2ba:	af04      	add	r7, sp, #16
1000c2bc:	aa02      	add	r2, sp, #8
1000c2be:	9200      	str	r2, [sp, #0]
1000c2c0:	4a04      	ldr	r2, [pc, #16]	@ (1000c2d4 <umulh+0x1c>)
1000c2c2:	f04f 33cc 	mov.w	r3, #3435973836	@ 0xcccccccc
1000c2c6:	f000 fa35 	bl	1000c734 <__umul128>
1000c2ca:	e9dd 0102 	ldrd	r0, r1, [sp, #8]
1000c2ce:	b004      	add	sp, #16
1000c2d0:	bd80      	pop	{r7, pc}
1000c2d2:	bf00      	nop
1000c2d4:	cccccccd 	.word	0xcccccccd

Disassembly of section .text.mulShiftAll64:

1000c2d8 <mulShiftAll64>:
1000c2d8:	b5f0      	push	{r4, r5, r6, r7, lr}
1000c2da:	af03      	add	r7, sp, #12
1000c2dc:	e92d 0f00 	stmdb	sp!, {r8, r9, sl, fp}
1000c2e0:	b08b      	sub	sp, #44	@ 0x2c
1000c2e2:	461e      	mov	r6, r3
1000c2e4:	4692      	mov	sl, r2
1000c2e6:	e9d2 2300 	ldrd	r2, r3, [r2]
1000c2ea:	ac08      	add	r4, sp, #32
1000c2ec:	9400      	str	r4, [sp, #0]
1000c2ee:	0049      	lsls	r1, r1, #1
1000c2f0:	ea41 74d0 	orr.w	r4, r1, r0, lsr #31
1000c2f4:	0045      	lsls	r5, r0, #1
1000c2f6:	4628      	mov	r0, r5
1000c2f8:	4621      	mov	r1, r4
1000c2fa:	f000 fa1b 	bl	1000c734 <__umul128>
1000c2fe:	e9da 2302 	ldrd	r2, r3, [sl, #8]
1000c302:	468b      	mov	fp, r1
1000c304:	9005      	str	r0, [sp, #20]
1000c306:	4621      	mov	r1, r4
1000c308:	e9dd 8908 	ldrd	r8, r9, [sp, #32]
1000c30c:	a806      	add	r0, sp, #24
1000c30e:	9000      	str	r0, [sp, #0]
1000c310:	4628      	mov	r0, r5
1000c312:	f000 fa0f 	bl	1000c734 <__umul128>
1000c316:	eb18 0800 	adds.w	r8, r8, r0
1000c31a:	eb49 0901 	adc.w	r9, r9, r1
1000c31e:	e9dd 0108 	ldrd	r0, r1, [sp, #32]
1000c322:	ebb8 0000 	subs.w	r0, r8, r0
1000c326:	eb79 0001 	sbcs.w	r0, r9, r1
1000c32a:	f04f 0000 	mov.w	r0, #0
1000c32e:	bf38      	it	cc
1000c330:	2001      	movcc	r0, #1
1000c332:	e9dd 1206 	ldrd	r1, r2, [sp, #24]
1000c336:	1c4d      	adds	r5, r1, #1
1000c338:	f142 0400 	adc.w	r4, r2, #0
1000c33c:	2800      	cmp	r0, #0
1000c33e:	bf08      	it	eq
1000c340:	4614      	moveq	r4, r2
1000c342:	9407      	str	r4, [sp, #28]
1000c344:	bf08      	it	eq
1000c346:	460d      	moveq	r5, r1
1000c348:	9602      	str	r6, [sp, #8]
1000c34a:	3e41      	subs	r6, #65	@ 0x41
1000c34c:	e89a 000f 	ldmia.w	sl, {r0, r1, r2, r3}
1000c350:	eb12 0208 	adds.w	r2, r2, r8
1000c354:	9604      	str	r6, [sp, #16]
1000c356:	eb43 0309 	adc.w	r3, r3, r9
1000c35a:	9600      	str	r6, [sp, #0]
1000c35c:	9e05      	ldr	r6, [sp, #20]
1000c35e:	9506      	str	r5, [sp, #24]
1000c360:	1980      	adds	r0, r0, r6
1000c362:	f04f 0600 	mov.w	r6, #0
1000c366:	eb5b 0001 	adcs.w	r0, fp, r1
1000c36a:	f8cd b00c 	str.w	fp, [sp, #12]
1000c36e:	f152 0000 	adcs.w	r0, r2, #0
1000c372:	f143 0100 	adc.w	r1, r3, #0
1000c376:	ebb0 0208 	subs.w	r2, r0, r8
1000c37a:	eb71 0209 	sbcs.w	r2, r1, r9
1000c37e:	bf38      	it	cc
1000c380:	2601      	movcc	r6, #1
1000c382:	1c6a      	adds	r2, r5, #1
1000c384:	f144 0300 	adc.w	r3, r4, #0
1000c388:	2e00      	cmp	r6, #0
1000c38a:	bf04      	itt	eq
1000c38c:	4623      	moveq	r3, r4
1000c38e:	462a      	moveq	r2, r5
1000c390:	f000 f9f1 	bl	1000c776 <__shiftright128>
1000c394:	68ba      	ldr	r2, [r7, #8]
1000c396:	e9c2 0100 	strd	r0, r1, [r2]
1000c39a:	6938      	ldr	r0, [r7, #16]
1000c39c:	2801      	cmp	r0, #1
1000c39e:	d131      	bne.n	1000c404 <mulShiftAll64+0x12c>
1000c3a0:	e9da 0102 	ldrd	r0, r1, [sl, #8]
1000c3a4:	e9da ce00 	ldrd	ip, lr, [sl]
1000c3a8:	ebb8 0600 	subs.w	r6, r8, r0
1000c3ac:	9b05      	ldr	r3, [sp, #20]
1000c3ae:	eb69 0201 	sbc.w	r2, r9, r1
1000c3b2:	1e70      	subs	r0, r6, #1
1000c3b4:	f162 0100 	sbc.w	r1, r2, #0
1000c3b8:	ebb3 030c 	subs.w	r3, r3, ip
1000c3bc:	9b03      	ldr	r3, [sp, #12]
1000c3be:	f8dd a010 	ldr.w	sl, [sp, #16]
1000c3c2:	eb73 030e 	sbcs.w	r3, r3, lr
1000c3c6:	e9dd 5406 	ldrd	r5, r4, [sp, #24]
1000c3ca:	f04f 0300 	mov.w	r3, #0
1000c3ce:	f8cd a000 	str.w	sl, [sp]
1000c3d2:	bf38      	it	cc
1000c3d4:	2301      	movcc	r3, #1
1000c3d6:	2b00      	cmp	r3, #0
1000c3d8:	bf04      	itt	eq
1000c3da:	4630      	moveq	r0, r6
1000c3dc:	4611      	moveq	r1, r2
1000c3de:	ebb8 0200 	subs.w	r2, r8, r0
1000c3e2:	eb79 0201 	sbcs.w	r2, r9, r1
1000c3e6:	f04f 0600 	mov.w	r6, #0
1000c3ea:	bf38      	it	cc
1000c3ec:	2601      	movcc	r6, #1
1000c3ee:	1e6a      	subs	r2, r5, #1
1000c3f0:	f164 0300 	sbc.w	r3, r4, #0
1000c3f4:	2e00      	cmp	r6, #0
1000c3f6:	bf04      	itt	eq
1000c3f8:	462a      	moveq	r2, r5
1000c3fa:	4623      	moveq	r3, r4
1000c3fc:	f000 f9bb 	bl	1000c776 <__shiftright128>
1000c400:	4654      	mov	r4, sl
1000c402:	e049      	b.n	1000c498 <mulShiftAll64+0x1c0>
1000c404:	9b02      	ldr	r3, [sp, #8]
1000c406:	e89a 4003 	ldmia.w	sl, {r0, r1, lr}
1000c40a:	f1a3 0640 	sub.w	r6, r3, #64	@ 0x40
1000c40e:	9c03      	ldr	r4, [sp, #12]
1000c410:	9b05      	ldr	r3, [sp, #20]
1000c412:	f8da a00c 	ldr.w	sl, [sl, #12]
1000c416:	9600      	str	r6, [sp, #0]
1000c418:	0066      	lsls	r6, r4, #1
1000c41a:	ea46 76d3 	orr.w	r6, r6, r3, lsr #31
1000c41e:	ebd0 0043 	rsbs	r0, r0, r3, lsl #1
1000c422:	eb76 0001 	sbcs.w	r0, r6, r1
1000c426:	f04f 0600 	mov.w	r6, #0
1000c42a:	ea4f 0049 	mov.w	r0, r9, lsl #1
1000c42e:	ea40 73d8 	orr.w	r3, r0, r8, lsr #31
1000c432:	ea4f 0048 	mov.w	r0, r8, lsl #1
1000c436:	ea40 74d4 	orr.w	r4, r0, r4, lsr #31
1000c43a:	e9dd 2c06 	ldrd	r2, ip, [sp, #24]
1000c43e:	bf38      	it	cc
1000c440:	2601      	movcc	r6, #1
1000c442:	ebb4 0e0e 	subs.w	lr, r4, lr
1000c446:	eb63 050a 	sbc.w	r5, r3, sl
1000c44a:	f1be 0001 	subs.w	r0, lr, #1
1000c44e:	f165 0100 	sbc.w	r1, r5, #0
1000c452:	2e00      	cmp	r6, #0
1000c454:	bf04      	itt	eq
1000c456:	4629      	moveq	r1, r5
1000c458:	4670      	moveq	r0, lr
1000c45a:	1a25      	subs	r5, r4, r0
1000c45c:	eb73 0501 	sbcs.w	r5, r3, r1
1000c460:	f04f 0500 	mov.w	r5, #0
1000c464:	bf38      	it	cc
1000c466:	2501      	movcc	r5, #1
1000c468:	ebb4 0408 	subs.w	r4, r4, r8
1000c46c:	eb73 0309 	sbcs.w	r3, r3, r9
1000c470:	f04f 0300 	mov.w	r3, #0
1000c474:	bf38      	it	cc
1000c476:	2301      	movcc	r3, #1
1000c478:	ea43 0442 	orr.w	r4, r3, r2, lsl #1
1000c47c:	ea4f 034c 	mov.w	r3, ip, lsl #1
1000c480:	ea43 76d2 	orr.w	r6, r3, r2, lsr #31
1000c484:	1e62      	subs	r2, r4, #1
1000c486:	f166 0300 	sbc.w	r3, r6, #0
1000c48a:	2d00      	cmp	r5, #0
1000c48c:	bf04      	itt	eq
1000c48e:	4622      	moveq	r2, r4
1000c490:	4633      	moveq	r3, r6
1000c492:	f000 f970 	bl	1000c776 <__shiftright128>
1000c496:	9c04      	ldr	r4, [sp, #16]
1000c498:	68fa      	ldr	r2, [r7, #12]
1000c49a:	e9c2 0100 	strd	r0, r1, [r2]
1000c49e:	4640      	mov	r0, r8
1000c4a0:	e9dd 2306 	ldrd	r2, r3, [sp, #24]
1000c4a4:	4649      	mov	r1, r9
1000c4a6:	9400      	str	r4, [sp, #0]
1000c4a8:	f000 f965 	bl	1000c776 <__shiftright128>
1000c4ac:	b00b      	add	sp, #44	@ 0x2c
1000c4ae:	e8bd 0f00 	ldmia.w	sp!, {r8, r9, sl, fp}
1000c4b2:	bdf0      	pop	{r4, r5, r6, r7, pc}

Disassembly of section .text.decimalLength17:

1000c4b4 <decimalLength17>:
1000c4b4:	b5f0      	push	{r4, r5, r6, r7, lr}
1000c4b6:	af03      	add	r7, sp, #12
1000c4b8:	f84d bd04 	str.w	fp, [sp, #-4]!
1000c4bc:	2300      	movs	r3, #0
1000c4be:	240a      	movs	r4, #10
1000c4c0:	2201      	movs	r2, #1
1000c4c2:	250a      	movs	r5, #10
1000c4c4:	1b46      	subs	r6, r0, r5
1000c4c6:	eb71 0603 	sbcs.w	r6, r1, r3
1000c4ca:	d307      	bcc.n	1000c4dc <decimalLength17+0x28>
1000c4cc:	fba5 5604 	umull	r5, r6, r5, r4
1000c4d0:	eb03 0383 	add.w	r3, r3, r3, lsl #2
1000c4d4:	3201      	adds	r2, #1
1000c4d6:	eb06 0343 	add.w	r3, r6, r3, lsl #1
1000c4da:	e7f3      	b.n	1000c4c4 <decimalLength17+0x10>
1000c4dc:	4610      	mov	r0, r2
1000c4de:	f85d bb04 	ldr.w	fp, [sp], #4
1000c4e2:	bdf0      	pop	{r4, r5, r6, r7, pc}

Disassembly of section .text.__pow5Factor:

1000c4e4 <__pow5Factor>:
1000c4e4:	b5f0      	push	{r4, r5, r6, r7, lr}
1000c4e6:	af03      	add	r7, sp, #12
1000c4e8:	f84d bd04 	str.w	fp, [sp, #-4]!
1000c4ec:	4b0a      	ldr	r3, [pc, #40]	@ (1000c518 <__pow5Factor+0x34>)
1000c4ee:	4602      	mov	r2, r0
1000c4f0:	4d0a      	ldr	r5, [pc, #40]	@ (1000c51c <__pow5Factor+0x38>)
1000c4f2:	f04f 30ff 	mov.w	r0, #4294967295	@ 0xffffffff
1000c4f6:	f04f 3ccc 	mov.w	ip, #3435973836	@ 0xcccccccc
1000c4fa:	fba2 6403 	umull	r6, r4, r2, r3
1000c4fe:	3001      	adds	r0, #1
1000c500:	fb02 420c 	mla	r2, r2, ip, r4
1000c504:	fb01 2103 	mla	r1, r1, r3, r2
1000c508:	1b72      	subs	r2, r6, r5
1000c50a:	f171 3233 	sbcs.w	r2, r1, #858993459	@ 0x33333333
1000c50e:	4632      	mov	r2, r6
1000c510:	d3f3      	bcc.n	1000c4fa <__pow5Factor+0x16>
1000c512:	f85d bb04 	ldr.w	fp, [sp], #4
1000c516:	bdf0      	pop	{r4, r5, r6, r7, pc}
1000c518:	cccccccd 	.word	0xcccccccd
1000c51c:	33333334 	.word	0x33333334

Disassembly of section .text.__double_computePow5:

1000c520 <__double_computePow5>:
1000c520:	b5f0      	push	{r4, r5, r6, r7, lr}
1000c522:	af03      	add	r7, sp, #12
1000c524:	e92d 0f00 	stmdb	sp!, {r8, r9, sl, fp}
1000c528:	b089      	sub	sp, #36	@ 0x24
1000c52a:	468a      	mov	sl, r1
1000c52c:	211a      	movs	r1, #26
1000c52e:	fbb0 f2f1 	udiv	r2, r0, r1
1000c532:	4605      	mov	r5, r0
1000c534:	fb02 fb01 	mul.w	fp, r2, r1
1000c538:	482c      	ldr	r0, [pc, #176]	@ (1000c5ec <__double_computePow5+0xcc>)
1000c53a:	eb00 1002 	add.w	r0, r0, r2, lsl #4
1000c53e:	45ab      	cmp	fp, r5
1000c540:	d102      	bne.n	1000c548 <__double_computePow5+0x28>
1000c542:	f000 f8cb 	bl	1000c6dc <OUTLINED_FUNCTION_1>
1000c546:	e04d      	b.n	1000c5e4 <__double_computePow5+0xc4>
1000c548:	a906      	add	r1, sp, #24
1000c54a:	4a29      	ldr	r2, [pc, #164]	@ (1000c5f0 <__double_computePow5+0xd0>)
1000c54c:	9100      	str	r1, [sp, #0]
1000c54e:	eba5 010b 	sub.w	r1, r5, fp
1000c552:	f852 4031 	ldr.w	r4, [r2, r1, lsl #3]
1000c556:	eb02 01c1 	add.w	r1, r2, r1, lsl #3
1000c55a:	e9d0 2302 	ldrd	r2, r3, [r0, #8]
1000c55e:	684e      	ldr	r6, [r1, #4]
1000c560:	6801      	ldr	r1, [r0, #0]
1000c562:	9103      	str	r1, [sp, #12]
1000c564:	6841      	ldr	r1, [r0, #4]
1000c566:	4620      	mov	r0, r4
1000c568:	9102      	str	r1, [sp, #8]
1000c56a:	4631      	mov	r1, r6
1000c56c:	f000 f8e2 	bl	1000c734 <__umul128>
1000c570:	4680      	mov	r8, r0
1000c572:	a804      	add	r0, sp, #16
1000c574:	e9dd 3202 	ldrd	r3, r2, [sp, #8]
1000c578:	4689      	mov	r9, r1
1000c57a:	9000      	str	r0, [sp, #0]
1000c57c:	4620      	mov	r0, r4
1000c57e:	4631      	mov	r1, r6
1000c580:	f000 f8d8 	bl	1000c734 <__umul128>
1000c584:	460e      	mov	r6, r1
1000c586:	e9dd 1204 	ldrd	r1, r2, [sp, #16]
1000c58a:	9003      	str	r0, [sp, #12]
1000c58c:	2000      	movs	r0, #0
1000c58e:	eb18 0801 	adds.w	r8, r8, r1
1000c592:	eb59 0902 	adcs.w	r9, r9, r2
1000c596:	f140 0000 	adc.w	r0, r0, #0
1000c59a:	2801      	cmp	r0, #1
1000c59c:	d101      	bne.n	1000c5a2 <__double_computePow5+0x82>
1000c59e:	f7ff fc39 	bl	1000be14 <OUTLINED_FUNCTION_0>
1000c5a2:	4628      	mov	r0, r5
1000c5a4:	f000 f8be 	bl	1000c724 <__pow5bits>
1000c5a8:	4604      	mov	r4, r0
1000c5aa:	4658      	mov	r0, fp
1000c5ac:	f000 f8ba 	bl	1000c724 <__pow5bits>
1000c5b0:	1a24      	subs	r4, r4, r0
1000c5b2:	9803      	ldr	r0, [sp, #12]
1000c5b4:	4631      	mov	r1, r6
1000c5b6:	4642      	mov	r2, r8
1000c5b8:	464b      	mov	r3, r9
1000c5ba:	9400      	str	r4, [sp, #0]
1000c5bc:	f000 f8db 	bl	1000c776 <__shiftright128>
1000c5c0:	221e      	movs	r2, #30
1000c5c2:	f06f 0303 	mvn.w	r3, #3
1000c5c6:	ea02 0245 	and.w	r2, r2, r5, lsl #1
1000c5ca:	ea03 0395 	and.w	r3, r3, r5, lsr #2
1000c5ce:	4d09      	ldr	r5, [pc, #36]	@ (1000c5f4 <__double_computePow5+0xd4>)
1000c5d0:	58eb      	ldr	r3, [r5, r3]
1000c5d2:	f000 f88b 	bl	1000c6ec <OUTLINED_FUNCTION_2>
1000c5d6:	f000 f891 	bl	1000c6fc <OUTLINED_FUNCTION_3>
1000c5da:	9400      	str	r4, [sp, #0]
1000c5dc:	f000 f8cb 	bl	1000c776 <__shiftright128>
1000c5e0:	e9ca 0102 	strd	r0, r1, [sl, #8]
1000c5e4:	b009      	add	sp, #36	@ 0x24
1000c5e6:	e8bd 0f00 	ldmia.w	sp!, {r8, r9, sl, fp}
1000c5ea:	bdf0      	pop	{r4, r5, r6, r7, pc}
1000c5ec:	1000ad28 	.word	0x1000ad28
1000c5f0:	1000adf8 	.word	0x1000adf8
1000c5f4:	1000aec8 	.word	0x1000aec8

Disassembly of section .text.__double_computeInvPow5:

1000c5f8 <__double_computeInvPow5>:
1000c5f8:	b5f0      	push	{r4, r5, r6, r7, lr}
1000c5fa:	af03      	add	r7, sp, #12
1000c5fc:	e92d 0f00 	stmdb	sp!, {r8, r9, sl, fp}
1000c600:	b089      	sub	sp, #36	@ 0x24
1000c602:	468a      	mov	sl, r1
1000c604:	4605      	mov	r5, r0
1000c606:	3019      	adds	r0, #25
1000c608:	211a      	movs	r1, #26
1000c60a:	fbb0 f2f1 	udiv	r2, r0, r1
1000c60e:	4830      	ldr	r0, [pc, #192]	@ (1000c6d0 <__double_computeInvPow5+0xd8>)
1000c610:	fb02 f601 	mul.w	r6, r2, r1
1000c614:	eb00 1002 	add.w	r0, r0, r2, lsl #4
1000c618:	42ae      	cmp	r6, r5
1000c61a:	d102      	bne.n	1000c622 <__double_computeInvPow5+0x2a>
1000c61c:	f000 f85e 	bl	1000c6dc <OUTLINED_FUNCTION_1>
1000c620:	e051      	b.n	1000c6c6 <__double_computeInvPow5+0xce>
1000c622:	a906      	add	r1, sp, #24
1000c624:	4a2b      	ldr	r2, [pc, #172]	@ (1000c6d4 <__double_computeInvPow5+0xdc>)
1000c626:	9100      	str	r1, [sp, #0]
1000c628:	1b71      	subs	r1, r6, r5
1000c62a:	e9d0 9b00 	ldrd	r9, fp, [r0]
1000c62e:	f852 8031 	ldr.w	r8, [r2, r1, lsl #3]
1000c632:	eb02 01c1 	add.w	r1, r2, r1, lsl #3
1000c636:	e9d0 2302 	ldrd	r2, r3, [r0, #8]
1000c63a:	684c      	ldr	r4, [r1, #4]
1000c63c:	4640      	mov	r0, r8
1000c63e:	4621      	mov	r1, r4
1000c640:	f000 f878 	bl	1000c734 <__umul128>
1000c644:	e9cd 1002 	strd	r1, r0, [sp, #8]
1000c648:	a804      	add	r0, sp, #16
1000c64a:	f1b9 0201 	subs.w	r2, r9, #1
1000c64e:	f16b 0300 	sbc.w	r3, fp, #0
1000c652:	9000      	str	r0, [sp, #0]
1000c654:	4640      	mov	r0, r8
1000c656:	4621      	mov	r1, r4
1000c658:	f000 f86c 	bl	1000c734 <__umul128>
1000c65c:	468b      	mov	fp, r1
1000c65e:	e9dd 3103 	ldrd	r3, r1, [sp, #12]
1000c662:	4604      	mov	r4, r0
1000c664:	2000      	movs	r0, #0
1000c666:	eb11 0803 	adds.w	r8, r1, r3
1000c66a:	9a05      	ldr	r2, [sp, #20]
1000c66c:	9902      	ldr	r1, [sp, #8]
1000c66e:	eb52 0901 	adcs.w	r9, r2, r1
1000c672:	f140 0000 	adc.w	r0, r0, #0
1000c676:	2801      	cmp	r0, #1
1000c678:	d101      	bne.n	1000c67e <__double_computeInvPow5+0x86>
1000c67a:	f7ff fbcb 	bl	1000be14 <OUTLINED_FUNCTION_0>
1000c67e:	4630      	mov	r0, r6
1000c680:	f000 f850 	bl	1000c724 <__pow5bits>
1000c684:	4606      	mov	r6, r0
1000c686:	4628      	mov	r0, r5
1000c688:	f000 f84c 	bl	1000c724 <__pow5bits>
1000c68c:	1a36      	subs	r6, r6, r0
1000c68e:	4620      	mov	r0, r4
1000c690:	4659      	mov	r1, fp
1000c692:	4642      	mov	r2, r8
1000c694:	464b      	mov	r3, r9
1000c696:	9600      	str	r6, [sp, #0]
1000c698:	f000 f86d 	bl	1000c776 <__shiftright128>
1000c69c:	f06f 0303 	mvn.w	r3, #3
1000c6a0:	4c0d      	ldr	r4, [pc, #52]	@ (1000c6d8 <__double_computeInvPow5+0xe0>)
1000c6a2:	ea03 0395 	and.w	r3, r3, r5, lsr #2
1000c6a6:	221e      	movs	r2, #30
1000c6a8:	ea02 0245 	and.w	r2, r2, r5, lsl #1
1000c6ac:	58e3      	ldr	r3, [r4, r3]
1000c6ae:	f000 f81d 	bl	1000c6ec <OUTLINED_FUNCTION_2>
1000c6b2:	3001      	adds	r0, #1
1000c6b4:	f141 0100 	adc.w	r1, r1, #0
1000c6b8:	f000 f820 	bl	1000c6fc <OUTLINED_FUNCTION_3>
1000c6bc:	9600      	str	r6, [sp, #0]
1000c6be:	f000 f85a 	bl	1000c776 <__shiftright128>
1000c6c2:	e9ca 0102 	strd	r0, r1, [sl, #8]
1000c6c6:	b009      	add	sp, #36	@ 0x24
1000c6c8:	e8bd 0f00 	ldmia.w	sp!, {r8, r9, sl, fp}
1000c6cc:	bdf0      	pop	{r4, r5, r6, r7, pc}
1000c6ce:	bf00      	nop
1000c6d0:	1000af20 	.word	0x1000af20
1000c6d4:	1000adf8 	.word	0x1000adf8
1000c6d8:	1000b010 	.word	0x1000b010

Disassembly of section .text.OUTLINED_FUNCTION_1:

1000c6dc <OUTLINED_FUNCTION_1>:
1000c6dc:	e890 000e 	ldmia.w	r0, {r1, r2, r3}
1000c6e0:	68c0      	ldr	r0, [r0, #12]
1000c6e2:	e88a 000e 	stmia.w	sl, {r1, r2, r3}
1000c6e6:	f8ca 000c 	str.w	r0, [sl, #12]
1000c6ea:	4770      	bx	lr

Disassembly of section .text.OUTLINED_FUNCTION_2:

1000c6ec <OUTLINED_FUNCTION_2>:
1000c6ec:	fa23 f202 	lsr.w	r2, r3, r2
1000c6f0:	f002 0203 	and.w	r2, r2, #3
1000c6f4:	1880      	adds	r0, r0, r2
1000c6f6:	f141 0100 	adc.w	r1, r1, #0
1000c6fa:	4770      	bx	lr

Disassembly of section .text.OUTLINED_FUNCTION_3:

1000c6fc <OUTLINED_FUNCTION_3>:
1000c6fc:	e9dd 2306 	ldrd	r2, r3, [sp, #24]
1000c700:	e9ca 0100 	strd	r0, r1, [sl]
1000c704:	4640      	mov	r0, r8
1000c706:	4649      	mov	r1, r9
1000c708:	4770      	bx	lr

Disassembly of section .text.__log10Pow2:

1000c70c <__log10Pow2>:
1000c70c:	4901      	ldr	r1, [pc, #4]	@ (1000c714 <__log10Pow2+0x8>)
1000c70e:	4348      	muls	r0, r1
1000c710:	0c80      	lsrs	r0, r0, #18
1000c712:	4770      	bx	lr
1000c714:	00013441 	.word	0x00013441

Disassembly of section .text.__log10Pow5:

1000c718 <__log10Pow5>:
1000c718:	4901      	ldr	r1, [pc, #4]	@ (1000c720 <__log10Pow5+0x8>)
1000c71a:	4348      	muls	r0, r1
1000c71c:	0d00      	lsrs	r0, r0, #20
1000c71e:	4770      	bx	lr
1000c720:	000b2efb 	.word	0x000b2efb

Disassembly of section .text.__pow5bits:

1000c724 <__pow5bits>:
1000c724:	4902      	ldr	r1, [pc, #8]	@ (1000c730 <__pow5bits+0xc>)
1000c726:	4348      	muls	r0, r1
1000c728:	2101      	movs	r1, #1
1000c72a:	eb01 40d0 	add.w	r0, r1, r0, lsr #19
1000c72e:	4770      	bx	lr
1000c730:	0012934f 	.word	0x0012934f

Disassembly of section .text.__umul128:

1000c734 <__umul128>:
1000c734:	b5f0      	push	{r4, r5, r6, r7, lr}
1000c736:	af03      	add	r7, sp, #12
1000c738:	f84d bd04 	str.w	fp, [sp, #-4]!
1000c73c:	fba3 4501 	umull	r4, r5, r3, r1
1000c740:	f8d7 e008 	ldr.w	lr, [r7, #8]
1000c744:	fba2 1601 	umull	r1, r6, r2, r1
1000c748:	fba2 c200 	umull	ip, r2, r2, r0
1000c74c:	1852      	adds	r2, r2, r1
1000c74e:	4174      	adcs	r4, r6
1000c750:	f145 0500 	adc.w	r5, r5, #0
1000c754:	4611      	mov	r1, r2
1000c756:	4626      	mov	r6, r4
1000c758:	fbe3 1600 	umlal	r1, r6, r3, r0
1000c75c:	fba3 0300 	umull	r0, r3, r3, r0
1000c760:	1880      	adds	r0, r0, r2
1000c762:	eb54 0003 	adcs.w	r0, r4, r3
1000c766:	f145 0000 	adc.w	r0, r5, #0
1000c76a:	e9ce 6000 	strd	r6, r0, [lr]
1000c76e:	4660      	mov	r0, ip
1000c770:	f85d bb04 	ldr.w	fp, [sp], #4
1000c774:	bdf0      	pop	{r4, r5, r6, r7, pc}

Disassembly of section .text.__shiftright128:

1000c776 <__shiftright128>:
1000c776:	b5f0      	push	{r4, r5, r6, r7, lr}
1000c778:	af03      	add	r7, sp, #12
1000c77a:	e92d 0b00 	stmdb	sp!, {r8, r9, fp}
1000c77e:	f8d7 8008 	ldr.w	r8, [r7, #8]
1000c782:	4616      	mov	r6, r2
1000c784:	4689      	mov	r9, r1
1000c786:	4605      	mov	r5, r0
1000c788:	f1c8 0240 	rsb	r2, r8, #64	@ 0x40
1000c78c:	4630      	mov	r0, r6
1000c78e:	4619      	mov	r1, r3
1000c790:	f000 f817 	bl	1000c7c2 <__aeabi_llsl>
1000c794:	4606      	mov	r6, r0
1000c796:	460c      	mov	r4, r1
1000c798:	4628      	mov	r0, r5
1000c79a:	4649      	mov	r1, r9
1000c79c:	4642      	mov	r2, r8
1000c79e:	f000 f823 	bl	1000c7e8 <__aeabi_llsr>
1000c7a2:	4330      	orrs	r0, r6
1000c7a4:	4321      	orrs	r1, r4
1000c7a6:	e8bd 0b00 	ldmia.w	sp!, {r8, r9, fp}
1000c7aa:	bdf0      	pop	{r4, r5, r6, r7, pc}

Disassembly of section .text.bzero:

1000c7ac <__aeabi_memclr>:
1000c7ac:	460a      	mov	r2, r1
1000c7ae:	2100      	movs	r1, #0
1000c7b0:	f000 b800 	b.w	1000c7b4 <memset>

Disassembly of section .text.memset:

1000c7b4 <memset>:
1000c7b4:	2300      	movs	r3, #0
1000c7b6:	429a      	cmp	r2, r3
1000c7b8:	bf08      	it	eq
1000c7ba:	4770      	bxeq	lr
1000c7bc:	54c1      	strb	r1, [r0, r3]
1000c7be:	3301      	adds	r3, #1
1000c7c0:	e7f9      	b.n	1000c7b6 <memset+0x2>

Disassembly of section .text.__ashldi3:

1000c7c2 <__aeabi_llsl>:
1000c7c2:	0693      	lsls	r3, r2, #26
1000c7c4:	bf41      	itttt	mi
1000c7c6:	f1a2 0120 	submi.w	r1, r2, #32
1000c7ca:	fa00 f101 	lslmi.w	r1, r0, r1
1000c7ce:	2000      	movmi	r0, #0
1000c7d0:	4770      	bxmi	lr
1000c7d2:	2a00      	cmp	r2, #0
1000c7d4:	bf1f      	itttt	ne
1000c7d6:	4091      	lslne	r1, r2
1000c7d8:	f1c2 0320 	rsbne	r3, r2, #32
1000c7dc:	fa20 f303 	lsrne.w	r3, r0, r3
1000c7e0:	4319      	orrne	r1, r3
1000c7e2:	bf18      	it	ne
1000c7e4:	4090      	lslne	r0, r2
1000c7e6:	4770      	bx	lr

Disassembly of section .text.__lshrdi3:

1000c7e8 <__aeabi_llsr>:
1000c7e8:	0693      	lsls	r3, r2, #26
1000c7ea:	bf41      	itttt	mi
1000c7ec:	f1a2 0020 	submi.w	r0, r2, #32
1000c7f0:	fa21 f000 	lsrmi.w	r0, r1, r0
1000c7f4:	2100      	movmi	r1, #0
1000c7f6:	4770      	bxmi	lr
1000c7f8:	2a00      	cmp	r2, #0
1000c7fa:	bf1f      	itttt	ne
1000c7fc:	40d0      	lsrne	r0, r2
1000c7fe:	f1c2 0320 	rsbne	r3, r2, #32
1000c802:	fa01 f303 	lslne.w	r3, r1, r3
1000c806:	4318      	orrne	r0, r3
1000c808:	bf18      	it	ne
1000c80a:	40d1      	lsrne	r1, r2
1000c80c:	4770      	bx	lr

Disassembly of section .text.__udivmoddi4:

1000c80e <__udivmoddi4>:
1000c80e:	e92d 4ff0 	stmdb	sp!, {r4, r5, r6, r7, r8, r9, sl, fp, lr}
1000c812:	f8dd 8024 	ldr.w	r8, [sp, #36]	@ 0x24
1000c816:	4684      	mov	ip, r0
1000c818:	b189      	cbz	r1, 1000c83e <__udivmoddi4+0x30>
1000c81a:	b1d2      	cbz	r2, 1000c852 <__udivmoddi4+0x44>
1000c81c:	b383      	cbz	r3, 1000c880 <__udivmoddi4+0x72>
1000c81e:	fab1 f481 	clz	r4, r1
1000c822:	fab3 f583 	clz	r5, r3
1000c826:	1b2c      	subs	r4, r5, r4
1000c828:	2c20      	cmp	r4, #32
1000c82a:	d354      	bcc.n	1000c8d6 <__udivmoddi4+0xc8>
1000c82c:	f1b8 0f00 	cmp.w	r8, #0
1000c830:	bf18      	it	ne
1000c832:	e9c8 c100 	strdne	ip, r1, [r8]
1000c836:	2000      	movs	r0, #0
1000c838:	2100      	movs	r1, #0
1000c83a:	e8bd 8ff0 	ldmia.w	sp!, {r4, r5, r6, r7, r8, r9, sl, fp, pc}
1000c83e:	b3e3      	cbz	r3, 1000c8ba <__udivmoddi4+0xac>
1000c840:	2100      	movs	r1, #0
1000c842:	f1b8 0f00 	cmp.w	r8, #0
1000c846:	d04c      	beq.n	1000c8e2 <__udivmoddi4+0xd4>
1000c848:	2000      	movs	r0, #0
1000c84a:	e9c8 c100 	strd	ip, r1, [r8]
1000c84e:	e8bd 8ff0 	ldmia.w	sp!, {r4, r5, r6, r7, r8, r9, sl, fp, pc}
1000c852:	2b00      	cmp	r3, #0
1000c854:	d048      	beq.n	1000c8e8 <__udivmoddi4+0xda>
1000c856:	2800      	cmp	r0, #0
1000c858:	d05e      	beq.n	1000c918 <__udivmoddi4+0x10a>
1000c85a:	1e5c      	subs	r4, r3, #1
1000c85c:	4223      	tst	r3, r4
1000c85e:	d169      	bne.n	1000c934 <__udivmoddi4+0x126>
1000c860:	f1b8 0f00 	cmp.w	r8, #0
1000c864:	bf1c      	itt	ne
1000c866:	ea04 0001 	andne.w	r0, r4, r1
1000c86a:	e9c8 c000 	strdne	ip, r0, [r8]
1000c86e:	fa93 f0a3 	rbit	r0, r3
1000c872:	fab0 f080 	clz	r0, r0
1000c876:	fa21 f000 	lsr.w	r0, r1, r0
1000c87a:	2100      	movs	r1, #0
1000c87c:	e8bd 8ff0 	ldmia.w	sp!, {r4, r5, r6, r7, r8, r9, sl, fp, pc}
1000c880:	1e54      	subs	r4, r2, #1
1000c882:	4222      	tst	r2, r4
1000c884:	d133      	bne.n	1000c8ee <__udivmoddi4+0xe0>
1000c886:	f1b8 0f00 	cmp.w	r8, #0
1000c88a:	bf1e      	ittt	ne
1000c88c:	2300      	movne	r3, #0
1000c88e:	4004      	andne	r4, r0
1000c890:	e9c8 4300 	strdne	r4, r3, [r8]
1000c894:	2a01      	cmp	r2, #1
1000c896:	f000 80fa 	beq.w	1000ca8e <__udivmoddi4+0x280>
1000c89a:	fa92 f2a2 	rbit	r2, r2
1000c89e:	004f      	lsls	r7, r1, #1
1000c8a0:	fab2 f282 	clz	r2, r2
1000c8a4:	f002 031f 	and.w	r3, r2, #31
1000c8a8:	40d1      	lsrs	r1, r2
1000c8aa:	40d8      	lsrs	r0, r3
1000c8ac:	231f      	movs	r3, #31
1000c8ae:	4393      	bics	r3, r2
1000c8b0:	fa07 f303 	lsl.w	r3, r7, r3
1000c8b4:	4318      	orrs	r0, r3
1000c8b6:	e8bd 8ff0 	ldmia.w	sp!, {r4, r5, r6, r7, r8, r9, sl, fp, pc}
1000c8ba:	fbb0 fcf2 	udiv	ip, r0, r2
1000c8be:	f1b8 0f00 	cmp.w	r8, #0
1000c8c2:	bf1e      	ittt	ne
1000c8c4:	fb0c 0012 	mlsne	r0, ip, r2, r0
1000c8c8:	2100      	movne	r1, #0
1000c8ca:	e9c8 0100 	strdne	r0, r1, [r8]
1000c8ce:	2100      	movs	r1, #0
1000c8d0:	4660      	mov	r0, ip
1000c8d2:	e8bd 8ff0 	ldmia.w	sp!, {r4, r5, r6, r7, r8, r9, sl, fp, pc}
1000c8d6:	f104 0c01 	add.w	ip, r4, #1
1000c8da:	f1bc 0f20 	cmp.w	ip, #32
1000c8de:	d010      	beq.n	1000c902 <__udivmoddi4+0xf4>
1000c8e0:	e032      	b.n	1000c948 <__udivmoddi4+0x13a>
1000c8e2:	2000      	movs	r0, #0
1000c8e4:	e8bd 8ff0 	ldmia.w	sp!, {r4, r5, r6, r7, r8, r9, sl, fp, pc}
1000c8e8:	4660      	mov	r0, ip
1000c8ea:	e8bd 8ff0 	ldmia.w	sp!, {r4, r5, r6, r7, r8, r9, sl, fp, pc}
1000c8ee:	fab1 f781 	clz	r7, r1
1000c8f2:	fab2 f682 	clz	r6, r2
1000c8f6:	1bf7      	subs	r7, r6, r7
1000c8f8:	f107 0c21 	add.w	ip, r7, #33	@ 0x21
1000c8fc:	f1bc 0f20 	cmp.w	ip, #32
1000c900:	d137      	bne.n	1000c972 <__udivmoddi4+0x164>
1000c902:	f04f 0e00 	mov.w	lr, #0
1000c906:	f04f 0c20 	mov.w	ip, #32
1000c90a:	460c      	mov	r4, r1
1000c90c:	f04f 0a00 	mov.w	sl, #0
1000c910:	f1bc 0f01 	cmp.w	ip, #1
1000c914:	d027      	beq.n	1000c966 <__udivmoddi4+0x158>
1000c916:	e04a      	b.n	1000c9ae <__udivmoddi4+0x1a0>
1000c918:	fbb1 fcf3 	udiv	ip, r1, r3
1000c91c:	f1b8 0f00 	cmp.w	r8, #0
1000c920:	bf1e      	ittt	ne
1000c922:	fb0c 1013 	mlsne	r0, ip, r3, r1
1000c926:	2100      	movne	r1, #0
1000c928:	e9c8 1000 	strdne	r1, r0, [r8]
1000c92c:	2100      	movs	r1, #0
1000c92e:	4660      	mov	r0, ip
1000c930:	e8bd 8ff0 	ldmia.w	sp!, {r4, r5, r6, r7, r8, r9, sl, fp, pc}
1000c934:	fab1 f481 	clz	r4, r1
1000c938:	fab3 f583 	clz	r5, r3
1000c93c:	1b2c      	subs	r4, r5, r4
1000c93e:	2c1f      	cmp	r4, #31
1000c940:	f4bf af74 	bcs.w	1000c82c <__udivmoddi4+0x1e>
1000c944:	f104 0c01 	add.w	ip, r4, #1
1000c948:	f1c4 061f 	rsb	r6, r4, #31
1000c94c:	fa20 f50c 	lsr.w	r5, r0, ip
1000c950:	fa01 f406 	lsl.w	r4, r1, r6
1000c954:	432c      	orrs	r4, r5
1000c956:	fa21 fe0c 	lsr.w	lr, r1, ip
1000c95a:	40b0      	lsls	r0, r6
1000c95c:	f04f 0a00 	mov.w	sl, #0
1000c960:	f1bc 0f01 	cmp.w	ip, #1
1000c964:	d123      	bne.n	1000c9ae <__udivmoddi4+0x1a0>
1000c966:	f04f 0900 	mov.w	r9, #0
1000c96a:	ea5f 71cc 	movs.w	r1, ip, lsl #31
1000c96e:	d160      	bne.n	1000ca32 <__udivmoddi4+0x224>
1000c970:	e07c      	b.n	1000ca6c <__udivmoddi4+0x25e>
1000c972:	f1bc 0f1f 	cmp.w	ip, #31
1000c976:	d807      	bhi.n	1000c988 <__udivmoddi4+0x17a>
1000c978:	f1cc 0620 	rsb	r6, ip, #32
1000c97c:	fa20 f40c 	lsr.w	r4, r0, ip
1000c980:	fa01 f506 	lsl.w	r5, r1, r6
1000c984:	432c      	orrs	r4, r5
1000c986:	e7e6      	b.n	1000c956 <__udivmoddi4+0x148>
1000c988:	f1cc 0640 	rsb	r6, ip, #64	@ 0x40
1000c98c:	f1ac 0420 	sub.w	r4, ip, #32
1000c990:	f04f 0e00 	mov.w	lr, #0
1000c994:	fa01 f706 	lsl.w	r7, r1, r6
1000c998:	fa20 f504 	lsr.w	r5, r0, r4
1000c99c:	432f      	orrs	r7, r5
1000c99e:	fa00 fa06 	lsl.w	sl, r0, r6
1000c9a2:	fa21 f404 	lsr.w	r4, r1, r4
1000c9a6:	4638      	mov	r0, r7
1000c9a8:	f1bc 0f01 	cmp.w	ip, #1
1000c9ac:	d0db      	beq.n	1000c966 <__udivmoddi4+0x158>
1000c9ae:	f02c 0801 	bic.w	r8, ip, #1
1000c9b2:	f04f 0b00 	mov.w	fp, #0
1000c9b6:	ea4f 014e 	mov.w	r1, lr, lsl #1
1000c9ba:	ea41 75d4 	orr.w	r5, r1, r4, lsr #31
1000c9be:	0064      	lsls	r4, r4, #1
1000c9c0:	ea44 74d0 	orr.w	r4, r4, r0, lsr #31
1000c9c4:	43e9      	mvns	r1, r5
1000c9c6:	0040      	lsls	r0, r0, #1
1000c9c8:	43e7      	mvns	r7, r4
1000c9ca:	18bf      	adds	r7, r7, r2
1000c9cc:	4159      	adcs	r1, r3
1000c9ce:	1aa7      	subs	r7, r4, r2
1000c9d0:	eb65 0603 	sbc.w	r6, r5, r3
1000c9d4:	2900      	cmp	r1, #0
1000c9d6:	bf58      	it	pl
1000c9d8:	462e      	movpl	r6, r5
1000c9da:	bf58      	it	pl
1000c9dc:	4627      	movpl	r7, r4
1000c9de:	0075      	lsls	r5, r6, #1
1000c9e0:	ea45 76d7 	orr.w	r6, r5, r7, lsr #31
1000c9e4:	007c      	lsls	r4, r7, #1
1000c9e6:	ea44 77d0 	orr.w	r7, r4, r0, lsr #31
1000c9ea:	1abc      	subs	r4, r7, r2
1000c9ec:	ea40 70da 	orr.w	r0, r0, sl, lsr #31
1000c9f0:	ea6f 0507 	mvn.w	r5, r7
1000c9f4:	eb66 0e03 	sbc.w	lr, r6, r3
1000c9f8:	18ad      	adds	r5, r5, r2
1000c9fa:	ea4f 0040 	mov.w	r0, r0, lsl #1
1000c9fe:	ea6f 0506 	mvn.w	r5, r6
1000ca02:	415d      	adcs	r5, r3
1000ca04:	bf5c      	itt	pl
1000ca06:	46b6      	movpl	lr, r6
1000ca08:	463c      	movpl	r4, r7
1000ca0a:	f1b8 0802 	subs.w	r8, r8, #2
1000ca0e:	ea4f 79d5 	mov.w	r9, r5, lsr #31
1000ca12:	ea4b 054a 	orr.w	r5, fp, sl, lsl #1
1000ca16:	46cb      	mov	fp, r9
1000ca18:	ea40 70d5 	orr.w	r0, r0, r5, lsr #31
1000ca1c:	ea4f 0545 	mov.w	r5, r5, lsl #1
1000ca20:	ea45 7ad1 	orr.w	sl, r5, r1, lsr #31
1000ca24:	d1c7      	bne.n	1000c9b6 <__udivmoddi4+0x1a8>
1000ca26:	f8dd 8024 	ldr.w	r8, [sp, #36]	@ 0x24
1000ca2a:	2500      	movs	r5, #0
1000ca2c:	ea5f 71cc 	movs.w	r1, ip, lsl #31
1000ca30:	d01c      	beq.n	1000ca6c <__udivmoddi4+0x25e>
1000ca32:	0067      	lsls	r7, r4, #1
1000ca34:	ea4f 014e 	mov.w	r1, lr, lsl #1
1000ca38:	ea47 77d0 	orr.w	r7, r7, r0, lsr #31
1000ca3c:	ea41 71d4 	orr.w	r1, r1, r4, lsr #31
1000ca40:	1abc      	subs	r4, r7, r2
1000ca42:	ea4f 0040 	mov.w	r0, r0, lsl #1
1000ca46:	eb61 0e03 	sbc.w	lr, r1, r3
1000ca4a:	43fd      	mvns	r5, r7
1000ca4c:	1952      	adds	r2, r2, r5
1000ca4e:	ea6f 0601 	mvn.w	r6, r1
1000ca52:	eb56 0203 	adcs.w	r2, r6, r3
1000ca56:	bf5c      	itt	pl
1000ca58:	468e      	movpl	lr, r1
1000ca5a:	463c      	movpl	r4, r7
1000ca5c:	ea40 70da 	orr.w	r0, r0, sl, lsr #31
1000ca60:	2500      	movs	r5, #0
1000ca62:	0fd1      	lsrs	r1, r2, #31
1000ca64:	ea49 024a 	orr.w	r2, r9, sl, lsl #1
1000ca68:	4689      	mov	r9, r1
1000ca6a:	4692      	mov	sl, r2
1000ca6c:	ea4f 71da 	mov.w	r1, sl, lsr #31
1000ca70:	ea41 0040 	orr.w	r0, r1, r0, lsl #1
1000ca74:	ea4f 024a 	mov.w	r2, sl, lsl #1
1000ca78:	ea40 0105 	orr.w	r1, r0, r5
1000ca7c:	f022 0001 	bic.w	r0, r2, #1
1000ca80:	f1b8 0f00 	cmp.w	r8, #0
1000ca84:	ea49 0c00 	orr.w	ip, r9, r0
1000ca88:	bf18      	it	ne
1000ca8a:	e9c8 4e00 	strdne	r4, lr, [r8]
1000ca8e:	4660      	mov	r0, ip
1000ca90:	e8bd 8ff0 	ldmia.w	sp!, {r4, r5, r6, r7, r8, r9, sl, fp, pc}
