	.text
	.syntax unified
	.eabi_attribute	67, "2.09"	@ Tag_conformance
	.cpu	cortex-m33
	.eabi_attribute	6, 17	@ Tag_CPU_arch
	.eabi_attribute	7, 77	@ Tag_CPU_arch_profile
	.eabi_attribute	8, 0	@ Tag_ARM_ISA_use
	.eabi_attribute	9, 3	@ Tag_THUMB_ISA_use
	.fpu	fpv5-sp-d16
	.eabi_attribute	27, 1	@ Tag_ABI_HardFP_use
	.eabi_attribute	36, 1	@ Tag_FP_HP_extension
	.eabi_attribute	46, 1	@ Tag_DSP_extension
	.eabi_attribute	34, 1	@ Tag_CPU_unaligned_access
	.eabi_attribute	17, 1	@ Tag_ABI_PCS_GOT_use
	.eabi_attribute	20, 2	@ Tag_ABI_FP_denormal
	.eabi_attribute	21, 0	@ Tag_ABI_FP_exceptions
	.eabi_attribute	23, 1	@ Tag_ABI_FP_number_model
	.eabi_attribute	24, 1	@ Tag_ABI_align_needed
	.eabi_attribute	25, 1	@ Tag_ABI_align_preserved
	.eabi_attribute	28, 1	@ Tag_ABI_VFP_args
	.eabi_attribute	38, 1	@ Tag_ABI_FP_16bit_format
	.eabi_attribute	18, 2	@ Tag_ABI_PCS_wchar_t
	.eabi_attribute	26, 1	@ Tag_ABI_enum_size
	.eabi_attribute	14, 0	@ Tag_ABI_PCS_R9_use
	.file	"enolaTrampoline.c"
	.file	1 "C:\\Users\\dakum\\OneDrive\\Desktop\\projects\\code-CFA-with-pac\\Evaluation\\TrustZoneV8m33\\Boards\\ARM\\V2M-MPS2\\IOTKit_CM33\\IOTKit_CM33_S_NS\\IOTKit_CM33_s" "enolaTrampoline.c"
	.file	2 "C:\\Users\\dakum\\OneDrive\\Desktop\\projects\\code-CFA-with-pac\\Evaluation\\TrustZoneV8m33\\Boards\\ARM\\V2M-MPS2\\IOTKit_CM33\\IOTKit_CM33_S_NS\\IOTKit_CM33_s" "./enolaTrampoline.h"
	.section	.text.intialize_IBT,"ax",%progbits
	.hidden	intialize_IBT                   @ -- Begin function intialize_IBT
	.globl	intialize_IBT
	.p2align	2
	.type	intialize_IBT,%function
	.code	16                              @ @intialize_IBT
	.thumb_func
intialize_IBT:
.Lfunc_begin0:
	.loc	1 18 0                          @ enolaTrampoline.c:18:0
	.fnstart
	.cfi_sections .debug_frame
	.cfi_startproc
@ %bb.0:
	.loc	1 28 1 prologue_end             @ enolaTrampoline.c:28:1
	bx	lr
.Ltmp0:
.Lfunc_end0:
	.size	intialize_IBT, .Lfunc_end0-intialize_IBT
	.cfi_endproc
	.cantunwind
	.fnend
                                        @ -- End function
	.section	.text.init_trampoline,"ax",%progbits
	.hidden	init_trampoline                 @ -- Begin function init_trampoline
	.globl	init_trampoline
	.p2align	2
	.type	init_trampoline,%function
	.code	16                              @ @init_trampoline
	.thumb_func
init_trampoline:
.Lfunc_begin1:
	.loc	1 30 0                          @ enolaTrampoline.c:30:0
	.fnstart
	.cfi_startproc
@ %bb.0:
	.pad	#12
	sub	sp, #12
	.cfi_def_cfa_offset 12
.Ltmp1:
	.loc	1 31 21 prologue_end            @ enolaTrampoline.c:31:21
	movw	r0, :lower16:To
	movt	r0, :upper16:To
	movs	r1, #0
	strb.w	r1, [r0, #2048]
.Ltmp2:
	.loc	1 32 13                         @ enolaTrampoline.c:32:13
	str	r1, [sp, #8]
	.loc	1 32 9 is_stmt 0                @ enolaTrampoline.c:32:9
	b	.LBB1_1
.LBB1_1:                                @ =>This Inner Loop Header: Depth=1
.Ltmp3:
	.loc	1 32 20                         @ enolaTrampoline.c:32:20
	ldr	r0, [sp, #8]
.Ltmp4:
	.loc	1 32 5                          @ enolaTrampoline.c:32:5
	cmp.w	r0, #256
	blt	.LBB1_3
	b	.LBB1_2
.LBB1_2:
	.loc	1 0 5                           @ enolaTrampoline.c:0:5
	b	.LBB1_5
.LBB1_3:                                @   in Loop: Header=BB1_1 Depth=1
.Ltmp5:
	.loc	1 34 28 is_stmt 1               @ enolaTrampoline.c:34:28
	ldr	r0, [sp, #8]
	.loc	1 34 9 is_stmt 0                @ enolaTrampoline.c:34:9
	movw	r1, :lower16:To
	movt	r1, :upper16:To
	mov.w	r2, #-1
	.loc	1 34 31                         @ enolaTrampoline.c:34:31
	str.w	r2, [r1, r0, lsl #2]
	.loc	1 35 29 is_stmt 1               @ enolaTrampoline.c:35:29
	ldr	r0, [sp, #8]
	.loc	1 35 9 is_stmt 0                @ enolaTrampoline.c:35:9
	add.w	r0, r1, r0, lsl #2
	movs	r1, #0
	.loc	1 35 32                         @ enolaTrampoline.c:35:32
	str.w	r1, [r0, #1024]
	.loc	1 36 5 is_stmt 1                @ enolaTrampoline.c:36:5
	b	.LBB1_4
.Ltmp6:
.LBB1_4:                                @   in Loop: Header=BB1_1 Depth=1
	.loc	1 32 41                         @ enolaTrampoline.c:32:41
	ldr	r0, [sp, #8]
	adds	r0, #1
	str	r0, [sp, #8]
	.loc	1 32 5 is_stmt 0                @ enolaTrampoline.c:32:5
	b	.LBB1_1
.Ltmp7:
.LBB1_5:
	.loc	1 0 5                           @ enolaTrampoline.c:0:5
	movs	r0, #0
.Ltmp8:
	.loc	1 38 13 is_stmt 1               @ enolaTrampoline.c:38:13
	str	r0, [sp, #4]
	.loc	1 38 9 is_stmt 0                @ enolaTrampoline.c:38:9
	b	.LBB1_6
.LBB1_6:                                @ =>This Inner Loop Header: Depth=1
.Ltmp9:
	.loc	1 38 20                         @ enolaTrampoline.c:38:20
	ldr	r0, [sp, #4]
.Ltmp10:
	.loc	1 38 5                          @ enolaTrampoline.c:38:5
	cmp.w	r0, #256
	blt	.LBB1_8
	b	.LBB1_7
.LBB1_7:
	.loc	1 0 5                           @ enolaTrampoline.c:0:5
	b	.LBB1_10
.LBB1_8:                                @   in Loop: Header=BB1_6 Depth=1
.Ltmp11:
	.loc	1 40 35 is_stmt 1               @ enolaTrampoline.c:40:35
	ldr	r0, [sp, #4]
	.loc	1 40 9 is_stmt 0                @ enolaTrampoline.c:40:9
	movw	r1, :lower16:To
	movt	r1, :upper16:To
	add.w	r0, r1, r0, lsl #2
	mov.w	r1, #-1
	.loc	1 40 38                         @ enolaTrampoline.c:40:38
	str.w	r1, [r0, #2052]
	.loc	1 41 5 is_stmt 1                @ enolaTrampoline.c:41:5
	b	.LBB1_9
.Ltmp12:
.LBB1_9:                                @   in Loop: Header=BB1_6 Depth=1
	.loc	1 38 41                         @ enolaTrampoline.c:38:41
	ldr	r0, [sp, #4]
	adds	r0, #1
	str	r0, [sp, #4]
	.loc	1 38 5 is_stmt 0                @ enolaTrampoline.c:38:5
	b	.LBB1_6
.Ltmp13:
.LBB1_10:
	.loc	1 0 5                           @ enolaTrampoline.c:0:5
	movs	r0, #0
.Ltmp14:
	.loc	1 42 10 is_stmt 1               @ enolaTrampoline.c:42:10
	str	r0, [sp]
	.loc	1 42 6 is_stmt 0                @ enolaTrampoline.c:42:6
	b	.LBB1_11
.LBB1_11:                               @ =>This Inner Loop Header: Depth=1
.Ltmp15:
	.loc	1 42 17                         @ enolaTrampoline.c:42:17
	ldr	r0, [sp]
.Ltmp16:
	.loc	1 42 2                          @ enolaTrampoline.c:42:2
	cmp.w	r0, #5600
	blt	.LBB1_13
	b	.LBB1_12
.LBB1_12:
	.loc	1 0 2                           @ enolaTrampoline.c:0:2
	b	.LBB1_15
.LBB1_13:                               @   in Loop: Header=BB1_11 Depth=1
.Ltmp17:
	.loc	1 44 13 is_stmt 1               @ enolaTrampoline.c:44:13
	ldr	r0, [sp]
	.loc	1 44 3 is_stmt 0                @ enolaTrampoline.c:44:3
	movw	r1, :lower16:index_map
	movt	r1, :upper16:index_map
	movw	r2, #65535
	.loc	1 44 16                         @ enolaTrampoline.c:44:16
	strh.w	r2, [r1, r0, lsl #1]
	.loc	1 45 2 is_stmt 1                @ enolaTrampoline.c:45:2
	b	.LBB1_14
.Ltmp18:
.LBB1_14:                               @   in Loop: Header=BB1_11 Depth=1
	.loc	1 42 31                         @ enolaTrampoline.c:42:31
	ldr	r0, [sp]
	adds	r0, #1
	str	r0, [sp]
	.loc	1 42 2 is_stmt 0                @ enolaTrampoline.c:42:2
	b	.LBB1_11
.Ltmp19:
.LBB1_15:
	.loc	1 47 24 is_stmt 1               @ enolaTrampoline.c:47:24
	movw	r0, :lower16:occurrence_trace_size
	movt	r0, :upper16:occurrence_trace_size
	movs	r1, #0
	str	r1, [r0]
	.loc	1 48 13                         @ enolaTrampoline.c:48:13
	movw	r0, :lower16:total_exec
	movt	r0, :upper16:total_exec
	str	r1, [r0]
	.loc	1 49 1                          @ enolaTrampoline.c:49:1
	add	sp, #12
	bx	lr
.Ltmp20:
.Lfunc_end1:
	.size	init_trampoline, .Lfunc_end1-init_trampoline
	.cfi_endproc
	.cantunwind
	.fnend
                                        @ -- End function
	.section	.text.print_occurence_trace,"ax",%progbits
	.hidden	print_occurence_trace           @ -- Begin function print_occurence_trace
	.globl	print_occurence_trace
	.p2align	2
	.type	print_occurence_trace,%function
	.code	16                              @ @print_occurence_trace
	.thumb_func
print_occurence_trace:
.Lfunc_begin2:
	.loc	1 52 0                          @ enolaTrampoline.c:52:0
	.fnstart
	.cfi_startproc
@ %bb.0:
	.save	{r4, r5, r6, r7, lr}
	push	{r4, r5, r6, r7, lr}
	.cfi_def_cfa_offset 20
	.cfi_offset lr, -4
	.cfi_offset r7, -8
	.cfi_offset r6, -12
	.cfi_offset r5, -16
	.cfi_offset r4, -20
	.pad	#4
	sub	sp, #4
	.cfi_def_cfa_offset 24
.Ltmp21:
	.loc	1 53 2 prologue_end             @ enolaTrampoline.c:53:2
	adr	r0, .LCPI2_0
	bl	puts
.Ltmp22:
	.loc	1 54 64                         @ enolaTrampoline.c:54:64
	movw	r5, :lower16:occurrence_trace_size
	movt	r5, :upper16:occurrence_trace_size
	ldr	r1, [r5]
	.loc	1 54 2 is_stmt 0                @ enolaTrampoline.c:54:2
	adr	r0, .LCPI2_1
	bl	__2printf
.Ltmp23:
	@DEBUG_VALUE: i <- 0
	.loc	1 55 22 is_stmt 1               @ enolaTrampoline.c:55:22
	ldr	r0, [r5]
.Ltmp24:
	.loc	1 55 2 is_stmt 0                @ enolaTrampoline.c:55:2
	cbz	r0, .LBB2_3
.Ltmp25:
@ %bb.1:
	@DEBUG_VALUE: i <- 0
	.loc	1 0 2                           @ enolaTrampoline.c:0:2
	movw	r7, :lower16:To
	movw	r4, :lower16:.L.str.2
	movs	r6, #0
	movt	r7, :upper16:To
	movt	r4, :upper16:.L.str.2
.Ltmp26:
	.p2align	2
.LBB2_2:                                @ =>This Inner Loop Header: Depth=1
	@DEBUG_VALUE: i <- $r6
	.loc	1 57 49 is_stmt 1               @ enolaTrampoline.c:57:49
	add.w	r0, r7, r6, lsl #2
	ldr.w	r1, [r7, r6, lsl #2]
	.loc	1 57 72 is_stmt 0               @ enolaTrampoline.c:57:72
	ldr.w	r2, [r0, #1024]
	.loc	1 57 3                          @ enolaTrampoline.c:57:3
	mov	r0, r4
	bl	__2printf
.Ltmp27:
	.loc	1 55 22 is_stmt 1               @ enolaTrampoline.c:55:22
	ldr	r0, [r5]
	.loc	1 55 47 is_stmt 0               @ enolaTrampoline.c:55:47
	adds	r6, #1
.Ltmp28:
	@DEBUG_VALUE: i <- $r6
	.loc	1 55 2                          @ enolaTrampoline.c:55:2
	cmp	r6, r0
	blo	.LBB2_2
.Ltmp29:
.LBB2_3:
	.loc	1 59 2 is_stmt 1                @ enolaTrampoline.c:59:2
	movw	r0, :lower16:.Lstr.4
	movt	r0, :upper16:.Lstr.4
	bl	puts
.Ltmp30:
	.loc	1 60 2                          @ enolaTrampoline.c:60:2
	add	sp, #4
	pop	{r4, r5, r6, r7, pc}
.Ltmp31:
	.p2align	2
@ %bb.4:
	.loc	1 0 2 is_stmt 0                 @ enolaTrampoline.c:0:2
.LCPI2_0:
.Lstr:
	.asciz	"\r\n ----------------Occurence Trace start-------------- \r\000\000\000"
.LCPI2_1:
.L.str.1:
	.asciz	"\r\n ----------------Total vi %d----------------\r\n\000\000\000"
.Lfunc_end2:
	.size	print_occurence_trace, .Lfunc_end2-print_occurence_trace
	.cfi_endproc
	.cantunwind
	.fnend
                                        @ -- End function
	.section	.text.get_idx,"ax",%progbits
	.hidden	get_idx                         @ -- Begin function get_idx
	.globl	get_idx
	.p2align	2
	.type	get_idx,%function
	.code	16                              @ @get_idx
	.thumb_func
get_idx:
.Lfunc_begin3:
	.loc	1 64 0 is_stmt 1                @ enolaTrampoline.c:64:0
	.fnstart
	.cfi_startproc
@ %bb.0:
	@DEBUG_VALUE: get_idx:addr <- $r0
	movw	r1, :lower16:occurrence_trace_size
	movt	r1, :upper16:occurrence_trace_size
	ldr	r2, [r1]
.Ltmp32:
	@DEBUG_VALUE: i <- 0
	.loc	1 65 2 prologue_end             @ enolaTrampoline.c:65:2
	cmp	r2, #0
	@DEBUG_VALUE: get_idx:addr <- $r0
	itt	eq
	moveq.w	r0, #256
.Ltmp33:
	.loc	1 73 1                          @ enolaTrampoline.c:73:1
	bxeq	lr
.Ltmp34:
.LBB3_1:
	@DEBUG_VALUE: i <- 0
	.loc	1 0 1 is_stmt 0                 @ enolaTrampoline.c:0:1
	movw	r12, :lower16:To
	mov	r1, r0
.Ltmp35:
	@DEBUG_VALUE: get_idx:addr <- $r1
	movs	r0, #0
	movt	r12, :upper16:To
.Ltmp36:
	.p2align	2
.LBB3_2:                                @ =>This Inner Loop Header: Depth=1
	@DEBUG_VALUE: get_idx:addr <- $r1
	@DEBUG_VALUE: i <- $r0
	.loc	1 67 6 is_stmt 1                @ enolaTrampoline.c:67:6
	ldr.w	r3, [r12, r0, lsl #2]
.Ltmp37:
	.loc	1 67 6 is_stmt 0                @ enolaTrampoline.c:67:6
	cmp	r3, r1
.Ltmp38:
	.loc	1 73 1 is_stmt 1                @ enolaTrampoline.c:73:1
	it	eq
	bxeq	lr
.Ltmp39:
.LBB3_3:                                @   in Loop: Header=BB3_2 Depth=1
	@DEBUG_VALUE: i <- $r0
	@DEBUG_VALUE: get_idx:addr <- $r1
	.loc	1 65 54                         @ enolaTrampoline.c:65:54
	adds	r0, #1
.Ltmp40:
	@DEBUG_VALUE: i <- $r0
	.loc	1 65 2 is_stmt 0                @ enolaTrampoline.c:65:2
	cmp	r2, r0
	bne	.LBB3_2
.Ltmp41:
@ %bb.4:
	@DEBUG_VALUE: get_idx:addr <- $r1
	.loc	1 0 2                           @ enolaTrampoline.c:0:2
	mov.w	r0, #256
	.loc	1 73 1 is_stmt 1                @ enolaTrampoline.c:73:1
	bx	lr
.Ltmp42:
.Lfunc_end3:
	.size	get_idx, .Lfunc_end3-get_idx
	.cfi_endproc
	.cantunwind
	.fnend
                                        @ -- End function
	.section	.text.secure_trace_storage,"ax",%progbits
	.hidden	secure_trace_storage            @ -- Begin function secure_trace_storage
	.globl	secure_trace_storage
	.p2align	2
	.type	secure_trace_storage,%function
	.code	16                              @ @secure_trace_storage
	.thumb_func
	.globl	__acle_se_secure_trace_storage
	.type	__acle_se_secure_trace_storage,%function
__acle_se_secure_trace_storage:
secure_trace_storage:
.Lfunc_begin4:
	.loc	1 76 0                          @ enolaTrampoline.c:76:0
	.fnstart
	.cfi_startproc
@ %bb.0:
	@DEBUG_VALUE: secure_trace_storage:current_addr <- $r0
	.save	{r4, lr}
	push	{r4, lr}
	.cfi_def_cfa_offset 8
	.cfi_offset lr, -4
	.cfi_offset r4, -8
	movw	r1, #64480
	movt	r1, #65535
.Ltmp43:
	.loc	1 97 49 prologue_end            @ enolaTrampoline.c:97:49
	uxtah	r1, r1, r0
.Ltmp44:
	@DEBUG_VALUE: secure_trace_storage:map_idx <- $r1
	.loc	1 98 21                         @ enolaTrampoline.c:98:21
	movw	r12, :lower16:index_map
	movt	r12, :upper16:index_map
	ldrh.w	r2, [r12, r1, lsl #1]
	movw	r3, #65535
.Ltmp45:
	@DEBUG_VALUE: secure_trace_storage:idx <- $r2
	.loc	1 99 5                          @ enolaTrampoline.c:99:5
	cmp	r2, r3
	movw	r3, :lower16:To
	movt	r3, :upper16:To
	bne	.LBB4_2
.Ltmp46:
@ %bb.1:
	@DEBUG_VALUE: secure_trace_storage:idx <- $r2
	@DEBUG_VALUE: secure_trace_storage:map_idx <- $r1
	@DEBUG_VALUE: secure_trace_storage:current_addr <- $r0
	.loc	1 102 30                        @ enolaTrampoline.c:102:30
	movw	lr, :lower16:occurrence_trace_size
	movt	lr, :upper16:occurrence_trace_size
	movw	r4, #65532
	ldr.w	r2, [lr]
.Ltmp47:
	@DEBUG_VALUE: secure_trace_storage:idx <- $r2
	.loc	1 0 30 is_stmt 0                @ enolaTrampoline.c:0:30
	movt	r4, #3
	.loc	1 101 27 is_stmt 1              @ enolaTrampoline.c:101:27
	str	r0, [r3, r4]
	.loc	1 102 30                        @ enolaTrampoline.c:102:30
	adds	r0, r2, #1
.Ltmp48:
	@DEBUG_VALUE: secure_trace_storage:current_addr <- [DW_OP_LLVM_entry_value 1] $r0
	str.w	r0, [lr]
	.loc	1 103 22                        @ enolaTrampoline.c:103:22
	strh.w	r2, [r12, r1, lsl #1]
.Ltmp49:
.LBB4_2:
	@DEBUG_VALUE: secure_trace_storage:idx <- $r2
	@DEBUG_VALUE: secure_trace_storage:map_idx <- $r1
	@DEBUG_VALUE: secure_trace_storage:idx <- $r2
	.loc	1 108 2                         @ enolaTrampoline.c:108:2
	add.w	r0, r3, r2, lsl #2
	.loc	1 109 12                        @ enolaTrampoline.c:109:12
	movw	r2, :lower16:total_exec
.Ltmp50:
	.loc	1 108 26                        @ enolaTrampoline.c:108:26
	ldr.w	r1, [r0, #1024]
.Ltmp51:
	.loc	1 109 12                        @ enolaTrampoline.c:109:12
	movt	r2, :upper16:total_exec
	ldr	r3, [r2]
	.loc	1 108 26                        @ enolaTrampoline.c:108:26
	adds	r1, #1
	str.w	r1, [r0, #1024]
	.loc	1 109 12                        @ enolaTrampoline.c:109:12
	adds	r0, r3, #1
	str	r0, [r2]
	.loc	1 117 1                         @ enolaTrampoline.c:117:1
	pop.w	{r4, lr}
	mrs	r12, control
	tst.w	r12, #8
	beq	.LBB4_4
@ %bb.3:
	vmrs	r12, fpscr
	vmov	d0, lr, lr
	bic	r12, r12, #159
	bic	r12, r12, #4026531840
	vmsr	fpscr, r12
	vmov	d1, lr, lr
	vmov	d2, lr, lr
	vmov	d3, lr, lr
	vmov	d4, lr, lr
	vmov	d5, lr, lr
	vmov	d6, lr, lr
	vmov	d7, lr, lr
.LBB4_4:
	mov	r0, lr
	mov	r1, lr
	mov	r2, lr
	mov	r3, lr
	mov	r12, lr
	msr	apsr_nzcvqg, lr
	bxns	lr
.Ltmp52:
.Lfunc_end4:
	.size	secure_trace_storage, .Lfunc_end4-secure_trace_storage
	.cfi_endproc
	.cantunwind
	.fnend
                                        @ -- End function
	.section	.text.indirect_secure_trace_storage,"ax",%progbits
	.hidden	indirect_secure_trace_storage   @ -- Begin function indirect_secure_trace_storage
	.globl	indirect_secure_trace_storage
	.p2align	2
	.type	indirect_secure_trace_storage,%function
	.code	16                              @ @indirect_secure_trace_storage
	.thumb_func
	.globl	__acle_se_indirect_secure_trace_storage
	.type	__acle_se_indirect_secure_trace_storage,%function
__acle_se_indirect_secure_trace_storage:
indirect_secure_trace_storage:
.Lfunc_begin5:
	.loc	1 120 0                         @ enolaTrampoline.c:120:0
	.fnstart
	.cfi_startproc
@ %bb.0:
	@DEBUG_VALUE: indirect_secure_trace_storage:indirect_target <- $r0
	.save	{r4, lr}
	push	{r4, lr}
	.cfi_def_cfa_offset 8
	.cfi_offset lr, -4
	.cfi_offset r4, -8
	movw	r1, #64480
	movt	r1, #65535
.Ltmp53:
	.loc	1 150 52 prologue_end           @ enolaTrampoline.c:150:52
	uxtah	r1, r1, r0
.Ltmp54:
	@DEBUG_VALUE: indirect_secure_trace_storage:map_idx <- $r1
	.loc	1 151 21                        @ enolaTrampoline.c:151:21
	movw	r12, :lower16:index_map
	movt	r12, :upper16:index_map
	ldrh.w	r2, [r12, r1, lsl #1]
	movw	r3, #65535
.Ltmp55:
	@DEBUG_VALUE: indirect_secure_trace_storage:idx <- $r2
	.loc	1 152 5                         @ enolaTrampoline.c:152:5
	cmp	r2, r3
	movw	r3, :lower16:To
	movt	r3, :upper16:To
	bne	.LBB5_2
.Ltmp56:
@ %bb.1:
	@DEBUG_VALUE: indirect_secure_trace_storage:idx <- $r2
	@DEBUG_VALUE: indirect_secure_trace_storage:map_idx <- $r1
	@DEBUG_VALUE: indirect_secure_trace_storage:indirect_target <- $r0
	.loc	1 155 30                        @ enolaTrampoline.c:155:30
	movw	lr, :lower16:occurrence_trace_size
	movt	lr, :upper16:occurrence_trace_size
	movw	r4, #65532
	ldr.w	r2, [lr]
.Ltmp57:
	@DEBUG_VALUE: indirect_secure_trace_storage:idx <- $r2
	.loc	1 0 30 is_stmt 0                @ enolaTrampoline.c:0:30
	movt	r4, #3
	.loc	1 154 27 is_stmt 1              @ enolaTrampoline.c:154:27
	str	r0, [r3, r4]
	.loc	1 155 30                        @ enolaTrampoline.c:155:30
	adds	r0, r2, #1
.Ltmp58:
	@DEBUG_VALUE: indirect_secure_trace_storage:indirect_target <- [DW_OP_LLVM_entry_value 1] $r0
	str.w	r0, [lr]
	.loc	1 156 22                        @ enolaTrampoline.c:156:22
	strh.w	r2, [r12, r1, lsl #1]
.Ltmp59:
.LBB5_2:
	@DEBUG_VALUE: indirect_secure_trace_storage:idx <- $r2
	@DEBUG_VALUE: indirect_secure_trace_storage:map_idx <- $r1
	@DEBUG_VALUE: indirect_secure_trace_storage:idx <- $r2
	.loc	1 160 2                         @ enolaTrampoline.c:160:2
	add.w	r0, r3, r2, lsl #2
	.loc	1 161 12                        @ enolaTrampoline.c:161:12
	movw	r2, :lower16:total_exec
.Ltmp60:
	.loc	1 160 26                        @ enolaTrampoline.c:160:26
	ldr.w	r1, [r0, #1024]
.Ltmp61:
	.loc	1 161 12                        @ enolaTrampoline.c:161:12
	movt	r2, :upper16:total_exec
	ldr	r3, [r2]
	.loc	1 160 26                        @ enolaTrampoline.c:160:26
	adds	r1, #1
	str.w	r1, [r0, #1024]
	.loc	1 161 12                        @ enolaTrampoline.c:161:12
	adds	r0, r3, #1
	str	r0, [r2]
	.loc	1 168 1                         @ enolaTrampoline.c:168:1
	pop.w	{r4, lr}
	mrs	r12, control
	tst.w	r12, #8
	beq	.LBB5_4
@ %bb.3:
	vmrs	r12, fpscr
	vmov	d0, lr, lr
	bic	r12, r12, #159
	bic	r12, r12, #4026531840
	vmsr	fpscr, r12
	vmov	d1, lr, lr
	vmov	d2, lr, lr
	vmov	d3, lr, lr
	vmov	d4, lr, lr
	vmov	d5, lr, lr
	vmov	d6, lr, lr
	vmov	d7, lr, lr
.LBB5_4:
	mov	r0, lr
	mov	r1, lr
	mov	r2, lr
	mov	r3, lr
	mov	r12, lr
	msr	apsr_nzcvqg, lr
	bxns	lr
.Ltmp62:
.Lfunc_end5:
	.size	indirect_secure_trace_storage, .Lfunc_end5-indirect_secure_trace_storage
	.cfi_endproc
	.cantunwind
	.fnend
                                        @ -- End function
	.section	.text.linear_ITL_search,"ax",%progbits
	.hidden	linear_ITL_search               @ -- Begin function linear_ITL_search
	.globl	linear_ITL_search
	.p2align	2
	.type	linear_ITL_search,%function
	.code	16                              @ @linear_ITL_search
	.thumb_func
linear_ITL_search:
.Lfunc_begin6:
	.loc	1 170 0                         @ enolaTrampoline.c:170:0
	.fnstart
	.cfi_startproc
@ %bb.0:
	@DEBUG_VALUE: linear_ITL_search:target <- $r0
	.loc	1 179 1 prologue_end            @ enolaTrampoline.c:179:1
	movs	r0, #1
.Ltmp63:
	@DEBUG_VALUE: linear_ITL_search:target <- [DW_OP_LLVM_entry_value 1] $r0
	bx	lr
.Ltmp64:
.Lfunc_end6:
	.size	linear_ITL_search, .Lfunc_end6-linear_ITL_search
	.cfi_endproc
	.cantunwind
	.fnend
                                        @ -- End function
	.section	.text.init_registers,"ax",%progbits
	.hidden	init_registers                  @ -- Begin function init_registers
	.globl	init_registers
	.p2align	2
	.type	init_registers,%function
	.code	16                              @ @init_registers
	.thumb_func
init_registers:
.Lfunc_begin7:
	.loc	1 202 0                         @ enolaTrampoline.c:202:0
	.fnstart
	.cfi_startproc
@ %bb.0:
	.loc	1 203 2 prologue_end            @ enolaTrampoline.c:203:2
	@APP
	mov.w	r10, #0
	mov.w	r11, #0

	@NO_APP
.Ltmp65:
.Lfunc_end7:
	.size	init_registers, .Lfunc_end7-init_registers
	.cfi_endproc
	.cantunwind
	.fnend
                                        @ -- End function
	.hidden	IBT_size                        @ @IBT_size
	.type	IBT_size,%object
	.section	.data.IBT_size,"aw",%progbits
	.globl	IBT_size
	.p2align	2
IBT_size:
	.long	822345728
	.size	IBT_size, 4

	.hidden	IBT_entry                       @ @IBT_entry
	.type	IBT_entry,%object
	.section	.data.IBT_entry,"aw",%progbits
	.globl	IBT_entry
	.p2align	2
IBT_entry:
	.long	822345732
	.size	IBT_entry, 4

	.hidden	occurrence_trace_size           @ @occurrence_trace_size
	.type	occurrence_trace_size,%object
	.section	.bss.occurrence_trace_size,"aw",%nobits
	.globl	occurrence_trace_size
	.p2align	2
occurrence_trace_size:
	.long	0                               @ 0x0
	.size	occurrence_trace_size, 4

	.hidden	total_exec                      @ @total_exec
	.type	total_exec,%object
	.section	.bss.total_exec,"aw",%nobits
	.globl	total_exec
	.p2align	2
total_exec:
	.long	0                               @ 0x0
	.size	total_exec, 4

	.hidden	To                              @ @To
	.type	To,%object
	.section	.bss.To,"aw",%nobits
	.globl	To
	.p2align	2
To:
	.zero	2056
	.size	To, 2056

	.hidden	index_map                       @ @index_map
	.type	index_map,%object
	.section	.bss.index_map,"aw",%nobits
	.globl	index_map
	.p2align	1
index_map:
	.zero	11200
	.size	index_map, 11200

	.type	.L.str.2,%object                @ @.str.2
	.section	.rodata.str1.1,"aMS",%progbits,1
.L.str.2:
	.asciz	"\r\n Address: 0x%x Count: 0x%x \r\n"
	.size	.L.str.2, 32

	.type	.Lstr.4,%object                 @ @str.4
.Lstr.4:
	.asciz	"\r\n ----------------Occurence Trace end-------------- \r"
	.size	.Lstr.4, 55

	.hidden	_printf_percent
	.hidden	_printf_x
	.hidden	_printf_d
	.hidden	_printf_int_dec
	.hidden	_printf_longlong_hex
	.section	".note.GNU-stack","",%progbits
	.ARM_attribute	16, 1	@ Tag_AV_eba