	.text
	.syntax unified
	.eabi_attribute	67, "2.09"	@ Tag_conformance
	.cpu	cortex-m33
	.eabi_attribute	6, 17	@ Tag_CPU_arch
	.eabi_attribute	7, 77	@ Tag_CPU_arch_profile
	.eabi_attribute	8, 0	@ Tag_ARM_ISA_use
	.eabi_attribute	9, 3	@ Tag_THUMB_ISA_use
	.fpu	fpv5-sp-d16
	.eabi_attribute	27, 1	@ Tag_ABI_HardFP_use
	.eabi_attribute	36, 1	@ Tag_FP_HP_extension
	.eabi_attribute	46, 1	@ Tag_DSP_extension
	.eabi_attribute	34, 1	@ Tag_CPU_unaligned_access
	.eabi_attribute	17, 1	@ Tag_ABI_PCS_GOT_use
	.eabi_attribute	20, 2	@ Tag_ABI_FP_denormal
	.eabi_attribute	21, 0	@ Tag_ABI_FP_exceptions
	.eabi_attribute	23, 1	@ Tag_ABI_FP_number_model
	.eabi_attribute	24, 1	@ Tag_ABI_align_needed
	.eabi_attribute	25, 1	@ Tag_ABI_align_preserved
	.eabi_attribute	28, 1	@ Tag_ABI_VFP_args
	.eabi_attribute	38, 1	@ Tag_ABI_FP_16bit_format
	.eabi_attribute	18, 2	@ Tag_ABI_PCS_wchar_t
	.eabi_attribute	26, 1	@ Tag_ABI_enum_size
	.eabi_attribute	14, 0	@ Tag_ABI_PCS_R9_use
	.file	"main_s.c"
	.file	1 "C:\\Users\\dakum\\OneDrive\\Desktop\\projects\\code-CFA-with-pac\\Evaluation\\TrustZoneV8m33\\Boards\\ARM\\V2M-MPS2\\IOTKit_CM33\\IOTKit_CM33_S_NS\\IOTKit_CM33_s" "main_s.c"
	.file	2 "C:\\" "Keil_v5\\ARM\\ARMCLANG\\Bin\\..\\include\\stdint.h"
	.file	3 "C:/Users/dakum/AppData/Local/Arm/Packs/Keil/V2M-MPS2_IOTKit_BSP/1.5.1/Device/IOTKit_CM33/Include" "IOTKit_CM33_FP.h"
	.file	4 "C:/Users/dakum/AppData/Local/Arm/Packs/ARM/CMSIS/6.0.0/CMSIS/Core/Include" "core_cm33.h"
	.section	.text.Secure_LED_On,"ax",%progbits
	.hidden	Secure_LED_On                   @ -- Begin function Secure_LED_On
	.globl	Secure_LED_On
	.p2align	2
	.type	Secure_LED_On,%function
	.code	16                              @ @Secure_LED_On
	.thumb_func
	.globl	__acle_se_Secure_LED_On
	.type	__acle_se_Secure_LED_On,%function
__acle_se_Secure_LED_On:
Secure_LED_On:
.Lfunc_begin0:
	.loc	1 41 0                          @ main_s.c:41:0
	.fnstart
	.cfi_sections .debug_frame
	.cfi_startproc
@ %bb.0:
	@DEBUG_VALUE: Secure_LED_On:num <- $r0
	.save	{r7, lr}
	push	{r7, lr}
	.cfi_def_cfa_offset 8
	.cfi_offset lr, -4
	.cfi_offset r7, -8
.Ltmp0:
	.loc	1 42 10 prologue_end            @ main_s.c:42:10
	bl	LED_On
.Ltmp1:
	@DEBUG_VALUE: Secure_LED_On:num <- [DW_OP_LLVM_entry_value 1] $r0
	.loc	1 42 3 is_stmt 0                @ main_s.c:42:3
	pop.w	{r7, lr}
	mrs	r12, control
	tst.w	r12, #8
	beq	.LBB0_2
.Ltmp2:
@ %bb.1:
	@DEBUG_VALUE: Secure_LED_On:num <- [DW_OP_LLVM_entry_value 1] $r0
	vmrs	r12, fpscr
	vmov	d0, lr, lr
	bic	r12, r12, #159
	bic	r12, r12, #4026531840
	vmsr	fpscr, r12
	vmov	d1, lr, lr
	vmov	d2, lr, lr
	vmov	d3, lr, lr
	vmov	d4, lr, lr
	vmov	d5, lr, lr
	vmov	d6, lr, lr
	vmov	d7, lr, lr
.Ltmp3:
.LBB0_2:
	@DEBUG_VALUE: Secure_LED_On:num <- [DW_OP_LLVM_entry_value 1] $r0
	mov	r1, lr
	mov	r2, lr
	mov	r3, lr
	mov	r12, lr
	msr	apsr_nzcvqg, lr
	bxns	lr
.Ltmp4:
.Lfunc_end0:
	.size	Secure_LED_On, .Lfunc_end0-Secure_LED_On
	.cfi_endproc
	.cantunwind
	.fnend
                                        @ -- End function
	.section	.text.Secure_LED_Off,"ax",%progbits
	.hidden	Secure_LED_Off                  @ -- Begin function Secure_LED_Off
	.globl	Secure_LED_Off
	.p2align	2
	.type	Secure_LED_Off,%function
	.code	16                              @ @Secure_LED_Off
	.thumb_func
	.globl	__acle_se_Secure_LED_Off
	.type	__acle_se_Secure_LED_Off,%function
__acle_se_Secure_LED_Off:
Secure_LED_Off:
.Lfunc_begin1:
	.loc	1 47 0 is_stmt 1                @ main_s.c:47:0
	.fnstart
	.cfi_startproc
@ %bb.0:
	@DEBUG_VALUE: Secure_LED_Off:num <- $r0
	.save	{r7, lr}
	push	{r7, lr}
	.cfi_def_cfa_offset 8
	.cfi_offset lr, -4
	.cfi_offset r7, -8
.Ltmp5:
	.loc	1 48 10 prologue_end            @ main_s.c:48:10
	bl	LED_Off
.Ltmp6:
	@DEBUG_VALUE: Secure_LED_Off:num <- [DW_OP_LLVM_entry_value 1] $r0
	.loc	1 48 3 is_stmt 0                @ main_s.c:48:3
	pop.w	{r7, lr}
	mrs	r12, control
	tst.w	r12, #8
	beq	.LBB1_2
.Ltmp7:
@ %bb.1:
	@DEBUG_VALUE: Secure_LED_Off:num <- [DW_OP_LLVM_entry_value 1] $r0
	vmrs	r12, fpscr
	vmov	d0, lr, lr
	bic	r12, r12, #159
	bic	r12, r12, #4026531840
	vmsr	fpscr, r12
	vmov	d1, lr, lr
	vmov	d2, lr, lr
	vmov	d3, lr, lr
	vmov	d4, lr, lr
	vmov	d5, lr, lr
	vmov	d6, lr, lr
	vmov	d7, lr, lr
.Ltmp8:
.LBB1_2:
	@DEBUG_VALUE: Secure_LED_Off:num <- [DW_OP_LLVM_entry_value 1] $r0
	mov	r1, lr
	mov	r2, lr
	mov	r3, lr
	mov	r12, lr
	msr	apsr_nzcvqg, lr
	bxns	lr
.Ltmp9:
.Lfunc_end1:
	.size	Secure_LED_Off, .Lfunc_end1-Secure_LED_Off
	.cfi_endproc
	.cantunwind
	.fnend
                                        @ -- End function
	.section	.text.Secure_printf,"ax",%progbits
	.hidden	Secure_printf                   @ -- Begin function Secure_printf
	.globl	Secure_printf
	.p2align	2
	.type	Secure_printf,%function
	.code	16                              @ @Secure_printf
	.thumb_func
	.globl	__acle_se_Secure_printf
	.type	__acle_se_Secure_printf,%function
__acle_se_Secure_printf:
Secure_printf:
.Lfunc_begin2:
	.loc	1 53 0 is_stmt 1                @ main_s.c:53:0
	.fnstart
	.cfi_startproc
@ %bb.0:
	@DEBUG_VALUE: Secure_printf:pString <- $r0
	.save	{r7, lr}
	push	{r7, lr}
	.cfi_def_cfa_offset 8
	.cfi_offset lr, -4
	.cfi_offset r7, -8
	mov	r1, r0
.Ltmp10:
	@DEBUG_VALUE: Secure_printf:pString <- $r1
	.loc	1 54 3 prologue_end             @ main_s.c:54:3
	movw	r0, :lower16:.L.str
	movt	r0, :upper16:.L.str
	bl	__2printf
.Ltmp11:
	.loc	1 55 1                          @ main_s.c:55:1
	pop.w	{r7, lr}
	mrs	r12, control
	tst.w	r12, #8
	beq	.LBB2_2
@ %bb.1:
	vmrs	r12, fpscr
	vmov	d0, lr, lr
	bic	r12, r12, #159
	bic	r12, r12, #4026531840
	vmsr	fpscr, r12
	vmov	d1, lr, lr
	vmov	d2, lr, lr
	vmov	d3, lr, lr
	vmov	d4, lr, lr
	vmov	d5, lr, lr
	vmov	d6, lr, lr
	vmov	d7, lr, lr
.LBB2_2:
	mov	r0, lr
	mov	r1, lr
	mov	r2, lr
	mov	r3, lr
	mov	r12, lr
	msr	apsr_nzcvqg, lr
	bxns	lr
.Ltmp12:
.Lfunc_end2:
	.size	Secure_printf, .Lfunc_end2-Secure_printf
	.cfi_endproc
	.cantunwind
	.fnend
                                        @ -- End function
	.section	.text.test_llvm_nsc,"ax",%progbits
	.hidden	test_llvm_nsc                   @ -- Begin function test_llvm_nsc
	.globl	test_llvm_nsc
	.p2align	2
	.type	test_llvm_nsc,%function
	.code	16                              @ @test_llvm_nsc
	.thumb_func
	.globl	__acle_se_test_llvm_nsc
	.type	__acle_se_test_llvm_nsc,%function
__acle_se_test_llvm_nsc:
test_llvm_nsc:
.Lfunc_begin3:
	.loc	1 59 0                          @ main_s.c:59:0
	.fnstart
	.cfi_startproc
@ %bb.0:
	@DEBUG_VALUE: test_llvm_nsc:a <- $r0
	.save	{r7, lr}
	push	{r7, lr}
	.cfi_def_cfa_offset 8
	.cfi_offset lr, -4
	.cfi_offset r7, -8
	mov	r1, r0
.Ltmp13:
	@DEBUG_VALUE: test_llvm_nsc:a <- $r1
	.loc	1 60 3 prologue_end             @ main_s.c:60:3
	adr	r0, .LCPI3_0
	bl	__2printf
.Ltmp14:
	.loc	1 61 1                          @ main_s.c:61:1
	pop.w	{r7, lr}
	mrs	r12, control
	tst.w	r12, #8
	beq	.LBB3_2
@ %bb.1:
	vmrs	r12, fpscr
	vmov	d0, lr, lr
	bic	r12, r12, #159
	bic	r12, r12, #4026531840
	vmsr	fpscr, r12
	vmov	d1, lr, lr
	vmov	d2, lr, lr
	vmov	d3, lr, lr
	vmov	d4, lr, lr
	vmov	d5, lr, lr
	vmov	d6, lr, lr
	vmov	d7, lr, lr
.LBB3_2:
	mov	r0, lr
	mov	r1, lr
	mov	r2, lr
	mov	r3, lr
	mov	r12, lr
	msr	apsr_nzcvqg, lr
	bxns	lr
.Ltmp15:
	.p2align	2
@ %bb.3:
	.loc	1 0 1 is_stmt 0                 @ main_s.c:0:1
.LCPI3_0:
.L.str.1:
	.asciz	"LLVM NSC compiled count: 0x%x\n\r"
.Lfunc_end3:
	.size	test_llvm_nsc, .Lfunc_end3-test_llvm_nsc
	.cfi_endproc
	.cantunwind
	.fnend
                                        @ -- End function
	.section	.text.Secure_LED_On_callback,"ax",%progbits
	.hidden	Secure_LED_On_callback          @ -- Begin function Secure_LED_On_callback
	.globl	Secure_LED_On_callback
	.p2align	2
	.type	Secure_LED_On_callback,%function
	.code	16                              @ @Secure_LED_On_callback
	.thumb_func
	.globl	__acle_se_Secure_LED_On_callback
	.type	__acle_se_Secure_LED_On_callback,%function
__acle_se_Secure_LED_On_callback:
Secure_LED_On_callback:
.Lfunc_begin4:
	.loc	1 69 0 is_stmt 1                @ main_s.c:69:0
	.fnstart
	.cfi_startproc
@ %bb.0:
	@DEBUG_VALUE: Secure_LED_On_callback:callback <- $r0
	.loc	1 70 22 prologue_end            @ main_s.c:70:22
	movw	r2, :lower16:pfNonSecure_LED_On
	mov	r1, r0
.Ltmp16:
	@DEBUG_VALUE: Secure_LED_On_callback:callback <- $r1
	movt	r2, :upper16:pfNonSecure_LED_On
	str	r1, [r2]
	.loc	1 71 3                          @ main_s.c:71:3
	mrs	r12, control
	movs	r0, #0
	tst.w	r12, #8
	beq	.LBB4_2
.Ltmp17:
@ %bb.1:
	@DEBUG_VALUE: Secure_LED_On_callback:callback <- $r1
	vmrs	r12, fpscr
	vmov	d0, lr, lr
	bic	r12, r12, #159
	bic	r12, r12, #4026531840
	vmsr	fpscr, r12
	vmov	d1, lr, lr
	vmov	d2, lr, lr
	vmov	d3, lr, lr
	vmov	d4, lr, lr
	vmov	d5, lr, lr
	vmov	d6, lr, lr
	vmov	d7, lr, lr
.Ltmp18:
.LBB4_2:
	@DEBUG_VALUE: Secure_LED_On_callback:callback <- $r1
	mov	r1, lr
.Ltmp19:
	mov	r2, lr
	mov	r3, lr
	mov	r12, lr
	msr	apsr_nzcvqg, lr
	bxns	lr
.Ltmp20:
.Lfunc_end4:
	.size	Secure_LED_On_callback, .Lfunc_end4-Secure_LED_On_callback
	.cfi_endproc
	.cantunwind
	.fnend
                                        @ -- End function
	.section	.text.Secure_LED_Off_callback,"ax",%progbits
	.hidden	Secure_LED_Off_callback         @ -- Begin function Secure_LED_Off_callback
	.globl	Secure_LED_Off_callback
	.p2align	2
	.type	Secure_LED_Off_callback,%function
	.code	16                              @ @Secure_LED_Off_callback
	.thumb_func
	.globl	__acle_se_Secure_LED_Off_callback
	.type	__acle_se_Secure_LED_Off_callback,%function
__acle_se_Secure_LED_Off_callback:
Secure_LED_Off_callback:
.Lfunc_begin5:
	.loc	1 76 0                          @ main_s.c:76:0
	.fnstart
	.cfi_startproc
@ %bb.0:
	@DEBUG_VALUE: Secure_LED_Off_callback:callback <- $r0
	.loc	1 77 23 prologue_end            @ main_s.c:77:23
	movw	r2, :lower16:pfNonSecure_LED_Off
	mov	r1, r0
.Ltmp21:
	@DEBUG_VALUE: Secure_LED_Off_callback:callback <- $r1
	movt	r2, :upper16:pfNonSecure_LED_Off
	str	r1, [r2]
	.loc	1 78 3                          @ main_s.c:78:3
	mrs	r12, control
	movs	r0, #0
	tst.w	r12, #8
	beq	.LBB5_2
.Ltmp22:
@ %bb.1:
	@DEBUG_VALUE: Secure_LED_Off_callback:callback <- $r1
	vmrs	r12, fpscr
	vmov	d0, lr, lr
	bic	r12, r12, #159
	bic	r12, r12, #4026531840
	vmsr	fpscr, r12
	vmov	d1, lr, lr
	vmov	d2, lr, lr
	vmov	d3, lr, lr
	vmov	d4, lr, lr
	vmov	d5, lr, lr
	vmov	d6, lr, lr
	vmov	d7, lr, lr
.Ltmp23:
.LBB5_2:
	@DEBUG_VALUE: Secure_LED_Off_callback:callback <- $r1
	mov	r1, lr
.Ltmp24:
	mov	r2, lr
	mov	r3, lr
	mov	r12, lr
	msr	apsr_nzcvqg, lr
	bxns	lr
.Ltmp25:
.Lfunc_end5:
	.size	Secure_LED_Off_callback, .Lfunc_end5-Secure_LED_Off_callback
	.cfi_endproc
	.cantunwind
	.fnend
                                        @ -- End function
	.section	.text.SysTick_Handler,"ax",%progbits
	.hidden	SysTick_Handler                 @ -- Begin function SysTick_Handler
	.globl	SysTick_Handler
	.p2align	2
	.type	SysTick_Handler,%function
	.code	16                              @ @SysTick_Handler
	.thumb_func
SysTick_Handler:
.Lfunc_begin6:
	.loc	1 86 0                          @ main_s.c:86:0
	.fnstart
	.cfi_startproc
@ %bb.0:
	.save	{r4, r5, r7, lr}
	push	{r4, r5, r7, lr}
	.cfi_def_cfa_offset 16
	.cfi_offset lr, -4
	.cfi_offset r7, -8
	.cfi_offset r5, -12
	.cfi_offset r4, -16
.Ltmp26:
	.loc	1 90 16 prologue_end            @ main_s.c:90:16
	movw	r0, :lower16:SysTick_Handler.ticks
	movt	r0, :upper16:SysTick_Handler.ticks
	ldr	r2, [r0]
	adds	r1, r2, #1
	.loc	1 90 3 is_stmt 0                @ main_s.c:90:3
	cmp	r2, #29
	.loc	1 90 16                         @ main_s.c:90:16
	str	r1, [r0]
	.loc	1 90 3                          @ main_s.c:90:3
	ble	.LBB6_6
@ %bb.1:
	cmp	r2, #30
	beq	.LBB6_9
@ %bb.2:
	cmp	r2, #50
	beq	.LBB6_11
@ %bb.3:
	cmp	r2, #99
	bne	.LBB6_14
@ %bb.4:
.Ltmp27:
	.loc	1 111 23 is_stmt 1              @ main_s.c:111:23
	movw	r5, :lower16:SysTick_Handler.ticks_printf
	movt	r5, :upper16:SysTick_Handler.ticks_printf
	ldr	r1, [r5]
	movs	r4, #0
.Ltmp28:
	.loc	1 110 13                        @ main_s.c:110:13
	str	r4, [r0]
.Ltmp29:
	.loc	1 111 23                        @ main_s.c:111:23
	adds	r0, r1, #1
.Ltmp30:
	.loc	1 111 11 is_stmt 0              @ main_s.c:111:11
	cmp	r1, #3
.Ltmp31:
	.loc	1 111 23                        @ main_s.c:111:23
	str	r0, [r5]
	bne	.LBB6_10
@ %bb.5:
.Ltmp32:
	.loc	1 113 9 is_stmt 1               @ main_s.c:113:9
	movw	r0, :lower16:.L.str
	movw	r1, :lower16:text
	movt	r0, :upper16:.L.str
	movt	r1, :upper16:text
	bl	__2printf
.Ltmp33:
	.loc	1 114 22                        @ main_s.c:114:22
	str	r4, [r5]
.Ltmp34:
	.loc	1 122 1                         @ main_s.c:122:1
	pop	{r4, r5, r7, pc}
.LBB6_6:
	.loc	1 90 3                          @ main_s.c:90:3
	cmp	r2, #10
	beq	.LBB6_13
@ %bb.7:
	cmp	r2, #20
	bne	.LBB6_14
@ %bb.8:
.Ltmp35:
	.loc	1 95 7                          @ main_s.c:95:7
	movs	r0, #0
	bl	LED_Off
.Ltmp36:
	.loc	1 122 1                         @ main_s.c:122:1
	pop	{r4, r5, r7, pc}
.LBB6_9:
.Ltmp37:
	.loc	1 98 11                         @ main_s.c:98:11
	movw	r0, :lower16:pfNonSecure_LED_On
	movt	r0, :upper16:pfNonSecure_LED_On
	ldr	r1, [r0]
.Ltmp38:
	.loc	1 98 11 is_stmt 0               @ main_s.c:98:11
	cbnz	r1, .LBB6_12
.Ltmp39:
.LBB6_10:
	.loc	1 122 1 is_stmt 1               @ main_s.c:122:1
	pop	{r4, r5, r7, pc}
.LBB6_11:
.Ltmp40:
	.loc	1 104 11                        @ main_s.c:104:11
	movw	r0, :lower16:pfNonSecure_LED_Off
	movt	r0, :upper16:pfNonSecure_LED_Off
	ldr	r1, [r0]
.Ltmp41:
	.loc	1 104 11 is_stmt 0              @ main_s.c:104:11
	cmp	r1, #0
.Ltmp42:
	.loc	1 122 1 is_stmt 1               @ main_s.c:122:1
	it	eq
	popeq	{r4, r5, r7, pc}
.LBB6_12:
.Ltmp43:
	.loc	1 0 0 is_stmt 0                 @ main_s.c:0:0
	movs	r0, #1
	push.w	{r4, r5, r6, r7, r8, r9, r10, r11}
	bic	r1, r1, #1
	sub	sp, #136
	vlstm	sp
	mov	r2, r1
	mov	r3, r1
	mov	r4, r1
	mov	r5, r1
	mov	r6, r1
	mov	r7, r1
	mov	r8, r1
	mov	r9, r1
	mov	r10, r1
	mov	r11, r1
	mov	r12, r1
	msr	apsr_nzcvqg, r1
	blxns	r1
.Ltmp44:
	.loc	1 100 9 is_stmt 1               @ main_s.c:100:9
	mrs	r12, control
	tst.w	r12, #8
	it	ne
	vmovne.f32	s0, s0
.Ltmp45:
	.loc	1 0 0 is_stmt 0                 @ main_s.c:0:0
	vlldm	sp
	add	sp, #136
	pop.w	{r4, r5, r6, r7, r8, r9, r10, r11}
.Ltmp46:
	.loc	1 122 1 is_stmt 1               @ main_s.c:122:1
	pop	{r4, r5, r7, pc}
.LBB6_13:
.Ltmp47:
	.loc	1 92 7                          @ main_s.c:92:7
	movs	r0, #0
	bl	LED_On
.Ltmp48:
	.loc	1 122 1                         @ main_s.c:122:1
	pop	{r4, r5, r7, pc}
.LBB6_14:
.Ltmp49:
	.loc	1 118 11                        @ main_s.c:118:11
	cmp	r1, #100
	itt	hs
	movhs	r1, #0
.Ltmp50:
	.loc	1 119 15                        @ main_s.c:119:15
	strhs	r1, [r0]
.Ltmp51:
	.loc	1 122 1                         @ main_s.c:122:1
	pop	{r4, r5, r7, pc}
.Ltmp52:
.Lfunc_end6:
	.size	SysTick_Handler, .Lfunc_end6-SysTick_Handler
	.cfi_endproc
	.cantunwind
	.fnend
                                        @ -- End function
	.section	.text.main,"ax",%progbits
	.hidden	main                            @ -- Begin function main
	.globl	main
	.p2align	2
	.type	main,%function
	.code	16                              @ @main
	.thumb_func
main:
.Lfunc_begin7:
	.loc	1 130 0                         @ main_s.c:130:0
	.fnstart
	.cfi_startproc
@ %bb.0:
	.save	{r4, r5, r6, lr}
	push	{r4, r5, r6, lr}
	.cfi_def_cfa_offset 16
	.cfi_offset lr, -4
	.cfi_offset r6, -8
	.cfi_offset r5, -12
	.cfi_offset r4, -16
	.pad	#16
	sub	sp, #16
	.cfi_def_cfa_offset 32
	movs	r1, #4
	movt	r1, #32
.Ltmp53:
	.loc	1 132 64 prologue_end           @ main_s.c:132:64
	ldr	r4, [r1]
.Ltmp54:
	@DEBUG_VALUE: main:NonSecure_ResetHandler <- $r4
	.loc	1 0 64 is_stmt 0                @ main_s.c:0:64
	movw	r1, #61248
	mov.w	r0, #2097152
	movt	r1, #57344
	.loc	1 131 64 is_stmt 1              @ main_s.c:131:64
	ldr	r0, [r0]
.Ltmp55:
	@DEBUG_VALUE: main:NonSecure_StackPointer <- $r0
	.loc	4 2794 16                       @ C:/Users/dakum/AppData/Local/Arm/Packs/ARM/CMSIS/6.0.0/CMSIS/Core/Include\core_cm33.h:2794:16
	ldr	r1, [r1]
.Ltmp56:
	@DEBUG_VALUE: SCB_GetFPUType:mvfr0 <- $r1
	.loc	4 0 16 is_stmt 0                @ C:/Users/dakum/AppData/Local/Arm/Packs/ARM/CMSIS/6.0.0/CMSIS/Core/Include\core_cm33.h:0:16
	movw	r5, #57360
.Ltmp57:
	.loc	4 2795 19 is_stmt 1             @ C:/Users/dakum/AppData/Local/Arm/Packs/ARM/CMSIS/6.0.0/CMSIS/Core/Include\core_cm33.h:2795:19
	and	r1, r1, #4080
.Ltmp58:
	.loc	4 2795 12 is_stmt 0             @ C:/Users/dakum/AppData/Local/Arm/Packs/ARM/CMSIS/6.0.0/CMSIS/Core/Include\core_cm33.h:2795:12
	sub.w	r2, r1, #32
	clz	r2, r2
	cmp.w	r1, #544
	movw	r1, #20133
	lsr.w	r2, r2, #5
	movt	r1, #16711
	it	eq
	moveq	r2, #2
.Ltmp59:
	.loc	1 135 21 is_stmt 1              @ main_s.c:135:21
	str	r2, [sp, #12]
	.loc	1 136 19                        @ main_s.c:136:19
	str	r1, [sp, #8]
	movw	r1, #61077
	movt	r1, #16169
	.loc	1 137 19                        @ main_s.c:137:19
	str	r1, [sp, #4]
	movw	r1, #58255
	movt	r1, #16832
	.loc	1 138 19                        @ main_s.c:138:19
	str	r1, [sp]
	.loc	1 140 8                         @ main_s.c:140:8
	vldr	s0, [sp]
	.loc	1 140 14 is_stmt 0              @ main_s.c:140:14
	vldr	s2, [sp, #8]
	.loc	1 140 19                        @ main_s.c:140:19
	vldr	s4, [sp, #4]
	movt	r5, #57344
	.loc	1 140 17                        @ main_s.c:140:17
	vdiv.f32	s2, s2, s4
	.loc	1 140 11                        @ main_s.c:140:11
	vmul.f32	s0, s0, s2
	.loc	1 140 6                         @ main_s.c:140:6
	vstr	s0, [sp]
.Ltmp60:
	.file	5 "C:/Users/dakum/AppData/Local/Arm/Packs/ARM/CMSIS/6.0.0/CMSIS/Core/Include/./m-profile" "cmsis_armclang_m.h"
	.loc	5 874 3 is_stmt 1               @ C:/Users/dakum/AppData/Local/Arm/Packs/ARM/CMSIS/6.0.0/CMSIS/Core/Include/./m-profile/cmsis_armclang_m.h:874:3
	@APP
	mrs	r1, msp
	@NO_APP
.Ltmp61:
	@DEBUG_VALUE: __get_MSP:result <- $r1
	.loc	5 820 3                         @ C:/Users/dakum/AppData/Local/Arm/Packs/ARM/CMSIS/6.0.0/CMSIS/Core/Include/./m-profile/cmsis_armclang_m.h:820:3
	@APP
	mrs	r1, psp
	@NO_APP
.Ltmp62:
	@DEBUG_VALUE: __TZ_set_MSP_NS:topOfMainStack <- $r0
	@DEBUG_VALUE: __get_PSP:result <- $r1
	.loc	5 914 3                         @ C:/Users/dakum/AppData/Local/Arm/Packs/ARM/CMSIS/6.0.0/CMSIS/Core/Include/./m-profile/cmsis_armclang_m.h:914:3
	@APP
	msr	msp_ns, r0
	@NO_APP
.Ltmp63:
	.loc	5 889 3                         @ C:/Users/dakum/AppData/Local/Arm/Packs/ARM/CMSIS/6.0.0/CMSIS/Core/Include/./m-profile/cmsis_armclang_m.h:889:3
	@APP
	mrs	r0, msp_ns
	@NO_APP
.Ltmp64:
	@DEBUG_VALUE: __TZ_get_MSP_NS:result <- $r0
	.loc	5 0 3 is_stmt 0                 @ C:/Users/dakum/AppData/Local/Arm/Packs/ARM/CMSIS/6.0.0/CMSIS/Core/Include/./m-profile/cmsis_armclang_m.h:0:3
	mov.w	r0, #570425344
.Ltmp65:
	@DEBUG_VALUE: __TZ_set_PSP_NS:topOfProcStack <- 570425344
	.loc	5 860 3 is_stmt 1               @ C:/Users/dakum/AppData/Local/Arm/Packs/ARM/CMSIS/6.0.0/CMSIS/Core/Include/./m-profile/cmsis_armclang_m.h:860:3
	@APP
	msr	psp_ns, r0
	@NO_APP
.Ltmp66:
	.loc	5 835 3                         @ C:/Users/dakum/AppData/Local/Arm/Packs/ARM/CMSIS/6.0.0/CMSIS/Core/Include/./m-profile/cmsis_armclang_m.h:835:3
	@APP
	mrs	r0, psp_ns
	@NO_APP
.Ltmp67:
	@DEBUG_VALUE: __TZ_get_PSP_NS:result <- $r0
	.loc	1 150 3                         @ main_s.c:150:3
	bl	SystemCoreClockUpdate
.Ltmp68:
	.loc	1 152 3                         @ main_s.c:152:3
	bl	stdout_init
.Ltmp69:
	.loc	1 153 3                         @ main_s.c:153:3
	bl	LED_Initialize
.Ltmp70:
	.loc	1 154 3                         @ main_s.c:154:3
	bl	GLCD_Initialize
.Ltmp71:
	.loc	1 157 3                         @ main_s.c:157:3
	movw	r0, :lower16:GLCD_Font_16x24
	movt	r0, :upper16:GLCD_Font_16x24
	bl	GLCD_SetFont
.Ltmp72:
	.loc	1 158 3                         @ main_s.c:158:3
	movw	r0, #65535
	bl	GLCD_SetBackgroundColor
.Ltmp73:
	.loc	1 159 3                         @ main_s.c:159:3
	bl	GLCD_ClearScreen
.Ltmp74:
	.loc	1 160 3                         @ main_s.c:160:3
	movs	r0, #31
	bl	GLCD_SetBackgroundColor
.Ltmp75:
	.loc	1 161 3                         @ main_s.c:161:3
	mov.w	r0, #63488
	bl	GLCD_SetForegroundColor
.Ltmp76:
	.loc	1 162 3                         @ main_s.c:162:3
	adr	r2, .LCPI7_0
	movs	r0, #0
	movs	r1, #0
	movs	r6, #0
	bl	GLCD_DrawString
.Ltmp77:
	.loc	1 163 3                         @ main_s.c:163:3
	adr	r2, .LCPI7_1
	movs	r0, #0
	movs	r1, #24
	bl	GLCD_DrawString
.Ltmp78:
	.loc	1 164 3                         @ main_s.c:164:3
	adr	r2, .LCPI7_2
	movs	r0, #0
	movs	r1, #48
	bl	GLCD_DrawString
.Ltmp79:
	.loc	1 166 3                         @ main_s.c:166:3
	movw	r0, #65535
	bl	GLCD_SetBackgroundColor
.Ltmp80:
	.loc	1 167 3                         @ main_s.c:167:3
	movs	r0, #0
	bl	GLCD_SetForegroundColor
.Ltmp81:
	.loc	1 168 17                        @ main_s.c:168:17
	ldr.w	r0, [r5, #3312]
	movw	r2, #3361
	.loc	1 168 29 is_stmt 0              @ main_s.c:168:29
	ubfx	r0, r0, #4, #12
	.loc	1 168 3                         @ main_s.c:168:3
	adr	r1, .LCPI7_3
	adr	r3, .LCPI7_4
	cmp	r0, r2
	it	eq
	moveq	r3, r1
	adr	r2, .LCPI7_5
	cmp.w	r0, #3360
	it	ne
	movne	r2, r3
.Ltmp82:
	.loc	1 0 0                           @ main_s.c:0:0
	movs	r0, #0
	movs	r1, #96
	bl	GLCD_DrawString
.Ltmp83:
	.loc	1 180 18 is_stmt 1              @ main_s.c:180:18
	movw	r0, :lower16:SystemCoreClock
	movt	r0, :upper16:SystemCoreClock
	ldr	r0, [r0]
	movw	r1, #34079
	movt	r1, #20971
	.loc	1 180 34 is_stmt 0              @ main_s.c:180:34
	umull	r0, r1, r0, r1
	mov.w	r0, #-1
.Ltmp84:
	@DEBUG_VALUE: SysTick_Config:ticks <- undef
	.loc	4 2977 14 is_stmt 1             @ C:/Users/dakum/AppData/Local/Arm/Packs/ARM/CMSIS/6.0.0/CMSIS/Core/Include\core_cm33.h:2977:14
	add.w	r0, r0, r1, lsr #5
.Ltmp85:
	.loc	4 2977 7 is_stmt 0              @ C:/Users/dakum/AppData/Local/Arm/Packs/ARM/CMSIS/6.0.0/CMSIS/Core/Include\core_cm33.h:2977:7
	cmp.w	r6, r0, lsr #24
	bne	.LBB7_2
.Ltmp86:
@ %bb.1:
	@DEBUG_VALUE: main:NonSecure_ResetHandler <- $r4
	.loc	4 2982 18 is_stmt 1             @ C:/Users/dakum/AppData/Local/Arm/Packs/ARM/CMSIS/6.0.0/CMSIS/Core/Include\core_cm33.h:2982:18
	str	r0, [r5, #4]
	movw	r0, #60707
	movt	r0, #57344
	movs	r1, #224
.Ltmp87:
	@DEBUG_VALUE: __NVIC_SetPriority:priority <- 7
	@DEBUG_VALUE: __NVIC_SetPriority:IRQn <- -1
	.loc	4 2430 47                       @ C:/Users/dakum/AppData/Local/Arm/Packs/ARM/CMSIS/6.0.0/CMSIS/Core/Include\core_cm33.h:2430:47
	strb	r1, [r0]
	movs	r0, #7
.Ltmp88:
	.loc	4 2984 18                       @ C:/Users/dakum/AppData/Local/Arm/Packs/ARM/CMSIS/6.0.0/CMSIS/Core/Include\core_cm33.h:2984:18
	str	r6, [r5, #8]
	.loc	4 2985 18                       @ C:/Users/dakum/AppData/Local/Arm/Packs/ARM/CMSIS/6.0.0/CMSIS/Core/Include\core_cm33.h:2985:18
	str	r0, [r5]
.Ltmp89:
.LBB7_2:
	@DEBUG_VALUE: main:NonSecure_ResetHandler <- $r4
	@DEBUG_VALUE: main:NonSecure_ResetHandler <- $r4
	.loc	1 182 2                         @ main_s.c:182:2
	bl	init_trampoline
.Ltmp90:
	.loc	1 183 3                         @ main_s.c:183:3
	push.w	{r4, r5, r6, r7, r8, r9, r10, r11}
	bic	r4, r4, #1
.Ltmp91:
	sub	sp, #136
	vlstm	sp
	mov	r0, r4
	mov	r1, r4
	mov	r2, r4
	mov	r3, r4
	mov	r5, r4
	mov	r6, r4
	mov	r7, r4
	mov	r8, r4
	mov	r9, r4
	mov	r10, r4
	mov	r11, r4
	mov	r12, r4
	msr	apsr_nzcvqg, r4
	blxns	r4
.Ltmp92:
	mrs	r12, control
	tst.w	r12, #8
	it	ne
	vmovne.f32	s0, s0
	vlldm	sp
	add	sp, #136
	pop.w	{r4, r5, r6, r7, r8, r9, r10, r11}
	.loc	1 184 1                         @ main_s.c:184:1
	mov.w	r0, #0
	add	sp, #16
	pop	{r4, r5, r6, pc}
.Ltmp93:
	.p2align	2
@ %bb.3:
	.loc	1 0 1 is_stmt 0                 @ main_s.c:0:1
.LCPI7_0:
.L.str.2:
	.asciz	"   V2M-MPS2+ Demo   \000\000\000"
.LCPI7_1:
.L.str.3:
	.asciz	" Secure/Non-Secure  \000\000\000"
.LCPI7_2:
.L.str.4:
	.asciz	"   www.keil.com     \000\000\000"
.LCPI7_3:
.L.str.6:
	.asciz	"  Cortex-M33        \000\000\000"
.LCPI7_4:
.L.str.7:
	.asciz	"  unknown Cortex-M  \000\000\000"
.LCPI7_5:
.L.str.5:
	.asciz	"  Cortex-M23        \000\000\000"
.Lfunc_end7:
	.size	main, .Lfunc_end7-main
	.cfi_endproc
	.cantunwind
	.fnend
                                        @ -- End function
	.hidden	text                            @ @text
	.type	text,%object
	.section	.data.text,"aw",%progbits
	.globl	text
text:
	.asciz	"Hello World (secure)\r\n"
	.size	text, 23

	.hidden	pfNonSecure_LED_On              @ @pfNonSecure_LED_On
	.type	pfNonSecure_LED_On,%object
	.section	.bss.pfNonSecure_LED_On,"aw",%nobits
	.globl	pfNonSecure_LED_On
	.p2align	2
pfNonSecure_LED_On:
	.long	0
	.size	pfNonSecure_LED_On, 4

	.hidden	pfNonSecure_LED_Off             @ @pfNonSecure_LED_Off
	.type	pfNonSecure_LED_Off,%object
	.section	.bss.pfNonSecure_LED_Off,"aw",%nobits
	.globl	pfNonSecure_LED_Off
	.p2align	2
pfNonSecure_LED_Off:
	.long	0
	.size	pfNonSecure_LED_Off, 4

	.type	.L.str,%object                  @ @.str
	.section	.rodata.str1.1,"aMS",%progbits,1
.L.str:
	.asciz	"%s"
	.size	.L.str, 3

	.type	SysTick_Handler.ticks,%object   @ @SysTick_Handler.ticks
	.section	.bss.SysTick_Handler.ticks,"aw",%nobits
	.p2align	2
SysTick_Handler.ticks:
	.long	0                               @ 0x0
	.size	SysTick_Handler.ticks, 4

	.type	SysTick_Handler.ticks_printf,%object @ @SysTick_Handler.ticks_printf
	.section	.bss.SysTick_Handler.ticks_printf,"aw",%nobits
	.p2align	2
SysTick_Handler.ticks_printf:
	.long	0                               @ 0x0
	.size	SysTick_Handler.ticks_printf, 4

	.type	__ARM_use_no_argv,%object       @ @__ARM_use_no_argv
	.section	.ARM.use_no_argv,"awR",%progbits,unique,1
	.globl	__ARM_use_no_argv
	.p2align	2
__ARM_use_no_argv:
	.long	1                               @ 0x1
	.size	__ARM_use_no_argv, 4

	.hidden	_printf_percent
	.hidden	_printf_s
	.hidden	_printf_x
	.hidden	_printf_longlong_hex
	.hidden	_printf_str
	.section	".note.GNU-stack","",%progbits
	.eabi_attribute	30, 1	@ Tag_ABI_optimization_goals
	.ARM_attribute	16, 1	@ Tag_AV_eba