
Blinkey_keil.axf:	file format elf32-littlearm

Disassembly of section ER_ROM:

10000000 <__tagsym$$used.0>:
10000000: f8 ff 1f 38  	.word	0x381ffff8
10000004: 19 3a 00 10  	.word	0x10003a19
10000008: 65 10 00 10  	.word	0x10001065
1000000c: 99 30 00 10  	.word	0x10003099
10000010: 65 10 00 10  	.word	0x10001065
10000014: 65 10 00 10  	.word	0x10001065
10000018: 65 10 00 10  	.word	0x10001065
1000001c: 65 10 00 10  	.word	0x10001065
10000020: 00 00 00 00  	.word	0x00000000
10000024: 00 00 00 00  	.word	0x00000000
10000028: 00 00 00 00  	.word	0x00000000
1000002c: 65 10 00 10  	.word	0x10001065
10000030: 65 10 00 10  	.word	0x10001065
10000034: 00 00 00 00  	.word	0x00000000
10000038: 65 10 00 10  	.word	0x10001065
1000003c: 65 10 00 10  	.word	0x10001065
10000040: 65 10 00 10  	.word	0x10001065
10000044: 65 10 00 10  	.word	0x10001065
10000048: 65 10 00 10  	.word	0x10001065
1000004c: 81 3b 00 10  	.word	0x10003b81
10000050: 65 10 00 10  	.word	0x10001065
10000054: 65 10 00 10  	.word	0x10001065
10000058: 00 00 00 00  	.word	0x00000000
1000005c: 00 00 00 00  	.word	0x00000000
10000060: 00 00 00 00  	.word	0x00000000
10000064: 65 10 00 10  	.word	0x10001065
10000068: 65 10 00 10  	.word	0x10001065
1000006c: 65 10 00 10  	.word	0x10001065
10000070: 65 10 00 10  	.word	0x10001065
10000074: 00 00 00 00  	.word	0x00000000
10000078: 00 00 00 00  	.word	0x00000000
1000007c: 00 00 00 00  	.word	0x00000000
10000080: 00 00 00 00  	.word	0x00000000
10000084: 00 00 00 00  	.word	0x00000000
10000088: 00 00 00 00  	.word	0x00000000
1000008c: 00 00 00 00  	.word	0x00000000
10000090: 00 00 00 00  	.word	0x00000000
10000094: 00 00 00 00  	.word	0x00000000
10000098: 00 00 00 00  	.word	0x00000000
1000009c: 00 00 00 00  	.word	0x00000000
100000a0: 00 00 00 00  	.word	0x00000000
100000a4: 00 00 00 00  	.word	0x00000000
100000a8: 00 00 00 00  	.word	0x00000000
100000ac: 00 00 00 00  	.word	0x00000000
100000b0: 00 00 00 00  	.word	0x00000000
100000b4: 00 00 00 00  	.word	0x00000000
100000b8: 00 00 00 00  	.word	0x00000000
100000bc: 00 00 00 00  	.word	0x00000000
100000c0: ed 3e 00 10  	.word	0x10003eed
100000c4: 45 3f 00 10  	.word	0x10003f45
100000c8: 65 10 00 10  	.word	0x10001065
100000cc: 65 10 00 10  	.word	0x10001065
100000d0: 65 10 00 10  	.word	0x10001065
100000d4: 65 10 00 10  	.word	0x10001065
100000d8: 65 10 00 10  	.word	0x10001065
100000dc: 65 10 00 10  	.word	0x10001065
100000e0: 65 10 00 10  	.word	0x10001065
100000e4: 65 10 00 10  	.word	0x10001065
100000e8: 65 10 00 10  	.word	0x10001065
100000ec: 65 10 00 10  	.word	0x10001065
100000f0: 65 10 00 10  	.word	0x10001065
100000f4: 65 10 00 10  	.word	0x10001065
100000f8: 65 10 00 10  	.word	0x10001065
100000fc: 65 10 00 10  	.word	0x10001065
10000100: 65 10 00 10  	.word	0x10001065
10000104: 65 10 00 10  	.word	0x10001065
10000108: 65 10 00 10  	.word	0x10001065
1000010c: 65 10 00 10  	.word	0x10001065
10000110: 65 10 00 10  	.word	0x10001065
10000114: 65 10 00 10  	.word	0x10001065
10000118: 65 10 00 10  	.word	0x10001065
1000011c: 65 10 00 10  	.word	0x10001065
10000120: 65 10 00 10  	.word	0x10001065
10000124: 65 10 00 10  	.word	0x10001065
10000128: 65 10 00 10  	.word	0x10001065
1000012c: 65 10 00 10  	.word	0x10001065
10000130: 65 10 00 10  	.word	0x10001065
10000134: 65 10 00 10  	.word	0x10001065
10000138: 65 10 00 10  	.word	0x10001065
1000013c: 65 10 00 10  	.word	0x10001065
10000140: 65 10 00 10  	.word	0x10001065
10000144: 65 10 00 10  	.word	0x10001065
10000148: 65 10 00 10  	.word	0x10001065
1000014c: 65 10 00 10  	.word	0x10001065
10000150: 65 10 00 10  	.word	0x10001065
10000154: 65 10 00 10  	.word	0x10001065
10000158: 65 10 00 10  	.word	0x10001065
1000015c: 65 10 00 10  	.word	0x10001065
10000160: 65 10 00 10  	.word	0x10001065
10000164: 65 10 00 10  	.word	0x10001065
10000168: 65 10 00 10  	.word	0x10001065
1000016c: 65 10 00 10  	.word	0x10001065
10000170: 65 10 00 10  	.word	0x10001065
10000174: 65 10 00 10  	.word	0x10001065
10000178: 65 10 00 10  	.word	0x10001065
1000017c: 65 10 00 10  	.word	0x10001065
10000180: 65 10 00 10  	.word	0x10001065
10000184: 65 10 00 10  	.word	0x10001065
10000188: 65 10 00 10  	.word	0x10001065
1000018c: 65 10 00 10  	.word	0x10001065
10000190: 65 10 00 10  	.word	0x10001065
10000194: 65 10 00 10  	.word	0x10001065
10000198: 65 10 00 10  	.word	0x10001065
1000019c: 65 10 00 10  	.word	0x10001065
100001a0: 65 10 00 10  	.word	0x10001065
100001a4: 65 10 00 10  	.word	0x10001065
100001a8: 65 10 00 10  	.word	0x10001065
100001ac: 65 10 00 10  	.word	0x10001065
100001b0: 65 10 00 10  	.word	0x10001065
100001b4: 65 10 00 10  	.word	0x10001065
100001b8: 65 10 00 10  	.word	0x10001065
100001bc: 65 10 00 10  	.word	0x10001065
100001c0: 65 10 00 10  	.word	0x10001065
100001c4: 65 10 00 10  	.word	0x10001065
100001c8: 65 10 00 10  	.word	0x10001065
100001cc: 65 10 00 10  	.word	0x10001065
100001d0: 65 10 00 10  	.word	0x10001065
100001d4: 65 10 00 10  	.word	0x10001065
100001d8: 65 10 00 10  	.word	0x10001065
100001dc: 65 10 00 10  	.word	0x10001065
100001e0: 65 10 00 10  	.word	0x10001065
100001e4: 65 10 00 10  	.word	0x10001065
100001e8: 65 10 00 10  	.word	0x10001065
100001ec: 65 10 00 10  	.word	0x10001065
100001f0: 65 10 00 10  	.word	0x10001065
100001f4: 65 10 00 10  	.word	0x10001065
100001f8: 65 10 00 10  	.word	0x10001065
100001fc: 65 10 00 10  	.word	0x10001065
10000200: 65 10 00 10  	.word	0x10001065
10000204: 65 10 00 10  	.word	0x10001065
10000208: 65 10 00 10  	.word	0x10001065
1000020c: 65 10 00 10  	.word	0x10001065
10000210: 65 10 00 10  	.word	0x10001065
10000214: 65 10 00 10  	.word	0x10001065
10000218: 65 10 00 10  	.word	0x10001065
1000021c: 65 10 00 10  	.word	0x10001065
10000220: 65 10 00 10  	.word	0x10001065
10000224: 65 10 00 10  	.word	0x10001065
10000228: 65 10 00 10  	.word	0x10001065
1000022c: 65 10 00 10  	.word	0x10001065
10000230: 00 00 00 00  	.word	0x00000000
10000234: 00 00 00 00  	.word	0x00000000
10000238: 00 00 00 00  	.word	0x00000000
1000023c: 00 00 00 00  	.word	0x00000000
10000240: 00 00 00 00  	.word	0x00000000
10000244: 00 00 00 00  	.word	0x00000000
10000248: 00 00 00 00  	.word	0x00000000
1000024c: 00 00 00 00  	.word	0x00000000
10000250: 00 00 00 00  	.word	0x00000000
10000254: 00 00 00 00  	.word	0x00000000
10000258: 00 00 00 00  	.word	0x00000000
1000025c: 00 00 00 00  	.word	0x00000000
10000260: 00 00 00 00  	.word	0x00000000
10000264: 00 00 00 00  	.word	0x00000000
10000268: 00 00 00 00  	.word	0x00000000
1000026c: 00 00 00 00  	.word	0x00000000
10000270: 00 00 00 00  	.word	0x00000000
10000274: 00 00 00 00  	.word	0x00000000
10000278: 00 00 00 00  	.word	0x00000000
1000027c: 00 00 00 00  	.word	0x00000000
10000280: 00 00 00 00  	.word	0x00000000
10000284: 00 00 00 00  	.word	0x00000000
10000288: 00 00 00 00  	.word	0x00000000
1000028c: 00 00 00 00  	.word	0x00000000
10000290: 00 00 00 00  	.word	0x00000000
10000294: 00 00 00 00  	.word	0x00000000
10000298: 00 00 00 00  	.word	0x00000000
1000029c: 00 00 00 00  	.word	0x00000000
100002a0: 00 00 00 00  	.word	0x00000000
100002a4: 00 00 00 00  	.word	0x00000000
100002a8: 00 00 00 00  	.word	0x00000000
100002ac: 00 00 00 00  	.word	0x00000000
100002b0: 00 00 00 00  	.word	0x00000000
100002b4: 00 00 00 00  	.word	0x00000000
100002b8: 00 00 00 00  	.word	0x00000000
100002bc: 00 00 00 00  	.word	0x00000000
100002c0: 00 00 00 00  	.word	0x00000000
100002c4: 00 00 00 00  	.word	0x00000000
100002c8: 00 00 00 00  	.word	0x00000000
100002cc: 00 00 00 00  	.word	0x00000000
100002d0: 00 00 00 00  	.word	0x00000000
100002d4: 00 00 00 00  	.word	0x00000000
100002d8: 00 00 00 00  	.word	0x00000000
100002dc: 00 00 00 00  	.word	0x00000000
100002e0: 00 00 00 00  	.word	0x00000000
100002e4: 00 00 00 00  	.word	0x00000000
100002e8: 00 00 00 00  	.word	0x00000000
100002ec: 00 00 00 00  	.word	0x00000000
100002f0: 00 00 00 00  	.word	0x00000000
100002f4: 00 00 00 00  	.word	0x00000000
100002f8: 00 00 00 00  	.word	0x00000000
100002fc: 00 00 00 00  	.word	0x00000000
10000300: 00 00 00 00  	.word	0x00000000
10000304: 00 00 00 00  	.word	0x00000000
10000308: 00 00 00 00  	.word	0x00000000
1000030c: 00 00 00 00  	.word	0x00000000
10000310: 00 00 00 00  	.word	0x00000000
10000314: 00 00 00 00  	.word	0x00000000
10000318: 00 00 00 00  	.word	0x00000000
1000031c: 00 00 00 00  	.word	0x00000000
10000320: 00 00 00 00  	.word	0x00000000
10000324: 00 00 00 00  	.word	0x00000000
10000328: 00 00 00 00  	.word	0x00000000
1000032c: 00 00 00 00  	.word	0x00000000
10000330: 00 00 00 00  	.word	0x00000000
10000334: 00 00 00 00  	.word	0x00000000
10000338: 00 00 00 00  	.word	0x00000000
1000033c: 00 00 00 00  	.word	0x00000000
10000340: 00 00 00 00  	.word	0x00000000
10000344: 00 00 00 00  	.word	0x00000000
10000348: 00 00 00 00  	.word	0x00000000
1000034c: 00 00 00 00  	.word	0x00000000
10000350: 00 00 00 00  	.word	0x00000000
10000354: 00 00 00 00  	.word	0x00000000
10000358: 00 00 00 00  	.word	0x00000000
1000035c: 00 00 00 00  	.word	0x00000000
10000360: 00 00 00 00  	.word	0x00000000
10000364: 00 00 00 00  	.word	0x00000000
10000368: 00 00 00 00  	.word	0x00000000
1000036c: 00 00 00 00  	.word	0x00000000
10000370: 00 00 00 00  	.word	0x00000000
10000374: 00 00 00 00  	.word	0x00000000
10000378: 00 00 00 00  	.word	0x00000000
1000037c: 00 00 00 00  	.word	0x00000000
10000380: 00 00 00 00  	.word	0x00000000
10000384: 00 00 00 00  	.word	0x00000000
10000388: 00 00 00 00  	.word	0x00000000
1000038c: 00 00 00 00  	.word	0x00000000
10000390: 00 00 00 00  	.word	0x00000000
10000394: 00 00 00 00  	.word	0x00000000
10000398: 00 00 00 00  	.word	0x00000000
1000039c: 00 00 00 00  	.word	0x00000000
100003a0: 00 00 00 00  	.word	0x00000000
100003a4: 00 00 00 00  	.word	0x00000000
100003a8: 00 00 00 00  	.word	0x00000000
100003ac: 00 00 00 00  	.word	0x00000000
100003b0: 00 00 00 00  	.word	0x00000000
100003b4: 00 00 00 00  	.word	0x00000000
100003b8: 00 00 00 00  	.word	0x00000000
100003bc: 00 00 00 00  	.word	0x00000000
100003c0: 00 00 00 00  	.word	0x00000000
100003c4: 00 00 00 00  	.word	0x00000000
100003c8: 00 00 00 00  	.word	0x00000000
100003cc: 00 00 00 00  	.word	0x00000000
100003d0: 00 00 00 00  	.word	0x00000000
100003d4: 00 00 00 00  	.word	0x00000000
100003d8: 00 00 00 00  	.word	0x00000000
100003dc: 00 00 00 00  	.word	0x00000000
100003e0: 00 00 00 00  	.word	0x00000000
100003e4: 00 00 00 00  	.word	0x00000000
100003e8: 00 00 00 00  	.word	0x00000000
100003ec: 00 00 00 00  	.word	0x00000000
100003f0: 00 00 00 00  	.word	0x00000000
100003f4: 00 00 00 00  	.word	0x00000000
100003f8: 00 00 00 00  	.word	0x00000000
100003fc: 00 00 00 00  	.word	0x00000000

10000400 <__main>:
10000400: f000 f802    	bl	0x10000408 <__scatterload_rt2_thumb_only> @ imm = #0x4
10000404: f000 f84e    	bl	0x100004a4 <__rt_entry_sh> @ imm = #0x9c

10000408 <__scatterload_rt2_thumb_only>:
10000408: a00a         	adr	r0, #40 <__scatterload_null>
1000040a: e890 0c00    	ldm.w	r0, {r10, r11}
1000040e: 4482         	add	r10, r0
10000410: 4483         	add	r11, r0
10000412: f1aa 0701    	sub.w	r7, r10, #0x1

10000416 <__scatterload_null>:
10000416: 45da         	cmp	r10, r11
10000418: d101         	bne	0x1000041e <__scatterload_null+0x8> @ imm = #0x2
1000041a: f000 f843    	bl	0x100004a4 <__rt_entry_sh> @ imm = #0x86
1000041e: f2af 0e09    	adr.w	lr, #-9
10000422: e8ba 000f    	ldm.w	r10!, {r0, r1, r2, r3}
10000426: f013 0f01    	tst.w	r3, #0x1
1000042a: bf18         	it	ne
1000042c: 1afb         	subne	r3, r7, r3
1000042e: f043 0301    	orr	r3, r3, #0x1
10000432: 4718         	bx	r3

10000434 <$d>:
10000434: a4 59 00 00  	.word	0x000059a4
10000438: c4 59 00 00  	.word	0x000059c4

1000043c <__scatterload_copy>:
1000043c: 3a10         	subs	r2, #0x10
1000043e: bf24         	itt	hs
10000440: c878         	ldmhs	r0!, {r3, r4, r5, r6}
10000442: c178         	stmhs	r1!, {r3, r4, r5, r6}
10000444: d8fa         	bhi	0x1000043c <__scatterload_copy> @ imm = #-0xc
10000446: 0752         	lsls	r2, r2, #0x1d
10000448: bf24         	itt	hs
1000044a: c830         	ldmhs	r0!, {r4, r5}
1000044c: c130         	stmhs	r1!, {r4, r5}
1000044e: bf44         	itt	mi
10000450: 6804         	ldrmi	r4, [r0]
10000452: 600c         	strmi	r4, [r1]
10000454: 4770         	bx	lr
10000456: 0000         	movs	r0, r0

10000458 <__scatterload_zeroinit>:
10000458: 2300         	movs	r3, #0x0
1000045a: 2400         	movs	r4, #0x0
1000045c: 2500         	movs	r5, #0x0
1000045e: 2600         	movs	r6, #0x0
10000460: 3a10         	subs	r2, #0x10
10000462: bf28         	it	hs
10000464: c178         	stmhs	r1!, {r3, r4, r5, r6}
10000466: d8fb         	bhi	0x10000460 <__scatterload_zeroinit+0x8> @ imm = #-0xa
10000468: 0752         	lsls	r2, r2, #0x1d
1000046a: bf28         	it	hs
1000046c: c130         	stmhs	r1!, {r4, r5}
1000046e: bf48         	it	mi
10000470: 600b         	strmi	r3, [r1]
10000472: 4770         	bx	lr

10000474 <_printf_s>:
10000474: 2973         	cmp	r1, #0x73
10000476: f000 80df    	beq.w	0x10000638 <_printf_string> @ imm = #0x1be

1000047a <_printf_percent_end>:
1000047a: 2000         	movs	r0, #0x0
1000047c: 4770         	bx	lr

1000047e <__rt_lib_init>:
1000047e: b51f         	push	{r0, r1, r2, r3, r4, lr}

10000480 <__rt_lib_init_fp_1>:
10000480: f004 f9dc    	bl	0x1000483c <_fp_init>   @ imm = #0x43b8

10000484 <__rt_lib_init_relocate_pie_1>:
10000484: 4803         	ldr	r0, [pc, #0xc]          @ 0x10000494 <__lit__00000000>
10000486: 4904         	ldr	r1, [pc, #0x10]         @ 0x10000498 <__lit__00000001>
10000488: f000 fbd2    	bl	0x10000c30 <_init_alloc> @ imm = #0x7a4

1000048c <__rt_lib_init_user_alloc_1>:
1000048c: f000 f906    	bl	0x1000069c <_initio>    @ imm = #0x20c

10000490 <__rt_lib_init_stdio_1>:
10000490: bd1f         	pop	{r0, r1, r2, r3, r4, pc}
10000492: 0000         	movs	r0, r0

10000494 <$d>:
10000494: b8 01 00 38  	.word	0x380001b8

10000498 <__lit__00000001>:
10000498: b8 0d 00 38                     ...8

1000049c <__rt_lib_shutdown>:
1000049c: b510         	push	{r4, lr}

1000049e <__rt_lib_shutdown_stdio_2>:
1000049e: f000 f966    	bl	0x1000076e <_terminateio> @ imm = #0x2cc

100004a2 <__rt_lib_shutdown_user_alloc_1>:
100004a2: bd10         	pop	{r4, pc}

100004a4 <__rt_entry_sh>:
100004a4: f8df d00c    	ldr.w	sp, [pc, #0xc]          @ 0x100004b4 <__lit__00000000>

100004a8 <__rt_entry_postsh_1>:
100004a8: f7ff ffe9    	bl	0x1000047e <__rt_lib_init> @ imm = #-0x2e

100004ac <__rt_entry_postli_1>:
100004ac: f003 ffa2    	bl	0x100043f4 <main>       @ imm = #0x3f44
100004b0: f000 fb6a    	bl	0x10000b88 <exit>       @ imm = #0x6d4

100004b4 <$d>:
100004b4: f8 ff 1f 38  	.word	0x381ffff8

100004b8 <__rt_exit>:
100004b8: b403         	push	{r0, r1}

100004ba <__rt_exit_prels_1>:
100004ba: f7ff ffef    	bl	0x1000049c <__rt_lib_shutdown> @ imm = #-0x22

100004be <__rt_exit_exit>:
100004be: bc03         	pop	{r0, r1}
100004c0: f000 fd28    	bl	0x10000f14 <_sys_exit>  @ imm = #0xa50

100004c4 <__2printf>:
100004c4: b40f         	push	{r0, r1, r2, r3}
100004c6: 4904         	ldr	r1, [pc, #0x10]         @ 0x100004d8 <__2printf+0x14>
100004c8: b510         	push	{r4, lr}
100004ca: aa03         	add	r2, sp, #0xc
100004cc: 9802         	ldr	r0, [sp, #0x8]
100004ce: f000 f8b7    	bl	0x10000640 <_printf_char_file> @ imm = #0x16e
100004d2: bc10         	pop	{r4}
100004d4: f85d fb14    	ldr	pc, [sp], #20

100004d8 <$d>:
100004d8: 68 00 00 38  	.word	0x38000068

100004dc <__printf>:
100004dc: e92d 41f0    	push.w	{r4, r5, r6, r7, r8, lr}
100004e0: 460e         	mov	r6, r1
100004e2: 4604         	mov	r4, r0
100004e4: 2000         	movs	r0, #0x0
100004e6: 6220         	str	r0, [r4, #0x20]
100004e8: 4620         	mov	r0, r4
100004ea: 68e1         	ldr	r1, [r4, #0xc]
100004ec: 4788         	blx	r1
100004ee: b330         	cbz	r0, 0x1000053e <__printf+0x62> @ imm = #0x4c
100004f0: 2825         	cmp	r0, #0x25
100004f2: d005         	beq	0x10000500 <__printf+0x24> @ imm = #0xa
100004f4: e9d4 2101    	ldrd	r2, r1, [r4, #4]
100004f8: 4790         	blx	r2
100004fa: 6a20         	ldr	r0, [r4, #0x20]
100004fc: 1c40         	adds	r0, r0, #0x1
100004fe: e7f2         	b	0x100004e6 <__printf+0xa> @ imm = #-0x1c
10000500: 68e1         	ldr	r1, [r4, #0xc]
10000502: 4620         	mov	r0, r4
10000504: 2700         	movs	r7, #0x0
10000506: 4788         	blx	r1
10000508: 0005         	movs	r5, r0
1000050a: d018         	beq	0x1000053e <__printf+0x62> @ imm = #0x30
1000050c: f1a5 0041    	sub.w	r0, r5, #0x41
10000510: 2819         	cmp	r0, #0x19
10000512: d802         	bhi	0x1000051a <__printf+0x3e> @ imm = #0x4
10000514: 3520         	adds	r5, #0x20
10000516: f44f 6700    	mov.w	r7, #0x800
1000051a: 4632         	mov	r2, r6
1000051c: 4629         	mov	r1, r5
1000051e: 4620         	mov	r0, r4
10000520: 6027         	str	r7, [r4]
10000522: f7ff ffa7    	bl	0x10000474 <_printf_s>  @ imm = #-0xb2
10000526: b140         	cbz	r0, 0x1000053a <__printf+0x5e> @ imm = #0x10
10000528: 2801         	cmp	r0, #0x1
1000052a: d004         	beq	0x10000536 <__printf+0x5a> @ imm = #0x8
1000052c: 1df6         	adds	r6, r6, #0x7
1000052e: f026 0607    	bic	r6, r6, #0x7
10000532: 3608         	adds	r6, #0x8
10000534: e7d8         	b	0x100004e8 <__printf+0xc> @ imm = #-0x50
10000536: 1d36         	adds	r6, r6, #0x4
10000538: e7d6         	b	0x100004e8 <__printf+0xc> @ imm = #-0x54
1000053a: 4628         	mov	r0, r5
1000053c: e7da         	b	0x100004f4 <__printf+0x18> @ imm = #-0x4c
1000053e: 6a20         	ldr	r0, [r4, #0x20]
10000540: e8bd 81f0    	pop.w	{r4, r5, r6, r7, r8, pc}

10000544 <_printf_str>:
10000544: b570         	push	{r4, r5, r6, lr}
10000546: 460c         	mov	r4, r1
10000548: 4605         	mov	r5, r0
1000054a: 2a01         	cmp	r2, #0x1
1000054c: d005         	beq	0x1000055a <_printf_str+0x16> @ imm = #0xa
1000054e: 7828         	ldrb	r0, [r5]
10000550: 0680         	lsls	r0, r0, #0x1a
10000552: d500         	bpl	0x10000556 <_printf_str+0x12> @ imm = #0x0
10000554: 69ea         	ldr	r2, [r5, #0x1c]
10000556: 2300         	movs	r3, #0x0
10000558: e002         	b	0x10000560 <_printf_str+0x1c> @ imm = #0x4
1000055a: 2301         	movs	r3, #0x1
1000055c: e005         	b	0x1000056a <_printf_str+0x26> @ imm = #0xa
1000055e: 1c5b         	adds	r3, r3, #0x1
10000560: 4293         	cmp	r3, r2
10000562: d202         	bhs	0x1000056a <_printf_str+0x26> @ imm = #0x4
10000564: 5ce0         	ldrb	r0, [r4, r3]
10000566: 2800         	cmp	r0, #0x0
10000568: d1f9         	bne	0x1000055e <_printf_str+0x1a> @ imm = #-0xe
1000056a: 69a8         	ldr	r0, [r5, #0x18]
1000056c: 18e6         	adds	r6, r4, r3
1000056e: 1ac0         	subs	r0, r0, r3
10000570: 61a8         	str	r0, [r5, #0x18]
10000572: 6a28         	ldr	r0, [r5, #0x20]
10000574: 4418         	add	r0, r3
10000576: 6228         	str	r0, [r5, #0x20]
10000578: 4628         	mov	r0, r5
1000057a: f3af 8000    	nop.w
1000057e: e004         	b	0x1000058a <_printf_str+0x46> @ imm = #0x8
10000580: e9d5 2101    	ldrd	r2, r1, [r5, #4]
10000584: f814 0b01    	ldrb	r0, [r4], #1
10000588: 4790         	blx	r2
1000058a: 42b4         	cmp	r4, r6
1000058c: d3f8         	blo	0x10000580 <_printf_str+0x3c> @ imm = #-0x10
1000058e: 4628         	mov	r0, r5
10000590: f3af 8000    	nop.w
10000594: bd70         	pop	{r4, r5, r6, pc}
10000596: 0000         	movs	r0, r0

10000598 <strcmp>:
10000598: b430         	push	{r4, r5}
1000059a: f04f 3c01    	mov.w	r12, #0x1010101
1000059e: f850 2b04    	ldr	r2, [r0], #4
100005a2: f851 3b04    	ldr	r3, [r1], #4
100005a6: facc f452    	uqsub8	r4, r12, r2
100005aa: 1ad5         	subs	r5, r2, r3
100005ac: d120         	bne	0x100005f0 <strcmp+0x58> @ imm = #0x40
100005ae: b9fc         	cbnz	r4, 0x100005f0 <strcmp+0x58> @ imm = #0x3e
100005b0: f850 2b04    	ldr	r2, [r0], #4
100005b4: f851 3b04    	ldr	r3, [r1], #4
100005b8: facc f452    	uqsub8	r4, r12, r2
100005bc: 1ad5         	subs	r5, r2, r3
100005be: d117         	bne	0x100005f0 <strcmp+0x58> @ imm = #0x2e
100005c0: b9b4         	cbnz	r4, 0x100005f0 <strcmp+0x58> @ imm = #0x2c
100005c2: f850 2b04    	ldr	r2, [r0], #4
100005c6: f851 3b04    	ldr	r3, [r1], #4
100005ca: facc f452    	uqsub8	r4, r12, r2
100005ce: 1ad5         	subs	r5, r2, r3
100005d0: d10e         	bne	0x100005f0 <strcmp+0x58> @ imm = #0x1c
100005d2: b96c         	cbnz	r4, 0x100005f0 <strcmp+0x58> @ imm = #0x1a
100005d4: f850 2b04    	ldr	r2, [r0], #4
100005d8: f851 3b04    	ldr	r3, [r1], #4
100005dc: facc f452    	uqsub8	r4, r12, r2
100005e0: 1ad5         	subs	r5, r2, r3
100005e2: d105         	bne	0x100005f0 <strcmp+0x58> @ imm = #0xa
100005e4: 2c00         	cmp	r4, #0x0
100005e6: d0da         	beq	0x1000059e <strcmp+0x6> @ imm = #-0x4c
100005e8: bc30         	pop	{r4, r5}
100005ea: f04f 0000    	mov.w	r0, #0x0
100005ee: 4770         	bx	lr
100005f0: ba29         	rev	r1, r5
100005f2: fab1 f181    	clz	r1, r1
100005f6: f011 0118    	ands	r1, r1, #0x18
100005fa: f1d1 0020    	rsbs.w	r0, r1, #0x20
100005fe: 4084         	lsls	r4, r0
10000600: d1f2         	bne	0x100005e8 <strcmp+0x50> @ imm = #-0x1c
10000602: 40ca         	lsrs	r2, r1
10000604: 40cb         	lsrs	r3, r1
10000606: f012 02ff    	ands	r2, r2, #0xff
1000060a: f013 03ff    	ands	r3, r3, #0xff
1000060e: bc30         	pop	{r4, r5}
10000610: 1ad0         	subs	r0, r2, r3
10000612: 4770         	bx	lr

10000614 <_printf_cs_common>:
10000614: b510         	push	{r4, lr}
10000616: 6943         	ldr	r3, [r0, #0x14]
10000618: b113         	cbz	r3, 0x10000620 <_printf_cs_common+0xc> @ imm = #0x4
1000061a: f3af 8000    	nop.w
1000061e: e001         	b	0x10000624 <_printf_cs_common+0x10> @ imm = #0x2
10000620: f7ff ff90    	bl	0x10000544 <_printf_str> @ imm = #-0xe0
10000624: 2001         	movs	r0, #0x1
10000626: bd10         	pop	{r4, pc}

10000628 <_printf_char>:
10000628: 7812         	ldrb	r2, [r2]
1000062a: f100 0124    	add.w	r1, r0, #0x24
1000062e: 700a         	strb	r2, [r1]
10000630: 2200         	movs	r2, #0x0
10000632: 704a         	strb	r2, [r1, #0x1]
10000634: 2201         	movs	r2, #0x1
10000636: e7ed         	b	0x10000614 <_printf_cs_common> @ imm = #-0x26

10000638 <_printf_string>:
10000638: 6811         	ldr	r1, [r2]
1000063a: f04f 32ff    	mov.w	r2, #0xffffffff
1000063e: e7e9         	b	0x10000614 <_printf_cs_common> @ imm = #-0x2e

10000640 <_printf_char_file>:
10000640: 4b07         	ldr	r3, [pc, #0x1c]         @ 0x10000660 <_printf_char_file+0x20>
10000642: b570         	push	{r4, r5, r6, lr}
10000644: 460d         	mov	r5, r1
10000646: 447b         	add	r3, pc
10000648: f000 f811    	bl	0x1000066e <_printf_char_common> @ imm = #0x22
1000064c: 4604         	mov	r4, r0
1000064e: 4628         	mov	r0, r5
10000650: f000 f820    	bl	0x10000694 <ferror>     @ imm = #0x40
10000654: b110         	cbz	r0, 0x1000065c <_printf_char_file+0x1c> @ imm = #0x4
10000656: f04f 30ff    	mov.w	r0, #0xffffffff
1000065a: bd70         	pop	{r4, r5, r6, pc}
1000065c: 4620         	mov	r0, r4
1000065e: bd70         	pop	{r4, r5, r6, pc}

10000660 <$d>:
10000660: d7 41 00 00  	.word	0x000041d7

10000664 <_printf_input_char>:
10000664: 6901         	ldr	r1, [r0, #0x10]
10000666: 1c4a         	adds	r2, r1, #0x1
10000668: 6102         	str	r2, [r0, #0x10]
1000066a: 7808         	ldrb	r0, [r1]
1000066c: 4770         	bx	lr

1000066e <_printf_char_common>:
1000066e: b500         	push	{lr}
10000670: b08f         	sub	sp, #0x3c
10000672: e9cd 3101    	strd	r3, r1, [sp, #4]
10000676: 2100         	movs	r1, #0x0
10000678: 9105         	str	r1, [sp, #0x14]
1000067a: 4905         	ldr	r1, [pc, #0x14]         @ 0x10000690 <_printf_char_common+0x22>
1000067c: 4479         	add	r1, pc
1000067e: e9cd 1003    	strd	r1, r0, [sp, #12]
10000682: 4611         	mov	r1, r2
10000684: 4668         	mov	r0, sp
10000686: f7ff ff29    	bl	0x100004dc <__printf>   @ imm = #-0x1ae
1000068a: b00f         	add	sp, #0x3c
1000068c: bd00         	pop	{pc}

1000068e <$d>:
1000068e: 00 00 e5 ff  	.word	0xffe50000
10000692: ff ff        	.short	0xffff

10000694 <ferror>:
10000694: 7b00         	ldrb	r0, [r0, #0xc]
10000696: f000 0080    	and	r0, r0, #0x80
1000069a: 4770         	bx	lr

1000069c <_initio>:
1000069c: b510         	push	{r4, lr}
1000069e: 4842         	ldr	r0, [pc, #0x108]        @ 0x100007a8 <_terminateio+0x3a>
100006a0: 2154         	movs	r1, #0x54
100006a2: f000 fa81    	bl	0x10000ba8 <__rt_memclr_w> @ imm = #0x502
100006a6: 4841         	ldr	r0, [pc, #0x104]        @ 0x100007ac <_terminateio+0x3e>
100006a8: 2154         	movs	r1, #0x54
100006aa: f000 fa7d    	bl	0x10000ba8 <__rt_memclr_w> @ imm = #0x4fa
100006ae: 4840         	ldr	r0, [pc, #0x100]        @ 0x100007b0 <_terminateio+0x42>
100006b0: 2154         	movs	r1, #0x54
100006b2: f000 fa79    	bl	0x10000ba8 <__rt_memclr_w> @ imm = #0x4f2
100006b6: 493f         	ldr	r1, [pc, #0xfc]         @ 0x100007b4 <_terminateio+0x46>
100006b8: 483b         	ldr	r0, [pc, #0xec]         @ 0x100007a8 <_terminateio+0x3a>
100006ba: 4a3c         	ldr	r2, [pc, #0xf0]         @ 0x100007ac <_terminateio+0x3e>
100006bc: 4b3f         	ldr	r3, [pc, #0xfc]         @ 0x100007bc <_terminateio+0x4e>
100006be: 6008         	str	r0, [r1]
100006c0: 493d         	ldr	r1, [pc, #0xf4]         @ 0x100007b8 <_terminateio+0x4a>
100006c2: 600a         	str	r2, [r1]
100006c4: 493a         	ldr	r1, [pc, #0xe8]         @ 0x100007b0 <_terminateio+0x42>
100006c6: 6019         	str	r1, [r3]
100006c8: 1c53         	adds	r3, r2, #0x1
100006ca: 6503         	str	r3, [r0, #0x50]
100006cc: 1c48         	adds	r0, r1, #0x1
100006ce: 6510         	str	r0, [r2, #0x50]
100006d0: 2001         	movs	r0, #0x1
100006d2: 6508         	str	r0, [r1, #0x50]
100006d4: 483b         	ldr	r0, [pc, #0xec]         @ 0x100007c4 <_terminateio+0x56>
100006d6: 4a34         	ldr	r2, [pc, #0xd0]         @ 0x100007a8 <_terminateio+0x3a>
100006d8: a139         	adr	r1, #228 <_initio+0x79>
100006da: 4478         	add	r0, pc
100006dc: f000 f9b6    	bl	0x10000a4c <freopen>    @ imm = #0x36c
100006e0: b920         	cbnz	r0, 0x100006ec <_initio+0x50> @ imm = #0x8
100006e2: 4838         	ldr	r0, [pc, #0xe0]         @ 0x100007c4 <_terminateio+0x56>
100006e4: 4478         	add	r0, pc
100006e6: 380a         	subs	r0, #0xa
100006e8: f000 fa57    	bl	0x10000b9a <__rt_SIGRTRED> @ imm = #0x4ae
100006ec: 4837         	ldr	r0, [pc, #0xdc]         @ 0x100007cc <_terminateio+0x5e>
100006ee: 4a2f         	ldr	r2, [pc, #0xbc]         @ 0x100007ac <_terminateio+0x3e>
100006f0: a135         	adr	r1, #212 <_initio+0x8d>
100006f2: 4478         	add	r0, pc
100006f4: f000 f9aa    	bl	0x10000a4c <freopen>    @ imm = #0x354
100006f8: b920         	cbnz	r0, 0x10000704 <_initio+0x68> @ imm = #0x8
100006fa: 4834         	ldr	r0, [pc, #0xd0]         @ 0x100007cc <_terminateio+0x5e>
100006fc: 4478         	add	r0, pc
100006fe: 380a         	subs	r0, #0xa
10000700: f000 fa4b    	bl	0x10000b9a <__rt_SIGRTRED> @ imm = #0x496
10000704: 4832         	ldr	r0, [pc, #0xc8]         @ 0x100007d0 <_terminateio+0x62>
10000706: 4a2a         	ldr	r2, [pc, #0xa8]         @ 0x100007b0 <_terminateio+0x42>
10000708: a12f         	adr	r1, #188 <_initio+0x9f>
1000070a: 4478         	add	r0, pc
1000070c: f000 f99e    	bl	0x10000a4c <freopen>    @ imm = #0x33c
10000710: b920         	cbnz	r0, 0x1000071c <_initio+0x80> @ imm = #0x8
10000712: 482f         	ldr	r0, [pc, #0xbc]         @ 0x100007d0 <_terminateio+0x62>
10000714: 4478         	add	r0, pc
10000716: 380a         	subs	r0, #0xa
10000718: f000 fa3f    	bl	0x10000b9a <__rt_SIGRTRED> @ imm = #0x47e
1000071c: 2340         	movs	r3, #0x40
1000071e: 4822         	ldr	r0, [pc, #0x88]         @ 0x100007a8 <_terminateio+0x3a>
10000720: 00dc         	lsls	r4, r3, #0x3
10000722: 2100         	movs	r1, #0x0
10000724: 4622         	mov	r2, r4
10000726: f000 f96d    	bl	0x10000a04 <setvbuf>    @ imm = #0x2da
1000072a: b120         	cbz	r0, 0x10000736 <_initio+0x9a> @ imm = #0x8
1000072c: 4825         	ldr	r0, [pc, #0x94]         @ 0x100007c4 <_terminateio+0x56>
1000072e: 4478         	add	r0, pc
10000730: 3854         	subs	r0, #0x54
10000732: f000 fa32    	bl	0x10000b9a <__rt_SIGRTRED> @ imm = #0x464
10000736: 481d         	ldr	r0, [pc, #0x74]         @ 0x100007ac <_terminateio+0x3e>
10000738: 4622         	mov	r2, r4
1000073a: 2340         	movs	r3, #0x40
1000073c: 2100         	movs	r1, #0x0
1000073e: f000 f961    	bl	0x10000a04 <setvbuf>    @ imm = #0x2c2
10000742: b120         	cbz	r0, 0x1000074e <_initio+0xb2> @ imm = #0x8
10000744: 4821         	ldr	r0, [pc, #0x84]         @ 0x100007cc <_terminateio+0x5e>
10000746: 4478         	add	r0, pc
10000748: 3854         	subs	r0, #0x54
1000074a: f000 fa26    	bl	0x10000b9a <__rt_SIGRTRED> @ imm = #0x44c
1000074e: 4818         	ldr	r0, [pc, #0x60]         @ 0x100007b0 <_terminateio+0x42>
10000750: 4622         	mov	r2, r4
10000752: 2310         	movs	r3, #0x10
10000754: 2100         	movs	r1, #0x0
10000756: f000 f955    	bl	0x10000a04 <setvbuf>    @ imm = #0x2aa
1000075a: 2800         	cmp	r0, #0x0
1000075c: d006         	beq	0x1000076c <_initio+0xd0> @ imm = #0xc
1000075e: 481c         	ldr	r0, [pc, #0x70]         @ 0x100007d0 <_terminateio+0x62>
10000760: 4478         	add	r0, pc
10000762: e8bd 4010    	pop.w	{r4, lr}
10000766: 3856         	subs	r0, #0x56
10000768: f000 ba17    	b.w	0x10000b9a <__rt_SIGRTRED> @ imm = #0x42e
1000076c: bd10         	pop	{r4, pc}

1000076e <_terminateio>:
1000076e: 4810         	ldr	r0, [pc, #0x40]         @ 0x100007b0 <_terminateio+0x42>
10000770: b570         	push	{r4, r5, r6, lr}
10000772: 6d00         	ldr	r0, [r0, #0x50]
10000774: f020 0401    	bic	r4, r0, #0x1
10000778: 480b         	ldr	r0, [pc, #0x2c]         @ 0x100007a8 <_terminateio+0x3a>
1000077a: f000 f9df    	bl	0x10000b3c <fclose>     @ imm = #0x3be
1000077e: 480b         	ldr	r0, [pc, #0x2c]         @ 0x100007ac <_terminateio+0x3e>
10000780: f000 f9dc    	bl	0x10000b3c <fclose>     @ imm = #0x3b8
10000784: 480a         	ldr	r0, [pc, #0x28]         @ 0x100007b0 <_terminateio+0x42>
10000786: f000 f9d9    	bl	0x10000b3c <fclose>     @ imm = #0x3b2
1000078a: e009         	b	0x100007a0 <_terminateio+0x32> @ imm = #0x12
1000078c: 6d20         	ldr	r0, [r4, #0x50]
1000078e: f020 0501    	bic	r5, r0, #0x1
10000792: 4620         	mov	r0, r4
10000794: f000 f9d2    	bl	0x10000b3c <fclose>     @ imm = #0x3a4
10000798: 4620         	mov	r0, r4
1000079a: f000 f81b    	bl	0x100007d4 <free>       @ imm = #0x36
1000079e: 462c         	mov	r4, r5
100007a0: 2c00         	cmp	r4, #0x0
100007a2: d1f3         	bne	0x1000078c <_terminateio+0x1e> @ imm = #-0x1a
100007a4: bd70         	pop	{r4, r5, r6, pc}

100007a6 <$d>:
100007a6: 00 00 14 00  	.word	0x00140000
100007aa: 00 38 68 00  	.word	0x00683800
100007ae: 00 38 bc 00  	.word	0x00bc3800
100007b2: 00 38 00 00  	.word	0x00003800
100007b6: 00 38 04 00  	.word	0x00043800
100007ba: 00 38 08 00  	.word	0x00083800
100007be: 00 38 72 00  	.word	0x00723800
100007c2: 00 00 ca 56  	.word	0x56ca0000
100007c6: 00 00 77 00  	.word	0x00770000
100007ca: 00 00 b9 56  	.word	0x56b90000
100007ce: 00 00 92 56  	.word	0x56920000
100007d2: 00 00        	.short	0x0000

100007d4 <free>:
100007d4: b570         	push	{r4, r5, r6, lr}
100007d6: 4604         	mov	r4, r0
100007d8: 1f05         	subs	r5, r0, #0x4
100007da: f000 fa0d    	bl	0x10000bf8 <__rt_heap_descriptor> @ imm = #0x41a
100007de: 6800         	ldr	r0, [r0]
100007e0: 2c00         	cmp	r4, #0x0
100007e2: bf14         	ite	ne
100007e4: 6844         	ldrne	r4, [r0, #0x4]
100007e6: bd70         	popeq	{r4, r5, r6, pc}
100007e8: 2c00         	cmp	r4, #0x0
100007ea: bf18         	it	ne
100007ec: 42ac         	cmpne	r4, r5
100007ee: bf3c         	itt	lo
100007f0: 4620         	movlo	r0, r4
100007f2: 6864         	ldrlo	r4, [r4, #0x4]
100007f4: d3f8         	blo	0x100007e8 <free+0x14>  @ imm = #-0x10
100007f6: 6801         	ldr	r1, [r0]
100007f8: 180a         	adds	r2, r1, r0
100007fa: 42aa         	cmp	r2, r5
100007fc: bf18         	it	ne
100007fe: 6045         	strne	r5, [r0, #0x4]
10000800: d103         	bne	0x1000080a <free+0x36>  @ imm = #0x6
10000802: 682a         	ldr	r2, [r5]
10000804: 4605         	mov	r5, r0
10000806: 4411         	add	r1, r2
10000808: 6001         	str	r1, [r0]
1000080a: 6828         	ldr	r0, [r5]
1000080c: 1941         	adds	r1, r0, r5
1000080e: 42a1         	cmp	r1, r4
10000810: bf1c         	itt	ne
10000812: 606c         	strne	r4, [r5, #0x4]
10000814: bd70         	popne	{r4, r5, r6, pc}
10000816: 6861         	ldr	r1, [r4, #0x4]
10000818: 6069         	str	r1, [r5, #0x4]
1000081a: 6821         	ldr	r1, [r4]
1000081c: 4408         	add	r0, r1
1000081e: 6028         	str	r0, [r5]
10000820: bd70         	pop	{r4, r5, r6, pc}

10000822 <__flsbuf_wide>:
10000822: e92d 5ff0    	push.w	{r4, r5, r6, r7, r8, r9, r10, r11, r12, lr}
10000826: 4605         	mov	r5, r0
10000828: 4617         	mov	r7, r2
1000082a: 460c         	mov	r4, r1
1000082c: 68c8         	ldr	r0, [r1, #0xc]
1000082e: f420 1020    	bic	r0, r0, #0x280000
10000832: f440 0080    	orr	r0, r0, #0x400000
10000836: 60c8         	str	r0, [r1, #0xc]
10000838: 0680         	lsls	r0, r0, #0x1a
1000083a: d502         	bpl	0x10000842 <__flsbuf_wide+0x20> @ imm = #0x4
1000083c: 4608         	mov	r0, r1
1000083e: f000 fb28    	bl	0x10000e92 <_deferredlazyseek> @ imm = #0x650
10000842: 68e0         	ldr	r0, [r4, #0xc]
10000844: f241 0182    	movw	r1, #0x1082
10000848: f04f 3aff    	mov.w	r10, #0xffffffff
1000084c: 4001         	ands	r1, r0
1000084e: 2902         	cmp	r1, #0x2
10000850: d003         	beq	0x1000085a <__flsbuf_wide+0x38> @ imm = #0x6
10000852: 4620         	mov	r0, r4
10000854: f000 fac6    	bl	0x10000de4 <_seterr>    @ imm = #0x58c
10000858: e0b9         	b	0x100009ce <__flsbuf_wide+0x1ac> @ imm = #0x172
1000085a: f400 4120    	and	r1, r0, #0xa000
1000085e: f5b1 4f00    	cmp.w	r1, #0x8000
10000862: d10f         	bne	0x10000884 <__flsbuf_wide+0x62> @ imm = #0x1e
10000864: 03c0         	lsls	r0, r0, #0xf
10000866: d506         	bpl	0x10000876 <__flsbuf_wide+0x54> @ imm = #0xc
10000868: 6861         	ldr	r1, [r4, #0x4]
1000086a: 6ae0         	ldr	r0, [r4, #0x2c]
1000086c: 4288         	cmp	r0, r1
1000086e: d800         	bhi	0x10000872 <__flsbuf_wide+0x50> @ imm = #0x0
10000870: 4608         	mov	r0, r1
10000872: 6060         	str	r0, [r4, #0x4]
10000874: e006         	b	0x10000884 <__flsbuf_wide+0x62> @ imm = #0xc
10000876: 6920         	ldr	r0, [r4, #0x10]
10000878: 62e0         	str	r0, [r4, #0x2c]
1000087a: 6060         	str	r0, [r4, #0x4]
1000087c: 6960         	ldr	r0, [r4, #0x14]
1000087e: f003 fd61    	bl	0x10004344 <_sys_flen>  @ imm = #0x3ac2
10000882: 61a0         	str	r0, [r4, #0x18]
10000884: 68a0         	ldr	r0, [r4, #0x8]
10000886: 2200         	movs	r2, #0x0
10000888: b2ee         	uxtb	r6, r5
1000088a: 2800         	cmp	r0, #0x0
1000088c: da0d         	bge	0x100008aa <__flsbuf_wide+0x88> @ imm = #0x1a
1000088e: 68e1         	ldr	r1, [r4, #0xc]
10000890: 058b         	lsls	r3, r1, #0x16
10000892: d40a         	bmi	0x100008aa <__flsbuf_wide+0x88> @ imm = #0x14
10000894: 43c0         	mvns	r0, r0
10000896: 60a0         	str	r0, [r4, #0x8]
10000898: f441 3090    	orr	r0, r1, #0x12000
1000089c: 6022         	str	r2, [r4]
1000089e: 60e0         	str	r0, [r4, #0xc]
100008a0: 6860         	ldr	r0, [r4, #0x4]
100008a2: 1c41         	adds	r1, r0, #0x1
100008a4: 6061         	str	r1, [r4, #0x4]
100008a6: 7006         	strb	r6, [r0]
100008a8: e0aa         	b	0x10000a00 <__flsbuf_wide+0x1de> @ imm = #0x154
100008aa: 68e0         	ldr	r0, [r4, #0xc]
100008ac: 4691         	mov	r9, r2
100008ae: 6022         	str	r2, [r4]
100008b0: f440 5000    	orr	r0, r0, #0x2000
100008b4: 60e0         	str	r0, [r4, #0xc]
100008b6: 6920         	ldr	r0, [r4, #0x10]
100008b8: bb78         	cbnz	r0, 0x1000091a <__flsbuf_wide+0xf8> @ imm = #0x5e
100008ba: 6960         	ldr	r0, [r4, #0x14]
100008bc: f003 fd44    	bl	0x10004348 <_sys_istty> @ imm = #0x3a88
100008c0: f104 0524    	add.w	r5, r4, #0x24
100008c4: f04f 0801    	mov.w	r8, #0x1
100008c8: b1a8         	cbz	r0, 0x100008f6 <__flsbuf_wide+0xd4> @ imm = #0x2a
100008ca: 89a0         	ldrh	r0, [r4, #0xc]
100008cc: f410 7f40    	tst.w	r0, #0x300
100008d0: d008         	beq	0x100008e4 <__flsbuf_wide+0xc2> @ imm = #0x10
100008d2: 69e0         	ldr	r0, [r4, #0x1c]
100008d4: f000 f9db    	bl	0x10000c8e <malloc>     @ imm = #0x3b6
100008d8: 6120         	str	r0, [r4, #0x10]
100008da: b118         	cbz	r0, 0x100008e4 <__flsbuf_wide+0xc2> @ imm = #0x6
100008dc: 68e0         	ldr	r0, [r4, #0xc]
100008de: f440 6000    	orr	r0, r0, #0x800
100008e2: e017         	b	0x10000914 <__flsbuf_wide+0xf2> @ imm = #0x2e
100008e4: f8c4 801c    	str.w	r8, [r4, #0x1c]
100008e8: 6125         	str	r5, [r4, #0x10]
100008ea: 68e0         	ldr	r0, [r4, #0xc]
100008ec: f420 7040    	bic	r0, r0, #0x300
100008f0: f440 6080    	orr	r0, r0, #0x400
100008f4: e00e         	b	0x10000914 <__flsbuf_wide+0xf2> @ imm = #0x1c
100008f6: 69e0         	ldr	r0, [r4, #0x1c]
100008f8: f000 f9c9    	bl	0x10000c8e <malloc>     @ imm = #0x392
100008fc: 2800         	cmp	r0, #0x0
100008fe: 6120         	str	r0, [r4, #0x10]
10000900: d0f0         	beq	0x100008e4 <__flsbuf_wide+0xc2> @ imm = #-0x20
10000902: 68e0         	ldr	r0, [r4, #0xc]
10000904: f440 6000    	orr	r0, r0, #0x800
10000908: f410 7f40    	tst.w	r0, #0x300
1000090c: 60e0         	str	r0, [r4, #0xc]
1000090e: d102         	bne	0x10000916 <__flsbuf_wide+0xf4> @ imm = #0x4
10000910: f440 7080    	orr	r0, r0, #0x100
10000914: 60e0         	str	r0, [r4, #0xc]
10000916: 6920         	ldr	r0, [r4, #0x10]
10000918: 6060         	str	r0, [r4, #0x4]
1000091a: 68e0         	ldr	r0, [r4, #0xc]
1000091c: 6925         	ldr	r5, [r4, #0x10]
1000091e: f06f 0b01    	mvn	r11, #0x1
10000922: 05c1         	lsls	r1, r0, #0x17
10000924: d51e         	bpl	0x10000964 <__flsbuf_wide+0x142> @ imm = #0x3c
10000926: 6861         	ldr	r1, [r4, #0x4]
10000928: 6ae0         	ldr	r0, [r4, #0x2c]
1000092a: 4288         	cmp	r0, r1
1000092c: d800         	bhi	0x10000930 <__flsbuf_wide+0x10e> @ imm = #0x0
1000092e: 4608         	mov	r0, r1
10000930: 1b41         	subs	r1, r0, r5
10000932: d004         	beq	0x1000093e <__flsbuf_wide+0x11c> @ imm = #0x8
10000934: 4622         	mov	r2, r4
10000936: 4628         	mov	r0, r5
10000938: f000 fa5e    	bl	0x10000df8 <_writebuf>  @ imm = #0x4bc
1000093c: bbe8         	cbnz	r0, 0x100009ba <__flsbuf_wide+0x198> @ imm = #0x7a
1000093e: b11f         	cbz	r7, 0x10000948 <__flsbuf_wide+0x126> @ imm = #0x6
10000940: 62e5         	str	r5, [r4, #0x2c]
10000942: e9c4 5901    	strd	r5, r9, [r4, #4]
10000946: e059         	b	0x100009fc <__flsbuf_wide+0x1da> @ imm = #0xb2
10000948: 1c68         	adds	r0, r5, #0x1
1000094a: 62e0         	str	r0, [r4, #0x2c]
1000094c: 6060         	str	r0, [r4, #0x4]
1000094e: 69e0         	ldr	r0, [r4, #0x1c]
10000950: 1e40         	subs	r0, r0, #0x1
10000952: 60a0         	str	r0, [r4, #0x8]
10000954: 68e0         	ldr	r0, [r4, #0xc]
10000956: f440 3080    	orr	r0, r0, #0x10000
1000095a: 60e0         	str	r0, [r4, #0xc]
1000095c: 4630         	mov	r0, r6
1000095e: 702e         	strb	r6, [r5]
10000960: e8bd 9ff0    	pop.w	{r4, r5, r6, r7, r8, r9, r10, r11, r12, pc}
10000964: b117         	cbz	r7, 0x1000096c <__flsbuf_wide+0x14a> @ imm = #0x4
10000966: f400 3280    	and	r2, r0, #0x10000
1000096a: e00a         	b	0x10000982 <__flsbuf_wide+0x160> @ imm = #0x14
1000096c: 6860         	ldr	r0, [r4, #0x4]
1000096e: 1c41         	adds	r1, r0, #0x1
10000970: 6061         	str	r1, [r4, #0x4]
10000972: 7006         	strb	r6, [r0]
10000974: 68e0         	ldr	r0, [r4, #0xc]
10000976: 2e0a         	cmp	r6, #0xa
10000978: f440 3080    	orr	r0, r0, #0x10000
1000097c: 60e0         	str	r0, [r4, #0xc]
1000097e: d006         	beq	0x1000098e <__flsbuf_wide+0x16c> @ imm = #0xc
10000980: 2200         	movs	r2, #0x0
10000982: 6ae1         	ldr	r1, [r4, #0x2c]
10000984: 6860         	ldr	r0, [r4, #0x4]
10000986: 4281         	cmp	r1, r0
10000988: d903         	bls	0x10000992 <__flsbuf_wide+0x170> @ imm = #0x6
1000098a: 460b         	mov	r3, r1
1000098c: e002         	b	0x10000994 <__flsbuf_wide+0x172> @ imm = #0x4
1000098e: 2201         	movs	r2, #0x1
10000990: e7f7         	b	0x10000982 <__flsbuf_wide+0x160> @ imm = #-0x12
10000992: 4603         	mov	r3, r0
10000994: f8b4 c00c    	ldrh.w	r12, [r4, #0xc]
10000998: 1b5b         	subs	r3, r3, r5
1000099a: ea5f 5c4c    	lsls.w	r12, r12, #0x15
1000099e: d404         	bmi	0x100009aa <__flsbuf_wide+0x188> @ imm = #0x8
100009a0: f8d4 c01c    	ldr.w	r12, [r4, #0x1c]
100009a4: 459c         	cmp	r12, r3
100009a6: dd00         	ble	0x100009aa <__flsbuf_wide+0x188> @ imm = #0x0
100009a8: b302         	cbz	r2, 0x100009ec <__flsbuf_wide+0x1ca> @ imm = #0x40
100009aa: 4281         	cmp	r1, r0
100009ac: d800         	bhi	0x100009b0 <__flsbuf_wide+0x18e> @ imm = #0x0
100009ae: 4601         	mov	r1, r0
100009b0: 2b00         	cmp	r3, #0x0
100009b2: eba1 0800    	sub.w	r8, r1, r0
100009b6: 62e5         	str	r5, [r4, #0x2c]
100009b8: e000         	b	0x100009bc <__flsbuf_wide+0x19a> @ imm = #0x0
100009ba: e008         	b	0x100009ce <__flsbuf_wide+0x1ac> @ imm = #0x10
100009bc: e9c4 5901    	strd	r5, r9, [r4, #4]
100009c0: dd07         	ble	0x100009d2 <__flsbuf_wide+0x1b0> @ imm = #0xe
100009c2: 4622         	mov	r2, r4
100009c4: 4619         	mov	r1, r3
100009c6: 4628         	mov	r0, r5
100009c8: f000 fa16    	bl	0x10000df8 <_writebuf>  @ imm = #0x42c
100009cc: b108         	cbz	r0, 0x100009d2 <__flsbuf_wide+0x1b0> @ imm = #0x2
100009ce: 4650         	mov	r0, r10
100009d0: e7c6         	b	0x10000960 <__flsbuf_wide+0x13e> @ imm = #-0x74
100009d2: f1b8 0f00    	cmp.w	r8, #0x0
100009d6: d009         	beq	0x100009ec <__flsbuf_wide+0x1ca> @ imm = #0x12
100009d8: 69a1         	ldr	r1, [r4, #0x18]
100009da: 62e5         	str	r5, [r4, #0x2c]
100009dc: 6065         	str	r5, [r4, #0x4]
100009de: eba1 0008    	sub.w	r0, r1, r8
100009e2: 61a0         	str	r0, [r4, #0x18]
100009e4: 68e0         	ldr	r0, [r4, #0xc]
100009e6: f040 0010    	orr	r0, r0, #0x10
100009ea: 60e0         	str	r0, [r4, #0xc]
100009ec: b147         	cbz	r7, 0x10000a00 <__flsbuf_wide+0x1de> @ imm = #0x10
100009ee: 6861         	ldr	r1, [r4, #0x4]
100009f0: 69a0         	ldr	r0, [r4, #0x18]
100009f2: 62e5         	str	r5, [r4, #0x2c]
100009f4: 1b49         	subs	r1, r1, r5
100009f6: 4408         	add	r0, r1
100009f8: 6065         	str	r5, [r4, #0x4]
100009fa: 61a0         	str	r0, [r4, #0x18]
100009fc: 4658         	mov	r0, r11
100009fe: e7af         	b	0x10000960 <__flsbuf_wide+0x13e> @ imm = #-0xa2
10000a00: 4630         	mov	r0, r6
10000a02: e7ad         	b	0x10000960 <__flsbuf_wide+0x13e> @ imm = #-0xa6

10000a04 <setvbuf>:
10000a04: b570         	push	{r4, r5, r6, lr}
10000a06: 68c4         	ldr	r4, [r0, #0xc]
10000a08: 07a5         	lsls	r5, r4, #0x1e
10000a0a: d013         	beq	0x10000a34 <setvbuf+0x30> @ imm = #0x26
10000a0c: 0265         	lsls	r5, r4, #0x9
10000a0e: d411         	bmi	0x10000a34 <setvbuf+0x30> @ imm = #0x22
10000a10: f5b2 7f80    	cmp.w	r2, #0x100
10000a14: d009         	beq	0x10000a2a <setvbuf+0x26> @ imm = #0x12
10000a16: f5b2 7f00    	cmp.w	r2, #0x200
10000a1a: d006         	beq	0x10000a2a <setvbuf+0x26> @ imm = #0xc
10000a1c: f5b2 6f80    	cmp.w	r2, #0x400
10000a20: d108         	bne	0x10000a34 <setvbuf+0x30> @ imm = #0x10
10000a22: 2301         	movs	r3, #0x1
10000a24: f100 0124    	add.w	r1, r0, #0x24
10000a28: e006         	b	0x10000a38 <setvbuf+0x34> @ imm = #0xc
10000a2a: 1e5d         	subs	r5, r3, #0x1
10000a2c: f06f 467f    	mvn	r6, #0xff000000
10000a30: 42b5         	cmp	r5, r6
10000a32: d301         	blo	0x10000a38 <setvbuf+0x34> @ imm = #0x2
10000a34: 2001         	movs	r0, #0x1
10000a36: bd70         	pop	{r4, r5, r6, pc}
10000a38: 6101         	str	r1, [r0, #0x10]
10000a3a: 61c3         	str	r3, [r0, #0x1c]
10000a3c: 6041         	str	r1, [r0, #0x4]
10000a3e: f424 6170    	bic	r1, r4, #0xf00
10000a42: 4311         	orrs	r1, r2
10000a44: 60c1         	str	r1, [r0, #0xc]
10000a46: 2000         	movs	r0, #0x0
10000a48: bd70         	pop	{r4, r5, r6, pc}
10000a4a: 0000         	movs	r0, r0

10000a4c <freopen>:
10000a4c: e92d 41f0    	push.w	{r4, r5, r6, r7, r8, lr}
10000a50: 460c         	mov	r4, r1
10000a52: 4616         	mov	r6, r2
10000a54: 0007         	movs	r7, r0
10000a56: d047         	beq	0x10000ae8 <freopen+0x9c> @ imm = #0x8e
10000a58: 4610         	mov	r0, r2
10000a5a: f000 f86f    	bl	0x10000b3c <fclose>     @ imm = #0xde
10000a5e: 7820         	ldrb	r0, [r4]
10000a60: 1c61         	adds	r1, r4, #0x1
10000a62: 2861         	cmp	r0, #0x61
10000a64: d00a         	beq	0x10000a7c <freopen+0x30> @ imm = #0x14
10000a66: 2872         	cmp	r0, #0x72
10000a68: d002         	beq	0x10000a70 <freopen+0x24> @ imm = #0x4
10000a6a: 2877         	cmp	r0, #0x77
10000a6c: d13c         	bne	0x10000ae8 <freopen+0x9c> @ imm = #0x78
10000a6e: e002         	b	0x10000a76 <freopen+0x2a> @ imm = #0x4
10000a70: 2501         	movs	r5, #0x1
10000a72: 2400         	movs	r4, #0x0
10000a74: e005         	b	0x10000a82 <freopen+0x36> @ imm = #0xa
10000a76: 2502         	movs	r5, #0x2
10000a78: 2404         	movs	r4, #0x4
10000a7a: e002         	b	0x10000a82 <freopen+0x36> @ imm = #0x4
10000a7c: 2408         	movs	r4, #0x8
10000a7e: f248 0502    	movw	r5, #0x8002
10000a82: f811 0b01    	ldrb	r0, [r1], #1
10000a86: 282b         	cmp	r0, #0x2b
10000a88: d006         	beq	0x10000a98 <freopen+0x4c> @ imm = #0xc
10000a8a: 2862         	cmp	r0, #0x62
10000a8c: d009         	beq	0x10000aa2 <freopen+0x56> @ imm = #0x12
10000a8e: f811 0c01    	ldrb	r0, [r1, #-1]
10000a92: 2874         	cmp	r0, #0x74
10000a94: d00a         	beq	0x10000aac <freopen+0x60> @ imm = #0x14
10000a96: e00b         	b	0x10000ab0 <freopen+0x64> @ imm = #0x16
10000a98: f045 0503    	orr	r5, r5, #0x3
10000a9c: f044 0402    	orr	r4, r4, #0x2
10000aa0: e7ef         	b	0x10000a82 <freopen+0x36> @ imm = #-0x22
10000aa2: f045 0504    	orr	r5, r5, #0x4
10000aa6: f044 0401    	orr	r4, r4, #0x1
10000aaa: e7ea         	b	0x10000a82 <freopen+0x36> @ imm = #-0x2c
10000aac: f044 0410    	orr	r4, r4, #0x10
10000ab0: 4638         	mov	r0, r7
10000ab2: 4621         	mov	r1, r4
10000ab4: f003 fc50    	bl	0x10004358 <_sys_open>  @ imm = #0x38a0
10000ab8: 1c41         	adds	r1, r0, #0x1
10000aba: d015         	beq	0x10000ae8 <freopen+0x9c> @ imm = #0x2a
10000abc: 2100         	movs	r1, #0x0
10000abe: 6131         	str	r1, [r6, #0x10]
10000ac0: 6071         	str	r1, [r6, #0x4]
10000ac2: f44f 7100    	mov.w	r1, #0x200
10000ac6: 60f5         	str	r5, [r6, #0xc]
10000ac8: 61f1         	str	r1, [r6, #0x1c]
10000aca: 6170         	str	r0, [r6, #0x14]
10000acc: 0720         	lsls	r0, r4, #0x1c
10000ace: d504         	bpl	0x10000ada <freopen+0x8e> @ imm = #0x8
10000ad0: 4630         	mov	r0, r6
10000ad2: 2202         	movs	r2, #0x2
10000ad4: 2100         	movs	r1, #0x0
10000ad6: f000 f909    	bl	0x10000cec <fseek>      @ imm = #0x212
10000ada: 6d30         	ldr	r0, [r6, #0x50]
10000adc: f040 0001    	orr	r0, r0, #0x1
10000ae0: 6530         	str	r0, [r6, #0x50]
10000ae2: 4630         	mov	r0, r6
10000ae4: e8bd 81f0    	pop.w	{r4, r5, r6, r7, r8, pc}
10000ae8: 2000         	movs	r0, #0x0
10000aea: e7fb         	b	0x10000ae4 <freopen+0x98> @ imm = #-0xa

10000aec <fopen>:
10000aec: e92d 41f0    	push.w	{r4, r5, r6, r7, r8, lr}
10000af0: 460d         	mov	r5, r1
10000af2: 4606         	mov	r6, r0
10000af4: 4c10         	ldr	r4, [pc, #0x40]         @ 0x10000b38 <fopen+0x4c>
10000af6: 6d20         	ldr	r0, [r4, #0x50]
10000af8: 07c1         	lsls	r1, r0, #0x1f
10000afa: d004         	beq	0x10000b06 <fopen+0x1a> @ imm = #0x8
10000afc: 0841         	lsrs	r1, r0, #0x1
10000afe: d004         	beq	0x10000b0a <fopen+0x1e> @ imm = #0x8
10000b00: f020 0401    	bic	r4, r0, #0x1
10000b04: e7f7         	b	0x10000af6 <fopen+0xa>  @ imm = #-0x12
10000b06: 4622         	mov	r2, r4
10000b08: e00e         	b	0x10000b28 <fopen+0x3c> @ imm = #0x1c
10000b0a: 2054         	movs	r0, #0x54
10000b0c: f000 f8bf    	bl	0x10000c8e <malloc>     @ imm = #0x17e
10000b10: 0007         	movs	r7, r0
10000b12: d00e         	beq	0x10000b32 <fopen+0x46> @ imm = #0x1c
10000b14: 6d20         	ldr	r0, [r4, #0x50]
10000b16: f047 0101    	orr	r1, r7, #0x1
10000b1a: 4308         	orrs	r0, r1
10000b1c: 2154         	movs	r1, #0x54
10000b1e: 6520         	str	r0, [r4, #0x50]
10000b20: 4638         	mov	r0, r7
10000b22: f000 f841    	bl	0x10000ba8 <__rt_memclr_w> @ imm = #0x82
10000b26: 463a         	mov	r2, r7
10000b28: 4629         	mov	r1, r5
10000b2a: 4630         	mov	r0, r6
10000b2c: e8bd 41f0    	pop.w	{r4, r5, r6, r7, r8, lr}
10000b30: e78c         	b	0x10000a4c <freopen>    @ imm = #-0xe8
10000b32: 2000         	movs	r0, #0x0
10000b34: e7d6         	b	0x10000ae4 <freopen+0x98> @ imm = #-0x54

10000b36 <$d>:
10000b36: 00 00 14 00  	.word	0x00140000
10000b3a: 00 38        	.short	0x3800

10000b3c <fclose>:
10000b3c: e92d 47f0    	push.w	{r4, r5, r6, r7, r8, r9, r10, lr}
10000b40: 4604         	mov	r4, r0
10000b42: f04f 0900    	mov.w	r9, #0x0
10000b46: f04f 37ff    	mov.w	r7, #0xffffffff
10000b4a: 68c5         	ldr	r5, [r0, #0xc]
10000b4c: e9d4 8604    	ldrd	r8, r6, [r4, #16]
10000b50: 07a8         	lsls	r0, r5, #0x1e
10000b52: d007         	beq	0x10000b64 <fclose+0x28> @ imm = #0xe
10000b54: 4620         	mov	r0, r4
10000b56: f000 f979    	bl	0x10000e4c <_fflush>    @ imm = #0x2f2
10000b5a: 4630         	mov	r0, r6
10000b5c: f003 fbe8    	bl	0x10004330 <_sys_close> @ imm = #0x37d0
10000b60: 2800         	cmp	r0, #0x0
10000b62: da02         	bge	0x10000b6a <fclose+0x2e> @ imm = #0x4
10000b64: 4638         	mov	r0, r7
10000b66: e8bd 87f0    	pop.w	{r4, r5, r6, r7, r8, r9, r10, pc}
10000b6a: 0528         	lsls	r0, r5, #0x14
10000b6c: d502         	bpl	0x10000b74 <fclose+0x38> @ imm = #0x4
10000b6e: 4640         	mov	r0, r8
10000b70: f7ff fe30    	bl	0x100007d4 <free>       @ imm = #-0x3a0
10000b74: 214c         	movs	r1, #0x4c
10000b76: 4620         	mov	r0, r4
10000b78: f000 f816    	bl	0x10000ba8 <__rt_memclr_w> @ imm = #0x2c
10000b7c: 6d20         	ldr	r0, [r4, #0x50]
10000b7e: f020 0001    	bic	r0, r0, #0x1
10000b82: 6520         	str	r0, [r4, #0x50]
10000b84: 4648         	mov	r0, r9
10000b86: e7ee         	b	0x10000b66 <fclose+0x2a> @ imm = #-0x24

10000b88 <exit>:
10000b88: b510         	push	{r4, lr}
10000b8a: 4604         	mov	r4, r0
10000b8c: f3af 8000    	nop.w
10000b90: 4620         	mov	r0, r4
10000b92: e8bd 4010    	pop.w	{r4, lr}
10000b96: f7ff bc8f    	b.w	0x100004b8 <__rt_exit>  @ imm = #-0x6e2

10000b9a <__rt_SIGRTRED>:
10000b9a: b510         	push	{r4, lr}
10000b9c: f000 f9a0    	bl	0x10000ee0 <__rt_SIGRTRED_inner> @ imm = #0x340
10000ba0: e8bd 4010    	pop.w	{r4, lr}
10000ba4: f000 b996    	b.w	0x10000ed4 <__sig_exit> @ imm = #0x32c

10000ba8 <__rt_memclr_w>:
10000ba8: f04f 0200    	mov.w	r2, #0x0

10000bac <_memset_w>:
10000bac: b500         	push	{lr}
10000bae: 4613         	mov	r3, r2
10000bb0: 4694         	mov	r12, r2
10000bb2: 4696         	mov	lr, r2
10000bb4: 3920         	subs	r1, #0x20
10000bb6: bf22         	ittt	hs
10000bb8: e8a0 500c    	stmhs.w	r0!, {r2, r3, r12, lr}
10000bbc: e8a0 500c    	stmhs.w	r0!, {r2, r3, r12, lr}
10000bc0: f1b1 0120    	subshs.w	r1, r1, #0x20
10000bc4: f4bf aff7    	bhs.w	0x10000bb6 <_memset_w+0xa> @ imm = #-0x12
10000bc8: 0709         	lsls	r1, r1, #0x1c
10000bca: bf28         	it	hs
10000bcc: e8a0 500c    	stmhs.w	r0!, {r2, r3, r12, lr}
10000bd0: bf48         	it	mi
10000bd2: c00c         	stmmi	r0!, {r2, r3}
10000bd4: f85d eb04    	ldr	lr, [sp], #4
10000bd8: 0089         	lsls	r1, r1, #0x2
10000bda: bf28         	it	hs
10000bdc: f840 2b04    	strhs	r2, [r0], #4
10000be0: bf08         	it	eq
10000be2: 4770         	bxeq	lr
10000be4: bf48         	it	mi
10000be6: f820 2b02    	strhmi	r2, [r0], #2
10000bea: f011 4f80    	tst.w	r1, #0x40000000
10000bee: bf18         	it	ne
10000bf0: f800 2b01    	strbne	r2, [r0], #1
10000bf4: 4770         	bx	lr
10000bf6: 0000         	movs	r0, r0

10000bf8 <__rt_heap_descriptor>:
10000bf8: 4800         	ldr	r0, [pc, #0x0]          @ 0x10000bfc <__rt_heap_descriptor+0x4>
10000bfa: 4770         	bx	lr

10000bfc <$d>:
10000bfc: 18 01 00 38  	.word	0x38000118

10000c00 <__use_no_heap>:
10000c00: 4770         	bx	lr

10000c02 <__heap$guard>:
10000c02: 4770         	bx	lr

10000c04 <_terminate_user_alloc>:
10000c04: 4770         	bx	lr

10000c06 <_init_user_alloc>:
10000c06: 4770         	bx	lr

10000c08 <__Heap_Full>:
10000c08: b538         	push	{r3, r4, r5, lr}
10000c0a: 4604         	mov	r4, r0
10000c0c: 460a         	mov	r2, r1
10000c0e: 2000         	movs	r0, #0x0
10000c10: 4669         	mov	r1, sp
10000c12: f3af 8000    	nop.w
10000c16: 2800         	cmp	r0, #0x0
10000c18: bf08         	it	eq
10000c1a: bd38         	popeq	{r3, r4, r5, pc}
10000c1c: 4602         	mov	r2, r0
10000c1e: 9900         	ldr	r1, [sp]
10000c20: 4620         	mov	r0, r4
10000c22: f000 f985    	bl	0x10000f30 <__Heap_ProvideMemory> @ imm = #0x30a
10000c26: 2001         	movs	r0, #0x1
10000c28: bd38         	pop	{r3, r4, r5, pc}

10000c2a <__Heap_Broken>:
10000c2a: 2001         	movs	r0, #0x1
10000c2c: f000 b9d4    	b.w	0x10000fd8 <__rt_SIGRTMEM> @ imm = #0x3a8

10000c30 <_init_alloc>:
10000c30: b5f8         	push	{r3, r4, r5, r6, r7, lr}
10000c32: f3af 8000    	nop.w
10000c36: 4605         	mov	r5, r0
10000c38: 2000         	movs	r0, #0x0
10000c3a: 460c         	mov	r4, r1
10000c3c: 2010         	movs	r0, #0x10
10000c3e: bf00         	nop
10000c40: 4606         	mov	r6, r0
10000c42: 19a8         	adds	r0, r5, r6
10000c44: 42a0         	cmp	r0, r4
10000c46: d90d         	bls	0x10000c64 <_init_alloc+0x34> @ imm = #0x1a
10000c48: 4632         	mov	r2, r6
10000c4a: 4669         	mov	r1, sp
10000c4c: 2000         	movs	r0, #0x0
10000c4e: f3af 8000    	nop.w
10000c52: 0007         	movs	r7, r0
10000c54: bf08         	it	eq
10000c56: f000 f9bf    	bleq	0x10000fd8 <__rt_SIGRTMEM> @ imm = #0x37e
10000c5a: 9800         	ldr	r0, [sp]
10000c5c: 42a0         	cmp	r0, r4
10000c5e: bf18         	it	ne
10000c60: 4605         	movne	r5, r0
10000c62: 19c4         	adds	r4, r0, r7
10000c64: f7ff ffc8    	bl	0x10000bf8 <__rt_heap_descriptor> @ imm = #-0x70
10000c68: 6005         	str	r5, [r0]
10000c6a: 4607         	mov	r7, r0
10000c6c: 1df0         	adds	r0, r6, #0x7
10000c6e: f020 0007    	bic	r0, r0, #0x7
10000c72: 1946         	adds	r6, r0, r5
10000c74: 4628         	mov	r0, r5
10000c76: f000 f954    	bl	0x10000f22 <_maybe_terminate_alloc> @ imm = #0x2a8
10000c7a: 42b4         	cmp	r4, r6
10000c7c: bf08         	it	eq
10000c7e: bdf8         	popeq	{r3, r4, r5, r6, r7, pc}
10000c80: 1ba2         	subs	r2, r4, r6
10000c82: 4631         	mov	r1, r6
10000c84: 6838         	ldr	r0, [r7]
10000c86: e8bd 40f8    	pop.w	{r3, r4, r5, r6, r7, lr}
10000c8a: f000 b951    	b.w	0x10000f30 <__Heap_ProvideMemory> @ imm = #0x2a2

10000c8e <malloc>:
10000c8e: b570         	push	{r4, r5, r6, lr}
10000c90: 4606         	mov	r6, r0
10000c92: f7ff ffb1    	bl	0x10000bf8 <__rt_heap_descriptor> @ imm = #-0x9e
10000c96: 6805         	ldr	r5, [r0]
10000c98: f106 000b    	add.w	r0, r6, #0xb
10000c9c: f020 0407    	bic	r4, r0, #0x7
10000ca0: 42b4         	cmp	r4, r6
10000ca2: bf9c         	itt	ls
10000ca4: 2000         	movls	r0, #0x0
10000ca6: bd70         	popls	{r4, r5, r6, pc}
10000ca8: 462b         	mov	r3, r5
10000caa: 686a         	ldr	r2, [r5, #0x4]
10000cac: b1ba         	cbz	r2, 0x10000cde <malloc+0x50> @ imm = #0x2e
10000cae: 6810         	ldr	r0, [r2]
10000cb0: 42a0         	cmp	r0, r4
10000cb2: d310         	blo	0x10000cd6 <malloc+0x48> @ imm = #0x20
10000cb4: f104 0108    	add.w	r1, r4, #0x8
10000cb8: 4288         	cmp	r0, r1
10000cba: bf3c         	itt	lo
10000cbc: 6850         	ldrlo	r0, [r2, #0x4]
10000cbe: 6058         	strlo	r0, [r3, #0x4]
10000cc0: d307         	blo	0x10000cd2 <malloc+0x44> @ imm = #0xe
10000cc2: 6851         	ldr	r1, [r2, #0x4]
10000cc4: 1910         	adds	r0, r2, r4
10000cc6: 6041         	str	r1, [r0, #0x4]
10000cc8: 6811         	ldr	r1, [r2]
10000cca: 1b09         	subs	r1, r1, r4
10000ccc: 6001         	str	r1, [r0]
10000cce: 6058         	str	r0, [r3, #0x4]
10000cd0: 6014         	str	r4, [r2]
10000cd2: 1d10         	adds	r0, r2, #0x4
10000cd4: bd70         	pop	{r4, r5, r6, pc}
10000cd6: 4613         	mov	r3, r2
10000cd8: 6852         	ldr	r2, [r2, #0x4]
10000cda: 2a00         	cmp	r2, #0x0
10000cdc: d1e7         	bne	0x10000cae <malloc+0x20> @ imm = #-0x32
10000cde: 4621         	mov	r1, r4
10000ce0: 4628         	mov	r0, r5
10000ce2: f7ff ff91    	bl	0x10000c08 <__Heap_Full> @ imm = #-0xde
10000ce6: 2800         	cmp	r0, #0x0
10000ce8: d1de         	bne	0x10000ca8 <malloc+0x1a> @ imm = #-0x44
10000cea: bd70         	pop	{r4, r5, r6, pc}

10000cec <fseek>:
10000cec: e92d 41f0    	push.w	{r4, r5, r6, r7, r8, lr}
10000cf0: 4604         	mov	r4, r0
10000cf2: 4616         	mov	r6, r2
10000cf4: 460d         	mov	r5, r1
10000cf6: 6947         	ldr	r7, [r0, #0x14]
10000cf8: 7b00         	ldrb	r0, [r0, #0xc]
10000cfa: 0780         	lsls	r0, r0, #0x1e
10000cfc: d02e         	beq	0x10000d5c <fseek+0x70> @ imm = #0x5c
10000cfe: 4638         	mov	r0, r7
10000d00: f003 fb22    	bl	0x10004348 <_sys_istty> @ imm = #0x3644
10000d04: bb50         	cbnz	r0, 0x10000d5c <fseek+0x70> @ imm = #0x54
10000d06: b33e         	cbz	r6, 0x10000d58 <fseek+0x6c> @ imm = #0x4e
10000d08: 2e01         	cmp	r6, #0x1
10000d0a: d002         	beq	0x10000d12 <fseek+0x26> @ imm = #0x4
10000d0c: 2e02         	cmp	r6, #0x2
10000d0e: d125         	bne	0x10000d5c <fseek+0x70> @ imm = #0x4a
10000d10: e004         	b	0x10000d1c <fseek+0x30> @ imm = #0x8
10000d12: 4620         	mov	r0, r4
10000d14: f000 f926    	bl	0x10000f64 <ftell>      @ imm = #0x24c
10000d18: 4405         	add	r5, r0
10000d1a: e01d         	b	0x10000d58 <fseek+0x6c> @ imm = #0x3a
10000d1c: 4638         	mov	r0, r7
10000d1e: f003 fb11    	bl	0x10004344 <_sys_flen>  @ imm = #0x3622
10000d22: 68e1         	ldr	r1, [r4, #0xc]
10000d24: 2800         	cmp	r0, #0x0
10000d26: f041 0110    	orr	r1, r1, #0x10
10000d2a: 60e1         	str	r1, [r4, #0xc]
10000d2c: da05         	bge	0x10000d3a <fseek+0x4e> @ imm = #0xa
10000d2e: 4620         	mov	r0, r4
10000d30: f000 f858    	bl	0x10000de4 <_seterr>    @ imm = #0xb0
10000d34: 2001         	movs	r0, #0x1
10000d36: e8bd 81f0    	pop.w	{r4, r5, r6, r7, r8, pc}
10000d3a: 03c9         	lsls	r1, r1, #0xf
10000d3c: d50b         	bpl	0x10000d56 <fseek+0x6a> @ imm = #0x16
10000d3e: 6862         	ldr	r2, [r4, #0x4]
10000d40: 6ae1         	ldr	r1, [r4, #0x2c]
10000d42: 4291         	cmp	r1, r2
10000d44: d800         	bhi	0x10000d48 <fseek+0x5c> @ imm = #0x0
10000d46: 4611         	mov	r1, r2
10000d48: 69a2         	ldr	r2, [r4, #0x18]
10000d4a: 4411         	add	r1, r2
10000d4c: 6922         	ldr	r2, [r4, #0x10]
10000d4e: 1a89         	subs	r1, r1, r2
10000d50: 4281         	cmp	r1, r0
10000d52: dd00         	ble	0x10000d56 <fseek+0x6a> @ imm = #0x0
10000d54: 4608         	mov	r0, r1
10000d56: 4405         	add	r5, r0
10000d58: 2d00         	cmp	r5, #0x0
10000d5a: da01         	bge	0x10000d60 <fseek+0x74> @ imm = #0x2
10000d5c: 2002         	movs	r0, #0x2
10000d5e: e7ea         	b	0x10000d36 <fseek+0x4a> @ imm = #-0x2c
10000d60: 6ae1         	ldr	r1, [r4, #0x2c]
10000d62: 6860         	ldr	r0, [r4, #0x4]
10000d64: 68e2         	ldr	r2, [r4, #0xc]
10000d66: 4281         	cmp	r1, r0
10000d68: d206         	bhs	0x10000d78 <fseek+0x8c> @ imm = #0xc
10000d6a: 0391         	lsls	r1, r2, #0xe
10000d6c: 62e0         	str	r0, [r4, #0x2c]
10000d6e: d503         	bpl	0x10000d78 <fseek+0x8c> @ imm = #0x6
10000d70: f422 3100    	bic	r1, r2, #0x20000
10000d74: f041 0210    	orr	r2, r1, #0x10
10000d78: 69a6         	ldr	r6, [r4, #0x18]
10000d7a: 2700         	movs	r7, #0x0
10000d7c: 42ae         	cmp	r6, r5
10000d7e: dc13         	bgt	0x10000da8 <fseek+0xbc> @ imm = #0x26
10000d80: 6ae1         	ldr	r1, [r4, #0x2c]
10000d82: 4281         	cmp	r1, r0
10000d84: d901         	bls	0x10000d8a <fseek+0x9e> @ imm = #0x2
10000d86: 460b         	mov	r3, r1
10000d88: e000         	b	0x10000d8c <fseek+0xa0> @ imm = #0x0
10000d8a: 4603         	mov	r3, r0
10000d8c: eb03 0c06    	add.w	r12, r3, r6
10000d90: 6923         	ldr	r3, [r4, #0x10]
10000d92: ebac 0c03    	sub.w	r12, r12, r3
10000d96: 45ac         	cmp	r12, r5
10000d98: dd06         	ble	0x10000da8 <fseek+0xbc> @ imm = #0xc
10000d9a: 4281         	cmp	r1, r0
10000d9c: d901         	bls	0x10000da2 <fseek+0xb6> @ imm = #0x2
10000d9e: 468c         	mov	r12, r1
10000da0: e000         	b	0x10000da4 <fseek+0xb8> @ imm = #0x0
10000da2: 4684         	mov	r12, r0
10000da4: 459c         	cmp	r12, r3
10000da6: d105         	bne	0x10000db4 <fseek+0xc8> @ imm = #0xa
10000da8: 60a7         	str	r7, [r4, #0x8]
10000daa: 6027         	str	r7, [r4]
10000dac: f042 0020    	orr	r0, r2, #0x20
10000db0: 62a5         	str	r5, [r4, #0x28]
10000db2: e00d         	b	0x10000dd0 <fseek+0xe4> @ imm = #0x1a
10000db4: 1bad         	subs	r5, r5, r6
10000db6: 69e6         	ldr	r6, [r4, #0x1c]
10000db8: 1bae         	subs	r6, r5, r6
10000dba: 4281         	cmp	r1, r0
10000dbc: 60a6         	str	r6, [r4, #0x8]
10000dbe: d900         	bls	0x10000dc2 <fseek+0xd6> @ imm = #0x0
10000dc0: 4608         	mov	r0, r1
10000dc2: 1ac0         	subs	r0, r0, r3
10000dc4: 1a28         	subs	r0, r5, r0
10000dc6: 6020         	str	r0, [r4]
10000dc8: 1958         	adds	r0, r3, r5
10000dca: 6060         	str	r0, [r4, #0x4]
10000dcc: f022 0020    	bic	r0, r2, #0x20
10000dd0: 4903         	ldr	r1, [pc, #0xc]          @ 0x10000de0 <fseek+0xf4>
10000dd2: 4008         	ands	r0, r1
10000dd4: 60e0         	str	r0, [r4, #0xc]
10000dd6: 2000         	movs	r0, #0x0
10000dd8: f884 7048    	strb.w	r7, [r4, #0x48]
10000ddc: e7ab         	b	0x10000d36 <fseek+0x4a> @ imm = #-0xaa

10000dde <$d>:
10000dde: 00 00 bf cf  	.word	0xcfbf0000
10000de2: d7 ff        	.short	0xffd7

10000de4 <_seterr>:
10000de4: 68c1         	ldr	r1, [r0, #0xc]
10000de6: f421 1100    	bic	r1, r1, #0x200000
10000dea: f041 0180    	orr	r1, r1, #0x80
10000dee: 60c1         	str	r1, [r0, #0xc]
10000df0: 2100         	movs	r1, #0x0
10000df2: 6081         	str	r1, [r0, #0x8]
10000df4: 6001         	str	r1, [r0]
10000df6: 4770         	bx	lr

10000df8 <_writebuf>:
10000df8: e92d 47f0    	push.w	{r4, r5, r6, r7, r8, r9, r10, lr}
10000dfc: 4681         	mov	r9, r0
10000dfe: 4614         	mov	r4, r2
10000e00: 460e         	mov	r6, r1
10000e02: f04f 38ff    	mov.w	r8, #0xffffffff
10000e06: 4832         	ldr	r0, [pc, #0xc8]         @ 0x10000ed0 <_deferredlazyseek+0x3e>
10000e08: 68d5         	ldr	r5, [r2, #0xc]
10000e0a: 6957         	ldr	r7, [r2, #0x14]
10000e0c: 4205         	tst	r5, r0
10000e0e: d009         	beq	0x10000e24 <_writebuf+0x2c> @ imm = #0x12
10000e10: 4638         	mov	r0, r7
10000e12: 69a1         	ldr	r1, [r4, #0x18]
10000e14: f003 fad0    	bl	0x100043b8 <_sys_seek>  @ imm = #0x35a0
10000e18: 2800         	cmp	r0, #0x0
10000e1a: db11         	blt	0x10000e40 <_writebuf+0x48> @ imm = #0x22
10000e1c: 482c         	ldr	r0, [pc, #0xb0]         @ 0x10000ed0 <_deferredlazyseek+0x3e>
10000e1e: 43c0         	mvns	r0, r0
10000e20: 4005         	ands	r5, r0
10000e22: 60e5         	str	r5, [r4, #0xc]
10000e24: 462b         	mov	r3, r5
10000e26: 4632         	mov	r2, r6
10000e28: 4649         	mov	r1, r9
10000e2a: 4638         	mov	r0, r7
10000e2c: f003 fac8    	bl	0x100043c0 <_sys_write> @ imm = #0x3590
10000e30: 69a1         	ldr	r1, [r4, #0x18]
10000e32: f020 4200    	bic	r2, r0, #0x80000000
10000e36: 1ab2         	subs	r2, r6, r2
10000e38: 4411         	add	r1, r2
10000e3a: 2800         	cmp	r0, #0x0
10000e3c: 61a1         	str	r1, [r4, #0x18]
10000e3e: d003         	beq	0x10000e48 <_writebuf+0x50> @ imm = #0x6
10000e40: 4620         	mov	r0, r4
10000e42: f7ff ffcf    	bl	0x10000de4 <_seterr>    @ imm = #-0x62
10000e46: 4640         	mov	r0, r8
10000e48: e8bd 87f0    	pop.w	{r4, r5, r6, r7, r8, r9, r10, pc}

10000e4c <_fflush>:
10000e4c: b570         	push	{r4, r5, r6, lr}
10000e4e: 4604         	mov	r4, r0
10000e50: 6905         	ldr	r5, [r0, #0x10]
10000e52: 6ac0         	ldr	r0, [r0, #0x2c]
10000e54: 6861         	ldr	r1, [r4, #0x4]
10000e56: 4288         	cmp	r0, r1
10000e58: d800         	bhi	0x10000e5c <_fflush+0x10> @ imm = #0x0
10000e5a: 4608         	mov	r0, r1
10000e5c: 68e1         	ldr	r1, [r4, #0xc]
10000e5e: f421 1120    	bic	r1, r1, #0x280000
10000e62: 60e1         	str	r1, [r4, #0xc]
10000e64: 03c9         	lsls	r1, r1, #0xf
10000e66: d512         	bpl	0x10000e8e <_fflush+0x42> @ imm = #0x24
10000e68: 42a8         	cmp	r0, r5
10000e6a: d008         	beq	0x10000e7e <_fflush+0x32> @ imm = #0x10
10000e6c: 4622         	mov	r2, r4
10000e6e: 1b41         	subs	r1, r0, r5
10000e70: 4628         	mov	r0, r5
10000e72: f7ff ffc1    	bl	0x10000df8 <_writebuf>  @ imm = #-0x7e
10000e76: b110         	cbz	r0, 0x10000e7e <_fflush+0x32> @ imm = #0x4
10000e78: f04f 30ff    	mov.w	r0, #0xffffffff
10000e7c: bd70         	pop	{r4, r5, r6, pc}
10000e7e: 2000         	movs	r0, #0x0
10000e80: 62e5         	str	r5, [r4, #0x2c]
10000e82: e9c4 5001    	strd	r5, r0, [r4, #4]
10000e86: 68e0         	ldr	r0, [r4, #0xc]
10000e88: f420 3080    	bic	r0, r0, #0x10000
10000e8c: 60e0         	str	r0, [r4, #0xc]
10000e8e: 2000         	movs	r0, #0x0
10000e90: bd70         	pop	{r4, r5, r6, pc}

10000e92 <_deferredlazyseek>:
10000e92: b510         	push	{r4, lr}
10000e94: 4604         	mov	r4, r0
10000e96: 68c0         	ldr	r0, [r0, #0xc]
10000e98: f020 0020    	bic	r0, r0, #0x20
10000e9c: 60e0         	str	r0, [r4, #0xc]
10000e9e: 6aa1         	ldr	r1, [r4, #0x28]
10000ea0: 69a0         	ldr	r0, [r4, #0x18]
10000ea2: 4288         	cmp	r0, r1
10000ea4: d00d         	beq	0x10000ec2 <_deferredlazyseek+0x30> @ imm = #0x1a
10000ea6: 4620         	mov	r0, r4
10000ea8: f7ff ffd0    	bl	0x10000e4c <_fflush>    @ imm = #-0x60
10000eac: 68e0         	ldr	r0, [r4, #0xc]
10000eae: f420 5040    	bic	r0, r0, #0x3000
10000eb2: f040 0010    	orr	r0, r0, #0x10
10000eb6: 60e0         	str	r0, [r4, #0xc]
10000eb8: 6aa0         	ldr	r0, [r4, #0x28]
10000eba: 61a0         	str	r0, [r4, #0x18]
10000ebc: 6920         	ldr	r0, [r4, #0x10]
10000ebe: 62e0         	str	r0, [r4, #0x2c]
10000ec0: 6060         	str	r0, [r4, #0x4]
10000ec2: f244 0140    	movw	r1, #0x4040
10000ec6: 68e0         	ldr	r0, [r4, #0xc]
10000ec8: 4388         	bics	r0, r1
10000eca: 60e0         	str	r0, [r4, #0xc]
10000ecc: bd10         	pop	{r4, pc}

10000ece <$d>:
10000ece: 00 00 10 00  	.word	0x00100000
10000ed2: 02 00        	.short	0x0002

10000ed4 <__sig_exit>:
10000ed4: 2800         	cmp	r0, #0x0
10000ed6: d001         	beq	0x10000edc <__sig_exit+0x8> @ imm = #0x2
10000ed8: f000 b81c    	b.w	0x10000f14 <_sys_exit>  @ imm = #0x38
10000edc: 4770         	bx	lr
10000ede: 0000         	movs	r0, r0

10000ee0 <__rt_SIGRTRED_inner>:
10000ee0: b510         	push	{r4, lr}
10000ee2: 4601         	mov	r1, r0
10000ee4: a002         	adr	r0, #8 <__rt_SIGRTRED_inner+0xa>
10000ee6: f000 f85e    	bl	0x10000fa6 <__default_signal_display> @ imm = #0xbc
10000eea: 2001         	movs	r0, #0x1
10000eec: bd10         	pop	{r4, pc}

10000eee <$d>:
10000eee: 00 00 53 49  	.word	0x49530000
10000ef2: 47 52 54 52  	.word	0x52545247
10000ef6: 45 44 3a 20  	.word	0x203a4445
10000efa: 52 65 64 69  	.word	0x69646552
10000efe: 72 65 63 74  	.word	0x74636572
10000f02: 3a 20 63 61  	.word	0x6163203a
10000f06: 6e 27 74 20  	.word	0x2074276e
10000f0a: 6f 70 65 6e  	.word	0x6e65706f
10000f0e: 3a 20 00 00  	.word	0x0000203a
10000f12: 00 00        	.short	0x0000

10000f14 <_sys_exit>:
10000f14: 4901         	ldr	r1, [pc, #0x4]          @ 0x10000f1c <_sys_exit+0x8>
10000f16: 2018         	movs	r0, #0x18
10000f18: beab         	bkpt	#0xab
10000f1a: e7fe         	b	0x10000f1a <_sys_exit+0x6> @ imm = #-0x4

10000f1c <$d>:
10000f1c: 26 00 02 00  	.word	0x00020026

10000f20 <__use_no_semihosting_swi>:
10000f20: 4770         	bx	lr

10000f22 <_maybe_terminate_alloc>:
10000f22: 2100         	movs	r1, #0x0
10000f24: 6001         	str	r1, [r0]
10000f26: e9c0 1001    	strd	r1, r0, [r0, #4]
10000f2a: 4770         	bx	lr

10000f2c <__Heap_DescSize>:
10000f2c: 2010         	movs	r0, #0x10
10000f2e: 4770         	bx	lr

10000f30 <__Heap_ProvideMemory>:
10000f30: 4603         	mov	r3, r0
10000f32: 6840         	ldr	r0, [r0, #0x4]
10000f34: 468c         	mov	r12, r1
10000f36: 2800         	cmp	r0, #0x0
10000f38: bf18         	it	ne
10000f3a: 4288         	cmpne	r0, r1
10000f3c: bf3c         	itt	lo
10000f3e: 4603         	movlo	r3, r0
10000f40: 6840         	ldrlo	r0, [r0, #0x4]
10000f42: d3f8         	blo	0x10000f36 <__Heap_ProvideMemory+0x6> @ imm = #-0x10
10000f44: 6818         	ldr	r0, [r3]
10000f46: 4418         	add	r0, r3
10000f48: 4288         	cmp	r0, r1
10000f4a: d007         	beq	0x10000f5c <__Heap_ProvideMemory+0x2c> @ imm = #0xe
10000f4c: f10c 0003    	add.w	r0, r12, #0x3
10000f50: f020 0007    	bic	r0, r0, #0x7
10000f54: 1d00         	adds	r0, r0, #0x4
10000f56: 1a41         	subs	r1, r0, r1
10000f58: 1a52         	subs	r2, r2, r1
10000f5a: 4601         	mov	r1, r0
10000f5c: 1d08         	adds	r0, r1, #0x4
10000f5e: 600a         	str	r2, [r1]
10000f60: f7ff bc38    	b.w	0x100007d4 <free>       @ imm = #-0x790

10000f64 <ftell>:
10000f64: b510         	push	{r4, lr}
10000f66: 4601         	mov	r1, r0
10000f68: 68c2         	ldr	r2, [r0, #0xc]
10000f6a: 0790         	lsls	r0, r2, #0x1e
10000f6c: d003         	beq	0x10000f76 <ftell+0x12> @ imm = #0x6
10000f6e: 0690         	lsls	r0, r2, #0x1a
10000f70: d507         	bpl	0x10000f82 <ftell+0x1e> @ imm = #0xe
10000f72: 6a88         	ldr	r0, [r1, #0x28]
10000f74: e00a         	b	0x10000f8c <ftell+0x28> @ imm = #0x14
10000f76: f000 f83d    	bl	0x10000ff4 <__rt_errno_addr$intlibspace> @ imm = #0x7a
10000f7a: 2101         	movs	r1, #0x1
10000f7c: 6001         	str	r1, [r0]
10000f7e: 1e88         	subs	r0, r1, #0x2
10000f80: bd10         	pop	{r4, pc}
10000f82: 698b         	ldr	r3, [r1, #0x18]
10000f84: 6848         	ldr	r0, [r1, #0x4]
10000f86: 4418         	add	r0, r3
10000f88: 690b         	ldr	r3, [r1, #0x10]
10000f8a: 1ac0         	subs	r0, r0, r3
10000f8c: f891 3048    	ldrb.w	r3, [r1, #0x48]
10000f90: b11b         	cbz	r3, 0x10000f9a <ftell+0x36> @ imm = #0x6
10000f92: f891 1049    	ldrb.w	r1, [r1, #0x49]
10000f96: 1a40         	subs	r0, r0, r1
10000f98: bd10         	pop	{r4, pc}
10000f9a: 0311         	lsls	r1, r2, #0xc
10000f9c: d5fc         	bpl	0x10000f98 <ftell+0x34> @ imm = #-0x8
10000f9e: 2800         	cmp	r0, #0x0
10000fa0: ddfa         	ble	0x10000f98 <ftell+0x34> @ imm = #-0xc
10000fa2: 1e40         	subs	r0, r0, #0x1
10000fa4: bd10         	pop	{r4, pc}

10000fa6 <__default_signal_display>:
10000fa6: b570         	push	{r4, r5, r6, lr}
10000fa8: 4605         	mov	r5, r0
10000faa: 460c         	mov	r4, r1
10000fac: 200a         	movs	r0, #0xa
10000fae: e000         	b	0x10000fb2 <__default_signal_display+0xc> @ imm = #0x0
10000fb0: 1c6d         	adds	r5, r5, #0x1
10000fb2: f000 f818    	bl	0x10000fe6 <_ttywrch>   @ imm = #0x30
10000fb6: b135         	cbz	r5, 0x10000fc6 <__default_signal_display+0x20> @ imm = #0xc
10000fb8: 7828         	ldrb	r0, [r5]
10000fba: 2800         	cmp	r0, #0x0
10000fbc: d1f8         	bne	0x10000fb0 <__default_signal_display+0xa> @ imm = #-0x10
10000fbe: e002         	b	0x10000fc6 <__default_signal_display+0x20> @ imm = #0x4
10000fc0: 1c64         	adds	r4, r4, #0x1
10000fc2: f000 f810    	bl	0x10000fe6 <_ttywrch>   @ imm = #0x20
10000fc6: b114         	cbz	r4, 0x10000fce <__default_signal_display+0x28> @ imm = #0x4
10000fc8: 7820         	ldrb	r0, [r4]
10000fca: 2800         	cmp	r0, #0x0
10000fcc: d1f8         	bne	0x10000fc0 <__default_signal_display+0x1a> @ imm = #-0x10
10000fce: e8bd 4070    	pop.w	{r4, r5, r6, lr}
10000fd2: 200a         	movs	r0, #0xa
10000fd4: f000 b807    	b.w	0x10000fe6 <_ttywrch>   @ imm = #0xe

10000fd8 <__rt_SIGRTMEM>:
10000fd8: b510         	push	{r4, lr}
10000fda: f000 f80f    	bl	0x10000ffc <__rt_SIGRTMEM_inner> @ imm = #0x1e
10000fde: e8bd 4010    	pop.w	{r4, lr}
10000fe2: f7ff bf77    	b.w	0x10000ed4 <__sig_exit> @ imm = #-0x112

10000fe6 <_ttywrch>:
10000fe6: b508         	push	{r3, lr}
10000fe8: 4669         	mov	r1, sp
10000fea: f88d 0000    	strb.w	r0, [sp]
10000fee: 2003         	movs	r0, #0x3
10000ff0: beab         	bkpt	#0xab
10000ff2: bd08         	pop	{r3, pc}

10000ff4 <__rt_errno_addr$intlibspace>:
10000ff4: 4800         	ldr	r0, [pc, #0x0]          @ 0x10000ff8 <__rt_errno_addr$intlibspace+0x4>
10000ff6: 4770         	bx	lr

10000ff8 <$d>:
10000ff8: 10 01 00 38  	.word	0x38000110

10000ffc <__rt_SIGRTMEM_inner>:
10000ffc: b510         	push	{r4, lr}
10000ffe: 2801         	cmp	r0, #0x1
10001000: d005         	beq	0x1000100e <__rt_SIGRTMEM_inner+0x12> @ imm = #0xa
10001002: 2100         	movs	r1, #0x0
10001004: a003         	adr	r0, #12 <__rt_SIGRTMEM_inner+0xf>
10001006: f7ff ffce    	bl	0x10000fa6 <__default_signal_display> @ imm = #-0x64
1000100a: 2001         	movs	r0, #0x1
1000100c: bd10         	pop	{r4, pc}
1000100e: a109         	adr	r1, #36 <__rt_SIGRTMEM_inner+0x1f>
10001010: e7f8         	b	0x10001004 <__rt_SIGRTMEM_inner+0x8> @ imm = #-0x10

10001012 <$d>:
10001012: 00 00 53 49  	.word	0x49530000
10001016: 47 52 54 4d  	.word	0x4d545247
1000101a: 45 4d 3a 20  	.word	0x203a4d45
1000101e: 4f 75 74 20  	.word	0x2074754f
10001022: 6f 66 20 68  	.word	0x6820666f
10001026: 65 61 70 20  	.word	0x20706165
1000102a: 6d 65 6d 6f  	.word	0x6f6d656d
1000102e: 72 79 00 00  	.word	0x00007972
10001032: 00 00 3a 20  	.word	0x203a0000
10001036: 48 65 61 70  	.word	0x70616548
1000103a: 20 6d 65 6d  	.word	0x6d656d20
1000103e: 6f 72 79 20  	.word	0x2079726f
10001042: 63 6f 72 72  	.word	0x72726f63
10001046: 75 70 74 65  	.word	0x65747075
1000104a: 64 00        	.short	0x0064

1000104c <Buttons_GetCount>:
1000104c: 2002         	movs	r0, #0x2
1000104e: 4770         	bx	lr

10001050 <Buttons_GetState>:
10001050: f242 0008    	movw	r0, #0x2008
10001054: f2c5 0030    	movt	r0, #0x5030
10001058: 6800         	ldr	r0, [r0]
1000105a: f000 0003    	and	r0, r0, #0x3
1000105e: 4770         	bx	lr

10001060 <Buttons_Initialize>:
10001060: 2000         	movs	r0, #0x0
10001062: 4770         	bx	lr

10001064 <UsageFault_Handler>:
10001064: e7fe         	b	0x10001064 <UsageFault_Handler> @ imm = #-0x4
10001066: 0000         	movs	r0, r0

10001068 <GLCD_ClearScreen>:
10001068: b5b0         	push	{r4, r5, r7, lr}
1000106a: f246 0408    	movw	r4, #0x6008
1000106e: f242 054c    	movw	r5, #0x204c
10001072: 2000         	movs	r0, #0x0
10001074: 2100         	movs	r1, #0x0
10001076: f44f 72a0    	mov.w	r2, #0x140
1000107a: 23f0         	movs	r3, #0xf0
1000107c: f2c5 0420    	movt	r4, #0x5020
10001080: f2c4 0530    	movt	r5, #0x4030
10001084: f001 fe20    	bl	0x10002cc8 <GLCD_SetWindow> @ imm = #0x1c40
10001088: 6828         	ldr	r0, [r5]
1000108a: f020 0001    	bic	r0, r0, #0x1
1000108e: 6028         	str	r0, [r5]
10001090: 2070         	movs	r0, #0x70
10001092: 6020         	str	r0, [r4]
10001094: 6860         	ldr	r0, [r4, #0x4]
10001096: 0740         	lsls	r0, r0, #0x1d
10001098: d5fc         	bpl	0x10001094 <GLCD_ClearScreen+0x2c> @ imm = #-0x8
1000109a: 6820         	ldr	r0, [r4]
1000109c: 2000         	movs	r0, #0x0
1000109e: 6020         	str	r0, [r4]
100010a0: 6860         	ldr	r0, [r4, #0x4]
100010a2: 0740         	lsls	r0, r0, #0x1d
100010a4: d5fc         	bpl	0x100010a0 <GLCD_ClearScreen+0x38> @ imm = #-0x8
100010a6: 6820         	ldr	r0, [r4]
100010a8: 2022         	movs	r0, #0x22
100010aa: 6020         	str	r0, [r4]
100010ac: 6860         	ldr	r0, [r4, #0x4]
100010ae: 0740         	lsls	r0, r0, #0x1d
100010b0: d5fc         	bpl	0x100010ac <GLCD_ClearScreen+0x44> @ imm = #-0x8
100010b2: f242 014c    	movw	r1, #0x204c
100010b6: f2c5 0130    	movt	r1, #0x5030
100010ba: 6820         	ldr	r0, [r4]
100010bc: 6808         	ldr	r0, [r1]
100010be: f040 0001    	orr	r0, r0, #0x1
100010c2: 6008         	str	r0, [r1]
100010c4: 6828         	ldr	r0, [r5]
100010c6: f020 0001    	bic	r0, r0, #0x1
100010ca: 6028         	str	r0, [r5]
100010cc: 2072         	movs	r0, #0x72
100010ce: 6020         	str	r0, [r4]
100010d0: 6860         	ldr	r0, [r4, #0x4]
100010d2: 0740         	lsls	r0, r0, #0x1d
100010d4: d5fc         	bpl	0x100010d0 <GLCD_ClearScreen+0x68> @ imm = #-0x8
100010d6: 6820         	ldr	r0, [r4]
100010d8: f240 0010    	movw	r0, #0x10
100010dc: f6c3 0000    	movt	r0, #0x3800
100010e0: 8802         	ldrh	r2, [r0]
100010e2: 2300         	movs	r3, #0x0
100010e4: 0a10         	lsrs	r0, r2, #0x8
100010e6: b2d2         	uxtb	r2, r2
100010e8: 6020         	str	r0, [r4]
100010ea: bf00         	nop
100010ec: 6865         	ldr	r5, [r4, #0x4]
100010ee: 076d         	lsls	r5, r5, #0x1d
100010f0: d5fc         	bpl	0x100010ec <GLCD_ClearScreen+0x84> @ imm = #-0x8
100010f2: 6825         	ldr	r5, [r4]
100010f4: 6022         	str	r2, [r4]
100010f6: bf00         	nop
100010f8: 6865         	ldr	r5, [r4, #0x4]
100010fa: 076d         	lsls	r5, r5, #0x1d
100010fc: d5fc         	bpl	0x100010f8 <GLCD_ClearScreen+0x90> @ imm = #-0x8
100010fe: 3301         	adds	r3, #0x1
10001100: 6825         	ldr	r5, [r4]
10001102: f5b3 3f96    	cmp.w	r3, #0x12c00
10001106: d1ef         	bne	0x100010e8 <GLCD_ClearScreen+0x80> @ imm = #-0x22
10001108: 6808         	ldr	r0, [r1]
1000110a: f040 0201    	orr	r2, r0, #0x1
1000110e: 2000         	movs	r0, #0x0
10001110: 600a         	str	r2, [r1]
10001112: bdb0         	pop	{r4, r5, r7, pc}

10001114 <GLCD_DrawChar>:
10001114: e92d 47f0    	push.w	{r4, r5, r6, r7, r8, r9, r10, lr}
10001118: f240 15a8    	movw	r5, #0x1a8
1000111c: f6c3 0500    	movt	r5, #0x3800
10001120: 682f         	ldr	r7, [r5]
10001122: 2f00         	cmp	r7, #0x0
10001124: bf04         	itt	eq
10001126: f04f 30ff    	moveq.w	r0, #0xffffffff
1000112a: e8bd 87f0    	popeq.w	{r4, r5, r6, r7, r8, r9, r10, pc}
1000112e: 687b         	ldr	r3, [r7, #0x4]
10001130: f8b7 c000    	ldrh.w	r12, [r7]
10001134: 1ad2         	subs	r2, r2, r3
10001136: f10c 0307    	add.w	r3, r12, #0x7
1000113a: 08db         	lsrs	r3, r3, #0x3
1000113c: fb03 f202    	mul	r2, r3, r2
10001140: 887b         	ldrh	r3, [r7, #0x2]
10001142: f8d7 800c    	ldr.w	r8, [r7, #0xc]
10001146: fb02 f703    	mul	r7, r2, r3
1000114a: f246 0408    	movw	r4, #0x6008
1000114e: f242 064c    	movw	r6, #0x204c
10001152: 4662         	mov	r2, r12
10001154: f2c5 0420    	movt	r4, #0x5020
10001158: f2c4 0630    	movt	r6, #0x4030
1000115c: f001 fdb4    	bl	0x10002cc8 <GLCD_SetWindow> @ imm = #0x1b68
10001160: 6830         	ldr	r0, [r6]
10001162: f020 0001    	bic	r0, r0, #0x1
10001166: 6030         	str	r0, [r6]
10001168: 2070         	movs	r0, #0x70
1000116a: 6020         	str	r0, [r4]
1000116c: 6860         	ldr	r0, [r4, #0x4]
1000116e: 0740         	lsls	r0, r0, #0x1d
10001170: d5fc         	bpl	0x1000116c <GLCD_DrawChar+0x58> @ imm = #-0x8
10001172: 6820         	ldr	r0, [r4]
10001174: 2000         	movs	r0, #0x0
10001176: 6020         	str	r0, [r4]
10001178: 6860         	ldr	r0, [r4, #0x4]
1000117a: 0740         	lsls	r0, r0, #0x1d
1000117c: d5fc         	bpl	0x10001178 <GLCD_DrawChar+0x64> @ imm = #-0x8
1000117e: 6820         	ldr	r0, [r4]
10001180: 2022         	movs	r0, #0x22
10001182: 6020         	str	r0, [r4]
10001184: 6860         	ldr	r0, [r4, #0x4]
10001186: 0740         	lsls	r0, r0, #0x1d
10001188: d5fc         	bpl	0x10001184 <GLCD_DrawChar+0x70> @ imm = #-0x8
1000118a: f242 0c4c    	movw	r12, #0x204c
1000118e: f2c5 0c30    	movt	r12, #0x5030
10001192: 6820         	ldr	r0, [r4]
10001194: f8dc 0000    	ldr.w	r0, [r12]
10001198: f040 0001    	orr	r0, r0, #0x1
1000119c: f8cc 0000    	str.w	r0, [r12]
100011a0: 6830         	ldr	r0, [r6]
100011a2: f020 0001    	bic	r0, r0, #0x1
100011a6: 6030         	str	r0, [r6]
100011a8: 2072         	movs	r0, #0x72
100011aa: 6020         	str	r0, [r4]
100011ac: 6860         	ldr	r0, [r4, #0x4]
100011ae: 0740         	lsls	r0, r0, #0x1d
100011b0: d5fc         	bpl	0x100011ac <GLCD_DrawChar+0x98> @ imm = #-0x8
100011b2: 6820         	ldr	r0, [r4]
100011b4: 6828         	ldr	r0, [r5]
100011b6: f8b0 e002    	ldrh.w	lr, [r0, #0x2]
100011ba: f1be 0f00    	cmp.w	lr, #0x0
100011be: d03e         	beq	0x1000123e <GLCD_DrawChar+0x12a> @ imm = #0x7c
100011c0: f240 11ac    	movw	r1, #0x1ac
100011c4: f6c3 0100    	movt	r1, #0x3800
100011c8: f8b1 9000    	ldrh.w	r9, [r1]
100011cc: f240 0110    	movw	r1, #0x10
100011d0: f6c3 0100    	movt	r1, #0x3800
100011d4: 8800         	ldrh	r0, [r0]
100011d6: f8b1 a000    	ldrh.w	r10, [r1]
100011da: eb08 0107    	add.w	r1, r8, r7
100011de: 1e45         	subs	r5, r0, #0x1
100011e0: f04f 0800    	mov.w	r8, #0x0
100011e4: e006         	b	0x100011f4 <GLCD_DrawChar+0xe0> @ imm = #0xc
100011e6: bf00         	nop
100011e8: f108 0801    	add.w	r8, r8, #0x1
100011ec: 45f0         	cmp	r8, lr
100011ee: f101 0101    	add.w	r1, r1, #0x1
100011f2: d024         	beq	0x1000123e <GLCD_DrawChar+0x12a> @ imm = #0x48
100011f4: 2800         	cmp	r0, #0x0
100011f6: d0f7         	beq	0x100011e8 <GLCD_DrawChar+0xd4> @ imm = #-0x12
100011f8: 2700         	movs	r7, #0x0
100011fa: bf00         	nop
100011fc: 780a         	ldrb	r2, [r1]
100011fe: f007 0607    	and	r6, r7, #0x7
10001202: 40f2         	lsrs	r2, r6
10001204: 07d2         	lsls	r2, r2, #0x1f
10001206: 464a         	mov	r2, r9
10001208: bf08         	it	eq
1000120a: 4652         	moveq	r2, r10
1000120c: 0a13         	lsrs	r3, r2, #0x8
1000120e: 6023         	str	r3, [r4]
10001210: 6863         	ldr	r3, [r4, #0x4]
10001212: 075b         	lsls	r3, r3, #0x1d
10001214: d5fc         	bpl	0x10001210 <GLCD_DrawChar+0xfc> @ imm = #-0x8
10001216: 6823         	ldr	r3, [r4]
10001218: b2d2         	uxtb	r2, r2
1000121a: 6022         	str	r2, [r4]
1000121c: 6862         	ldr	r2, [r4, #0x4]
1000121e: 0752         	lsls	r2, r2, #0x1d
10001220: d5fc         	bpl	0x1000121c <GLCD_DrawChar+0x108> @ imm = #-0x8
10001222: 6822         	ldr	r2, [r4]
10001224: 1ff2         	subs	r2, r6, #0x7
10001226: fab2 f282    	clz	r2, r2
1000122a: 0952         	lsrs	r2, r2, #0x5
1000122c: 1b7b         	subs	r3, r7, r5
1000122e: bf18         	it	ne
10001230: 2301         	movne	r3, #0x1
10001232: 401a         	ands	r2, r3
10001234: 3701         	adds	r7, #0x1
10001236: 4287         	cmp	r7, r0
10001238: 4411         	add	r1, r2
1000123a: d1df         	bne	0x100011fc <GLCD_DrawChar+0xe8> @ imm = #-0x42
1000123c: e7d4         	b	0x100011e8 <GLCD_DrawChar+0xd4> @ imm = #-0x58
1000123e: f8dc 0000    	ldr.w	r0, [r12]
10001242: f040 0001    	orr	r0, r0, #0x1
10001246: f8cc 0000    	str.w	r0, [r12]
1000124a: 2000         	movs	r0, #0x0
1000124c: e8bd 87f0    	pop.w	{r4, r5, r6, r7, r8, r9, r10, pc}

10001250 <GLCD_DrawString>:
10001250: b5f0         	push	{r4, r5, r6, r7, lr}
10001252: b081         	sub	sp, #0x4
10001254: 4613         	mov	r3, r2
10001256: 7812         	ldrb	r2, [r2]
10001258: b192         	cbz	r2, 0x10001280 <GLCD_DrawString+0x30> @ imm = #0x24
1000125a: f240 17a8    	movw	r7, #0x1a8
1000125e: 460c         	mov	r4, r1
10001260: 4605         	mov	r5, r0
10001262: 1e5e         	subs	r6, r3, #0x1
10001264: f6c3 0700    	movt	r7, #0x3800
10001268: 4628         	mov	r0, r5
1000126a: 4621         	mov	r1, r4
1000126c: f7ff ff52    	bl	0x10001114 <GLCD_DrawChar> @ imm = #-0x15c
10001270: 6838         	ldr	r0, [r7]
10001272: 78b2         	ldrb	r2, [r6, #0x2]
10001274: 8800         	ldrh	r0, [r0]
10001276: 2a00         	cmp	r2, #0x0
10001278: 4405         	add	r5, r0
1000127a: f106 0601    	add.w	r6, r6, #0x1
1000127e: d1f3         	bne	0x10001268 <GLCD_DrawString+0x18> @ imm = #-0x1a
10001280: 2000         	movs	r0, #0x0
10001282: b001         	add	sp, #0x4
10001284: bdf0         	pop	{r4, r5, r6, r7, pc}
10001286: 0000         	movs	r0, r0

10001288 <GLCD_Initialize>:
10001288: b510         	push	{r4, lr}
1000128a: f246 0008    	movw	r0, #0x6008
1000128e: f2c5 0020    	movt	r0, #0x5020
10001292: 2100         	movs	r1, #0x0
10001294: f840 1c04    	str	r1, [r0, #-4]
10001298: 61c1         	str	r1, [r0, #0x1c]
1000129a: 60c1         	str	r1, [r0, #0xc]
1000129c: 2103         	movs	r1, #0x3
1000129e: 6181         	str	r1, [r0, #0x18]
100012a0: f240 1107    	movw	r1, #0x107
100012a4: f840 1c08    	str	r1, [r0, #-8]
100012a8: 2202         	movs	r2, #0x2
100012aa: f242 014c    	movw	r1, #0x204c
100012ae: 6082         	str	r2, [r0, #0x8]
100012b0: f2c5 0130    	movt	r1, #0x5030
100012b4: f840 2c04    	str	r2, [r0, #-4]
100012b8: 680a         	ldr	r2, [r1]
100012ba: f240 0e0c    	movw	lr, #0xc
100012be: f042 0209    	orr	r2, r2, #0x9
100012c2: 600a         	str	r2, [r1]
100012c4: 680a         	ldr	r2, [r1]
100012c6: f6c3 0e00    	movt	lr, #0x3800
100012ca: f022 0270    	bic	r2, r2, #0x70
100012ce: 600a         	str	r2, [r1]
100012d0: 680a         	ldr	r2, [r1]
100012d2: f644 5cd3    	movw	r12, #0x4dd3
100012d6: f022 0208    	bic	r2, r2, #0x8
100012da: 600a         	str	r2, [r1]
100012dc: f8de 2000    	ldr.w	r2, [lr]
100012e0: f2c1 0c62    	movt	r12, #0x1062
100012e4: f5b2 7f7a    	cmp.w	r2, #0x3e8
100012e8: d305         	blo	0x100012f6 <GLCD_Initialize+0x6e> @ imm = #0xa
100012ea: fba2 230c    	umull	r2, r3, r2, r12
100012ee: 099a         	lsrs	r2, r3, #0x6
100012f0: 3a01         	subs	r2, #0x1
100012f2: bf00         	nop
100012f4: d1fc         	bne	0x100012f0 <GLCD_Initialize+0x68> @ imm = #-0x8
100012f6: 680a         	ldr	r2, [r1]
100012f8: f042 0208    	orr	r2, r2, #0x8
100012fc: 600a         	str	r2, [r1]
100012fe: f8de 2000    	ldr.w	r2, [lr]
10001302: f5b2 7f7a    	cmp.w	r2, #0x3e8
10001306: d308         	blo	0x1000131a <GLCD_Initialize+0x92> @ imm = #0x10
10001308: fba2 230c    	umull	r2, r3, r2, r12
1000130c: 099a         	lsrs	r2, r3, #0x6
1000130e: eb02 0282    	add.w	r2, r2, r2, lsl #2
10001312: 4252         	rsbs	r2, r2, #0
10001314: 3201         	adds	r2, #0x1
10001316: bf00         	nop
10001318: d3fc         	blo	0x10001314 <GLCD_Initialize+0x8c> @ imm = #-0x8
1000131a: f242 024c    	movw	r2, #0x204c
1000131e: f2c4 0230    	movt	r2, #0x4030
10001322: 6813         	ldr	r3, [r2]
10001324: f023 0301    	bic	r3, r3, #0x1
10001328: 6013         	str	r3, [r2]
1000132a: 2370         	movs	r3, #0x70
1000132c: 6003         	str	r3, [r0]
1000132e: bf00         	nop
10001330: 6843         	ldr	r3, [r0, #0x4]
10001332: 075b         	lsls	r3, r3, #0x1d
10001334: d5fc         	bpl	0x10001330 <GLCD_Initialize+0xa8> @ imm = #-0x8
10001336: 6803         	ldr	r3, [r0]
10001338: 2300         	movs	r3, #0x0
1000133a: 6003         	str	r3, [r0]
1000133c: 6843         	ldr	r3, [r0, #0x4]
1000133e: 075b         	lsls	r3, r3, #0x1d
10001340: d5fc         	bpl	0x1000133c <GLCD_Initialize+0xb4> @ imm = #-0x8
10001342: 6803         	ldr	r3, [r0]
10001344: 23ea         	movs	r3, #0xea
10001346: 6003         	str	r3, [r0]
10001348: 6843         	ldr	r3, [r0, #0x4]
1000134a: 075b         	lsls	r3, r3, #0x1d
1000134c: d5fc         	bpl	0x10001348 <GLCD_Initialize+0xc0> @ imm = #-0x8
1000134e: 6803         	ldr	r3, [r0]
10001350: 680b         	ldr	r3, [r1]
10001352: f043 0301    	orr	r3, r3, #0x1
10001356: 600b         	str	r3, [r1]
10001358: 6813         	ldr	r3, [r2]
1000135a: f023 0301    	bic	r3, r3, #0x1
1000135e: 6013         	str	r3, [r2]
10001360: 2372         	movs	r3, #0x72
10001362: 6003         	str	r3, [r0]
10001364: 6843         	ldr	r3, [r0, #0x4]
10001366: 075b         	lsls	r3, r3, #0x1d
10001368: d5fc         	bpl	0x10001364 <GLCD_Initialize+0xdc> @ imm = #-0x8
1000136a: 6803         	ldr	r3, [r0]
1000136c: 2300         	movs	r3, #0x0
1000136e: 6003         	str	r3, [r0]
10001370: 6843         	ldr	r3, [r0, #0x4]
10001372: 075b         	lsls	r3, r3, #0x1d
10001374: d5fc         	bpl	0x10001370 <GLCD_Initialize+0xe8> @ imm = #-0x8
10001376: 6803         	ldr	r3, [r0]
10001378: 2300         	movs	r3, #0x0
1000137a: 6003         	str	r3, [r0]
1000137c: 6843         	ldr	r3, [r0, #0x4]
1000137e: 075b         	lsls	r3, r3, #0x1d
10001380: d5fc         	bpl	0x1000137c <GLCD_Initialize+0xf4> @ imm = #-0x8
10001382: 6803         	ldr	r3, [r0]
10001384: 680b         	ldr	r3, [r1]
10001386: f043 0301    	orr	r3, r3, #0x1
1000138a: 600b         	str	r3, [r1]
1000138c: 6813         	ldr	r3, [r2]
1000138e: f023 0301    	bic	r3, r3, #0x1
10001392: 6013         	str	r3, [r2]
10001394: 2370         	movs	r3, #0x70
10001396: 6003         	str	r3, [r0]
10001398: 6843         	ldr	r3, [r0, #0x4]
1000139a: 075b         	lsls	r3, r3, #0x1d
1000139c: d5fc         	bpl	0x10001398 <GLCD_Initialize+0x110> @ imm = #-0x8
1000139e: 6803         	ldr	r3, [r0]
100013a0: 2300         	movs	r3, #0x0
100013a2: 6003         	str	r3, [r0]
100013a4: 6843         	ldr	r3, [r0, #0x4]
100013a6: 075b         	lsls	r3, r3, #0x1d
100013a8: d5fc         	bpl	0x100013a4 <GLCD_Initialize+0x11c> @ imm = #-0x8
100013aa: 6803         	ldr	r3, [r0]
100013ac: 23eb         	movs	r3, #0xeb
100013ae: 6003         	str	r3, [r0]
100013b0: 6843         	ldr	r3, [r0, #0x4]
100013b2: 075b         	lsls	r3, r3, #0x1d
100013b4: d5fc         	bpl	0x100013b0 <GLCD_Initialize+0x128> @ imm = #-0x8
100013b6: 6803         	ldr	r3, [r0]
100013b8: 680b         	ldr	r3, [r1]
100013ba: f043 0301    	orr	r3, r3, #0x1
100013be: 600b         	str	r3, [r1]
100013c0: 6813         	ldr	r3, [r2]
100013c2: f023 0301    	bic	r3, r3, #0x1
100013c6: 6013         	str	r3, [r2]
100013c8: 2372         	movs	r3, #0x72
100013ca: 6003         	str	r3, [r0]
100013cc: 6843         	ldr	r3, [r0, #0x4]
100013ce: 075b         	lsls	r3, r3, #0x1d
100013d0: d5fc         	bpl	0x100013cc <GLCD_Initialize+0x144> @ imm = #-0x8
100013d2: 6803         	ldr	r3, [r0]
100013d4: 2300         	movs	r3, #0x0
100013d6: 6003         	str	r3, [r0]
100013d8: 6843         	ldr	r3, [r0, #0x4]
100013da: 075b         	lsls	r3, r3, #0x1d
100013dc: d5fc         	bpl	0x100013d8 <GLCD_Initialize+0x150> @ imm = #-0x8
100013de: 6803         	ldr	r3, [r0]
100013e0: 2320         	movs	r3, #0x20
100013e2: 6003         	str	r3, [r0]
100013e4: 6843         	ldr	r3, [r0, #0x4]
100013e6: 075b         	lsls	r3, r3, #0x1d
100013e8: d5fc         	bpl	0x100013e4 <GLCD_Initialize+0x15c> @ imm = #-0x8
100013ea: 6803         	ldr	r3, [r0]
100013ec: 680b         	ldr	r3, [r1]
100013ee: f043 0301    	orr	r3, r3, #0x1
100013f2: 600b         	str	r3, [r1]
100013f4: 6813         	ldr	r3, [r2]
100013f6: f023 0301    	bic	r3, r3, #0x1
100013fa: 6013         	str	r3, [r2]
100013fc: 2370         	movs	r3, #0x70
100013fe: 6003         	str	r3, [r0]
10001400: 6843         	ldr	r3, [r0, #0x4]
10001402: 075b         	lsls	r3, r3, #0x1d
10001404: d5fc         	bpl	0x10001400 <GLCD_Initialize+0x178> @ imm = #-0x8
10001406: 6803         	ldr	r3, [r0]
10001408: 2300         	movs	r3, #0x0
1000140a: 6003         	str	r3, [r0]
1000140c: 6843         	ldr	r3, [r0, #0x4]
1000140e: 075b         	lsls	r3, r3, #0x1d
10001410: d5fc         	bpl	0x1000140c <GLCD_Initialize+0x184> @ imm = #-0x8
10001412: 6803         	ldr	r3, [r0]
10001414: 23ec         	movs	r3, #0xec
10001416: 6003         	str	r3, [r0]
10001418: 6843         	ldr	r3, [r0, #0x4]
1000141a: 075b         	lsls	r3, r3, #0x1d
1000141c: d5fc         	bpl	0x10001418 <GLCD_Initialize+0x190> @ imm = #-0x8
1000141e: 6803         	ldr	r3, [r0]
10001420: 680b         	ldr	r3, [r1]
10001422: f043 0301    	orr	r3, r3, #0x1
10001426: 600b         	str	r3, [r1]
10001428: 6813         	ldr	r3, [r2]
1000142a: f023 0301    	bic	r3, r3, #0x1
1000142e: 6013         	str	r3, [r2]
10001430: 2372         	movs	r3, #0x72
10001432: 6003         	str	r3, [r0]
10001434: 6843         	ldr	r3, [r0, #0x4]
10001436: 075b         	lsls	r3, r3, #0x1d
10001438: d5fc         	bpl	0x10001434 <GLCD_Initialize+0x1ac> @ imm = #-0x8
1000143a: 6803         	ldr	r3, [r0]
1000143c: 2300         	movs	r3, #0x0
1000143e: 6003         	str	r3, [r0]
10001440: 6843         	ldr	r3, [r0, #0x4]
10001442: 075b         	lsls	r3, r3, #0x1d
10001444: d5fc         	bpl	0x10001440 <GLCD_Initialize+0x1b8> @ imm = #-0x8
10001446: 6803         	ldr	r3, [r0]
10001448: 230c         	movs	r3, #0xc
1000144a: 6003         	str	r3, [r0]
1000144c: 6843         	ldr	r3, [r0, #0x4]
1000144e: 075b         	lsls	r3, r3, #0x1d
10001450: d5fc         	bpl	0x1000144c <GLCD_Initialize+0x1c4> @ imm = #-0x8
10001452: 6803         	ldr	r3, [r0]
10001454: 680b         	ldr	r3, [r1]
10001456: f043 0301    	orr	r3, r3, #0x1
1000145a: 600b         	str	r3, [r1]
1000145c: 6813         	ldr	r3, [r2]
1000145e: f023 0301    	bic	r3, r3, #0x1
10001462: 6013         	str	r3, [r2]
10001464: 2370         	movs	r3, #0x70
10001466: 6003         	str	r3, [r0]
10001468: 6843         	ldr	r3, [r0, #0x4]
1000146a: 075b         	lsls	r3, r3, #0x1d
1000146c: d5fc         	bpl	0x10001468 <GLCD_Initialize+0x1e0> @ imm = #-0x8
1000146e: 6803         	ldr	r3, [r0]
10001470: 2300         	movs	r3, #0x0
10001472: 6003         	str	r3, [r0]
10001474: 6843         	ldr	r3, [r0, #0x4]
10001476: 075b         	lsls	r3, r3, #0x1d
10001478: d5fc         	bpl	0x10001474 <GLCD_Initialize+0x1ec> @ imm = #-0x8
1000147a: 6803         	ldr	r3, [r0]
1000147c: 23ed         	movs	r3, #0xed
1000147e: 6003         	str	r3, [r0]
10001480: 6843         	ldr	r3, [r0, #0x4]
10001482: 075b         	lsls	r3, r3, #0x1d
10001484: d5fc         	bpl	0x10001480 <GLCD_Initialize+0x1f8> @ imm = #-0x8
10001486: 6803         	ldr	r3, [r0]
10001488: 680b         	ldr	r3, [r1]
1000148a: f043 0301    	orr	r3, r3, #0x1
1000148e: 600b         	str	r3, [r1]
10001490: 6813         	ldr	r3, [r2]
10001492: f023 0301    	bic	r3, r3, #0x1
10001496: 6013         	str	r3, [r2]
10001498: 2372         	movs	r3, #0x72
1000149a: 6003         	str	r3, [r0]
1000149c: 6843         	ldr	r3, [r0, #0x4]
1000149e: 075b         	lsls	r3, r3, #0x1d
100014a0: d5fc         	bpl	0x1000149c <GLCD_Initialize+0x214> @ imm = #-0x8
100014a2: 6803         	ldr	r3, [r0]
100014a4: 2300         	movs	r3, #0x0
100014a6: 6003         	str	r3, [r0]
100014a8: 6843         	ldr	r3, [r0, #0x4]
100014aa: 075b         	lsls	r3, r3, #0x1d
100014ac: d5fc         	bpl	0x100014a8 <GLCD_Initialize+0x220> @ imm = #-0x8
100014ae: 6803         	ldr	r3, [r0]
100014b0: 23c7         	movs	r3, #0xc7
100014b2: 6003         	str	r3, [r0]
100014b4: 6843         	ldr	r3, [r0, #0x4]
100014b6: 075b         	lsls	r3, r3, #0x1d
100014b8: d5fc         	bpl	0x100014b4 <GLCD_Initialize+0x22c> @ imm = #-0x8
100014ba: 6803         	ldr	r3, [r0]
100014bc: 680b         	ldr	r3, [r1]
100014be: f043 0301    	orr	r3, r3, #0x1
100014c2: 600b         	str	r3, [r1]
100014c4: 6813         	ldr	r3, [r2]
100014c6: f023 0301    	bic	r3, r3, #0x1
100014ca: 6013         	str	r3, [r2]
100014cc: 2370         	movs	r3, #0x70
100014ce: 6003         	str	r3, [r0]
100014d0: 6843         	ldr	r3, [r0, #0x4]
100014d2: 075b         	lsls	r3, r3, #0x1d
100014d4: d5fc         	bpl	0x100014d0 <GLCD_Initialize+0x248> @ imm = #-0x8
100014d6: 6803         	ldr	r3, [r0]
100014d8: 2300         	movs	r3, #0x0
100014da: 6003         	str	r3, [r0]
100014dc: 6843         	ldr	r3, [r0, #0x4]
100014de: 075b         	lsls	r3, r3, #0x1d
100014e0: d5fc         	bpl	0x100014dc <GLCD_Initialize+0x254> @ imm = #-0x8
100014e2: 6803         	ldr	r3, [r0]
100014e4: 23e8         	movs	r3, #0xe8
100014e6: 6003         	str	r3, [r0]
100014e8: 6843         	ldr	r3, [r0, #0x4]
100014ea: 075b         	lsls	r3, r3, #0x1d
100014ec: d5fc         	bpl	0x100014e8 <GLCD_Initialize+0x260> @ imm = #-0x8
100014ee: 6803         	ldr	r3, [r0]
100014f0: 680b         	ldr	r3, [r1]
100014f2: f043 0301    	orr	r3, r3, #0x1
100014f6: 600b         	str	r3, [r1]
100014f8: 6813         	ldr	r3, [r2]
100014fa: f023 0301    	bic	r3, r3, #0x1
100014fe: 6013         	str	r3, [r2]
10001500: 2372         	movs	r3, #0x72
10001502: 6003         	str	r3, [r0]
10001504: 6843         	ldr	r3, [r0, #0x4]
10001506: 075b         	lsls	r3, r3, #0x1d
10001508: d5fc         	bpl	0x10001504 <GLCD_Initialize+0x27c> @ imm = #-0x8
1000150a: 6803         	ldr	r3, [r0]
1000150c: 2300         	movs	r3, #0x0
1000150e: 6003         	str	r3, [r0]
10001510: 6843         	ldr	r3, [r0, #0x4]
10001512: 075b         	lsls	r3, r3, #0x1d
10001514: d5fc         	bpl	0x10001510 <GLCD_Initialize+0x288> @ imm = #-0x8
10001516: 6803         	ldr	r3, [r0]
10001518: 2338         	movs	r3, #0x38
1000151a: 6003         	str	r3, [r0]
1000151c: 6843         	ldr	r3, [r0, #0x4]
1000151e: 075b         	lsls	r3, r3, #0x1d
10001520: d5fc         	bpl	0x1000151c <GLCD_Initialize+0x294> @ imm = #-0x8
10001522: 6803         	ldr	r3, [r0]
10001524: 680b         	ldr	r3, [r1]
10001526: f043 0301    	orr	r3, r3, #0x1
1000152a: 600b         	str	r3, [r1]
1000152c: 6813         	ldr	r3, [r2]
1000152e: f023 0301    	bic	r3, r3, #0x1
10001532: 6013         	str	r3, [r2]
10001534: 2370         	movs	r3, #0x70
10001536: 6003         	str	r3, [r0]
10001538: 6843         	ldr	r3, [r0, #0x4]
1000153a: 075b         	lsls	r3, r3, #0x1d
1000153c: d5fc         	bpl	0x10001538 <GLCD_Initialize+0x2b0> @ imm = #-0x8
1000153e: 6803         	ldr	r3, [r0]
10001540: 2300         	movs	r3, #0x0
10001542: 6003         	str	r3, [r0]
10001544: 6843         	ldr	r3, [r0, #0x4]
10001546: 075b         	lsls	r3, r3, #0x1d
10001548: d5fc         	bpl	0x10001544 <GLCD_Initialize+0x2bc> @ imm = #-0x8
1000154a: 6803         	ldr	r3, [r0]
1000154c: 23e9         	movs	r3, #0xe9
1000154e: 6003         	str	r3, [r0]
10001550: 6843         	ldr	r3, [r0, #0x4]
10001552: 075b         	lsls	r3, r3, #0x1d
10001554: d5fc         	bpl	0x10001550 <GLCD_Initialize+0x2c8> @ imm = #-0x8
10001556: 6803         	ldr	r3, [r0]
10001558: 680b         	ldr	r3, [r1]
1000155a: f043 0301    	orr	r3, r3, #0x1
1000155e: 600b         	str	r3, [r1]
10001560: 6813         	ldr	r3, [r2]
10001562: f023 0301    	bic	r3, r3, #0x1
10001566: 6013         	str	r3, [r2]
10001568: 2372         	movs	r3, #0x72
1000156a: 6003         	str	r3, [r0]
1000156c: 6843         	ldr	r3, [r0, #0x4]
1000156e: 075b         	lsls	r3, r3, #0x1d
10001570: d5fc         	bpl	0x1000156c <GLCD_Initialize+0x2e4> @ imm = #-0x8
10001572: 6803         	ldr	r3, [r0]
10001574: 2300         	movs	r3, #0x0
10001576: 6003         	str	r3, [r0]
10001578: 6843         	ldr	r3, [r0, #0x4]
1000157a: 075b         	lsls	r3, r3, #0x1d
1000157c: d5fc         	bpl	0x10001578 <GLCD_Initialize+0x2f0> @ imm = #-0x8
1000157e: 6803         	ldr	r3, [r0]
10001580: 2310         	movs	r3, #0x10
10001582: 6003         	str	r3, [r0]
10001584: 6843         	ldr	r3, [r0, #0x4]
10001586: 075b         	lsls	r3, r3, #0x1d
10001588: d5fc         	bpl	0x10001584 <GLCD_Initialize+0x2fc> @ imm = #-0x8
1000158a: 6803         	ldr	r3, [r0]
1000158c: 680b         	ldr	r3, [r1]
1000158e: f043 0301    	orr	r3, r3, #0x1
10001592: 600b         	str	r3, [r1]
10001594: 6813         	ldr	r3, [r2]
10001596: f023 0301    	bic	r3, r3, #0x1
1000159a: 6013         	str	r3, [r2]
1000159c: 2370         	movs	r3, #0x70
1000159e: 6003         	str	r3, [r0]
100015a0: 6843         	ldr	r3, [r0, #0x4]
100015a2: 075b         	lsls	r3, r3, #0x1d
100015a4: d5fc         	bpl	0x100015a0 <GLCD_Initialize+0x318> @ imm = #-0x8
100015a6: 6803         	ldr	r3, [r0]
100015a8: 2300         	movs	r3, #0x0
100015aa: 6003         	str	r3, [r0]
100015ac: 6843         	ldr	r3, [r0, #0x4]
100015ae: 075b         	lsls	r3, r3, #0x1d
100015b0: d5fc         	bpl	0x100015ac <GLCD_Initialize+0x324> @ imm = #-0x8
100015b2: 6803         	ldr	r3, [r0]
100015b4: 23f1         	movs	r3, #0xf1
100015b6: 6003         	str	r3, [r0]
100015b8: 6843         	ldr	r3, [r0, #0x4]
100015ba: 075b         	lsls	r3, r3, #0x1d
100015bc: d5fc         	bpl	0x100015b8 <GLCD_Initialize+0x330> @ imm = #-0x8
100015be: 6803         	ldr	r3, [r0]
100015c0: 680b         	ldr	r3, [r1]
100015c2: f043 0301    	orr	r3, r3, #0x1
100015c6: 600b         	str	r3, [r1]
100015c8: 6813         	ldr	r3, [r2]
100015ca: f023 0301    	bic	r3, r3, #0x1
100015ce: 6013         	str	r3, [r2]
100015d0: 2372         	movs	r3, #0x72
100015d2: 6003         	str	r3, [r0]
100015d4: 6843         	ldr	r3, [r0, #0x4]
100015d6: 075b         	lsls	r3, r3, #0x1d
100015d8: d5fc         	bpl	0x100015d4 <GLCD_Initialize+0x34c> @ imm = #-0x8
100015da: 6803         	ldr	r3, [r0]
100015dc: 2300         	movs	r3, #0x0
100015de: 6003         	str	r3, [r0]
100015e0: 6843         	ldr	r3, [r0, #0x4]
100015e2: 075b         	lsls	r3, r3, #0x1d
100015e4: d5fc         	bpl	0x100015e0 <GLCD_Initialize+0x358> @ imm = #-0x8
100015e6: 6803         	ldr	r3, [r0]
100015e8: 2301         	movs	r3, #0x1
100015ea: 6003         	str	r3, [r0]
100015ec: 6843         	ldr	r3, [r0, #0x4]
100015ee: 075b         	lsls	r3, r3, #0x1d
100015f0: d5fc         	bpl	0x100015ec <GLCD_Initialize+0x364> @ imm = #-0x8
100015f2: 6803         	ldr	r3, [r0]
100015f4: 680b         	ldr	r3, [r1]
100015f6: f043 0301    	orr	r3, r3, #0x1
100015fa: 600b         	str	r3, [r1]
100015fc: 6813         	ldr	r3, [r2]
100015fe: f023 0301    	bic	r3, r3, #0x1
10001602: 6013         	str	r3, [r2]
10001604: 2370         	movs	r3, #0x70
10001606: 6003         	str	r3, [r0]
10001608: 6843         	ldr	r3, [r0, #0x4]
1000160a: 075b         	lsls	r3, r3, #0x1d
1000160c: d5fc         	bpl	0x10001608 <GLCD_Initialize+0x380> @ imm = #-0x8
1000160e: 6803         	ldr	r3, [r0]
10001610: 2300         	movs	r3, #0x0
10001612: 6003         	str	r3, [r0]
10001614: 6843         	ldr	r3, [r0, #0x4]
10001616: 075b         	lsls	r3, r3, #0x1d
10001618: d5fc         	bpl	0x10001614 <GLCD_Initialize+0x38c> @ imm = #-0x8
1000161a: 6803         	ldr	r3, [r0]
1000161c: 23f2         	movs	r3, #0xf2
1000161e: 6003         	str	r3, [r0]
10001620: 6843         	ldr	r3, [r0, #0x4]
10001622: 075b         	lsls	r3, r3, #0x1d
10001624: d5fc         	bpl	0x10001620 <GLCD_Initialize+0x398> @ imm = #-0x8
10001626: 6803         	ldr	r3, [r0]
10001628: 680b         	ldr	r3, [r1]
1000162a: f043 0301    	orr	r3, r3, #0x1
1000162e: 600b         	str	r3, [r1]
10001630: 6813         	ldr	r3, [r2]
10001632: f023 0301    	bic	r3, r3, #0x1
10001636: 6013         	str	r3, [r2]
10001638: 2372         	movs	r3, #0x72
1000163a: 6003         	str	r3, [r0]
1000163c: 6843         	ldr	r3, [r0, #0x4]
1000163e: 075b         	lsls	r3, r3, #0x1d
10001640: d5fc         	bpl	0x1000163c <GLCD_Initialize+0x3b4> @ imm = #-0x8
10001642: 6803         	ldr	r3, [r0]
10001644: 2300         	movs	r3, #0x0
10001646: 6003         	str	r3, [r0]
10001648: 6843         	ldr	r3, [r0, #0x4]
1000164a: 075b         	lsls	r3, r3, #0x1d
1000164c: d5fc         	bpl	0x10001648 <GLCD_Initialize+0x3c0> @ imm = #-0x8
1000164e: 6803         	ldr	r3, [r0]
10001650: 2310         	movs	r3, #0x10
10001652: 6003         	str	r3, [r0]
10001654: 6843         	ldr	r3, [r0, #0x4]
10001656: 075b         	lsls	r3, r3, #0x1d
10001658: d5fc         	bpl	0x10001654 <GLCD_Initialize+0x3cc> @ imm = #-0x8
1000165a: 6803         	ldr	r3, [r0]
1000165c: 680b         	ldr	r3, [r1]
1000165e: f043 0301    	orr	r3, r3, #0x1
10001662: 600b         	str	r3, [r1]
10001664: 6813         	ldr	r3, [r2]
10001666: f023 0301    	bic	r3, r3, #0x1
1000166a: 6013         	str	r3, [r2]
1000166c: 2370         	movs	r3, #0x70
1000166e: 6003         	str	r3, [r0]
10001670: 6843         	ldr	r3, [r0, #0x4]
10001672: 075b         	lsls	r3, r3, #0x1d
10001674: d5fc         	bpl	0x10001670 <GLCD_Initialize+0x3e8> @ imm = #-0x8
10001676: 6803         	ldr	r3, [r0]
10001678: 2300         	movs	r3, #0x0
1000167a: 6003         	str	r3, [r0]
1000167c: 6843         	ldr	r3, [r0, #0x4]
1000167e: 075b         	lsls	r3, r3, #0x1d
10001680: d5fc         	bpl	0x1000167c <GLCD_Initialize+0x3f4> @ imm = #-0x8
10001682: 6803         	ldr	r3, [r0]
10001684: 2340         	movs	r3, #0x40
10001686: 6003         	str	r3, [r0]
10001688: 6843         	ldr	r3, [r0, #0x4]
1000168a: 075b         	lsls	r3, r3, #0x1d
1000168c: d5fc         	bpl	0x10001688 <GLCD_Initialize+0x400> @ imm = #-0x8
1000168e: 6803         	ldr	r3, [r0]
10001690: 680b         	ldr	r3, [r1]
10001692: f043 0301    	orr	r3, r3, #0x1
10001696: 600b         	str	r3, [r1]
10001698: 6813         	ldr	r3, [r2]
1000169a: f023 0301    	bic	r3, r3, #0x1
1000169e: 6013         	str	r3, [r2]
100016a0: 2372         	movs	r3, #0x72
100016a2: 6003         	str	r3, [r0]
100016a4: 6843         	ldr	r3, [r0, #0x4]
100016a6: 075b         	lsls	r3, r3, #0x1d
100016a8: d5fc         	bpl	0x100016a4 <GLCD_Initialize+0x41c> @ imm = #-0x8
100016aa: 6803         	ldr	r3, [r0]
100016ac: 2300         	movs	r3, #0x0
100016ae: 6003         	str	r3, [r0]
100016b0: 6843         	ldr	r3, [r0, #0x4]
100016b2: 075b         	lsls	r3, r3, #0x1d
100016b4: d5fc         	bpl	0x100016b0 <GLCD_Initialize+0x428> @ imm = #-0x8
100016b6: 6803         	ldr	r3, [r0]
100016b8: 2301         	movs	r3, #0x1
100016ba: 6003         	str	r3, [r0]
100016bc: 6843         	ldr	r3, [r0, #0x4]
100016be: 075b         	lsls	r3, r3, #0x1d
100016c0: d5fc         	bpl	0x100016bc <GLCD_Initialize+0x434> @ imm = #-0x8
100016c2: 6803         	ldr	r3, [r0]
100016c4: 680b         	ldr	r3, [r1]
100016c6: f043 0301    	orr	r3, r3, #0x1
100016ca: 600b         	str	r3, [r1]
100016cc: 6813         	ldr	r3, [r2]
100016ce: f023 0301    	bic	r3, r3, #0x1
100016d2: 6013         	str	r3, [r2]
100016d4: 2370         	movs	r3, #0x70
100016d6: 6003         	str	r3, [r0]
100016d8: 6843         	ldr	r3, [r0, #0x4]
100016da: 075b         	lsls	r3, r3, #0x1d
100016dc: d5fc         	bpl	0x100016d8 <GLCD_Initialize+0x450> @ imm = #-0x8
100016de: 6803         	ldr	r3, [r0]
100016e0: 2300         	movs	r3, #0x0
100016e2: 6003         	str	r3, [r0]
100016e4: 6843         	ldr	r3, [r0, #0x4]
100016e6: 075b         	lsls	r3, r3, #0x1d
100016e8: d5fc         	bpl	0x100016e4 <GLCD_Initialize+0x45c> @ imm = #-0x8
100016ea: 6803         	ldr	r3, [r0]
100016ec: 2341         	movs	r3, #0x41
100016ee: 6003         	str	r3, [r0]
100016f0: 6843         	ldr	r3, [r0, #0x4]
100016f2: 075b         	lsls	r3, r3, #0x1d
100016f4: d5fc         	bpl	0x100016f0 <GLCD_Initialize+0x468> @ imm = #-0x8
100016f6: 6803         	ldr	r3, [r0]
100016f8: 680b         	ldr	r3, [r1]
100016fa: f043 0301    	orr	r3, r3, #0x1
100016fe: 600b         	str	r3, [r1]
10001700: 6813         	ldr	r3, [r2]
10001702: f023 0301    	bic	r3, r3, #0x1
10001706: 6013         	str	r3, [r2]
10001708: 2372         	movs	r3, #0x72
1000170a: 6003         	str	r3, [r0]
1000170c: 6843         	ldr	r3, [r0, #0x4]
1000170e: 075b         	lsls	r3, r3, #0x1d
10001710: d5fc         	bpl	0x1000170c <GLCD_Initialize+0x484> @ imm = #-0x8
10001712: 6803         	ldr	r3, [r0]
10001714: 2300         	movs	r3, #0x0
10001716: 6003         	str	r3, [r0]
10001718: 6843         	ldr	r3, [r0, #0x4]
1000171a: 075b         	lsls	r3, r3, #0x1d
1000171c: d5fc         	bpl	0x10001718 <GLCD_Initialize+0x490> @ imm = #-0x8
1000171e: 6803         	ldr	r3, [r0]
10001720: 2300         	movs	r3, #0x0
10001722: 6003         	str	r3, [r0]
10001724: 6843         	ldr	r3, [r0, #0x4]
10001726: 075b         	lsls	r3, r3, #0x1d
10001728: d5fc         	bpl	0x10001724 <GLCD_Initialize+0x49c> @ imm = #-0x8
1000172a: 6803         	ldr	r3, [r0]
1000172c: 680b         	ldr	r3, [r1]
1000172e: f043 0301    	orr	r3, r3, #0x1
10001732: 600b         	str	r3, [r1]
10001734: 6813         	ldr	r3, [r2]
10001736: f023 0301    	bic	r3, r3, #0x1
1000173a: 6013         	str	r3, [r2]
1000173c: 2370         	movs	r3, #0x70
1000173e: 6003         	str	r3, [r0]
10001740: 6843         	ldr	r3, [r0, #0x4]
10001742: 075b         	lsls	r3, r3, #0x1d
10001744: d5fc         	bpl	0x10001740 <GLCD_Initialize+0x4b8> @ imm = #-0x8
10001746: 6803         	ldr	r3, [r0]
10001748: 2300         	movs	r3, #0x0
1000174a: 6003         	str	r3, [r0]
1000174c: 6843         	ldr	r3, [r0, #0x4]
1000174e: 075b         	lsls	r3, r3, #0x1d
10001750: d5fc         	bpl	0x1000174c <GLCD_Initialize+0x4c4> @ imm = #-0x8
10001752: 6803         	ldr	r3, [r0]
10001754: 2342         	movs	r3, #0x42
10001756: 6003         	str	r3, [r0]
10001758: 6843         	ldr	r3, [r0, #0x4]
1000175a: 075b         	lsls	r3, r3, #0x1d
1000175c: d5fc         	bpl	0x10001758 <GLCD_Initialize+0x4d0> @ imm = #-0x8
1000175e: 6803         	ldr	r3, [r0]
10001760: 680b         	ldr	r3, [r1]
10001762: f043 0301    	orr	r3, r3, #0x1
10001766: 600b         	str	r3, [r1]
10001768: 6813         	ldr	r3, [r2]
1000176a: f023 0301    	bic	r3, r3, #0x1
1000176e: 6013         	str	r3, [r2]
10001770: 2372         	movs	r3, #0x72
10001772: 6003         	str	r3, [r0]
10001774: 6843         	ldr	r3, [r0, #0x4]
10001776: 075b         	lsls	r3, r3, #0x1d
10001778: d5fc         	bpl	0x10001774 <GLCD_Initialize+0x4ec> @ imm = #-0x8
1000177a: 6803         	ldr	r3, [r0]
1000177c: 2300         	movs	r3, #0x0
1000177e: 6003         	str	r3, [r0]
10001780: 6843         	ldr	r3, [r0, #0x4]
10001782: 075b         	lsls	r3, r3, #0x1d
10001784: d5fc         	bpl	0x10001780 <GLCD_Initialize+0x4f8> @ imm = #-0x8
10001786: 6803         	ldr	r3, [r0]
10001788: 2300         	movs	r3, #0x0
1000178a: 6003         	str	r3, [r0]
1000178c: 6843         	ldr	r3, [r0, #0x4]
1000178e: 075b         	lsls	r3, r3, #0x1d
10001790: d5fc         	bpl	0x1000178c <GLCD_Initialize+0x504> @ imm = #-0x8
10001792: 6803         	ldr	r3, [r0]
10001794: 680b         	ldr	r3, [r1]
10001796: f043 0301    	orr	r3, r3, #0x1
1000179a: 600b         	str	r3, [r1]
1000179c: 6813         	ldr	r3, [r2]
1000179e: f023 0301    	bic	r3, r3, #0x1
100017a2: 6013         	str	r3, [r2]
100017a4: 2370         	movs	r3, #0x70
100017a6: 6003         	str	r3, [r0]
100017a8: 6843         	ldr	r3, [r0, #0x4]
100017aa: 075b         	lsls	r3, r3, #0x1d
100017ac: d5fc         	bpl	0x100017a8 <GLCD_Initialize+0x520> @ imm = #-0x8
100017ae: 6803         	ldr	r3, [r0]
100017b0: 2300         	movs	r3, #0x0
100017b2: 6003         	str	r3, [r0]
100017b4: 6843         	ldr	r3, [r0, #0x4]
100017b6: 075b         	lsls	r3, r3, #0x1d
100017b8: d5fc         	bpl	0x100017b4 <GLCD_Initialize+0x52c> @ imm = #-0x8
100017ba: 6803         	ldr	r3, [r0]
100017bc: 2343         	movs	r3, #0x43
100017be: 6003         	str	r3, [r0]
100017c0: 6843         	ldr	r3, [r0, #0x4]
100017c2: 075b         	lsls	r3, r3, #0x1d
100017c4: d5fc         	bpl	0x100017c0 <GLCD_Initialize+0x538> @ imm = #-0x8
100017c6: 6803         	ldr	r3, [r0]
100017c8: 680b         	ldr	r3, [r1]
100017ca: f043 0301    	orr	r3, r3, #0x1
100017ce: 600b         	str	r3, [r1]
100017d0: 6813         	ldr	r3, [r2]
100017d2: f023 0301    	bic	r3, r3, #0x1
100017d6: 6013         	str	r3, [r2]
100017d8: 2372         	movs	r3, #0x72
100017da: 6003         	str	r3, [r0]
100017dc: 6843         	ldr	r3, [r0, #0x4]
100017de: 075b         	lsls	r3, r3, #0x1d
100017e0: d5fc         	bpl	0x100017dc <GLCD_Initialize+0x554> @ imm = #-0x8
100017e2: 6803         	ldr	r3, [r0]
100017e4: 2300         	movs	r3, #0x0
100017e6: 6003         	str	r3, [r0]
100017e8: 6843         	ldr	r3, [r0, #0x4]
100017ea: 075b         	lsls	r3, r3, #0x1d
100017ec: d5fc         	bpl	0x100017e8 <GLCD_Initialize+0x560> @ imm = #-0x8
100017ee: 6803         	ldr	r3, [r0]
100017f0: 2310         	movs	r3, #0x10
100017f2: 6003         	str	r3, [r0]
100017f4: 6843         	ldr	r3, [r0, #0x4]
100017f6: 075b         	lsls	r3, r3, #0x1d
100017f8: d5fc         	bpl	0x100017f4 <GLCD_Initialize+0x56c> @ imm = #-0x8
100017fa: 6803         	ldr	r3, [r0]
100017fc: 680b         	ldr	r3, [r1]
100017fe: f043 0301    	orr	r3, r3, #0x1
10001802: 600b         	str	r3, [r1]
10001804: 6813         	ldr	r3, [r2]
10001806: f023 0301    	bic	r3, r3, #0x1
1000180a: 6013         	str	r3, [r2]
1000180c: 2370         	movs	r3, #0x70
1000180e: 6003         	str	r3, [r0]
10001810: 6843         	ldr	r3, [r0, #0x4]
10001812: 075b         	lsls	r3, r3, #0x1d
10001814: d5fc         	bpl	0x10001810 <GLCD_Initialize+0x588> @ imm = #-0x8
10001816: 6803         	ldr	r3, [r0]
10001818: 2300         	movs	r3, #0x0
1000181a: 6003         	str	r3, [r0]
1000181c: 6843         	ldr	r3, [r0, #0x4]
1000181e: 075b         	lsls	r3, r3, #0x1d
10001820: d5fc         	bpl	0x1000181c <GLCD_Initialize+0x594> @ imm = #-0x8
10001822: 6803         	ldr	r3, [r0]
10001824: 2344         	movs	r3, #0x44
10001826: 6003         	str	r3, [r0]
10001828: 6843         	ldr	r3, [r0, #0x4]
1000182a: 075b         	lsls	r3, r3, #0x1d
1000182c: d5fc         	bpl	0x10001828 <GLCD_Initialize+0x5a0> @ imm = #-0x8
1000182e: 6803         	ldr	r3, [r0]
10001830: 680b         	ldr	r3, [r1]
10001832: f043 0301    	orr	r3, r3, #0x1
10001836: 600b         	str	r3, [r1]
10001838: 6813         	ldr	r3, [r2]
1000183a: f023 0301    	bic	r3, r3, #0x1
1000183e: 6013         	str	r3, [r2]
10001840: 2372         	movs	r3, #0x72
10001842: 6003         	str	r3, [r0]
10001844: 6843         	ldr	r3, [r0, #0x4]
10001846: 075b         	lsls	r3, r3, #0x1d
10001848: d5fc         	bpl	0x10001844 <GLCD_Initialize+0x5bc> @ imm = #-0x8
1000184a: 6803         	ldr	r3, [r0]
1000184c: 2300         	movs	r3, #0x0
1000184e: 6003         	str	r3, [r0]
10001850: 6843         	ldr	r3, [r0, #0x4]
10001852: 075b         	lsls	r3, r3, #0x1d
10001854: d5fc         	bpl	0x10001850 <GLCD_Initialize+0x5c8> @ imm = #-0x8
10001856: 6803         	ldr	r3, [r0]
10001858: 230e         	movs	r3, #0xe
1000185a: 6003         	str	r3, [r0]
1000185c: 6843         	ldr	r3, [r0, #0x4]
1000185e: 075b         	lsls	r3, r3, #0x1d
10001860: d5fc         	bpl	0x1000185c <GLCD_Initialize+0x5d4> @ imm = #-0x8
10001862: 6803         	ldr	r3, [r0]
10001864: 680b         	ldr	r3, [r1]
10001866: f043 0301    	orr	r3, r3, #0x1
1000186a: 600b         	str	r3, [r1]
1000186c: 6813         	ldr	r3, [r2]
1000186e: f023 0301    	bic	r3, r3, #0x1
10001872: 6013         	str	r3, [r2]
10001874: 2370         	movs	r3, #0x70
10001876: 6003         	str	r3, [r0]
10001878: 6843         	ldr	r3, [r0, #0x4]
1000187a: 075b         	lsls	r3, r3, #0x1d
1000187c: d5fc         	bpl	0x10001878 <GLCD_Initialize+0x5f0> @ imm = #-0x8
1000187e: 6803         	ldr	r3, [r0]
10001880: 2300         	movs	r3, #0x0
10001882: 6003         	str	r3, [r0]
10001884: 6843         	ldr	r3, [r0, #0x4]
10001886: 075b         	lsls	r3, r3, #0x1d
10001888: d5fc         	bpl	0x10001884 <GLCD_Initialize+0x5fc> @ imm = #-0x8
1000188a: 6803         	ldr	r3, [r0]
1000188c: 2345         	movs	r3, #0x45
1000188e: 6003         	str	r3, [r0]
10001890: 6843         	ldr	r3, [r0, #0x4]
10001892: 075b         	lsls	r3, r3, #0x1d
10001894: d5fc         	bpl	0x10001890 <GLCD_Initialize+0x608> @ imm = #-0x8
10001896: 6803         	ldr	r3, [r0]
10001898: 680b         	ldr	r3, [r1]
1000189a: f043 0301    	orr	r3, r3, #0x1
1000189e: 600b         	str	r3, [r1]
100018a0: 6813         	ldr	r3, [r2]
100018a2: f023 0301    	bic	r3, r3, #0x1
100018a6: 6013         	str	r3, [r2]
100018a8: 2372         	movs	r3, #0x72
100018aa: 6003         	str	r3, [r0]
100018ac: 6843         	ldr	r3, [r0, #0x4]
100018ae: 075b         	lsls	r3, r3, #0x1d
100018b0: d5fc         	bpl	0x100018ac <GLCD_Initialize+0x624> @ imm = #-0x8
100018b2: 6803         	ldr	r3, [r0]
100018b4: 2300         	movs	r3, #0x0
100018b6: 6003         	str	r3, [r0]
100018b8: 6843         	ldr	r3, [r0, #0x4]
100018ba: 075b         	lsls	r3, r3, #0x1d
100018bc: d5fc         	bpl	0x100018b8 <GLCD_Initialize+0x630> @ imm = #-0x8
100018be: 6803         	ldr	r3, [r0]
100018c0: 2324         	movs	r3, #0x24
100018c2: 6003         	str	r3, [r0]
100018c4: 6843         	ldr	r3, [r0, #0x4]
100018c6: 075b         	lsls	r3, r3, #0x1d
100018c8: d5fc         	bpl	0x100018c4 <GLCD_Initialize+0x63c> @ imm = #-0x8
100018ca: 6803         	ldr	r3, [r0]
100018cc: 680b         	ldr	r3, [r1]
100018ce: f043 0301    	orr	r3, r3, #0x1
100018d2: 600b         	str	r3, [r1]
100018d4: 6813         	ldr	r3, [r2]
100018d6: f023 0301    	bic	r3, r3, #0x1
100018da: 6013         	str	r3, [r2]
100018dc: 2370         	movs	r3, #0x70
100018de: 6003         	str	r3, [r0]
100018e0: 6843         	ldr	r3, [r0, #0x4]
100018e2: 075b         	lsls	r3, r3, #0x1d
100018e4: d5fc         	bpl	0x100018e0 <GLCD_Initialize+0x658> @ imm = #-0x8
100018e6: 6803         	ldr	r3, [r0]
100018e8: 2300         	movs	r3, #0x0
100018ea: 6003         	str	r3, [r0]
100018ec: 6843         	ldr	r3, [r0, #0x4]
100018ee: 075b         	lsls	r3, r3, #0x1d
100018f0: d5fc         	bpl	0x100018ec <GLCD_Initialize+0x664> @ imm = #-0x8
100018f2: 6803         	ldr	r3, [r0]
100018f4: 2346         	movs	r3, #0x46
100018f6: 6003         	str	r3, [r0]
100018f8: 6843         	ldr	r3, [r0, #0x4]
100018fa: 075b         	lsls	r3, r3, #0x1d
100018fc: d5fc         	bpl	0x100018f8 <GLCD_Initialize+0x670> @ imm = #-0x8
100018fe: 6803         	ldr	r3, [r0]
10001900: 680b         	ldr	r3, [r1]
10001902: f043 0301    	orr	r3, r3, #0x1
10001906: 600b         	str	r3, [r1]
10001908: 6813         	ldr	r3, [r2]
1000190a: f023 0301    	bic	r3, r3, #0x1
1000190e: 6013         	str	r3, [r2]
10001910: 2372         	movs	r3, #0x72
10001912: 6003         	str	r3, [r0]
10001914: 6843         	ldr	r3, [r0, #0x4]
10001916: 075b         	lsls	r3, r3, #0x1d
10001918: d5fc         	bpl	0x10001914 <GLCD_Initialize+0x68c> @ imm = #-0x8
1000191a: 6803         	ldr	r3, [r0]
1000191c: 2300         	movs	r3, #0x0
1000191e: 6003         	str	r3, [r0]
10001920: 6843         	ldr	r3, [r0, #0x4]
10001922: 075b         	lsls	r3, r3, #0x1d
10001924: d5fc         	bpl	0x10001920 <GLCD_Initialize+0x698> @ imm = #-0x8
10001926: 6803         	ldr	r3, [r0]
10001928: 2304         	movs	r3, #0x4
1000192a: 6003         	str	r3, [r0]
1000192c: 6843         	ldr	r3, [r0, #0x4]
1000192e: 075b         	lsls	r3, r3, #0x1d
10001930: d5fc         	bpl	0x1000192c <GLCD_Initialize+0x6a4> @ imm = #-0x8
10001932: 6803         	ldr	r3, [r0]
10001934: 680b         	ldr	r3, [r1]
10001936: f043 0301    	orr	r3, r3, #0x1
1000193a: 600b         	str	r3, [r1]
1000193c: 6813         	ldr	r3, [r2]
1000193e: f023 0301    	bic	r3, r3, #0x1
10001942: 6013         	str	r3, [r2]
10001944: 2370         	movs	r3, #0x70
10001946: 6003         	str	r3, [r0]
10001948: 6843         	ldr	r3, [r0, #0x4]
1000194a: 075b         	lsls	r3, r3, #0x1d
1000194c: d5fc         	bpl	0x10001948 <GLCD_Initialize+0x6c0> @ imm = #-0x8
1000194e: 6803         	ldr	r3, [r0]
10001950: 2300         	movs	r3, #0x0
10001952: 6003         	str	r3, [r0]
10001954: 6843         	ldr	r3, [r0, #0x4]
10001956: 075b         	lsls	r3, r3, #0x1d
10001958: d5fc         	bpl	0x10001954 <GLCD_Initialize+0x6cc> @ imm = #-0x8
1000195a: 6803         	ldr	r3, [r0]
1000195c: 2347         	movs	r3, #0x47
1000195e: 6003         	str	r3, [r0]
10001960: 6843         	ldr	r3, [r0, #0x4]
10001962: 075b         	lsls	r3, r3, #0x1d
10001964: d5fc         	bpl	0x10001960 <GLCD_Initialize+0x6d8> @ imm = #-0x8
10001966: 6803         	ldr	r3, [r0]
10001968: 680b         	ldr	r3, [r1]
1000196a: f043 0301    	orr	r3, r3, #0x1
1000196e: 600b         	str	r3, [r1]
10001970: 6813         	ldr	r3, [r2]
10001972: f023 0301    	bic	r3, r3, #0x1
10001976: 6013         	str	r3, [r2]
10001978: 2372         	movs	r3, #0x72
1000197a: 6003         	str	r3, [r0]
1000197c: 6843         	ldr	r3, [r0, #0x4]
1000197e: 075b         	lsls	r3, r3, #0x1d
10001980: d5fc         	bpl	0x1000197c <GLCD_Initialize+0x6f4> @ imm = #-0x8
10001982: 6803         	ldr	r3, [r0]
10001984: 2300         	movs	r3, #0x0
10001986: 6003         	str	r3, [r0]
10001988: 6843         	ldr	r3, [r0, #0x4]
1000198a: 075b         	lsls	r3, r3, #0x1d
1000198c: d5fc         	bpl	0x10001988 <GLCD_Initialize+0x700> @ imm = #-0x8
1000198e: 6803         	ldr	r3, [r0]
10001990: 2350         	movs	r3, #0x50
10001992: 6003         	str	r3, [r0]
10001994: 6843         	ldr	r3, [r0, #0x4]
10001996: 075b         	lsls	r3, r3, #0x1d
10001998: d5fc         	bpl	0x10001994 <GLCD_Initialize+0x70c> @ imm = #-0x8
1000199a: 6803         	ldr	r3, [r0]
1000199c: 680b         	ldr	r3, [r1]
1000199e: f043 0301    	orr	r3, r3, #0x1
100019a2: 600b         	str	r3, [r1]
100019a4: 6813         	ldr	r3, [r2]
100019a6: f023 0301    	bic	r3, r3, #0x1
100019aa: 6013         	str	r3, [r2]
100019ac: 2370         	movs	r3, #0x70
100019ae: 6003         	str	r3, [r0]
100019b0: 6843         	ldr	r3, [r0, #0x4]
100019b2: 075b         	lsls	r3, r3, #0x1d
100019b4: d5fc         	bpl	0x100019b0 <GLCD_Initialize+0x728> @ imm = #-0x8
100019b6: 6803         	ldr	r3, [r0]
100019b8: 2300         	movs	r3, #0x0
100019ba: 6003         	str	r3, [r0]
100019bc: 6843         	ldr	r3, [r0, #0x4]
100019be: 075b         	lsls	r3, r3, #0x1d
100019c0: d5fc         	bpl	0x100019bc <GLCD_Initialize+0x734> @ imm = #-0x8
100019c2: 6803         	ldr	r3, [r0]
100019c4: 2348         	movs	r3, #0x48
100019c6: 6003         	str	r3, [r0]
100019c8: 6843         	ldr	r3, [r0, #0x4]
100019ca: 075b         	lsls	r3, r3, #0x1d
100019cc: d5fc         	bpl	0x100019c8 <GLCD_Initialize+0x740> @ imm = #-0x8
100019ce: 6803         	ldr	r3, [r0]
100019d0: 680b         	ldr	r3, [r1]
100019d2: f043 0301    	orr	r3, r3, #0x1
100019d6: 600b         	str	r3, [r1]
100019d8: 6813         	ldr	r3, [r2]
100019da: f023 0301    	bic	r3, r3, #0x1
100019de: 6013         	str	r3, [r2]
100019e0: 2372         	movs	r3, #0x72
100019e2: 6003         	str	r3, [r0]
100019e4: 6843         	ldr	r3, [r0, #0x4]
100019e6: 075b         	lsls	r3, r3, #0x1d
100019e8: d5fc         	bpl	0x100019e4 <GLCD_Initialize+0x75c> @ imm = #-0x8
100019ea: 6803         	ldr	r3, [r0]
100019ec: 2300         	movs	r3, #0x0
100019ee: 6003         	str	r3, [r0]
100019f0: 6843         	ldr	r3, [r0, #0x4]
100019f2: 075b         	lsls	r3, r3, #0x1d
100019f4: d5fc         	bpl	0x100019f0 <GLCD_Initialize+0x768> @ imm = #-0x8
100019f6: 6803         	ldr	r3, [r0]
100019f8: 2302         	movs	r3, #0x2
100019fa: 6003         	str	r3, [r0]
100019fc: 6843         	ldr	r3, [r0, #0x4]
100019fe: 075b         	lsls	r3, r3, #0x1d
10001a00: d5fc         	bpl	0x100019fc <GLCD_Initialize+0x774> @ imm = #-0x8
10001a02: 6803         	ldr	r3, [r0]
10001a04: 680b         	ldr	r3, [r1]
10001a06: f043 0301    	orr	r3, r3, #0x1
10001a0a: 600b         	str	r3, [r1]
10001a0c: 6813         	ldr	r3, [r2]
10001a0e: f023 0301    	bic	r3, r3, #0x1
10001a12: 6013         	str	r3, [r2]
10001a14: 2370         	movs	r3, #0x70
10001a16: 6003         	str	r3, [r0]
10001a18: 6843         	ldr	r3, [r0, #0x4]
10001a1a: 075b         	lsls	r3, r3, #0x1d
10001a1c: d5fc         	bpl	0x10001a18 <GLCD_Initialize+0x790> @ imm = #-0x8
10001a1e: 6803         	ldr	r3, [r0]
10001a20: 2300         	movs	r3, #0x0
10001a22: 6003         	str	r3, [r0]
10001a24: 6843         	ldr	r3, [r0, #0x4]
10001a26: 075b         	lsls	r3, r3, #0x1d
10001a28: d5fc         	bpl	0x10001a24 <GLCD_Initialize+0x79c> @ imm = #-0x8
10001a2a: 6803         	ldr	r3, [r0]
10001a2c: 2349         	movs	r3, #0x49
10001a2e: 6003         	str	r3, [r0]
10001a30: 6843         	ldr	r3, [r0, #0x4]
10001a32: 075b         	lsls	r3, r3, #0x1d
10001a34: d5fc         	bpl	0x10001a30 <GLCD_Initialize+0x7a8> @ imm = #-0x8
10001a36: 6803         	ldr	r3, [r0]
10001a38: 680b         	ldr	r3, [r1]
10001a3a: f043 0301    	orr	r3, r3, #0x1
10001a3e: 600b         	str	r3, [r1]
10001a40: 6813         	ldr	r3, [r2]
10001a42: f023 0301    	bic	r3, r3, #0x1
10001a46: 6013         	str	r3, [r2]
10001a48: 2372         	movs	r3, #0x72
10001a4a: 6003         	str	r3, [r0]
10001a4c: 6843         	ldr	r3, [r0, #0x4]
10001a4e: 075b         	lsls	r3, r3, #0x1d
10001a50: d5fc         	bpl	0x10001a4c <GLCD_Initialize+0x7c4> @ imm = #-0x8
10001a52: 6803         	ldr	r3, [r0]
10001a54: 2300         	movs	r3, #0x0
10001a56: 6003         	str	r3, [r0]
10001a58: 6843         	ldr	r3, [r0, #0x4]
10001a5a: 075b         	lsls	r3, r3, #0x1d
10001a5c: d5fc         	bpl	0x10001a58 <GLCD_Initialize+0x7d0> @ imm = #-0x8
10001a5e: 6803         	ldr	r3, [r0]
10001a60: 2313         	movs	r3, #0x13
10001a62: 6003         	str	r3, [r0]
10001a64: 6843         	ldr	r3, [r0, #0x4]
10001a66: 075b         	lsls	r3, r3, #0x1d
10001a68: d5fc         	bpl	0x10001a64 <GLCD_Initialize+0x7dc> @ imm = #-0x8
10001a6a: 6803         	ldr	r3, [r0]
10001a6c: 680b         	ldr	r3, [r1]
10001a6e: f043 0301    	orr	r3, r3, #0x1
10001a72: 600b         	str	r3, [r1]
10001a74: 6813         	ldr	r3, [r2]
10001a76: f023 0301    	bic	r3, r3, #0x1
10001a7a: 6013         	str	r3, [r2]
10001a7c: 2370         	movs	r3, #0x70
10001a7e: 6003         	str	r3, [r0]
10001a80: 6843         	ldr	r3, [r0, #0x4]
10001a82: 075b         	lsls	r3, r3, #0x1d
10001a84: d5fc         	bpl	0x10001a80 <GLCD_Initialize+0x7f8> @ imm = #-0x8
10001a86: 6803         	ldr	r3, [r0]
10001a88: 2300         	movs	r3, #0x0
10001a8a: 6003         	str	r3, [r0]
10001a8c: 6843         	ldr	r3, [r0, #0x4]
10001a8e: 075b         	lsls	r3, r3, #0x1d
10001a90: d5fc         	bpl	0x10001a8c <GLCD_Initialize+0x804> @ imm = #-0x8
10001a92: 6803         	ldr	r3, [r0]
10001a94: 234a         	movs	r3, #0x4a
10001a96: 6003         	str	r3, [r0]
10001a98: 6843         	ldr	r3, [r0, #0x4]
10001a9a: 075b         	lsls	r3, r3, #0x1d
10001a9c: d5fc         	bpl	0x10001a98 <GLCD_Initialize+0x810> @ imm = #-0x8
10001a9e: 6803         	ldr	r3, [r0]
10001aa0: 680b         	ldr	r3, [r1]
10001aa2: f043 0301    	orr	r3, r3, #0x1
10001aa6: 600b         	str	r3, [r1]
10001aa8: 6813         	ldr	r3, [r2]
10001aaa: f023 0301    	bic	r3, r3, #0x1
10001aae: 6013         	str	r3, [r2]
10001ab0: 2372         	movs	r3, #0x72
10001ab2: 6003         	str	r3, [r0]
10001ab4: 6843         	ldr	r3, [r0, #0x4]
10001ab6: 075b         	lsls	r3, r3, #0x1d
10001ab8: d5fc         	bpl	0x10001ab4 <GLCD_Initialize+0x82c> @ imm = #-0x8
10001aba: 6803         	ldr	r3, [r0]
10001abc: 2300         	movs	r3, #0x0
10001abe: 6003         	str	r3, [r0]
10001ac0: 6843         	ldr	r3, [r0, #0x4]
10001ac2: 075b         	lsls	r3, r3, #0x1d
10001ac4: d5fc         	bpl	0x10001ac0 <GLCD_Initialize+0x838> @ imm = #-0x8
10001ac6: 6803         	ldr	r3, [r0]
10001ac8: 2319         	movs	r3, #0x19
10001aca: 6003         	str	r3, [r0]
10001acc: 6843         	ldr	r3, [r0, #0x4]
10001ace: 075b         	lsls	r3, r3, #0x1d
10001ad0: d5fc         	bpl	0x10001acc <GLCD_Initialize+0x844> @ imm = #-0x8
10001ad2: 6803         	ldr	r3, [r0]
10001ad4: 680b         	ldr	r3, [r1]
10001ad6: f043 0301    	orr	r3, r3, #0x1
10001ada: 600b         	str	r3, [r1]
10001adc: 6813         	ldr	r3, [r2]
10001ade: f023 0301    	bic	r3, r3, #0x1
10001ae2: 6013         	str	r3, [r2]
10001ae4: 2370         	movs	r3, #0x70
10001ae6: 6003         	str	r3, [r0]
10001ae8: 6843         	ldr	r3, [r0, #0x4]
10001aea: 075b         	lsls	r3, r3, #0x1d
10001aec: d5fc         	bpl	0x10001ae8 <GLCD_Initialize+0x860> @ imm = #-0x8
10001aee: 6803         	ldr	r3, [r0]
10001af0: 2300         	movs	r3, #0x0
10001af2: 6003         	str	r3, [r0]
10001af4: 6843         	ldr	r3, [r0, #0x4]
10001af6: 075b         	lsls	r3, r3, #0x1d
10001af8: d5fc         	bpl	0x10001af4 <GLCD_Initialize+0x86c> @ imm = #-0x8
10001afa: 6803         	ldr	r3, [r0]
10001afc: 234b         	movs	r3, #0x4b
10001afe: 6003         	str	r3, [r0]
10001b00: 6843         	ldr	r3, [r0, #0x4]
10001b02: 075b         	lsls	r3, r3, #0x1d
10001b04: d5fc         	bpl	0x10001b00 <GLCD_Initialize+0x878> @ imm = #-0x8
10001b06: 6803         	ldr	r3, [r0]
10001b08: 680b         	ldr	r3, [r1]
10001b0a: f043 0301    	orr	r3, r3, #0x1
10001b0e: 600b         	str	r3, [r1]
10001b10: 6813         	ldr	r3, [r2]
10001b12: f023 0301    	bic	r3, r3, #0x1
10001b16: 6013         	str	r3, [r2]
10001b18: 2372         	movs	r3, #0x72
10001b1a: 6003         	str	r3, [r0]
10001b1c: 6843         	ldr	r3, [r0, #0x4]
10001b1e: 075b         	lsls	r3, r3, #0x1d
10001b20: d5fc         	bpl	0x10001b1c <GLCD_Initialize+0x894> @ imm = #-0x8
10001b22: 6803         	ldr	r3, [r0]
10001b24: 2300         	movs	r3, #0x0
10001b26: 6003         	str	r3, [r0]
10001b28: 6843         	ldr	r3, [r0, #0x4]
10001b2a: 075b         	lsls	r3, r3, #0x1d
10001b2c: d5fc         	bpl	0x10001b28 <GLCD_Initialize+0x8a0> @ imm = #-0x8
10001b2e: 6803         	ldr	r3, [r0]
10001b30: 2319         	movs	r3, #0x19
10001b32: 6003         	str	r3, [r0]
10001b34: 6843         	ldr	r3, [r0, #0x4]
10001b36: 075b         	lsls	r3, r3, #0x1d
10001b38: d5fc         	bpl	0x10001b34 <GLCD_Initialize+0x8ac> @ imm = #-0x8
10001b3a: 6803         	ldr	r3, [r0]
10001b3c: 680b         	ldr	r3, [r1]
10001b3e: f043 0301    	orr	r3, r3, #0x1
10001b42: 600b         	str	r3, [r1]
10001b44: 6813         	ldr	r3, [r2]
10001b46: f023 0301    	bic	r3, r3, #0x1
10001b4a: 6013         	str	r3, [r2]
10001b4c: 2370         	movs	r3, #0x70
10001b4e: 6003         	str	r3, [r0]
10001b50: 6843         	ldr	r3, [r0, #0x4]
10001b52: 075b         	lsls	r3, r3, #0x1d
10001b54: d5fc         	bpl	0x10001b50 <GLCD_Initialize+0x8c8> @ imm = #-0x8
10001b56: 6803         	ldr	r3, [r0]
10001b58: 2300         	movs	r3, #0x0
10001b5a: 6003         	str	r3, [r0]
10001b5c: 6843         	ldr	r3, [r0, #0x4]
10001b5e: 075b         	lsls	r3, r3, #0x1d
10001b60: d5fc         	bpl	0x10001b5c <GLCD_Initialize+0x8d4> @ imm = #-0x8
10001b62: 6803         	ldr	r3, [r0]
10001b64: 234c         	movs	r3, #0x4c
10001b66: 6003         	str	r3, [r0]
10001b68: 6843         	ldr	r3, [r0, #0x4]
10001b6a: 075b         	lsls	r3, r3, #0x1d
10001b6c: d5fc         	bpl	0x10001b68 <GLCD_Initialize+0x8e0> @ imm = #-0x8
10001b6e: 6803         	ldr	r3, [r0]
10001b70: 680b         	ldr	r3, [r1]
10001b72: f043 0301    	orr	r3, r3, #0x1
10001b76: 600b         	str	r3, [r1]
10001b78: 6813         	ldr	r3, [r2]
10001b7a: f023 0301    	bic	r3, r3, #0x1
10001b7e: 6013         	str	r3, [r2]
10001b80: 2372         	movs	r3, #0x72
10001b82: 6003         	str	r3, [r0]
10001b84: 6843         	ldr	r3, [r0, #0x4]
10001b86: 075b         	lsls	r3, r3, #0x1d
10001b88: d5fc         	bpl	0x10001b84 <GLCD_Initialize+0x8fc> @ imm = #-0x8
10001b8a: 6803         	ldr	r3, [r0]
10001b8c: 2300         	movs	r3, #0x0
10001b8e: 6003         	str	r3, [r0]
10001b90: 6843         	ldr	r3, [r0, #0x4]
10001b92: 075b         	lsls	r3, r3, #0x1d
10001b94: d5fc         	bpl	0x10001b90 <GLCD_Initialize+0x908> @ imm = #-0x8
10001b96: 6803         	ldr	r3, [r0]
10001b98: 2316         	movs	r3, #0x16
10001b9a: 6003         	str	r3, [r0]
10001b9c: 6843         	ldr	r3, [r0, #0x4]
10001b9e: 075b         	lsls	r3, r3, #0x1d
10001ba0: d5fc         	bpl	0x10001b9c <GLCD_Initialize+0x914> @ imm = #-0x8
10001ba2: 6803         	ldr	r3, [r0]
10001ba4: 680b         	ldr	r3, [r1]
10001ba6: f043 0301    	orr	r3, r3, #0x1
10001baa: 600b         	str	r3, [r1]
10001bac: 6813         	ldr	r3, [r2]
10001bae: f023 0301    	bic	r3, r3, #0x1
10001bb2: 6013         	str	r3, [r2]
10001bb4: 2370         	movs	r3, #0x70
10001bb6: 6003         	str	r3, [r0]
10001bb8: 6843         	ldr	r3, [r0, #0x4]
10001bba: 075b         	lsls	r3, r3, #0x1d
10001bbc: d5fc         	bpl	0x10001bb8 <GLCD_Initialize+0x930> @ imm = #-0x8
10001bbe: 6803         	ldr	r3, [r0]
10001bc0: 2300         	movs	r3, #0x0
10001bc2: 6003         	str	r3, [r0]
10001bc4: 6843         	ldr	r3, [r0, #0x4]
10001bc6: 075b         	lsls	r3, r3, #0x1d
10001bc8: d5fc         	bpl	0x10001bc4 <GLCD_Initialize+0x93c> @ imm = #-0x8
10001bca: 6803         	ldr	r3, [r0]
10001bcc: 2350         	movs	r3, #0x50
10001bce: 6003         	str	r3, [r0]
10001bd0: 6843         	ldr	r3, [r0, #0x4]
10001bd2: 075b         	lsls	r3, r3, #0x1d
10001bd4: d5fc         	bpl	0x10001bd0 <GLCD_Initialize+0x948> @ imm = #-0x8
10001bd6: 6803         	ldr	r3, [r0]
10001bd8: 680b         	ldr	r3, [r1]
10001bda: f043 0301    	orr	r3, r3, #0x1
10001bde: 600b         	str	r3, [r1]
10001be0: 6813         	ldr	r3, [r2]
10001be2: f023 0301    	bic	r3, r3, #0x1
10001be6: 6013         	str	r3, [r2]
10001be8: 2372         	movs	r3, #0x72
10001bea: 6003         	str	r3, [r0]
10001bec: 6843         	ldr	r3, [r0, #0x4]
10001bee: 075b         	lsls	r3, r3, #0x1d
10001bf0: d5fc         	bpl	0x10001bec <GLCD_Initialize+0x964> @ imm = #-0x8
10001bf2: 6803         	ldr	r3, [r0]
10001bf4: 2300         	movs	r3, #0x0
10001bf6: 6003         	str	r3, [r0]
10001bf8: 6843         	ldr	r3, [r0, #0x4]
10001bfa: 075b         	lsls	r3, r3, #0x1d
10001bfc: d5fc         	bpl	0x10001bf8 <GLCD_Initialize+0x970> @ imm = #-0x8
10001bfe: 6803         	ldr	r3, [r0]
10001c00: 231b         	movs	r3, #0x1b
10001c02: 6003         	str	r3, [r0]
10001c04: 6843         	ldr	r3, [r0, #0x4]
10001c06: 075b         	lsls	r3, r3, #0x1d
10001c08: d5fc         	bpl	0x10001c04 <GLCD_Initialize+0x97c> @ imm = #-0x8
10001c0a: 6803         	ldr	r3, [r0]
10001c0c: 680b         	ldr	r3, [r1]
10001c0e: f043 0301    	orr	r3, r3, #0x1
10001c12: 600b         	str	r3, [r1]
10001c14: 6813         	ldr	r3, [r2]
10001c16: f023 0301    	bic	r3, r3, #0x1
10001c1a: 6013         	str	r3, [r2]
10001c1c: 2370         	movs	r3, #0x70
10001c1e: 6003         	str	r3, [r0]
10001c20: 6843         	ldr	r3, [r0, #0x4]
10001c22: 075b         	lsls	r3, r3, #0x1d
10001c24: d5fc         	bpl	0x10001c20 <GLCD_Initialize+0x998> @ imm = #-0x8
10001c26: 6803         	ldr	r3, [r0]
10001c28: 2300         	movs	r3, #0x0
10001c2a: 6003         	str	r3, [r0]
10001c2c: 6843         	ldr	r3, [r0, #0x4]
10001c2e: 075b         	lsls	r3, r3, #0x1d
10001c30: d5fc         	bpl	0x10001c2c <GLCD_Initialize+0x9a4> @ imm = #-0x8
10001c32: 6803         	ldr	r3, [r0]
10001c34: 2351         	movs	r3, #0x51
10001c36: 6003         	str	r3, [r0]
10001c38: 6843         	ldr	r3, [r0, #0x4]
10001c3a: 075b         	lsls	r3, r3, #0x1d
10001c3c: d5fc         	bpl	0x10001c38 <GLCD_Initialize+0x9b0> @ imm = #-0x8
10001c3e: 6803         	ldr	r3, [r0]
10001c40: 680b         	ldr	r3, [r1]
10001c42: f043 0301    	orr	r3, r3, #0x1
10001c46: 600b         	str	r3, [r1]
10001c48: 6813         	ldr	r3, [r2]
10001c4a: f023 0301    	bic	r3, r3, #0x1
10001c4e: 6013         	str	r3, [r2]
10001c50: 2372         	movs	r3, #0x72
10001c52: 6003         	str	r3, [r0]
10001c54: 6843         	ldr	r3, [r0, #0x4]
10001c56: 075b         	lsls	r3, r3, #0x1d
10001c58: d5fc         	bpl	0x10001c54 <GLCD_Initialize+0x9cc> @ imm = #-0x8
10001c5a: 6803         	ldr	r3, [r0]
10001c5c: 2300         	movs	r3, #0x0
10001c5e: 6003         	str	r3, [r0]
10001c60: 6843         	ldr	r3, [r0, #0x4]
10001c62: 075b         	lsls	r3, r3, #0x1d
10001c64: d5fc         	bpl	0x10001c60 <GLCD_Initialize+0x9d8> @ imm = #-0x8
10001c66: 6803         	ldr	r3, [r0]
10001c68: 2331         	movs	r3, #0x31
10001c6a: 6003         	str	r3, [r0]
10001c6c: 6843         	ldr	r3, [r0, #0x4]
10001c6e: 075b         	lsls	r3, r3, #0x1d
10001c70: d5fc         	bpl	0x10001c6c <GLCD_Initialize+0x9e4> @ imm = #-0x8
10001c72: 6803         	ldr	r3, [r0]
10001c74: 680b         	ldr	r3, [r1]
10001c76: f043 0301    	orr	r3, r3, #0x1
10001c7a: 600b         	str	r3, [r1]
10001c7c: 6813         	ldr	r3, [r2]
10001c7e: f023 0301    	bic	r3, r3, #0x1
10001c82: 6013         	str	r3, [r2]
10001c84: 2370         	movs	r3, #0x70
10001c86: 6003         	str	r3, [r0]
10001c88: 6843         	ldr	r3, [r0, #0x4]
10001c8a: 075b         	lsls	r3, r3, #0x1d
10001c8c: d5fc         	bpl	0x10001c88 <GLCD_Initialize+0xa00> @ imm = #-0x8
10001c8e: 6803         	ldr	r3, [r0]
10001c90: 2300         	movs	r3, #0x0
10001c92: 6003         	str	r3, [r0]
10001c94: 6843         	ldr	r3, [r0, #0x4]
10001c96: 075b         	lsls	r3, r3, #0x1d
10001c98: d5fc         	bpl	0x10001c94 <GLCD_Initialize+0xa0c> @ imm = #-0x8
10001c9a: 6803         	ldr	r3, [r0]
10001c9c: 2352         	movs	r3, #0x52
10001c9e: 6003         	str	r3, [r0]
10001ca0: 6843         	ldr	r3, [r0, #0x4]
10001ca2: 075b         	lsls	r3, r3, #0x1d
10001ca4: d5fc         	bpl	0x10001ca0 <GLCD_Initialize+0xa18> @ imm = #-0x8
10001ca6: 6803         	ldr	r3, [r0]
10001ca8: 680b         	ldr	r3, [r1]
10001caa: f043 0301    	orr	r3, r3, #0x1
10001cae: 600b         	str	r3, [r1]
10001cb0: 6813         	ldr	r3, [r2]
10001cb2: f023 0301    	bic	r3, r3, #0x1
10001cb6: 6013         	str	r3, [r2]
10001cb8: 2372         	movs	r3, #0x72
10001cba: 6003         	str	r3, [r0]
10001cbc: 6843         	ldr	r3, [r0, #0x4]
10001cbe: 075b         	lsls	r3, r3, #0x1d
10001cc0: d5fc         	bpl	0x10001cbc <GLCD_Initialize+0xa34> @ imm = #-0x8
10001cc2: 6803         	ldr	r3, [r0]
10001cc4: 2300         	movs	r3, #0x0
10001cc6: 6003         	str	r3, [r0]
10001cc8: 6843         	ldr	r3, [r0, #0x4]
10001cca: 075b         	lsls	r3, r3, #0x1d
10001ccc: d5fc         	bpl	0x10001cc8 <GLCD_Initialize+0xa40> @ imm = #-0x8
10001cce: 6803         	ldr	r3, [r0]
10001cd0: 232f         	movs	r3, #0x2f
10001cd2: 6003         	str	r3, [r0]
10001cd4: 6843         	ldr	r3, [r0, #0x4]
10001cd6: 075b         	lsls	r3, r3, #0x1d
10001cd8: d5fc         	bpl	0x10001cd4 <GLCD_Initialize+0xa4c> @ imm = #-0x8
10001cda: 6803         	ldr	r3, [r0]
10001cdc: 680b         	ldr	r3, [r1]
10001cde: f043 0301    	orr	r3, r3, #0x1
10001ce2: 600b         	str	r3, [r1]
10001ce4: 6813         	ldr	r3, [r2]
10001ce6: f023 0301    	bic	r3, r3, #0x1
10001cea: 6013         	str	r3, [r2]
10001cec: 2370         	movs	r3, #0x70
10001cee: 6003         	str	r3, [r0]
10001cf0: 6843         	ldr	r3, [r0, #0x4]
10001cf2: 075b         	lsls	r3, r3, #0x1d
10001cf4: d5fc         	bpl	0x10001cf0 <GLCD_Initialize+0xa68> @ imm = #-0x8
10001cf6: 6803         	ldr	r3, [r0]
10001cf8: 2300         	movs	r3, #0x0
10001cfa: 6003         	str	r3, [r0]
10001cfc: 6843         	ldr	r3, [r0, #0x4]
10001cfe: 075b         	lsls	r3, r3, #0x1d
10001d00: d5fc         	bpl	0x10001cfc <GLCD_Initialize+0xa74> @ imm = #-0x8
10001d02: 6803         	ldr	r3, [r0]
10001d04: 2353         	movs	r3, #0x53
10001d06: 6003         	str	r3, [r0]
10001d08: 6843         	ldr	r3, [r0, #0x4]
10001d0a: 075b         	lsls	r3, r3, #0x1d
10001d0c: d5fc         	bpl	0x10001d08 <GLCD_Initialize+0xa80> @ imm = #-0x8
10001d0e: 6803         	ldr	r3, [r0]
10001d10: 680b         	ldr	r3, [r1]
10001d12: f043 0301    	orr	r3, r3, #0x1
10001d16: 600b         	str	r3, [r1]
10001d18: 6813         	ldr	r3, [r2]
10001d1a: f023 0301    	bic	r3, r3, #0x1
10001d1e: 6013         	str	r3, [r2]
10001d20: 2372         	movs	r3, #0x72
10001d22: 6003         	str	r3, [r0]
10001d24: 6843         	ldr	r3, [r0, #0x4]
10001d26: 075b         	lsls	r3, r3, #0x1d
10001d28: d5fc         	bpl	0x10001d24 <GLCD_Initialize+0xa9c> @ imm = #-0x8
10001d2a: 6803         	ldr	r3, [r0]
10001d2c: 2300         	movs	r3, #0x0
10001d2e: 6003         	str	r3, [r0]
10001d30: 6843         	ldr	r3, [r0, #0x4]
10001d32: 075b         	lsls	r3, r3, #0x1d
10001d34: d5fc         	bpl	0x10001d30 <GLCD_Initialize+0xaa8> @ imm = #-0x8
10001d36: 6803         	ldr	r3, [r0]
10001d38: 233f         	movs	r3, #0x3f
10001d3a: 6003         	str	r3, [r0]
10001d3c: 6843         	ldr	r3, [r0, #0x4]
10001d3e: 075b         	lsls	r3, r3, #0x1d
10001d40: d5fc         	bpl	0x10001d3c <GLCD_Initialize+0xab4> @ imm = #-0x8
10001d42: 6803         	ldr	r3, [r0]
10001d44: 680b         	ldr	r3, [r1]
10001d46: f043 0301    	orr	r3, r3, #0x1
10001d4a: 600b         	str	r3, [r1]
10001d4c: 6813         	ldr	r3, [r2]
10001d4e: f023 0301    	bic	r3, r3, #0x1
10001d52: 6013         	str	r3, [r2]
10001d54: 2370         	movs	r3, #0x70
10001d56: 6003         	str	r3, [r0]
10001d58: 6843         	ldr	r3, [r0, #0x4]
10001d5a: 075b         	lsls	r3, r3, #0x1d
10001d5c: d5fc         	bpl	0x10001d58 <GLCD_Initialize+0xad0> @ imm = #-0x8
10001d5e: 6803         	ldr	r3, [r0]
10001d60: 2300         	movs	r3, #0x0
10001d62: 6003         	str	r3, [r0]
10001d64: 6843         	ldr	r3, [r0, #0x4]
10001d66: 075b         	lsls	r3, r3, #0x1d
10001d68: d5fc         	bpl	0x10001d64 <GLCD_Initialize+0xadc> @ imm = #-0x8
10001d6a: 6803         	ldr	r3, [r0]
10001d6c: 2354         	movs	r3, #0x54
10001d6e: 6003         	str	r3, [r0]
10001d70: 6843         	ldr	r3, [r0, #0x4]
10001d72: 075b         	lsls	r3, r3, #0x1d
10001d74: d5fc         	bpl	0x10001d70 <GLCD_Initialize+0xae8> @ imm = #-0x8
10001d76: 6803         	ldr	r3, [r0]
10001d78: 680b         	ldr	r3, [r1]
10001d7a: f043 0301    	orr	r3, r3, #0x1
10001d7e: 600b         	str	r3, [r1]
10001d80: 6813         	ldr	r3, [r2]
10001d82: f023 0301    	bic	r3, r3, #0x1
10001d86: 6013         	str	r3, [r2]
10001d88: 2372         	movs	r3, #0x72
10001d8a: 6003         	str	r3, [r0]
10001d8c: 6843         	ldr	r3, [r0, #0x4]
10001d8e: 075b         	lsls	r3, r3, #0x1d
10001d90: d5fc         	bpl	0x10001d8c <GLCD_Initialize+0xb04> @ imm = #-0x8
10001d92: 6803         	ldr	r3, [r0]
10001d94: 2300         	movs	r3, #0x0
10001d96: 6003         	str	r3, [r0]
10001d98: 6843         	ldr	r3, [r0, #0x4]
10001d9a: 075b         	lsls	r3, r3, #0x1d
10001d9c: d5fc         	bpl	0x10001d98 <GLCD_Initialize+0xb10> @ imm = #-0x8
10001d9e: 6803         	ldr	r3, [r0]
10001da0: 233f         	movs	r3, #0x3f
10001da2: 6003         	str	r3, [r0]
10001da4: 6843         	ldr	r3, [r0, #0x4]
10001da6: 075b         	lsls	r3, r3, #0x1d
10001da8: d5fc         	bpl	0x10001da4 <GLCD_Initialize+0xb1c> @ imm = #-0x8
10001daa: 6803         	ldr	r3, [r0]
10001dac: 680b         	ldr	r3, [r1]
10001dae: f043 0301    	orr	r3, r3, #0x1
10001db2: 600b         	str	r3, [r1]
10001db4: 6813         	ldr	r3, [r2]
10001db6: f023 0301    	bic	r3, r3, #0x1
10001dba: 6013         	str	r3, [r2]
10001dbc: 2370         	movs	r3, #0x70
10001dbe: 6003         	str	r3, [r0]
10001dc0: 6843         	ldr	r3, [r0, #0x4]
10001dc2: 075b         	lsls	r3, r3, #0x1d
10001dc4: d5fc         	bpl	0x10001dc0 <GLCD_Initialize+0xb38> @ imm = #-0x8
10001dc6: 6803         	ldr	r3, [r0]
10001dc8: 2300         	movs	r3, #0x0
10001dca: 6003         	str	r3, [r0]
10001dcc: 6843         	ldr	r3, [r0, #0x4]
10001dce: 075b         	lsls	r3, r3, #0x1d
10001dd0: d5fc         	bpl	0x10001dcc <GLCD_Initialize+0xb44> @ imm = #-0x8
10001dd2: 6803         	ldr	r3, [r0]
10001dd4: 2355         	movs	r3, #0x55
10001dd6: 6003         	str	r3, [r0]
10001dd8: 6843         	ldr	r3, [r0, #0x4]
10001dda: 075b         	lsls	r3, r3, #0x1d
10001ddc: d5fc         	bpl	0x10001dd8 <GLCD_Initialize+0xb50> @ imm = #-0x8
10001dde: 6803         	ldr	r3, [r0]
10001de0: 680b         	ldr	r3, [r1]
10001de2: f043 0301    	orr	r3, r3, #0x1
10001de6: 600b         	str	r3, [r1]
10001de8: 6813         	ldr	r3, [r2]
10001dea: f023 0301    	bic	r3, r3, #0x1
10001dee: 6013         	str	r3, [r2]
10001df0: 2372         	movs	r3, #0x72
10001df2: 6003         	str	r3, [r0]
10001df4: 6843         	ldr	r3, [r0, #0x4]
10001df6: 075b         	lsls	r3, r3, #0x1d
10001df8: d5fc         	bpl	0x10001df4 <GLCD_Initialize+0xb6c> @ imm = #-0x8
10001dfa: 6803         	ldr	r3, [r0]
10001dfc: 2300         	movs	r3, #0x0
10001dfe: 6003         	str	r3, [r0]
10001e00: 6843         	ldr	r3, [r0, #0x4]
10001e02: 075b         	lsls	r3, r3, #0x1d
10001e04: d5fc         	bpl	0x10001e00 <GLCD_Initialize+0xb78> @ imm = #-0x8
10001e06: 6803         	ldr	r3, [r0]
10001e08: 233e         	movs	r3, #0x3e
10001e0a: 6003         	str	r3, [r0]
10001e0c: 6843         	ldr	r3, [r0, #0x4]
10001e0e: 075b         	lsls	r3, r3, #0x1d
10001e10: d5fc         	bpl	0x10001e0c <GLCD_Initialize+0xb84> @ imm = #-0x8
10001e12: 6803         	ldr	r3, [r0]
10001e14: 680b         	ldr	r3, [r1]
10001e16: f043 0301    	orr	r3, r3, #0x1
10001e1a: 600b         	str	r3, [r1]
10001e1c: 6813         	ldr	r3, [r2]
10001e1e: f023 0301    	bic	r3, r3, #0x1
10001e22: 6013         	str	r3, [r2]
10001e24: 2370         	movs	r3, #0x70
10001e26: 6003         	str	r3, [r0]
10001e28: 6843         	ldr	r3, [r0, #0x4]
10001e2a: 075b         	lsls	r3, r3, #0x1d
10001e2c: d5fc         	bpl	0x10001e28 <GLCD_Initialize+0xba0> @ imm = #-0x8
10001e2e: 6803         	ldr	r3, [r0]
10001e30: 2300         	movs	r3, #0x0
10001e32: 6003         	str	r3, [r0]
10001e34: 6843         	ldr	r3, [r0, #0x4]
10001e36: 075b         	lsls	r3, r3, #0x1d
10001e38: d5fc         	bpl	0x10001e34 <GLCD_Initialize+0xbac> @ imm = #-0x8
10001e3a: 6803         	ldr	r3, [r0]
10001e3c: 2356         	movs	r3, #0x56
10001e3e: 6003         	str	r3, [r0]
10001e40: 6843         	ldr	r3, [r0, #0x4]
10001e42: 075b         	lsls	r3, r3, #0x1d
10001e44: d5fc         	bpl	0x10001e40 <GLCD_Initialize+0xbb8> @ imm = #-0x8
10001e46: 6803         	ldr	r3, [r0]
10001e48: 680b         	ldr	r3, [r1]
10001e4a: f043 0301    	orr	r3, r3, #0x1
10001e4e: 600b         	str	r3, [r1]
10001e50: 6813         	ldr	r3, [r2]
10001e52: f023 0301    	bic	r3, r3, #0x1
10001e56: 6013         	str	r3, [r2]
10001e58: 2372         	movs	r3, #0x72
10001e5a: 6003         	str	r3, [r0]
10001e5c: 6843         	ldr	r3, [r0, #0x4]
10001e5e: 075b         	lsls	r3, r3, #0x1d
10001e60: d5fc         	bpl	0x10001e5c <GLCD_Initialize+0xbd4> @ imm = #-0x8
10001e62: 6803         	ldr	r3, [r0]
10001e64: 2300         	movs	r3, #0x0
10001e66: 6003         	str	r3, [r0]
10001e68: 6843         	ldr	r3, [r0, #0x4]
10001e6a: 075b         	lsls	r3, r3, #0x1d
10001e6c: d5fc         	bpl	0x10001e68 <GLCD_Initialize+0xbe0> @ imm = #-0x8
10001e6e: 6803         	ldr	r3, [r0]
10001e70: 232f         	movs	r3, #0x2f
10001e72: 6003         	str	r3, [r0]
10001e74: 6843         	ldr	r3, [r0, #0x4]
10001e76: 075b         	lsls	r3, r3, #0x1d
10001e78: d5fc         	bpl	0x10001e74 <GLCD_Initialize+0xbec> @ imm = #-0x8
10001e7a: 6803         	ldr	r3, [r0]
10001e7c: 680b         	ldr	r3, [r1]
10001e7e: f043 0301    	orr	r3, r3, #0x1
10001e82: 600b         	str	r3, [r1]
10001e84: 6813         	ldr	r3, [r2]
10001e86: f023 0301    	bic	r3, r3, #0x1
10001e8a: 6013         	str	r3, [r2]
10001e8c: 2370         	movs	r3, #0x70
10001e8e: 6003         	str	r3, [r0]
10001e90: 6843         	ldr	r3, [r0, #0x4]
10001e92: 075b         	lsls	r3, r3, #0x1d
10001e94: d5fc         	bpl	0x10001e90 <GLCD_Initialize+0xc08> @ imm = #-0x8
10001e96: 6803         	ldr	r3, [r0]
10001e98: 2300         	movs	r3, #0x0
10001e9a: 6003         	str	r3, [r0]
10001e9c: 6843         	ldr	r3, [r0, #0x4]
10001e9e: 075b         	lsls	r3, r3, #0x1d
10001ea0: d5fc         	bpl	0x10001e9c <GLCD_Initialize+0xc14> @ imm = #-0x8
10001ea2: 6803         	ldr	r3, [r0]
10001ea4: 2357         	movs	r3, #0x57
10001ea6: 6003         	str	r3, [r0]
10001ea8: 6843         	ldr	r3, [r0, #0x4]
10001eaa: 075b         	lsls	r3, r3, #0x1d
10001eac: d5fc         	bpl	0x10001ea8 <GLCD_Initialize+0xc20> @ imm = #-0x8
10001eae: 6803         	ldr	r3, [r0]
10001eb0: 680b         	ldr	r3, [r1]
10001eb2: f043 0301    	orr	r3, r3, #0x1
10001eb6: 600b         	str	r3, [r1]
10001eb8: 6813         	ldr	r3, [r2]
10001eba: f023 0301    	bic	r3, r3, #0x1
10001ebe: 6013         	str	r3, [r2]
10001ec0: 2372         	movs	r3, #0x72
10001ec2: 6003         	str	r3, [r0]
10001ec4: 6843         	ldr	r3, [r0, #0x4]
10001ec6: 075b         	lsls	r3, r3, #0x1d
10001ec8: d5fc         	bpl	0x10001ec4 <GLCD_Initialize+0xc3c> @ imm = #-0x8
10001eca: 6803         	ldr	r3, [r0]
10001ecc: 2300         	movs	r3, #0x0
10001ece: 6003         	str	r3, [r0]
10001ed0: 6843         	ldr	r3, [r0, #0x4]
10001ed2: 075b         	lsls	r3, r3, #0x1d
10001ed4: d5fc         	bpl	0x10001ed0 <GLCD_Initialize+0xc48> @ imm = #-0x8
10001ed6: 6803         	ldr	r3, [r0]
10001ed8: 237b         	movs	r3, #0x7b
10001eda: 6003         	str	r3, [r0]
10001edc: 6843         	ldr	r3, [r0, #0x4]
10001ede: 075b         	lsls	r3, r3, #0x1d
10001ee0: d5fc         	bpl	0x10001edc <GLCD_Initialize+0xc54> @ imm = #-0x8
10001ee2: 6803         	ldr	r3, [r0]
10001ee4: 680b         	ldr	r3, [r1]
10001ee6: f043 0301    	orr	r3, r3, #0x1
10001eea: 600b         	str	r3, [r1]
10001eec: 6813         	ldr	r3, [r2]
10001eee: f023 0301    	bic	r3, r3, #0x1
10001ef2: 6013         	str	r3, [r2]
10001ef4: 2370         	movs	r3, #0x70
10001ef6: 6003         	str	r3, [r0]
10001ef8: 6843         	ldr	r3, [r0, #0x4]
10001efa: 075b         	lsls	r3, r3, #0x1d
10001efc: d5fc         	bpl	0x10001ef8 <GLCD_Initialize+0xc70> @ imm = #-0x8
10001efe: 6803         	ldr	r3, [r0]
10001f00: 2300         	movs	r3, #0x0
10001f02: 6003         	str	r3, [r0]
10001f04: 6843         	ldr	r3, [r0, #0x4]
10001f06: 075b         	lsls	r3, r3, #0x1d
10001f08: d5fc         	bpl	0x10001f04 <GLCD_Initialize+0xc7c> @ imm = #-0x8
10001f0a: 6803         	ldr	r3, [r0]
10001f0c: 2358         	movs	r3, #0x58
10001f0e: 6003         	str	r3, [r0]
10001f10: 6843         	ldr	r3, [r0, #0x4]
10001f12: 075b         	lsls	r3, r3, #0x1d
10001f14: d5fc         	bpl	0x10001f10 <GLCD_Initialize+0xc88> @ imm = #-0x8
10001f16: 6803         	ldr	r3, [r0]
10001f18: 680b         	ldr	r3, [r1]
10001f1a: f043 0301    	orr	r3, r3, #0x1
10001f1e: 600b         	str	r3, [r1]
10001f20: 6813         	ldr	r3, [r2]
10001f22: f023 0301    	bic	r3, r3, #0x1
10001f26: 6013         	str	r3, [r2]
10001f28: 2372         	movs	r3, #0x72
10001f2a: 6003         	str	r3, [r0]
10001f2c: 6843         	ldr	r3, [r0, #0x4]
10001f2e: 075b         	lsls	r3, r3, #0x1d
10001f30: d5fc         	bpl	0x10001f2c <GLCD_Initialize+0xca4> @ imm = #-0x8
10001f32: 6803         	ldr	r3, [r0]
10001f34: 2300         	movs	r3, #0x0
10001f36: 6003         	str	r3, [r0]
10001f38: 6843         	ldr	r3, [r0, #0x4]
10001f3a: 075b         	lsls	r3, r3, #0x1d
10001f3c: d5fc         	bpl	0x10001f38 <GLCD_Initialize+0xcb0> @ imm = #-0x8
10001f3e: 6803         	ldr	r3, [r0]
10001f40: 2309         	movs	r3, #0x9
10001f42: 6003         	str	r3, [r0]
10001f44: 6843         	ldr	r3, [r0, #0x4]
10001f46: 075b         	lsls	r3, r3, #0x1d
10001f48: d5fc         	bpl	0x10001f44 <GLCD_Initialize+0xcbc> @ imm = #-0x8
10001f4a: 6803         	ldr	r3, [r0]
10001f4c: 680b         	ldr	r3, [r1]
10001f4e: f043 0301    	orr	r3, r3, #0x1
10001f52: 600b         	str	r3, [r1]
10001f54: 6813         	ldr	r3, [r2]
10001f56: f023 0301    	bic	r3, r3, #0x1
10001f5a: 6013         	str	r3, [r2]
10001f5c: 2370         	movs	r3, #0x70
10001f5e: 6003         	str	r3, [r0]
10001f60: 6843         	ldr	r3, [r0, #0x4]
10001f62: 075b         	lsls	r3, r3, #0x1d
10001f64: d5fc         	bpl	0x10001f60 <GLCD_Initialize+0xcd8> @ imm = #-0x8
10001f66: 6803         	ldr	r3, [r0]
10001f68: 2300         	movs	r3, #0x0
10001f6a: 6003         	str	r3, [r0]
10001f6c: 6843         	ldr	r3, [r0, #0x4]
10001f6e: 075b         	lsls	r3, r3, #0x1d
10001f70: d5fc         	bpl	0x10001f6c <GLCD_Initialize+0xce4> @ imm = #-0x8
10001f72: 6803         	ldr	r3, [r0]
10001f74: 2359         	movs	r3, #0x59
10001f76: 6003         	str	r3, [r0]
10001f78: 6843         	ldr	r3, [r0, #0x4]
10001f7a: 075b         	lsls	r3, r3, #0x1d
10001f7c: d5fc         	bpl	0x10001f78 <GLCD_Initialize+0xcf0> @ imm = #-0x8
10001f7e: 6803         	ldr	r3, [r0]
10001f80: 680b         	ldr	r3, [r1]
10001f82: f043 0301    	orr	r3, r3, #0x1
10001f86: 600b         	str	r3, [r1]
10001f88: 6813         	ldr	r3, [r2]
10001f8a: f023 0301    	bic	r3, r3, #0x1
10001f8e: 6013         	str	r3, [r2]
10001f90: 2372         	movs	r3, #0x72
10001f92: 6003         	str	r3, [r0]
10001f94: 6843         	ldr	r3, [r0, #0x4]
10001f96: 075b         	lsls	r3, r3, #0x1d
10001f98: d5fc         	bpl	0x10001f94 <GLCD_Initialize+0xd0c> @ imm = #-0x8
10001f9a: 6803         	ldr	r3, [r0]
10001f9c: 2300         	movs	r3, #0x0
10001f9e: 6003         	str	r3, [r0]
10001fa0: 6843         	ldr	r3, [r0, #0x4]
10001fa2: 075b         	lsls	r3, r3, #0x1d
10001fa4: d5fc         	bpl	0x10001fa0 <GLCD_Initialize+0xd18> @ imm = #-0x8
10001fa6: 6803         	ldr	r3, [r0]
10001fa8: 2306         	movs	r3, #0x6
10001faa: 6003         	str	r3, [r0]
10001fac: 6843         	ldr	r3, [r0, #0x4]
10001fae: 075b         	lsls	r3, r3, #0x1d
10001fb0: d5fc         	bpl	0x10001fac <GLCD_Initialize+0xd24> @ imm = #-0x8
10001fb2: 6803         	ldr	r3, [r0]
10001fb4: 680b         	ldr	r3, [r1]
10001fb6: f043 0301    	orr	r3, r3, #0x1
10001fba: 600b         	str	r3, [r1]
10001fbc: 6813         	ldr	r3, [r2]
10001fbe: f023 0301    	bic	r3, r3, #0x1
10001fc2: 6013         	str	r3, [r2]
10001fc4: 2370         	movs	r3, #0x70
10001fc6: 6003         	str	r3, [r0]
10001fc8: 6843         	ldr	r3, [r0, #0x4]
10001fca: 075b         	lsls	r3, r3, #0x1d
10001fcc: d5fc         	bpl	0x10001fc8 <GLCD_Initialize+0xd40> @ imm = #-0x8
10001fce: 6803         	ldr	r3, [r0]
10001fd0: 2300         	movs	r3, #0x0
10001fd2: 6003         	str	r3, [r0]
10001fd4: 6843         	ldr	r3, [r0, #0x4]
10001fd6: 075b         	lsls	r3, r3, #0x1d
10001fd8: d5fc         	bpl	0x10001fd4 <GLCD_Initialize+0xd4c> @ imm = #-0x8
10001fda: 6803         	ldr	r3, [r0]
10001fdc: 235a         	movs	r3, #0x5a
10001fde: 6003         	str	r3, [r0]
10001fe0: 6843         	ldr	r3, [r0, #0x4]
10001fe2: 075b         	lsls	r3, r3, #0x1d
10001fe4: d5fc         	bpl	0x10001fe0 <GLCD_Initialize+0xd58> @ imm = #-0x8
10001fe6: 6803         	ldr	r3, [r0]
10001fe8: 680b         	ldr	r3, [r1]
10001fea: f043 0301    	orr	r3, r3, #0x1
10001fee: 600b         	str	r3, [r1]
10001ff0: 6813         	ldr	r3, [r2]
10001ff2: f023 0301    	bic	r3, r3, #0x1
10001ff6: 6013         	str	r3, [r2]
10001ff8: 2372         	movs	r3, #0x72
10001ffa: 6003         	str	r3, [r0]
10001ffc: 6843         	ldr	r3, [r0, #0x4]
10001ffe: 075b         	lsls	r3, r3, #0x1d
10002000: d5fc         	bpl	0x10001ffc <GLCD_Initialize+0xd74> @ imm = #-0x8
10002002: 6803         	ldr	r3, [r0]
10002004: 2300         	movs	r3, #0x0
10002006: 6003         	str	r3, [r0]
10002008: 6843         	ldr	r3, [r0, #0x4]
1000200a: 075b         	lsls	r3, r3, #0x1d
1000200c: d5fc         	bpl	0x10002008 <GLCD_Initialize+0xd80> @ imm = #-0x8
1000200e: 6803         	ldr	r3, [r0]
10002010: 2306         	movs	r3, #0x6
10002012: 6003         	str	r3, [r0]
10002014: 6843         	ldr	r3, [r0, #0x4]
10002016: 075b         	lsls	r3, r3, #0x1d
10002018: d5fc         	bpl	0x10002014 <GLCD_Initialize+0xd8c> @ imm = #-0x8
1000201a: 6803         	ldr	r3, [r0]
1000201c: 680b         	ldr	r3, [r1]
1000201e: f043 0301    	orr	r3, r3, #0x1
10002022: 600b         	str	r3, [r1]
10002024: 6813         	ldr	r3, [r2]
10002026: f023 0301    	bic	r3, r3, #0x1
1000202a: 6013         	str	r3, [r2]
1000202c: 2370         	movs	r3, #0x70
1000202e: 6003         	str	r3, [r0]
10002030: 6843         	ldr	r3, [r0, #0x4]
10002032: 075b         	lsls	r3, r3, #0x1d
10002034: d5fc         	bpl	0x10002030 <GLCD_Initialize+0xda8> @ imm = #-0x8
10002036: 6803         	ldr	r3, [r0]
10002038: 2300         	movs	r3, #0x0
1000203a: 6003         	str	r3, [r0]
1000203c: 6843         	ldr	r3, [r0, #0x4]
1000203e: 075b         	lsls	r3, r3, #0x1d
10002040: d5fc         	bpl	0x1000203c <GLCD_Initialize+0xdb4> @ imm = #-0x8
10002042: 6803         	ldr	r3, [r0]
10002044: 235b         	movs	r3, #0x5b
10002046: 6003         	str	r3, [r0]
10002048: 6843         	ldr	r3, [r0, #0x4]
1000204a: 075b         	lsls	r3, r3, #0x1d
1000204c: d5fc         	bpl	0x10002048 <GLCD_Initialize+0xdc0> @ imm = #-0x8
1000204e: 6803         	ldr	r3, [r0]
10002050: 680b         	ldr	r3, [r1]
10002052: f043 0301    	orr	r3, r3, #0x1
10002056: 600b         	str	r3, [r1]
10002058: 6813         	ldr	r3, [r2]
1000205a: f023 0301    	bic	r3, r3, #0x1
1000205e: 6013         	str	r3, [r2]
10002060: 2372         	movs	r3, #0x72
10002062: 6003         	str	r3, [r0]
10002064: 6843         	ldr	r3, [r0, #0x4]
10002066: 075b         	lsls	r3, r3, #0x1d
10002068: d5fc         	bpl	0x10002064 <GLCD_Initialize+0xddc> @ imm = #-0x8
1000206a: 6803         	ldr	r3, [r0]
1000206c: 2300         	movs	r3, #0x0
1000206e: 6003         	str	r3, [r0]
10002070: 6843         	ldr	r3, [r0, #0x4]
10002072: 075b         	lsls	r3, r3, #0x1d
10002074: d5fc         	bpl	0x10002070 <GLCD_Initialize+0xde8> @ imm = #-0x8
10002076: 6803         	ldr	r3, [r0]
10002078: 230c         	movs	r3, #0xc
1000207a: 6003         	str	r3, [r0]
1000207c: 6843         	ldr	r3, [r0, #0x4]
1000207e: 075b         	lsls	r3, r3, #0x1d
10002080: d5fc         	bpl	0x1000207c <GLCD_Initialize+0xdf4> @ imm = #-0x8
10002082: 6803         	ldr	r3, [r0]
10002084: 680b         	ldr	r3, [r1]
10002086: f043 0301    	orr	r3, r3, #0x1
1000208a: 600b         	str	r3, [r1]
1000208c: 6813         	ldr	r3, [r2]
1000208e: f023 0301    	bic	r3, r3, #0x1
10002092: 6013         	str	r3, [r2]
10002094: 2370         	movs	r3, #0x70
10002096: 6003         	str	r3, [r0]
10002098: 6843         	ldr	r3, [r0, #0x4]
1000209a: 075b         	lsls	r3, r3, #0x1d
1000209c: d5fc         	bpl	0x10002098 <GLCD_Initialize+0xe10> @ imm = #-0x8
1000209e: 6803         	ldr	r3, [r0]
100020a0: 2300         	movs	r3, #0x0
100020a2: 6003         	str	r3, [r0]
100020a4: 6843         	ldr	r3, [r0, #0x4]
100020a6: 075b         	lsls	r3, r3, #0x1d
100020a8: d5fc         	bpl	0x100020a4 <GLCD_Initialize+0xe1c> @ imm = #-0x8
100020aa: 6803         	ldr	r3, [r0]
100020ac: 235c         	movs	r3, #0x5c
100020ae: 6003         	str	r3, [r0]
100020b0: 6843         	ldr	r3, [r0, #0x4]
100020b2: 075b         	lsls	r3, r3, #0x1d
100020b4: d5fc         	bpl	0x100020b0 <GLCD_Initialize+0xe28> @ imm = #-0x8
100020b6: 6803         	ldr	r3, [r0]
100020b8: 680b         	ldr	r3, [r1]
100020ba: f043 0301    	orr	r3, r3, #0x1
100020be: 600b         	str	r3, [r1]
100020c0: 6813         	ldr	r3, [r2]
100020c2: f023 0301    	bic	r3, r3, #0x1
100020c6: 6013         	str	r3, [r2]
100020c8: 2372         	movs	r3, #0x72
100020ca: 6003         	str	r3, [r0]
100020cc: 6843         	ldr	r3, [r0, #0x4]
100020ce: 075b         	lsls	r3, r3, #0x1d
100020d0: d5fc         	bpl	0x100020cc <GLCD_Initialize+0xe44> @ imm = #-0x8
100020d2: 6803         	ldr	r3, [r0]
100020d4: 2300         	movs	r3, #0x0
100020d6: 6003         	str	r3, [r0]
100020d8: 6843         	ldr	r3, [r0, #0x4]
100020da: 075b         	lsls	r3, r3, #0x1d
100020dc: d5fc         	bpl	0x100020d8 <GLCD_Initialize+0xe50> @ imm = #-0x8
100020de: 6803         	ldr	r3, [r0]
100020e0: 231d         	movs	r3, #0x1d
100020e2: 6003         	str	r3, [r0]
100020e4: 6843         	ldr	r3, [r0, #0x4]
100020e6: 075b         	lsls	r3, r3, #0x1d
100020e8: d5fc         	bpl	0x100020e4 <GLCD_Initialize+0xe5c> @ imm = #-0x8
100020ea: 6803         	ldr	r3, [r0]
100020ec: 680b         	ldr	r3, [r1]
100020ee: f043 0301    	orr	r3, r3, #0x1
100020f2: 600b         	str	r3, [r1]
100020f4: 6813         	ldr	r3, [r2]
100020f6: f023 0301    	bic	r3, r3, #0x1
100020fa: 6013         	str	r3, [r2]
100020fc: 2370         	movs	r3, #0x70
100020fe: 6003         	str	r3, [r0]
10002100: 6843         	ldr	r3, [r0, #0x4]
10002102: 075b         	lsls	r3, r3, #0x1d
10002104: d5fc         	bpl	0x10002100 <GLCD_Initialize+0xe78> @ imm = #-0x8
10002106: 6803         	ldr	r3, [r0]
10002108: 2300         	movs	r3, #0x0
1000210a: 6003         	str	r3, [r0]
1000210c: 6843         	ldr	r3, [r0, #0x4]
1000210e: 075b         	lsls	r3, r3, #0x1d
10002110: d5fc         	bpl	0x1000210c <GLCD_Initialize+0xe84> @ imm = #-0x8
10002112: 6803         	ldr	r3, [r0]
10002114: 235d         	movs	r3, #0x5d
10002116: 6003         	str	r3, [r0]
10002118: 6843         	ldr	r3, [r0, #0x4]
1000211a: 075b         	lsls	r3, r3, #0x1d
1000211c: d5fc         	bpl	0x10002118 <GLCD_Initialize+0xe90> @ imm = #-0x8
1000211e: 6803         	ldr	r3, [r0]
10002120: 680b         	ldr	r3, [r1]
10002122: f043 0301    	orr	r3, r3, #0x1
10002126: 600b         	str	r3, [r1]
10002128: 6813         	ldr	r3, [r2]
1000212a: f023 0301    	bic	r3, r3, #0x1
1000212e: 6013         	str	r3, [r2]
10002130: 2372         	movs	r3, #0x72
10002132: 6003         	str	r3, [r0]
10002134: 6843         	ldr	r3, [r0, #0x4]
10002136: 075b         	lsls	r3, r3, #0x1d
10002138: d5fc         	bpl	0x10002134 <GLCD_Initialize+0xeac> @ imm = #-0x8
1000213a: 6803         	ldr	r3, [r0]
1000213c: 2300         	movs	r3, #0x0
1000213e: 6003         	str	r3, [r0]
10002140: 6843         	ldr	r3, [r0, #0x4]
10002142: 075b         	lsls	r3, r3, #0x1d
10002144: d5fc         	bpl	0x10002140 <GLCD_Initialize+0xeb8> @ imm = #-0x8
10002146: 6803         	ldr	r3, [r0]
10002148: 23cc         	movs	r3, #0xcc
1000214a: 6003         	str	r3, [r0]
1000214c: 6843         	ldr	r3, [r0, #0x4]
1000214e: 075b         	lsls	r3, r3, #0x1d
10002150: d5fc         	bpl	0x1000214c <GLCD_Initialize+0xec4> @ imm = #-0x8
10002152: 6803         	ldr	r3, [r0]
10002154: 680b         	ldr	r3, [r1]
10002156: f043 0301    	orr	r3, r3, #0x1
1000215a: 600b         	str	r3, [r1]
1000215c: 6813         	ldr	r3, [r2]
1000215e: f023 0301    	bic	r3, r3, #0x1
10002162: 6013         	str	r3, [r2]
10002164: 2370         	movs	r3, #0x70
10002166: 6003         	str	r3, [r0]
10002168: 6843         	ldr	r3, [r0, #0x4]
1000216a: 075b         	lsls	r3, r3, #0x1d
1000216c: d5fc         	bpl	0x10002168 <GLCD_Initialize+0xee0> @ imm = #-0x8
1000216e: 6803         	ldr	r3, [r0]
10002170: 2300         	movs	r3, #0x0
10002172: 6003         	str	r3, [r0]
10002174: 6843         	ldr	r3, [r0, #0x4]
10002176: 075b         	lsls	r3, r3, #0x1d
10002178: d5fc         	bpl	0x10002174 <GLCD_Initialize+0xeec> @ imm = #-0x8
1000217a: 6803         	ldr	r3, [r0]
1000217c: 231b         	movs	r3, #0x1b
1000217e: 6003         	str	r3, [r0]
10002180: 6843         	ldr	r3, [r0, #0x4]
10002182: 075b         	lsls	r3, r3, #0x1d
10002184: d5fc         	bpl	0x10002180 <GLCD_Initialize+0xef8> @ imm = #-0x8
10002186: 6803         	ldr	r3, [r0]
10002188: 680b         	ldr	r3, [r1]
1000218a: f043 0301    	orr	r3, r3, #0x1
1000218e: 600b         	str	r3, [r1]
10002190: 6813         	ldr	r3, [r2]
10002192: f023 0301    	bic	r3, r3, #0x1
10002196: 6013         	str	r3, [r2]
10002198: 2372         	movs	r3, #0x72
1000219a: 6003         	str	r3, [r0]
1000219c: 6843         	ldr	r3, [r0, #0x4]
1000219e: 075b         	lsls	r3, r3, #0x1d
100021a0: d5fc         	bpl	0x1000219c <GLCD_Initialize+0xf14> @ imm = #-0x8
100021a2: 6803         	ldr	r3, [r0]
100021a4: 2300         	movs	r3, #0x0
100021a6: 6003         	str	r3, [r0]
100021a8: 6843         	ldr	r3, [r0, #0x4]
100021aa: 075b         	lsls	r3, r3, #0x1d
100021ac: d5fc         	bpl	0x100021a8 <GLCD_Initialize+0xf20> @ imm = #-0x8
100021ae: 6803         	ldr	r3, [r0]
100021b0: 231b         	movs	r3, #0x1b
100021b2: 6003         	str	r3, [r0]
100021b4: 6843         	ldr	r3, [r0, #0x4]
100021b6: 075b         	lsls	r3, r3, #0x1d
100021b8: d5fc         	bpl	0x100021b4 <GLCD_Initialize+0xf2c> @ imm = #-0x8
100021ba: 6803         	ldr	r3, [r0]
100021bc: 680b         	ldr	r3, [r1]
100021be: f043 0301    	orr	r3, r3, #0x1
100021c2: 600b         	str	r3, [r1]
100021c4: 6813         	ldr	r3, [r2]
100021c6: f023 0301    	bic	r3, r3, #0x1
100021ca: 6013         	str	r3, [r2]
100021cc: 2370         	movs	r3, #0x70
100021ce: 6003         	str	r3, [r0]
100021d0: 6843         	ldr	r3, [r0, #0x4]
100021d2: 075b         	lsls	r3, r3, #0x1d
100021d4: d5fc         	bpl	0x100021d0 <GLCD_Initialize+0xf48> @ imm = #-0x8
100021d6: 6803         	ldr	r3, [r0]
100021d8: 2300         	movs	r3, #0x0
100021da: 6003         	str	r3, [r0]
100021dc: 6843         	ldr	r3, [r0, #0x4]
100021de: 075b         	lsls	r3, r3, #0x1d
100021e0: d5fc         	bpl	0x100021dc <GLCD_Initialize+0xf54> @ imm = #-0x8
100021e2: 6803         	ldr	r3, [r0]
100021e4: 231a         	movs	r3, #0x1a
100021e6: 6003         	str	r3, [r0]
100021e8: 6843         	ldr	r3, [r0, #0x4]
100021ea: 075b         	lsls	r3, r3, #0x1d
100021ec: d5fc         	bpl	0x100021e8 <GLCD_Initialize+0xf60> @ imm = #-0x8
100021ee: 6803         	ldr	r3, [r0]
100021f0: 680b         	ldr	r3, [r1]
100021f2: f043 0301    	orr	r3, r3, #0x1
100021f6: 600b         	str	r3, [r1]
100021f8: 6813         	ldr	r3, [r2]
100021fa: f023 0301    	bic	r3, r3, #0x1
100021fe: 6013         	str	r3, [r2]
10002200: 2372         	movs	r3, #0x72
10002202: 6003         	str	r3, [r0]
10002204: 6843         	ldr	r3, [r0, #0x4]
10002206: 075b         	lsls	r3, r3, #0x1d
10002208: d5fc         	bpl	0x10002204 <GLCD_Initialize+0xf7c> @ imm = #-0x8
1000220a: 6803         	ldr	r3, [r0]
1000220c: 2300         	movs	r3, #0x0
1000220e: 6003         	str	r3, [r0]
10002210: 6843         	ldr	r3, [r0, #0x4]
10002212: 075b         	lsls	r3, r3, #0x1d
10002214: d5fc         	bpl	0x10002210 <GLCD_Initialize+0xf88> @ imm = #-0x8
10002216: 6803         	ldr	r3, [r0]
10002218: 2301         	movs	r3, #0x1
1000221a: 6003         	str	r3, [r0]
1000221c: 6843         	ldr	r3, [r0, #0x4]
1000221e: 075b         	lsls	r3, r3, #0x1d
10002220: d5fc         	bpl	0x1000221c <GLCD_Initialize+0xf94> @ imm = #-0x8
10002222: 6803         	ldr	r3, [r0]
10002224: 680b         	ldr	r3, [r1]
10002226: f043 0301    	orr	r3, r3, #0x1
1000222a: 600b         	str	r3, [r1]
1000222c: 6813         	ldr	r3, [r2]
1000222e: f023 0301    	bic	r3, r3, #0x1
10002232: 6013         	str	r3, [r2]
10002234: 2370         	movs	r3, #0x70
10002236: 6003         	str	r3, [r0]
10002238: 6843         	ldr	r3, [r0, #0x4]
1000223a: 075b         	lsls	r3, r3, #0x1d
1000223c: d5fc         	bpl	0x10002238 <GLCD_Initialize+0xfb0> @ imm = #-0x8
1000223e: 6803         	ldr	r3, [r0]
10002240: 2300         	movs	r3, #0x0
10002242: 6003         	str	r3, [r0]
10002244: 6843         	ldr	r3, [r0, #0x4]
10002246: 075b         	lsls	r3, r3, #0x1d
10002248: d5fc         	bpl	0x10002244 <GLCD_Initialize+0xfbc> @ imm = #-0x8
1000224a: 6803         	ldr	r3, [r0]
1000224c: 2324         	movs	r3, #0x24
1000224e: 6003         	str	r3, [r0]
10002250: 6843         	ldr	r3, [r0, #0x4]
10002252: 075b         	lsls	r3, r3, #0x1d
10002254: d5fc         	bpl	0x10002250 <GLCD_Initialize+0xfc8> @ imm = #-0x8
10002256: 6803         	ldr	r3, [r0]
10002258: 680b         	ldr	r3, [r1]
1000225a: f043 0301    	orr	r3, r3, #0x1
1000225e: 600b         	str	r3, [r1]
10002260: 6813         	ldr	r3, [r2]
10002262: f023 0301    	bic	r3, r3, #0x1
10002266: 6013         	str	r3, [r2]
10002268: 2372         	movs	r3, #0x72
1000226a: 6003         	str	r3, [r0]
1000226c: 6843         	ldr	r3, [r0, #0x4]
1000226e: 075b         	lsls	r3, r3, #0x1d
10002270: d5fc         	bpl	0x1000226c <GLCD_Initialize+0xfe4> @ imm = #-0x8
10002272: 6803         	ldr	r3, [r0]
10002274: 2300         	movs	r3, #0x0
10002276: 6003         	str	r3, [r0]
10002278: 6843         	ldr	r3, [r0, #0x4]
1000227a: 075b         	lsls	r3, r3, #0x1d
1000227c: d5fc         	bpl	0x10002278 <GLCD_Initialize+0xff0> @ imm = #-0x8
1000227e: 6803         	ldr	r3, [r0]
10002280: 232f         	movs	r3, #0x2f
10002282: 6003         	str	r3, [r0]
10002284: 6843         	ldr	r3, [r0, #0x4]
10002286: 075b         	lsls	r3, r3, #0x1d
10002288: d5fc         	bpl	0x10002284 <GLCD_Initialize+0xffc> @ imm = #-0x8
1000228a: 6803         	ldr	r3, [r0]
1000228c: 680b         	ldr	r3, [r1]
1000228e: f043 0301    	orr	r3, r3, #0x1
10002292: 600b         	str	r3, [r1]
10002294: 6813         	ldr	r3, [r2]
10002296: f023 0301    	bic	r3, r3, #0x1
1000229a: 6013         	str	r3, [r2]
1000229c: 2370         	movs	r3, #0x70
1000229e: 6003         	str	r3, [r0]
100022a0: 6843         	ldr	r3, [r0, #0x4]
100022a2: 075b         	lsls	r3, r3, #0x1d
100022a4: d5fc         	bpl	0x100022a0 <GLCD_Initialize+0x1018> @ imm = #-0x8
100022a6: 6803         	ldr	r3, [r0]
100022a8: 2300         	movs	r3, #0x0
100022aa: 6003         	str	r3, [r0]
100022ac: 6843         	ldr	r3, [r0, #0x4]
100022ae: 075b         	lsls	r3, r3, #0x1d
100022b0: d5fc         	bpl	0x100022ac <GLCD_Initialize+0x1024> @ imm = #-0x8
100022b2: 6803         	ldr	r3, [r0]
100022b4: 2325         	movs	r3, #0x25
100022b6: 6003         	str	r3, [r0]
100022b8: 6843         	ldr	r3, [r0, #0x4]
100022ba: 075b         	lsls	r3, r3, #0x1d
100022bc: d5fc         	bpl	0x100022b8 <GLCD_Initialize+0x1030> @ imm = #-0x8
100022be: 6803         	ldr	r3, [r0]
100022c0: 680b         	ldr	r3, [r1]
100022c2: f043 0301    	orr	r3, r3, #0x1
100022c6: 600b         	str	r3, [r1]
100022c8: 6813         	ldr	r3, [r2]
100022ca: f023 0301    	bic	r3, r3, #0x1
100022ce: 6013         	str	r3, [r2]
100022d0: 2372         	movs	r3, #0x72
100022d2: 6003         	str	r3, [r0]
100022d4: 6843         	ldr	r3, [r0, #0x4]
100022d6: 075b         	lsls	r3, r3, #0x1d
100022d8: d5fc         	bpl	0x100022d4 <GLCD_Initialize+0x104c> @ imm = #-0x8
100022da: 6803         	ldr	r3, [r0]
100022dc: 2300         	movs	r3, #0x0
100022de: 6003         	str	r3, [r0]
100022e0: 6843         	ldr	r3, [r0, #0x4]
100022e2: 075b         	lsls	r3, r3, #0x1d
100022e4: d5fc         	bpl	0x100022e0 <GLCD_Initialize+0x1058> @ imm = #-0x8
100022e6: 6803         	ldr	r3, [r0]
100022e8: 2357         	movs	r3, #0x57
100022ea: 6003         	str	r3, [r0]
100022ec: 6843         	ldr	r3, [r0, #0x4]
100022ee: 075b         	lsls	r3, r3, #0x1d
100022f0: d5fc         	bpl	0x100022ec <GLCD_Initialize+0x1064> @ imm = #-0x8
100022f2: 6803         	ldr	r3, [r0]
100022f4: 680b         	ldr	r3, [r1]
100022f6: f043 0301    	orr	r3, r3, #0x1
100022fa: 600b         	str	r3, [r1]
100022fc: 6813         	ldr	r3, [r2]
100022fe: f023 0301    	bic	r3, r3, #0x1
10002302: 6013         	str	r3, [r2]
10002304: 2370         	movs	r3, #0x70
10002306: 6003         	str	r3, [r0]
10002308: 6843         	ldr	r3, [r0, #0x4]
1000230a: 075b         	lsls	r3, r3, #0x1d
1000230c: d5fc         	bpl	0x10002308 <GLCD_Initialize+0x1080> @ imm = #-0x8
1000230e: 6803         	ldr	r3, [r0]
10002310: 2300         	movs	r3, #0x0
10002312: 6003         	str	r3, [r0]
10002314: 6843         	ldr	r3, [r0, #0x4]
10002316: 075b         	lsls	r3, r3, #0x1d
10002318: d5fc         	bpl	0x10002314 <GLCD_Initialize+0x108c> @ imm = #-0x8
1000231a: 6803         	ldr	r3, [r0]
1000231c: 2323         	movs	r3, #0x23
1000231e: 6003         	str	r3, [r0]
10002320: 6843         	ldr	r3, [r0, #0x4]
10002322: 075b         	lsls	r3, r3, #0x1d
10002324: d5fc         	bpl	0x10002320 <GLCD_Initialize+0x1098> @ imm = #-0x8
10002326: 6803         	ldr	r3, [r0]
10002328: 680b         	ldr	r3, [r1]
1000232a: f043 0301    	orr	r3, r3, #0x1
1000232e: 600b         	str	r3, [r1]
10002330: 6813         	ldr	r3, [r2]
10002332: f023 0301    	bic	r3, r3, #0x1
10002336: 6013         	str	r3, [r2]
10002338: 2372         	movs	r3, #0x72
1000233a: 6003         	str	r3, [r0]
1000233c: 6843         	ldr	r3, [r0, #0x4]
1000233e: 075b         	lsls	r3, r3, #0x1d
10002340: d5fc         	bpl	0x1000233c <GLCD_Initialize+0x10b4> @ imm = #-0x8
10002342: 6803         	ldr	r3, [r0]
10002344: 2300         	movs	r3, #0x0
10002346: 6003         	str	r3, [r0]
10002348: 6843         	ldr	r3, [r0, #0x4]
1000234a: 075b         	lsls	r3, r3, #0x1d
1000234c: d5fc         	bpl	0x10002348 <GLCD_Initialize+0x10c0> @ imm = #-0x8
1000234e: 6803         	ldr	r3, [r0]
10002350: 2388         	movs	r3, #0x88
10002352: 6003         	str	r3, [r0]
10002354: 6843         	ldr	r3, [r0, #0x4]
10002356: 075b         	lsls	r3, r3, #0x1d
10002358: d5fc         	bpl	0x10002354 <GLCD_Initialize+0x10cc> @ imm = #-0x8
1000235a: 6803         	ldr	r3, [r0]
1000235c: 680b         	ldr	r3, [r1]
1000235e: f043 0301    	orr	r3, r3, #0x1
10002362: 600b         	str	r3, [r1]
10002364: 6813         	ldr	r3, [r2]
10002366: f023 0301    	bic	r3, r3, #0x1
1000236a: 6013         	str	r3, [r2]
1000236c: 2370         	movs	r3, #0x70
1000236e: 6003         	str	r3, [r0]
10002370: 6843         	ldr	r3, [r0, #0x4]
10002372: 075b         	lsls	r3, r3, #0x1d
10002374: d5fc         	bpl	0x10002370 <GLCD_Initialize+0x10e8> @ imm = #-0x8
10002376: 6803         	ldr	r3, [r0]
10002378: 2300         	movs	r3, #0x0
1000237a: 6003         	str	r3, [r0]
1000237c: 6843         	ldr	r3, [r0, #0x4]
1000237e: 075b         	lsls	r3, r3, #0x1d
10002380: d5fc         	bpl	0x1000237c <GLCD_Initialize+0x10f4> @ imm = #-0x8
10002382: 6803         	ldr	r3, [r0]
10002384: 2318         	movs	r3, #0x18
10002386: 6003         	str	r3, [r0]
10002388: 6843         	ldr	r3, [r0, #0x4]
1000238a: 075b         	lsls	r3, r3, #0x1d
1000238c: d5fc         	bpl	0x10002388 <GLCD_Initialize+0x1100> @ imm = #-0x8
1000238e: 6803         	ldr	r3, [r0]
10002390: 680b         	ldr	r3, [r1]
10002392: f043 0301    	orr	r3, r3, #0x1
10002396: 600b         	str	r3, [r1]
10002398: 6813         	ldr	r3, [r2]
1000239a: f023 0301    	bic	r3, r3, #0x1
1000239e: 6013         	str	r3, [r2]
100023a0: 2372         	movs	r3, #0x72
100023a2: 6003         	str	r3, [r0]
100023a4: 6843         	ldr	r3, [r0, #0x4]
100023a6: 075b         	lsls	r3, r3, #0x1d
100023a8: d5fc         	bpl	0x100023a4 <GLCD_Initialize+0x111c> @ imm = #-0x8
100023aa: 6803         	ldr	r3, [r0]
100023ac: 2300         	movs	r3, #0x0
100023ae: 6003         	str	r3, [r0]
100023b0: 6843         	ldr	r3, [r0, #0x4]
100023b2: 075b         	lsls	r3, r3, #0x1d
100023b4: d5fc         	bpl	0x100023b0 <GLCD_Initialize+0x1128> @ imm = #-0x8
100023b6: 6803         	ldr	r3, [r0]
100023b8: 2336         	movs	r3, #0x36
100023ba: 6003         	str	r3, [r0]
100023bc: 6843         	ldr	r3, [r0, #0x4]
100023be: 075b         	lsls	r3, r3, #0x1d
100023c0: d5fc         	bpl	0x100023bc <GLCD_Initialize+0x1134> @ imm = #-0x8
100023c2: 6803         	ldr	r3, [r0]
100023c4: 680b         	ldr	r3, [r1]
100023c6: f043 0301    	orr	r3, r3, #0x1
100023ca: 600b         	str	r3, [r1]
100023cc: 6813         	ldr	r3, [r2]
100023ce: f023 0301    	bic	r3, r3, #0x1
100023d2: 6013         	str	r3, [r2]
100023d4: 2370         	movs	r3, #0x70
100023d6: 6003         	str	r3, [r0]
100023d8: 6843         	ldr	r3, [r0, #0x4]
100023da: 075b         	lsls	r3, r3, #0x1d
100023dc: d5fc         	bpl	0x100023d8 <GLCD_Initialize+0x1150> @ imm = #-0x8
100023de: 6803         	ldr	r3, [r0]
100023e0: 2300         	movs	r3, #0x0
100023e2: 6003         	str	r3, [r0]
100023e4: 6843         	ldr	r3, [r0, #0x4]
100023e6: 075b         	lsls	r3, r3, #0x1d
100023e8: d5fc         	bpl	0x100023e4 <GLCD_Initialize+0x115c> @ imm = #-0x8
100023ea: 6803         	ldr	r3, [r0]
100023ec: 2319         	movs	r3, #0x19
100023ee: 6003         	str	r3, [r0]
100023f0: 6843         	ldr	r3, [r0, #0x4]
100023f2: 075b         	lsls	r3, r3, #0x1d
100023f4: d5fc         	bpl	0x100023f0 <GLCD_Initialize+0x1168> @ imm = #-0x8
100023f6: 6803         	ldr	r3, [r0]
100023f8: 680b         	ldr	r3, [r1]
100023fa: f043 0301    	orr	r3, r3, #0x1
100023fe: 600b         	str	r3, [r1]
10002400: 6813         	ldr	r3, [r2]
10002402: f023 0301    	bic	r3, r3, #0x1
10002406: 6013         	str	r3, [r2]
10002408: 2372         	movs	r3, #0x72
1000240a: 6003         	str	r3, [r0]
1000240c: 6843         	ldr	r3, [r0, #0x4]
1000240e: 075b         	lsls	r3, r3, #0x1d
10002410: d5fc         	bpl	0x1000240c <GLCD_Initialize+0x1184> @ imm = #-0x8
10002412: 6803         	ldr	r3, [r0]
10002414: 2300         	movs	r3, #0x0
10002416: 6003         	str	r3, [r0]
10002418: 6843         	ldr	r3, [r0, #0x4]
1000241a: 075b         	lsls	r3, r3, #0x1d
1000241c: d5fc         	bpl	0x10002418 <GLCD_Initialize+0x1190> @ imm = #-0x8
1000241e: 6803         	ldr	r3, [r0]
10002420: 2301         	movs	r3, #0x1
10002422: 6003         	str	r3, [r0]
10002424: 6843         	ldr	r3, [r0, #0x4]
10002426: 075b         	lsls	r3, r3, #0x1d
10002428: d5fc         	bpl	0x10002424 <GLCD_Initialize+0x119c> @ imm = #-0x8
1000242a: 6803         	ldr	r3, [r0]
1000242c: 680b         	ldr	r3, [r1]
1000242e: f043 0301    	orr	r3, r3, #0x1
10002432: 600b         	str	r3, [r1]
10002434: 6813         	ldr	r3, [r2]
10002436: f023 0301    	bic	r3, r3, #0x1
1000243a: 6013         	str	r3, [r2]
1000243c: 2370         	movs	r3, #0x70
1000243e: 6003         	str	r3, [r0]
10002440: 6843         	ldr	r3, [r0, #0x4]
10002442: 075b         	lsls	r3, r3, #0x1d
10002444: d5fc         	bpl	0x10002440 <GLCD_Initialize+0x11b8> @ imm = #-0x8
10002446: 6803         	ldr	r3, [r0]
10002448: 2300         	movs	r3, #0x0
1000244a: 6003         	str	r3, [r0]
1000244c: 6843         	ldr	r3, [r0, #0x4]
1000244e: 075b         	lsls	r3, r3, #0x1d
10002450: d5fc         	bpl	0x1000244c <GLCD_Initialize+0x11c4> @ imm = #-0x8
10002452: 6803         	ldr	r3, [r0]
10002454: 2301         	movs	r3, #0x1
10002456: 6003         	str	r3, [r0]
10002458: 6843         	ldr	r3, [r0, #0x4]
1000245a: 075b         	lsls	r3, r3, #0x1d
1000245c: d5fc         	bpl	0x10002458 <GLCD_Initialize+0x11d0> @ imm = #-0x8
1000245e: 6803         	ldr	r3, [r0]
10002460: 680b         	ldr	r3, [r1]
10002462: f043 0301    	orr	r3, r3, #0x1
10002466: 600b         	str	r3, [r1]
10002468: 6813         	ldr	r3, [r2]
1000246a: f023 0301    	bic	r3, r3, #0x1
1000246e: 6013         	str	r3, [r2]
10002470: 2372         	movs	r3, #0x72
10002472: 6003         	str	r3, [r0]
10002474: 6843         	ldr	r3, [r0, #0x4]
10002476: 075b         	lsls	r3, r3, #0x1d
10002478: d5fc         	bpl	0x10002474 <GLCD_Initialize+0x11ec> @ imm = #-0x8
1000247a: 6803         	ldr	r3, [r0]
1000247c: 2300         	movs	r3, #0x0
1000247e: 6003         	str	r3, [r0]
10002480: 6843         	ldr	r3, [r0, #0x4]
10002482: 075b         	lsls	r3, r3, #0x1d
10002484: d5fc         	bpl	0x10002480 <GLCD_Initialize+0x11f8> @ imm = #-0x8
10002486: 6803         	ldr	r3, [r0]
10002488: 2300         	movs	r3, #0x0
1000248a: 6003         	str	r3, [r0]
1000248c: 6843         	ldr	r3, [r0, #0x4]
1000248e: 075b         	lsls	r3, r3, #0x1d
10002490: d5fc         	bpl	0x1000248c <GLCD_Initialize+0x1204> @ imm = #-0x8
10002492: 6803         	ldr	r3, [r0]
10002494: 680b         	ldr	r3, [r1]
10002496: f043 0301    	orr	r3, r3, #0x1
1000249a: 600b         	str	r3, [r1]
1000249c: 6813         	ldr	r3, [r2]
1000249e: f023 0301    	bic	r3, r3, #0x1
100024a2: 6013         	str	r3, [r2]
100024a4: 2370         	movs	r3, #0x70
100024a6: 6003         	str	r3, [r0]
100024a8: 6843         	ldr	r3, [r0, #0x4]
100024aa: 075b         	lsls	r3, r3, #0x1d
100024ac: d5fc         	bpl	0x100024a8 <GLCD_Initialize+0x1220> @ imm = #-0x8
100024ae: 6803         	ldr	r3, [r0]
100024b0: 2300         	movs	r3, #0x0
100024b2: 6003         	str	r3, [r0]
100024b4: 6843         	ldr	r3, [r0, #0x4]
100024b6: 075b         	lsls	r3, r3, #0x1d
100024b8: d5fc         	bpl	0x100024b4 <GLCD_Initialize+0x122c> @ imm = #-0x8
100024ba: 6803         	ldr	r3, [r0]
100024bc: 231f         	movs	r3, #0x1f
100024be: 6003         	str	r3, [r0]
100024c0: 6843         	ldr	r3, [r0, #0x4]
100024c2: 075b         	lsls	r3, r3, #0x1d
100024c4: d5fc         	bpl	0x100024c0 <GLCD_Initialize+0x1238> @ imm = #-0x8
100024c6: 6803         	ldr	r3, [r0]
100024c8: 680b         	ldr	r3, [r1]
100024ca: f043 0301    	orr	r3, r3, #0x1
100024ce: 600b         	str	r3, [r1]
100024d0: 6813         	ldr	r3, [r2]
100024d2: f023 0301    	bic	r3, r3, #0x1
100024d6: 6013         	str	r3, [r2]
100024d8: 2372         	movs	r3, #0x72
100024da: 6003         	str	r3, [r0]
100024dc: 6843         	ldr	r3, [r0, #0x4]
100024de: 075b         	lsls	r3, r3, #0x1d
100024e0: d5fc         	bpl	0x100024dc <GLCD_Initialize+0x1254> @ imm = #-0x8
100024e2: 6803         	ldr	r3, [r0]
100024e4: 2300         	movs	r3, #0x0
100024e6: 6003         	str	r3, [r0]
100024e8: 6843         	ldr	r3, [r0, #0x4]
100024ea: 075b         	lsls	r3, r3, #0x1d
100024ec: d5fc         	bpl	0x100024e8 <GLCD_Initialize+0x1260> @ imm = #-0x8
100024ee: 6803         	ldr	r3, [r0]
100024f0: 2388         	movs	r3, #0x88
100024f2: 6003         	str	r3, [r0]
100024f4: 6843         	ldr	r3, [r0, #0x4]
100024f6: 075b         	lsls	r3, r3, #0x1d
100024f8: d5fc         	bpl	0x100024f4 <GLCD_Initialize+0x126c> @ imm = #-0x8
100024fa: 6803         	ldr	r3, [r0]
100024fc: 680b         	ldr	r3, [r1]
100024fe: f043 0301    	orr	r3, r3, #0x1
10002502: 600b         	str	r3, [r1]
10002504: f8de 3000    	ldr.w	r3, [lr]
10002508: f5b3 7f7a    	cmp.w	r3, #0x3e8
1000250c: d309         	blo	0x10002522 <GLCD_Initialize+0x129a> @ imm = #0x12
1000250e: fba3 340c    	umull	r3, r4, r3, r12
10002512: 09a3         	lsrs	r3, r4, #0x6
10002514: f06f 0431    	mvn	r4, #0x31
10002518: fb03 f304    	mul	r3, r3, r4
1000251c: 3301         	adds	r3, #0x1
1000251e: bf00         	nop
10002520: d3fc         	blo	0x1000251c <GLCD_Initialize+0x1294> @ imm = #-0x8
10002522: 6813         	ldr	r3, [r2]
10002524: f023 0301    	bic	r3, r3, #0x1
10002528: 6013         	str	r3, [r2]
1000252a: 2370         	movs	r3, #0x70
1000252c: 6003         	str	r3, [r0]
1000252e: bf00         	nop
10002530: 6843         	ldr	r3, [r0, #0x4]
10002532: 075b         	lsls	r3, r3, #0x1d
10002534: d5fc         	bpl	0x10002530 <GLCD_Initialize+0x12a8> @ imm = #-0x8
10002536: 6803         	ldr	r3, [r0]
10002538: 2300         	movs	r3, #0x0
1000253a: 6003         	str	r3, [r0]
1000253c: 6843         	ldr	r3, [r0, #0x4]
1000253e: 075b         	lsls	r3, r3, #0x1d
10002540: d5fc         	bpl	0x1000253c <GLCD_Initialize+0x12b4> @ imm = #-0x8
10002542: 6803         	ldr	r3, [r0]
10002544: 231f         	movs	r3, #0x1f
10002546: 6003         	str	r3, [r0]
10002548: 6843         	ldr	r3, [r0, #0x4]
1000254a: 075b         	lsls	r3, r3, #0x1d
1000254c: d5fc         	bpl	0x10002548 <GLCD_Initialize+0x12c0> @ imm = #-0x8
1000254e: 6803         	ldr	r3, [r0]
10002550: 680b         	ldr	r3, [r1]
10002552: f043 0301    	orr	r3, r3, #0x1
10002556: 600b         	str	r3, [r1]
10002558: 6813         	ldr	r3, [r2]
1000255a: f023 0301    	bic	r3, r3, #0x1
1000255e: 6013         	str	r3, [r2]
10002560: 2372         	movs	r3, #0x72
10002562: 6003         	str	r3, [r0]
10002564: 6843         	ldr	r3, [r0, #0x4]
10002566: 075b         	lsls	r3, r3, #0x1d
10002568: d5fc         	bpl	0x10002564 <GLCD_Initialize+0x12dc> @ imm = #-0x8
1000256a: 6803         	ldr	r3, [r0]
1000256c: 2300         	movs	r3, #0x0
1000256e: 6003         	str	r3, [r0]
10002570: 6843         	ldr	r3, [r0, #0x4]
10002572: 075b         	lsls	r3, r3, #0x1d
10002574: d5fc         	bpl	0x10002570 <GLCD_Initialize+0x12e8> @ imm = #-0x8
10002576: 6803         	ldr	r3, [r0]
10002578: 2382         	movs	r3, #0x82
1000257a: 6003         	str	r3, [r0]
1000257c: 6843         	ldr	r3, [r0, #0x4]
1000257e: 075b         	lsls	r3, r3, #0x1d
10002580: d5fc         	bpl	0x1000257c <GLCD_Initialize+0x12f4> @ imm = #-0x8
10002582: 6803         	ldr	r3, [r0]
10002584: 680b         	ldr	r3, [r1]
10002586: f043 0301    	orr	r3, r3, #0x1
1000258a: 600b         	str	r3, [r1]
1000258c: f8de 3000    	ldr.w	r3, [lr]
10002590: f5b3 7f7a    	cmp.w	r3, #0x3e8
10002594: d309         	blo	0x100025aa <GLCD_Initialize+0x1322> @ imm = #0x12
10002596: fba3 340c    	umull	r3, r4, r3, r12
1000259a: 09a3         	lsrs	r3, r4, #0x6
1000259c: eb03 0383    	add.w	r3, r3, r3, lsl #2
100025a0: 425b         	rsbs	r3, r3, #0
100025a2: 005b         	lsls	r3, r3, #0x1
100025a4: 3301         	adds	r3, #0x1
100025a6: bf00         	nop
100025a8: d3fc         	blo	0x100025a4 <GLCD_Initialize+0x131c> @ imm = #-0x8
100025aa: 6813         	ldr	r3, [r2]
100025ac: f023 0301    	bic	r3, r3, #0x1
100025b0: 6013         	str	r3, [r2]
100025b2: 2370         	movs	r3, #0x70
100025b4: 6003         	str	r3, [r0]
100025b6: bf00         	nop
100025b8: 6843         	ldr	r3, [r0, #0x4]
100025ba: 075b         	lsls	r3, r3, #0x1d
100025bc: d5fc         	bpl	0x100025b8 <GLCD_Initialize+0x1330> @ imm = #-0x8
100025be: 6803         	ldr	r3, [r0]
100025c0: 2300         	movs	r3, #0x0
100025c2: 6003         	str	r3, [r0]
100025c4: 6843         	ldr	r3, [r0, #0x4]
100025c6: 075b         	lsls	r3, r3, #0x1d
100025c8: d5fc         	bpl	0x100025c4 <GLCD_Initialize+0x133c> @ imm = #-0x8
100025ca: 6803         	ldr	r3, [r0]
100025cc: 231f         	movs	r3, #0x1f
100025ce: 6003         	str	r3, [r0]
100025d0: 6843         	ldr	r3, [r0, #0x4]
100025d2: 075b         	lsls	r3, r3, #0x1d
100025d4: d5fc         	bpl	0x100025d0 <GLCD_Initialize+0x1348> @ imm = #-0x8
100025d6: 6803         	ldr	r3, [r0]
100025d8: 680b         	ldr	r3, [r1]
100025da: f043 0301    	orr	r3, r3, #0x1
100025de: 600b         	str	r3, [r1]
100025e0: 6813         	ldr	r3, [r2]
100025e2: f023 0301    	bic	r3, r3, #0x1
100025e6: 6013         	str	r3, [r2]
100025e8: 2372         	movs	r3, #0x72
100025ea: 6003         	str	r3, [r0]
100025ec: 6843         	ldr	r3, [r0, #0x4]
100025ee: 075b         	lsls	r3, r3, #0x1d
100025f0: d5fc         	bpl	0x100025ec <GLCD_Initialize+0x1364> @ imm = #-0x8
100025f2: 6803         	ldr	r3, [r0]
100025f4: 2300         	movs	r3, #0x0
100025f6: 6003         	str	r3, [r0]
100025f8: 6843         	ldr	r3, [r0, #0x4]
100025fa: 075b         	lsls	r3, r3, #0x1d
100025fc: d5fc         	bpl	0x100025f8 <GLCD_Initialize+0x1370> @ imm = #-0x8
100025fe: 6803         	ldr	r3, [r0]
10002600: 2392         	movs	r3, #0x92
10002602: 6003         	str	r3, [r0]
10002604: 6843         	ldr	r3, [r0, #0x4]
10002606: 075b         	lsls	r3, r3, #0x1d
10002608: d5fc         	bpl	0x10002604 <GLCD_Initialize+0x137c> @ imm = #-0x8
1000260a: 6803         	ldr	r3, [r0]
1000260c: 680b         	ldr	r3, [r1]
1000260e: f043 0301    	orr	r3, r3, #0x1
10002612: 600b         	str	r3, [r1]
10002614: f8de 3000    	ldr.w	r3, [lr]
10002618: f5b3 7f7a    	cmp.w	r3, #0x3e8
1000261c: d309         	blo	0x10002632 <GLCD_Initialize+0x13aa> @ imm = #0x12
1000261e: fba3 340c    	umull	r3, r4, r3, r12
10002622: 09a3         	lsrs	r3, r4, #0x6
10002624: eb03 0383    	add.w	r3, r3, r3, lsl #2
10002628: 425b         	rsbs	r3, r3, #0
1000262a: 005b         	lsls	r3, r3, #0x1
1000262c: 3301         	adds	r3, #0x1
1000262e: bf00         	nop
10002630: d3fc         	blo	0x1000262c <GLCD_Initialize+0x13a4> @ imm = #-0x8
10002632: 6813         	ldr	r3, [r2]
10002634: f023 0301    	bic	r3, r3, #0x1
10002638: 6013         	str	r3, [r2]
1000263a: 2370         	movs	r3, #0x70
1000263c: 6003         	str	r3, [r0]
1000263e: bf00         	nop
10002640: 6843         	ldr	r3, [r0, #0x4]
10002642: 075b         	lsls	r3, r3, #0x1d
10002644: d5fc         	bpl	0x10002640 <GLCD_Initialize+0x13b8> @ imm = #-0x8
10002646: 6803         	ldr	r3, [r0]
10002648: 2300         	movs	r3, #0x0
1000264a: 6003         	str	r3, [r0]
1000264c: 6843         	ldr	r3, [r0, #0x4]
1000264e: 075b         	lsls	r3, r3, #0x1d
10002650: d5fc         	bpl	0x1000264c <GLCD_Initialize+0x13c4> @ imm = #-0x8
10002652: 6803         	ldr	r3, [r0]
10002654: 231f         	movs	r3, #0x1f
10002656: 6003         	str	r3, [r0]
10002658: 6843         	ldr	r3, [r0, #0x4]
1000265a: 075b         	lsls	r3, r3, #0x1d
1000265c: d5fc         	bpl	0x10002658 <GLCD_Initialize+0x13d0> @ imm = #-0x8
1000265e: 6803         	ldr	r3, [r0]
10002660: 680b         	ldr	r3, [r1]
10002662: f043 0301    	orr	r3, r3, #0x1
10002666: 600b         	str	r3, [r1]
10002668: 6813         	ldr	r3, [r2]
1000266a: f023 0301    	bic	r3, r3, #0x1
1000266e: 6013         	str	r3, [r2]
10002670: 2372         	movs	r3, #0x72
10002672: 6003         	str	r3, [r0]
10002674: 6843         	ldr	r3, [r0, #0x4]
10002676: 075b         	lsls	r3, r3, #0x1d
10002678: d5fc         	bpl	0x10002674 <GLCD_Initialize+0x13ec> @ imm = #-0x8
1000267a: 6803         	ldr	r3, [r0]
1000267c: 2300         	movs	r3, #0x0
1000267e: 6003         	str	r3, [r0]
10002680: 6843         	ldr	r3, [r0, #0x4]
10002682: 075b         	lsls	r3, r3, #0x1d
10002684: d5fc         	bpl	0x10002680 <GLCD_Initialize+0x13f8> @ imm = #-0x8
10002686: 6803         	ldr	r3, [r0]
10002688: 23d2         	movs	r3, #0xd2
1000268a: 6003         	str	r3, [r0]
1000268c: 6843         	ldr	r3, [r0, #0x4]
1000268e: 075b         	lsls	r3, r3, #0x1d
10002690: d5fc         	bpl	0x1000268c <GLCD_Initialize+0x1404> @ imm = #-0x8
10002692: 6803         	ldr	r3, [r0]
10002694: 680b         	ldr	r3, [r1]
10002696: f043 0301    	orr	r3, r3, #0x1
1000269a: 600b         	str	r3, [r1]
1000269c: f8de 3000    	ldr.w	r3, [lr]
100026a0: f5b3 7f7a    	cmp.w	r3, #0x3e8
100026a4: d309         	blo	0x100026ba <GLCD_Initialize+0x1432> @ imm = #0x12
100026a6: fba3 340c    	umull	r3, r4, r3, r12
100026aa: 09a3         	lsrs	r3, r4, #0x6
100026ac: eb03 0383    	add.w	r3, r3, r3, lsl #2
100026b0: 425b         	rsbs	r3, r3, #0
100026b2: 005b         	lsls	r3, r3, #0x1
100026b4: 3301         	adds	r3, #0x1
100026b6: bf00         	nop
100026b8: d3fc         	blo	0x100026b4 <GLCD_Initialize+0x142c> @ imm = #-0x8
100026ba: 6813         	ldr	r3, [r2]
100026bc: f023 0301    	bic	r3, r3, #0x1
100026c0: 6013         	str	r3, [r2]
100026c2: 2370         	movs	r3, #0x70
100026c4: 6003         	str	r3, [r0]
100026c6: bf00         	nop
100026c8: 6843         	ldr	r3, [r0, #0x4]
100026ca: 075b         	lsls	r3, r3, #0x1d
100026cc: d5fc         	bpl	0x100026c8 <GLCD_Initialize+0x1440> @ imm = #-0x8
100026ce: 6803         	ldr	r3, [r0]
100026d0: 2300         	movs	r3, #0x0
100026d2: 6003         	str	r3, [r0]
100026d4: 6843         	ldr	r3, [r0, #0x4]
100026d6: 075b         	lsls	r3, r3, #0x1d
100026d8: d5fc         	bpl	0x100026d4 <GLCD_Initialize+0x144c> @ imm = #-0x8
100026da: 6803         	ldr	r3, [r0]
100026dc: 2317         	movs	r3, #0x17
100026de: 6003         	str	r3, [r0]
100026e0: 6843         	ldr	r3, [r0, #0x4]
100026e2: 075b         	lsls	r3, r3, #0x1d
100026e4: d5fc         	bpl	0x100026e0 <GLCD_Initialize+0x1458> @ imm = #-0x8
100026e6: 6803         	ldr	r3, [r0]
100026e8: 680b         	ldr	r3, [r1]
100026ea: f043 0301    	orr	r3, r3, #0x1
100026ee: 600b         	str	r3, [r1]
100026f0: 6813         	ldr	r3, [r2]
100026f2: f023 0301    	bic	r3, r3, #0x1
100026f6: 6013         	str	r3, [r2]
100026f8: 2372         	movs	r3, #0x72
100026fa: 6003         	str	r3, [r0]
100026fc: 6843         	ldr	r3, [r0, #0x4]
100026fe: 075b         	lsls	r3, r3, #0x1d
10002700: d5fc         	bpl	0x100026fc <GLCD_Initialize+0x1474> @ imm = #-0x8
10002702: 6803         	ldr	r3, [r0]
10002704: 2300         	movs	r3, #0x0
10002706: 6003         	str	r3, [r0]
10002708: 6843         	ldr	r3, [r0, #0x4]
1000270a: 075b         	lsls	r3, r3, #0x1d
1000270c: d5fc         	bpl	0x10002708 <GLCD_Initialize+0x1480> @ imm = #-0x8
1000270e: 6803         	ldr	r3, [r0]
10002710: 2355         	movs	r3, #0x55
10002712: 6003         	str	r3, [r0]
10002714: 6843         	ldr	r3, [r0, #0x4]
10002716: 075b         	lsls	r3, r3, #0x1d
10002718: d5fc         	bpl	0x10002714 <GLCD_Initialize+0x148c> @ imm = #-0x8
1000271a: 6803         	ldr	r3, [r0]
1000271c: 680b         	ldr	r3, [r1]
1000271e: f043 0301    	orr	r3, r3, #0x1
10002722: 600b         	str	r3, [r1]
10002724: 6813         	ldr	r3, [r2]
10002726: f023 0301    	bic	r3, r3, #0x1
1000272a: 6013         	str	r3, [r2]
1000272c: 2370         	movs	r3, #0x70
1000272e: 6003         	str	r3, [r0]
10002730: 6843         	ldr	r3, [r0, #0x4]
10002732: 075b         	lsls	r3, r3, #0x1d
10002734: d5fc         	bpl	0x10002730 <GLCD_Initialize+0x14a8> @ imm = #-0x8
10002736: 6803         	ldr	r3, [r0]
10002738: 2300         	movs	r3, #0x0
1000273a: 6003         	str	r3, [r0]
1000273c: 6843         	ldr	r3, [r0, #0x4]
1000273e: 075b         	lsls	r3, r3, #0x1d
10002740: d5fc         	bpl	0x1000273c <GLCD_Initialize+0x14b4> @ imm = #-0x8
10002742: 6803         	ldr	r3, [r0]
10002744: 2300         	movs	r3, #0x0
10002746: 6003         	str	r3, [r0]
10002748: 6843         	ldr	r3, [r0, #0x4]
1000274a: 075b         	lsls	r3, r3, #0x1d
1000274c: d5fc         	bpl	0x10002748 <GLCD_Initialize+0x14c0> @ imm = #-0x8
1000274e: 6803         	ldr	r3, [r0]
10002750: 680b         	ldr	r3, [r1]
10002752: f043 0301    	orr	r3, r3, #0x1
10002756: 600b         	str	r3, [r1]
10002758: 6813         	ldr	r3, [r2]
1000275a: f023 0301    	bic	r3, r3, #0x1
1000275e: 6013         	str	r3, [r2]
10002760: 2372         	movs	r3, #0x72
10002762: 6003         	str	r3, [r0]
10002764: 6843         	ldr	r3, [r0, #0x4]
10002766: 075b         	lsls	r3, r3, #0x1d
10002768: d5fc         	bpl	0x10002764 <GLCD_Initialize+0x14dc> @ imm = #-0x8
1000276a: 6803         	ldr	r3, [r0]
1000276c: 2300         	movs	r3, #0x0
1000276e: 6003         	str	r3, [r0]
10002770: 6843         	ldr	r3, [r0, #0x4]
10002772: 075b         	lsls	r3, r3, #0x1d
10002774: d5fc         	bpl	0x10002770 <GLCD_Initialize+0x14e8> @ imm = #-0x8
10002776: 6803         	ldr	r3, [r0]
10002778: 2300         	movs	r3, #0x0
1000277a: 6003         	str	r3, [r0]
1000277c: 6843         	ldr	r3, [r0, #0x4]
1000277e: 075b         	lsls	r3, r3, #0x1d
10002780: d5fc         	bpl	0x1000277c <GLCD_Initialize+0x14f4> @ imm = #-0x8
10002782: 6803         	ldr	r3, [r0]
10002784: 680b         	ldr	r3, [r1]
10002786: f043 0301    	orr	r3, r3, #0x1
1000278a: 600b         	str	r3, [r1]
1000278c: 6813         	ldr	r3, [r2]
1000278e: f023 0301    	bic	r3, r3, #0x1
10002792: 6013         	str	r3, [r2]
10002794: 2370         	movs	r3, #0x70
10002796: 6003         	str	r3, [r0]
10002798: 6843         	ldr	r3, [r0, #0x4]
1000279a: 075b         	lsls	r3, r3, #0x1d
1000279c: d5fc         	bpl	0x10002798 <GLCD_Initialize+0x1510> @ imm = #-0x8
1000279e: 6803         	ldr	r3, [r0]
100027a0: 2300         	movs	r3, #0x0
100027a2: 6003         	str	r3, [r0]
100027a4: 6843         	ldr	r3, [r0, #0x4]
100027a6: 075b         	lsls	r3, r3, #0x1d
100027a8: d5fc         	bpl	0x100027a4 <GLCD_Initialize+0x151c> @ imm = #-0x8
100027aa: 6803         	ldr	r3, [r0]
100027ac: 232f         	movs	r3, #0x2f
100027ae: 6003         	str	r3, [r0]
100027b0: 6843         	ldr	r3, [r0, #0x4]
100027b2: 075b         	lsls	r3, r3, #0x1d
100027b4: d5fc         	bpl	0x100027b0 <GLCD_Initialize+0x1528> @ imm = #-0x8
100027b6: 6803         	ldr	r3, [r0]
100027b8: 680b         	ldr	r3, [r1]
100027ba: f043 0301    	orr	r3, r3, #0x1
100027be: 600b         	str	r3, [r1]
100027c0: 6813         	ldr	r3, [r2]
100027c2: f023 0301    	bic	r3, r3, #0x1
100027c6: 6013         	str	r3, [r2]
100027c8: 2372         	movs	r3, #0x72
100027ca: 6003         	str	r3, [r0]
100027cc: 6843         	ldr	r3, [r0, #0x4]
100027ce: 075b         	lsls	r3, r3, #0x1d
100027d0: d5fc         	bpl	0x100027cc <GLCD_Initialize+0x1544> @ imm = #-0x8
100027d2: 6803         	ldr	r3, [r0]
100027d4: 2300         	movs	r3, #0x0
100027d6: 6003         	str	r3, [r0]
100027d8: 6843         	ldr	r3, [r0, #0x4]
100027da: 075b         	lsls	r3, r3, #0x1d
100027dc: d5fc         	bpl	0x100027d8 <GLCD_Initialize+0x1550> @ imm = #-0x8
100027de: 6803         	ldr	r3, [r0]
100027e0: 2311         	movs	r3, #0x11
100027e2: 6003         	str	r3, [r0]
100027e4: 6843         	ldr	r3, [r0, #0x4]
100027e6: 075b         	lsls	r3, r3, #0x1d
100027e8: d5fc         	bpl	0x100027e4 <GLCD_Initialize+0x155c> @ imm = #-0x8
100027ea: 6803         	ldr	r3, [r0]
100027ec: 680b         	ldr	r3, [r1]
100027ee: f043 0301    	orr	r3, r3, #0x1
100027f2: 600b         	str	r3, [r1]
100027f4: 6813         	ldr	r3, [r2]
100027f6: f023 0301    	bic	r3, r3, #0x1
100027fa: 6013         	str	r3, [r2]
100027fc: 2370         	movs	r3, #0x70
100027fe: 6003         	str	r3, [r0]
10002800: 6843         	ldr	r3, [r0, #0x4]
10002802: 075b         	lsls	r3, r3, #0x1d
10002804: d5fc         	bpl	0x10002800 <GLCD_Initialize+0x1578> @ imm = #-0x8
10002806: 6803         	ldr	r3, [r0]
10002808: 2300         	movs	r3, #0x0
1000280a: 6003         	str	r3, [r0]
1000280c: 6843         	ldr	r3, [r0, #0x4]
1000280e: 075b         	lsls	r3, r3, #0x1d
10002810: d5fc         	bpl	0x1000280c <GLCD_Initialize+0x1584> @ imm = #-0x8
10002812: 6803         	ldr	r3, [r0]
10002814: 2331         	movs	r3, #0x31
10002816: 6003         	str	r3, [r0]
10002818: 6843         	ldr	r3, [r0, #0x4]
1000281a: 075b         	lsls	r3, r3, #0x1d
1000281c: d5fc         	bpl	0x10002818 <GLCD_Initialize+0x1590> @ imm = #-0x8
1000281e: 6803         	ldr	r3, [r0]
10002820: 680b         	ldr	r3, [r1]
10002822: f043 0301    	orr	r3, r3, #0x1
10002826: 600b         	str	r3, [r1]
10002828: 6813         	ldr	r3, [r2]
1000282a: f023 0301    	bic	r3, r3, #0x1
1000282e: 6013         	str	r3, [r2]
10002830: 2372         	movs	r3, #0x72
10002832: 6003         	str	r3, [r0]
10002834: 6843         	ldr	r3, [r0, #0x4]
10002836: 075b         	lsls	r3, r3, #0x1d
10002838: d5fc         	bpl	0x10002834 <GLCD_Initialize+0x15ac> @ imm = #-0x8
1000283a: 6803         	ldr	r3, [r0]
1000283c: 2300         	movs	r3, #0x0
1000283e: 6003         	str	r3, [r0]
10002840: 6843         	ldr	r3, [r0, #0x4]
10002842: 075b         	lsls	r3, r3, #0x1d
10002844: d5fc         	bpl	0x10002840 <GLCD_Initialize+0x15b8> @ imm = #-0x8
10002846: 6803         	ldr	r3, [r0]
10002848: 2300         	movs	r3, #0x0
1000284a: 6003         	str	r3, [r0]
1000284c: 6843         	ldr	r3, [r0, #0x4]
1000284e: 075b         	lsls	r3, r3, #0x1d
10002850: d5fc         	bpl	0x1000284c <GLCD_Initialize+0x15c4> @ imm = #-0x8
10002852: 6803         	ldr	r3, [r0]
10002854: 680b         	ldr	r3, [r1]
10002856: f043 0301    	orr	r3, r3, #0x1
1000285a: 600b         	str	r3, [r1]
1000285c: 6813         	ldr	r3, [r2]
1000285e: f023 0301    	bic	r3, r3, #0x1
10002862: 6013         	str	r3, [r2]
10002864: 2370         	movs	r3, #0x70
10002866: 6003         	str	r3, [r0]
10002868: 6843         	ldr	r3, [r0, #0x4]
1000286a: 075b         	lsls	r3, r3, #0x1d
1000286c: d5fc         	bpl	0x10002868 <GLCD_Initialize+0x15e0> @ imm = #-0x8
1000286e: 6803         	ldr	r3, [r0]
10002870: 2300         	movs	r3, #0x0
10002872: 6003         	str	r3, [r0]
10002874: 6843         	ldr	r3, [r0, #0x4]
10002876: 075b         	lsls	r3, r3, #0x1d
10002878: d5fc         	bpl	0x10002874 <GLCD_Initialize+0x15ec> @ imm = #-0x8
1000287a: 6803         	ldr	r3, [r0]
1000287c: 2332         	movs	r3, #0x32
1000287e: 6003         	str	r3, [r0]
10002880: 6843         	ldr	r3, [r0, #0x4]
10002882: 075b         	lsls	r3, r3, #0x1d
10002884: d5fc         	bpl	0x10002880 <GLCD_Initialize+0x15f8> @ imm = #-0x8
10002886: 6803         	ldr	r3, [r0]
10002888: 680b         	ldr	r3, [r1]
1000288a: f043 0301    	orr	r3, r3, #0x1
1000288e: 600b         	str	r3, [r1]
10002890: 6813         	ldr	r3, [r2]
10002892: f023 0301    	bic	r3, r3, #0x1
10002896: 6013         	str	r3, [r2]
10002898: 2372         	movs	r3, #0x72
1000289a: 6003         	str	r3, [r0]
1000289c: 6843         	ldr	r3, [r0, #0x4]
1000289e: 075b         	lsls	r3, r3, #0x1d
100028a0: d5fc         	bpl	0x1000289c <GLCD_Initialize+0x1614> @ imm = #-0x8
100028a2: 6803         	ldr	r3, [r0]
100028a4: 2300         	movs	r3, #0x0
100028a6: 6003         	str	r3, [r0]
100028a8: 6843         	ldr	r3, [r0, #0x4]
100028aa: 075b         	lsls	r3, r3, #0x1d
100028ac: d5fc         	bpl	0x100028a8 <GLCD_Initialize+0x1620> @ imm = #-0x8
100028ae: 6803         	ldr	r3, [r0]
100028b0: 2300         	movs	r3, #0x0
100028b2: 6003         	str	r3, [r0]
100028b4: 6843         	ldr	r3, [r0, #0x4]
100028b6: 075b         	lsls	r3, r3, #0x1d
100028b8: d5fc         	bpl	0x100028b4 <GLCD_Initialize+0x162c> @ imm = #-0x8
100028ba: 6803         	ldr	r3, [r0]
100028bc: 680b         	ldr	r3, [r1]
100028be: f043 0301    	orr	r3, r3, #0x1
100028c2: 600b         	str	r3, [r1]
100028c4: 6813         	ldr	r3, [r2]
100028c6: f023 0301    	bic	r3, r3, #0x1
100028ca: 6013         	str	r3, [r2]
100028cc: 2370         	movs	r3, #0x70
100028ce: 6003         	str	r3, [r0]
100028d0: 6843         	ldr	r3, [r0, #0x4]
100028d2: 075b         	lsls	r3, r3, #0x1d
100028d4: d5fc         	bpl	0x100028d0 <GLCD_Initialize+0x1648> @ imm = #-0x8
100028d6: 6803         	ldr	r3, [r0]
100028d8: 2300         	movs	r3, #0x0
100028da: 6003         	str	r3, [r0]
100028dc: 6843         	ldr	r3, [r0, #0x4]
100028de: 075b         	lsls	r3, r3, #0x1d
100028e0: d5fc         	bpl	0x100028dc <GLCD_Initialize+0x1654> @ imm = #-0x8
100028e2: 6803         	ldr	r3, [r0]
100028e4: 2328         	movs	r3, #0x28
100028e6: 6003         	str	r3, [r0]
100028e8: 6843         	ldr	r3, [r0, #0x4]
100028ea: 075b         	lsls	r3, r3, #0x1d
100028ec: d5fc         	bpl	0x100028e8 <GLCD_Initialize+0x1660> @ imm = #-0x8
100028ee: 6803         	ldr	r3, [r0]
100028f0: 680b         	ldr	r3, [r1]
100028f2: f043 0301    	orr	r3, r3, #0x1
100028f6: 600b         	str	r3, [r1]
100028f8: 6813         	ldr	r3, [r2]
100028fa: f023 0301    	bic	r3, r3, #0x1
100028fe: 6013         	str	r3, [r2]
10002900: 2372         	movs	r3, #0x72
10002902: 6003         	str	r3, [r0]
10002904: 6843         	ldr	r3, [r0, #0x4]
10002906: 075b         	lsls	r3, r3, #0x1d
10002908: d5fc         	bpl	0x10002904 <GLCD_Initialize+0x167c> @ imm = #-0x8
1000290a: 6803         	ldr	r3, [r0]
1000290c: 2300         	movs	r3, #0x0
1000290e: 6003         	str	r3, [r0]
10002910: 6843         	ldr	r3, [r0, #0x4]
10002912: 075b         	lsls	r3, r3, #0x1d
10002914: d5fc         	bpl	0x10002910 <GLCD_Initialize+0x1688> @ imm = #-0x8
10002916: 6803         	ldr	r3, [r0]
10002918: 2338         	movs	r3, #0x38
1000291a: 6003         	str	r3, [r0]
1000291c: 6843         	ldr	r3, [r0, #0x4]
1000291e: 075b         	lsls	r3, r3, #0x1d
10002920: d5fc         	bpl	0x1000291c <GLCD_Initialize+0x1694> @ imm = #-0x8
10002922: 6803         	ldr	r3, [r0]
10002924: 680b         	ldr	r3, [r1]
10002926: f043 0301    	orr	r3, r3, #0x1
1000292a: 600b         	str	r3, [r1]
1000292c: f8de 3000    	ldr.w	r3, [lr]
10002930: f5b3 7f7a    	cmp.w	r3, #0x3e8
10002934: d309         	blo	0x1000294a <GLCD_Initialize+0x16c2> @ imm = #0x12
10002936: fba3 340c    	umull	r3, r4, r3, r12
1000293a: 09a3         	lsrs	r3, r4, #0x6
1000293c: f06f 04c7    	mvn	r4, #0xc7
10002940: fb03 f304    	mul	r3, r3, r4
10002944: 3301         	adds	r3, #0x1
10002946: bf00         	nop
10002948: d3fc         	blo	0x10002944 <GLCD_Initialize+0x16bc> @ imm = #-0x8
1000294a: 6813         	ldr	r3, [r2]
1000294c: f023 0301    	bic	r3, r3, #0x1
10002950: 6013         	str	r3, [r2]
10002952: 2370         	movs	r3, #0x70
10002954: 6003         	str	r3, [r0]
10002956: bf00         	nop
10002958: 6843         	ldr	r3, [r0, #0x4]
1000295a: 075b         	lsls	r3, r3, #0x1d
1000295c: d5fc         	bpl	0x10002958 <GLCD_Initialize+0x16d0> @ imm = #-0x8
1000295e: 6803         	ldr	r3, [r0]
10002960: 2300         	movs	r3, #0x0
10002962: 6003         	str	r3, [r0]
10002964: 6843         	ldr	r3, [r0, #0x4]
10002966: 075b         	lsls	r3, r3, #0x1d
10002968: d5fc         	bpl	0x10002964 <GLCD_Initialize+0x16dc> @ imm = #-0x8
1000296a: 6803         	ldr	r3, [r0]
1000296c: 2328         	movs	r3, #0x28
1000296e: 6003         	str	r3, [r0]
10002970: 6843         	ldr	r3, [r0, #0x4]
10002972: 075b         	lsls	r3, r3, #0x1d
10002974: d5fc         	bpl	0x10002970 <GLCD_Initialize+0x16e8> @ imm = #-0x8
10002976: 6803         	ldr	r3, [r0]
10002978: 680b         	ldr	r3, [r1]
1000297a: f043 0301    	orr	r3, r3, #0x1
1000297e: 600b         	str	r3, [r1]
10002980: 6813         	ldr	r3, [r2]
10002982: f023 0301    	bic	r3, r3, #0x1
10002986: 6013         	str	r3, [r2]
10002988: 2372         	movs	r3, #0x72
1000298a: 6003         	str	r3, [r0]
1000298c: 6843         	ldr	r3, [r0, #0x4]
1000298e: 075b         	lsls	r3, r3, #0x1d
10002990: d5fc         	bpl	0x1000298c <GLCD_Initialize+0x1704> @ imm = #-0x8
10002992: 6803         	ldr	r3, [r0]
10002994: 2300         	movs	r3, #0x0
10002996: 6003         	str	r3, [r0]
10002998: 6843         	ldr	r3, [r0, #0x4]
1000299a: 075b         	lsls	r3, r3, #0x1d
1000299c: d5fc         	bpl	0x10002998 <GLCD_Initialize+0x1710> @ imm = #-0x8
1000299e: 6803         	ldr	r3, [r0]
100029a0: 233c         	movs	r3, #0x3c
100029a2: 6003         	str	r3, [r0]
100029a4: 6843         	ldr	r3, [r0, #0x4]
100029a6: 075b         	lsls	r3, r3, #0x1d
100029a8: d5fc         	bpl	0x100029a4 <GLCD_Initialize+0x171c> @ imm = #-0x8
100029aa: 6803         	ldr	r3, [r0]
100029ac: 680b         	ldr	r3, [r1]
100029ae: f043 0301    	orr	r3, r3, #0x1
100029b2: 600b         	str	r3, [r1]
100029b4: 6813         	ldr	r3, [r2]
100029b6: f023 0301    	bic	r3, r3, #0x1
100029ba: 6013         	str	r3, [r2]
100029bc: 2370         	movs	r3, #0x70
100029be: 6003         	str	r3, [r0]
100029c0: 6843         	ldr	r3, [r0, #0x4]
100029c2: 075b         	lsls	r3, r3, #0x1d
100029c4: d5fc         	bpl	0x100029c0 <GLCD_Initialize+0x1738> @ imm = #-0x8
100029c6: 6803         	ldr	r3, [r0]
100029c8: 2300         	movs	r3, #0x0
100029ca: 6003         	str	r3, [r0]
100029cc: 6843         	ldr	r3, [r0, #0x4]
100029ce: 075b         	lsls	r3, r3, #0x1d
100029d0: d5fc         	bpl	0x100029cc <GLCD_Initialize+0x1744> @ imm = #-0x8
100029d2: 6803         	ldr	r3, [r0]
100029d4: 2316         	movs	r3, #0x16
100029d6: 6003         	str	r3, [r0]
100029d8: 6843         	ldr	r3, [r0, #0x4]
100029da: 075b         	lsls	r3, r3, #0x1d
100029dc: d5fc         	bpl	0x100029d8 <GLCD_Initialize+0x1750> @ imm = #-0x8
100029de: 6803         	ldr	r3, [r0]
100029e0: 680b         	ldr	r3, [r1]
100029e2: f043 0301    	orr	r3, r3, #0x1
100029e6: 600b         	str	r3, [r1]
100029e8: 6813         	ldr	r3, [r2]
100029ea: f023 0301    	bic	r3, r3, #0x1
100029ee: 6013         	str	r3, [r2]
100029f0: 2372         	movs	r3, #0x72
100029f2: 6003         	str	r3, [r0]
100029f4: 6843         	ldr	r3, [r0, #0x4]
100029f6: 075b         	lsls	r3, r3, #0x1d
100029f8: d5fc         	bpl	0x100029f4 <GLCD_Initialize+0x176c> @ imm = #-0x8
100029fa: 6803         	ldr	r3, [r0]
100029fc: 2300         	movs	r3, #0x0
100029fe: 6003         	str	r3, [r0]
10002a00: 6843         	ldr	r3, [r0, #0x4]
10002a02: 075b         	lsls	r3, r3, #0x1d
10002a04: d5fc         	bpl	0x10002a00 <GLCD_Initialize+0x1778> @ imm = #-0x8
10002a06: 6803         	ldr	r3, [r0]
10002a08: 23a8         	movs	r3, #0xa8
10002a0a: 6003         	str	r3, [r0]
10002a0c: 6843         	ldr	r3, [r0, #0x4]
10002a0e: 075b         	lsls	r3, r3, #0x1d
10002a10: d5fc         	bpl	0x10002a0c <GLCD_Initialize+0x1784> @ imm = #-0x8
10002a12: 6803         	ldr	r3, [r0]
10002a14: 680b         	ldr	r3, [r1]
10002a16: f043 0301    	orr	r3, r3, #0x1
10002a1a: 600b         	str	r3, [r1]
10002a1c: 6813         	ldr	r3, [r2]
10002a1e: f023 0301    	bic	r3, r3, #0x1
10002a22: 6013         	str	r3, [r2]
10002a24: 2370         	movs	r3, #0x70
10002a26: 6003         	str	r3, [r0]
10002a28: 6843         	ldr	r3, [r0, #0x4]
10002a2a: 075b         	lsls	r3, r3, #0x1d
10002a2c: d5fc         	bpl	0x10002a28 <GLCD_Initialize+0x17a0> @ imm = #-0x8
10002a2e: 6803         	ldr	r3, [r0]
10002a30: 2300         	movs	r3, #0x0
10002a32: 6003         	str	r3, [r0]
10002a34: 6843         	ldr	r3, [r0, #0x4]
10002a36: 075b         	lsls	r3, r3, #0x1d
10002a38: d5fc         	bpl	0x10002a34 <GLCD_Initialize+0x17ac> @ imm = #-0x8
10002a3a: 6803         	ldr	r3, [r0]
10002a3c: 230e         	movs	r3, #0xe
10002a3e: 6003         	str	r3, [r0]
10002a40: 6843         	ldr	r3, [r0, #0x4]
10002a42: 075b         	lsls	r3, r3, #0x1d
10002a44: d5fc         	bpl	0x10002a40 <GLCD_Initialize+0x17b8> @ imm = #-0x8
10002a46: 6803         	ldr	r3, [r0]
10002a48: 680b         	ldr	r3, [r1]
10002a4a: f043 0301    	orr	r3, r3, #0x1
10002a4e: 600b         	str	r3, [r1]
10002a50: 6813         	ldr	r3, [r2]
10002a52: f023 0301    	bic	r3, r3, #0x1
10002a56: 6013         	str	r3, [r2]
10002a58: 2372         	movs	r3, #0x72
10002a5a: 6003         	str	r3, [r0]
10002a5c: 6843         	ldr	r3, [r0, #0x4]
10002a5e: 075b         	lsls	r3, r3, #0x1d
10002a60: d5fc         	bpl	0x10002a5c <GLCD_Initialize+0x17d4> @ imm = #-0x8
10002a62: 6803         	ldr	r3, [r0]
10002a64: 2300         	movs	r3, #0x0
10002a66: 6003         	str	r3, [r0]
10002a68: 6843         	ldr	r3, [r0, #0x4]
10002a6a: 075b         	lsls	r3, r3, #0x1d
10002a6c: d5fc         	bpl	0x10002a68 <GLCD_Initialize+0x17e0> @ imm = #-0x8
10002a6e: 6803         	ldr	r3, [r0]
10002a70: 2300         	movs	r3, #0x0
10002a72: 6003         	str	r3, [r0]
10002a74: 6843         	ldr	r3, [r0, #0x4]
10002a76: 075b         	lsls	r3, r3, #0x1d
10002a78: d5fc         	bpl	0x10002a74 <GLCD_Initialize+0x17ec> @ imm = #-0x8
10002a7a: 6803         	ldr	r3, [r0]
10002a7c: 680b         	ldr	r3, [r1]
10002a7e: f043 0301    	orr	r3, r3, #0x1
10002a82: 600b         	str	r3, [r1]
10002a84: 6813         	ldr	r3, [r2]
10002a86: f023 0301    	bic	r3, r3, #0x1
10002a8a: 6013         	str	r3, [r2]
10002a8c: 2370         	movs	r3, #0x70
10002a8e: 6003         	str	r3, [r0]
10002a90: 6843         	ldr	r3, [r0, #0x4]
10002a92: 075b         	lsls	r3, r3, #0x1d
10002a94: d5fc         	bpl	0x10002a90 <GLCD_Initialize+0x1808> @ imm = #-0x8
10002a96: 6803         	ldr	r3, [r0]
10002a98: 2300         	movs	r3, #0x0
10002a9a: 6003         	str	r3, [r0]
10002a9c: 6843         	ldr	r3, [r0, #0x4]
10002a9e: 075b         	lsls	r3, r3, #0x1d
10002aa0: d5fc         	bpl	0x10002a9c <GLCD_Initialize+0x1814> @ imm = #-0x8
10002aa2: 6803         	ldr	r3, [r0]
10002aa4: 230f         	movs	r3, #0xf
10002aa6: 6003         	str	r3, [r0]
10002aa8: 6843         	ldr	r3, [r0, #0x4]
10002aaa: 075b         	lsls	r3, r3, #0x1d
10002aac: d5fc         	bpl	0x10002aa8 <GLCD_Initialize+0x1820> @ imm = #-0x8
10002aae: 6803         	ldr	r3, [r0]
10002ab0: 680b         	ldr	r3, [r1]
10002ab2: f043 0301    	orr	r3, r3, #0x1
10002ab6: 600b         	str	r3, [r1]
10002ab8: 6813         	ldr	r3, [r2]
10002aba: f023 0301    	bic	r3, r3, #0x1
10002abe: 6013         	str	r3, [r2]
10002ac0: 2372         	movs	r3, #0x72
10002ac2: 6003         	str	r3, [r0]
10002ac4: 6843         	ldr	r3, [r0, #0x4]
10002ac6: 075b         	lsls	r3, r3, #0x1d
10002ac8: d5fc         	bpl	0x10002ac4 <GLCD_Initialize+0x183c> @ imm = #-0x8
10002aca: 6803         	ldr	r3, [r0]
10002acc: 2300         	movs	r3, #0x0
10002ace: 6003         	str	r3, [r0]
10002ad0: 6843         	ldr	r3, [r0, #0x4]
10002ad2: 075b         	lsls	r3, r3, #0x1d
10002ad4: d5fc         	bpl	0x10002ad0 <GLCD_Initialize+0x1848> @ imm = #-0x8
10002ad6: 6803         	ldr	r3, [r0]
10002ad8: 2300         	movs	r3, #0x0
10002ada: 6003         	str	r3, [r0]
10002adc: 6843         	ldr	r3, [r0, #0x4]
10002ade: 075b         	lsls	r3, r3, #0x1d
10002ae0: d5fc         	bpl	0x10002adc <GLCD_Initialize+0x1854> @ imm = #-0x8
10002ae2: 6803         	ldr	r3, [r0]
10002ae4: 680b         	ldr	r3, [r1]
10002ae6: f043 0301    	orr	r3, r3, #0x1
10002aea: 600b         	str	r3, [r1]
10002aec: 6813         	ldr	r3, [r2]
10002aee: f023 0301    	bic	r3, r3, #0x1
10002af2: 6013         	str	r3, [r2]
10002af4: 2370         	movs	r3, #0x70
10002af6: 6003         	str	r3, [r0]
10002af8: 6843         	ldr	r3, [r0, #0x4]
10002afa: 075b         	lsls	r3, r3, #0x1d
10002afc: d5fc         	bpl	0x10002af8 <GLCD_Initialize+0x1870> @ imm = #-0x8
10002afe: 6803         	ldr	r3, [r0]
10002b00: 2300         	movs	r3, #0x0
10002b02: 6003         	str	r3, [r0]
10002b04: 6843         	ldr	r3, [r0, #0x4]
10002b06: 075b         	lsls	r3, r3, #0x1d
10002b08: d5fc         	bpl	0x10002b04 <GLCD_Initialize+0x187c> @ imm = #-0x8
10002b0a: 6803         	ldr	r3, [r0]
10002b0c: 2310         	movs	r3, #0x10
10002b0e: 6003         	str	r3, [r0]
10002b10: 6843         	ldr	r3, [r0, #0x4]
10002b12: 075b         	lsls	r3, r3, #0x1d
10002b14: d5fc         	bpl	0x10002b10 <GLCD_Initialize+0x1888> @ imm = #-0x8
10002b16: 6803         	ldr	r3, [r0]
10002b18: 680b         	ldr	r3, [r1]
10002b1a: f043 0301    	orr	r3, r3, #0x1
10002b1e: 600b         	str	r3, [r1]
10002b20: 6813         	ldr	r3, [r2]
10002b22: f023 0301    	bic	r3, r3, #0x1
10002b26: 6013         	str	r3, [r2]
10002b28: 2372         	movs	r3, #0x72
10002b2a: 6003         	str	r3, [r0]
10002b2c: 6843         	ldr	r3, [r0, #0x4]
10002b2e: 075b         	lsls	r3, r3, #0x1d
10002b30: d5fc         	bpl	0x10002b2c <GLCD_Initialize+0x18a4> @ imm = #-0x8
10002b32: 6803         	ldr	r3, [r0]
10002b34: 2300         	movs	r3, #0x0
10002b36: 6003         	str	r3, [r0]
10002b38: 6843         	ldr	r3, [r0, #0x4]
10002b3a: 075b         	lsls	r3, r3, #0x1d
10002b3c: d5fc         	bpl	0x10002b38 <GLCD_Initialize+0x18b0> @ imm = #-0x8
10002b3e: 6803         	ldr	r3, [r0]
10002b40: 2301         	movs	r3, #0x1
10002b42: 6003         	str	r3, [r0]
10002b44: 6843         	ldr	r3, [r0, #0x4]
10002b46: 075b         	lsls	r3, r3, #0x1d
10002b48: d5fc         	bpl	0x10002b44 <GLCD_Initialize+0x18bc> @ imm = #-0x8
10002b4a: 6803         	ldr	r3, [r0]
10002b4c: 680b         	ldr	r3, [r1]
10002b4e: f043 0301    	orr	r3, r3, #0x1
10002b52: 600b         	str	r3, [r1]
10002b54: 6813         	ldr	r3, [r2]
10002b56: f023 0301    	bic	r3, r3, #0x1
10002b5a: 6013         	str	r3, [r2]
10002b5c: 2370         	movs	r3, #0x70
10002b5e: 6003         	str	r3, [r0]
10002b60: 6843         	ldr	r3, [r0, #0x4]
10002b62: 075b         	lsls	r3, r3, #0x1d
10002b64: d5fc         	bpl	0x10002b60 <GLCD_Initialize+0x18d8> @ imm = #-0x8
10002b66: 6803         	ldr	r3, [r0]
10002b68: 2300         	movs	r3, #0x0
10002b6a: 6003         	str	r3, [r0]
10002b6c: 6843         	ldr	r3, [r0, #0x4]
10002b6e: 075b         	lsls	r3, r3, #0x1d
10002b70: d5fc         	bpl	0x10002b6c <GLCD_Initialize+0x18e4> @ imm = #-0x8
10002b72: 6803         	ldr	r3, [r0]
10002b74: 2311         	movs	r3, #0x11
10002b76: 6003         	str	r3, [r0]
10002b78: 6843         	ldr	r3, [r0, #0x4]
10002b7a: 075b         	lsls	r3, r3, #0x1d
10002b7c: d5fc         	bpl	0x10002b78 <GLCD_Initialize+0x18f0> @ imm = #-0x8
10002b7e: 6803         	ldr	r3, [r0]
10002b80: 680b         	ldr	r3, [r1]
10002b82: f043 0301    	orr	r3, r3, #0x1
10002b86: 600b         	str	r3, [r1]
10002b88: 6813         	ldr	r3, [r2]
10002b8a: f023 0301    	bic	r3, r3, #0x1
10002b8e: 6013         	str	r3, [r2]
10002b90: 2372         	movs	r3, #0x72
10002b92: 6003         	str	r3, [r0]
10002b94: 6843         	ldr	r3, [r0, #0x4]
10002b96: 075b         	lsls	r3, r3, #0x1d
10002b98: d5fc         	bpl	0x10002b94 <GLCD_Initialize+0x190c> @ imm = #-0x8
10002b9a: 6803         	ldr	r3, [r0]
10002b9c: 2300         	movs	r3, #0x0
10002b9e: 6003         	str	r3, [r0]
10002ba0: 6843         	ldr	r3, [r0, #0x4]
10002ba2: 075b         	lsls	r3, r3, #0x1d
10002ba4: d5fc         	bpl	0x10002ba0 <GLCD_Initialize+0x1918> @ imm = #-0x8
10002ba6: 6803         	ldr	r3, [r0]
10002ba8: 2340         	movs	r3, #0x40
10002baa: 6003         	str	r3, [r0]
10002bac: 6843         	ldr	r3, [r0, #0x4]
10002bae: 075b         	lsls	r3, r3, #0x1d
10002bb0: d5fc         	bpl	0x10002bac <GLCD_Initialize+0x1924> @ imm = #-0x8
10002bb2: 6803         	ldr	r3, [r0]
10002bb4: 680b         	ldr	r3, [r1]
10002bb6: f043 0301    	orr	r3, r3, #0x1
10002bba: 600b         	str	r3, [r1]
10002bbc: 6813         	ldr	r3, [r2]
10002bbe: f023 0301    	bic	r3, r3, #0x1
10002bc2: 6013         	str	r3, [r2]
10002bc4: 2370         	movs	r3, #0x70
10002bc6: 6003         	str	r3, [r0]
10002bc8: 6843         	ldr	r3, [r0, #0x4]
10002bca: 075b         	lsls	r3, r3, #0x1d
10002bcc: d5fc         	bpl	0x10002bc8 <GLCD_Initialize+0x1940> @ imm = #-0x8
10002bce: 6803         	ldr	r3, [r0]
10002bd0: 2300         	movs	r3, #0x0
10002bd2: 6003         	str	r3, [r0]
10002bd4: 6843         	ldr	r3, [r0, #0x4]
10002bd6: 075b         	lsls	r3, r3, #0x1d
10002bd8: d5fc         	bpl	0x10002bd4 <GLCD_Initialize+0x194c> @ imm = #-0x8
10002bda: 6803         	ldr	r3, [r0]
10002bdc: 2312         	movs	r3, #0x12
10002bde: 6003         	str	r3, [r0]
10002be0: 6843         	ldr	r3, [r0, #0x4]
10002be2: 075b         	lsls	r3, r3, #0x1d
10002be4: d5fc         	bpl	0x10002be0 <GLCD_Initialize+0x1958> @ imm = #-0x8
10002be6: 6803         	ldr	r3, [r0]
10002be8: 680b         	ldr	r3, [r1]
10002bea: f043 0301    	orr	r3, r3, #0x1
10002bee: 600b         	str	r3, [r1]
10002bf0: 6813         	ldr	r3, [r2]
10002bf2: f023 0301    	bic	r3, r3, #0x1
10002bf6: 6013         	str	r3, [r2]
10002bf8: 2372         	movs	r3, #0x72
10002bfa: 6003         	str	r3, [r0]
10002bfc: 6843         	ldr	r3, [r0, #0x4]
10002bfe: 075b         	lsls	r3, r3, #0x1d
10002c00: d5fc         	bpl	0x10002bfc <GLCD_Initialize+0x1974> @ imm = #-0x8
10002c02: 6803         	ldr	r3, [r0]
10002c04: 2300         	movs	r3, #0x0
10002c06: 6003         	str	r3, [r0]
10002c08: 6843         	ldr	r3, [r0, #0x4]
10002c0a: 075b         	lsls	r3, r3, #0x1d
10002c0c: d5fc         	bpl	0x10002c08 <GLCD_Initialize+0x1980> @ imm = #-0x8
10002c0e: 6803         	ldr	r3, [r0]
10002c10: 2300         	movs	r3, #0x0
10002c12: 6003         	str	r3, [r0]
10002c14: 6843         	ldr	r3, [r0, #0x4]
10002c16: 075b         	lsls	r3, r3, #0x1d
10002c18: d5fc         	bpl	0x10002c14 <GLCD_Initialize+0x198c> @ imm = #-0x8
10002c1a: 6803         	ldr	r3, [r0]
10002c1c: 680b         	ldr	r3, [r1]
10002c1e: f043 0301    	orr	r3, r3, #0x1
10002c22: 600b         	str	r3, [r1]
10002c24: 6813         	ldr	r3, [r2]
10002c26: f023 0301    	bic	r3, r3, #0x1
10002c2a: 6013         	str	r3, [r2]
10002c2c: 2370         	movs	r3, #0x70
10002c2e: 6003         	str	r3, [r0]
10002c30: 6843         	ldr	r3, [r0, #0x4]
10002c32: 075b         	lsls	r3, r3, #0x1d
10002c34: d5fc         	bpl	0x10002c30 <GLCD_Initialize+0x19a8> @ imm = #-0x8
10002c36: 6803         	ldr	r3, [r0]
10002c38: 2300         	movs	r3, #0x0
10002c3a: 6003         	str	r3, [r0]
10002c3c: 6843         	ldr	r3, [r0, #0x4]
10002c3e: 075b         	lsls	r3, r3, #0x1d
10002c40: d5fc         	bpl	0x10002c3c <GLCD_Initialize+0x19b4> @ imm = #-0x8
10002c42: 6803         	ldr	r3, [r0]
10002c44: 2313         	movs	r3, #0x13
10002c46: 6003         	str	r3, [r0]
10002c48: 6843         	ldr	r3, [r0, #0x4]
10002c4a: 075b         	lsls	r3, r3, #0x1d
10002c4c: d5fc         	bpl	0x10002c48 <GLCD_Initialize+0x19c0> @ imm = #-0x8
10002c4e: 6803         	ldr	r3, [r0]
10002c50: 680b         	ldr	r3, [r1]
10002c52: f043 0301    	orr	r3, r3, #0x1
10002c56: 600b         	str	r3, [r1]
10002c58: 6813         	ldr	r3, [r2]
10002c5a: f023 0301    	bic	r3, r3, #0x1
10002c5e: 6013         	str	r3, [r2]
10002c60: 2272         	movs	r2, #0x72
10002c62: 6002         	str	r2, [r0]
10002c64: 6842         	ldr	r2, [r0, #0x4]
10002c66: 0752         	lsls	r2, r2, #0x1d
10002c68: d5fc         	bpl	0x10002c64 <GLCD_Initialize+0x19dc> @ imm = #-0x8
10002c6a: 6802         	ldr	r2, [r0]
10002c6c: 2200         	movs	r2, #0x0
10002c6e: 6002         	str	r2, [r0]
10002c70: 6842         	ldr	r2, [r0, #0x4]
10002c72: 0752         	lsls	r2, r2, #0x1d
10002c74: d5fc         	bpl	0x10002c70 <GLCD_Initialize+0x19e8> @ imm = #-0x8
10002c76: 6802         	ldr	r2, [r0]
10002c78: 2200         	movs	r2, #0x0
10002c7a: 6002         	str	r2, [r0]
10002c7c: 6842         	ldr	r2, [r0, #0x4]
10002c7e: 0752         	lsls	r2, r2, #0x1d
10002c80: d5fc         	bpl	0x10002c7c <GLCD_Initialize+0x19f4> @ imm = #-0x8
10002c82: 6800         	ldr	r0, [r0]
10002c84: 6808         	ldr	r0, [r1]
10002c86: f040 0001    	orr	r0, r0, #0x1
10002c8a: 6008         	str	r0, [r1]
10002c8c: 6808         	ldr	r0, [r1]
10002c8e: f040 0240    	orr	r2, r0, #0x40
10002c92: 2000         	movs	r0, #0x0
10002c94: 600a         	str	r2, [r1]
10002c96: bd10         	pop	{r4, pc}

10002c98 <GLCD_SetBackgroundColor>:
10002c98: f240 0210    	movw	r2, #0x10
10002c9c: 4601         	mov	r1, r0
10002c9e: f6c3 0200    	movt	r2, #0x3800
10002ca2: 2000         	movs	r0, #0x0
10002ca4: 8011         	strh	r1, [r2]
10002ca6: 4770         	bx	lr

10002ca8 <GLCD_SetFont>:
10002ca8: f240 12a8    	movw	r2, #0x1a8
10002cac: 4601         	mov	r1, r0
10002cae: f6c3 0200    	movt	r2, #0x3800
10002cb2: 2000         	movs	r0, #0x0
10002cb4: 6011         	str	r1, [r2]
10002cb6: 4770         	bx	lr

10002cb8 <GLCD_SetForegroundColor>:
10002cb8: f240 12ac    	movw	r2, #0x1ac
10002cbc: 4601         	mov	r1, r0
10002cbe: f6c3 0200    	movt	r2, #0x3800
10002cc2: 2000         	movs	r0, #0x0
10002cc4: 8011         	strh	r1, [r2]
10002cc6: 4770         	bx	lr

10002cc8 <GLCD_SetWindow>:
10002cc8: b570         	push	{r4, r5, r6, lr}
10002cca: f242 0e4c    	movw	lr, #0x204c
10002cce: f2c4 0e30    	movt	lr, #0x4030
10002cd2: f8de 5000    	ldr.w	r5, [lr]
10002cd6: 440b         	add	r3, r1
10002cd8: f1a3 0c01    	sub.w	r12, r3, #0x1
10002cdc: f025 0301    	bic	r3, r5, #0x1
10002ce0: f8ce 3000    	str.w	r3, [lr]
10002ce4: f246 0308    	movw	r3, #0x6008
10002ce8: 1e44         	subs	r4, r0, #0x1
10002cea: f2c5 0320    	movt	r3, #0x5020
10002cee: 2570         	movs	r5, #0x70
10002cf0: 601d         	str	r5, [r3]
10002cf2: bf00         	nop
10002cf4: 685d         	ldr	r5, [r3, #0x4]
10002cf6: 076d         	lsls	r5, r5, #0x1d
10002cf8: d5fc         	bpl	0x10002cf4 <GLCD_SetWindow+0x2c> @ imm = #-0x8
10002cfa: 4414         	add	r4, r2
10002cfc: 681a         	ldr	r2, [r3]
10002cfe: 2200         	movs	r2, #0x0
10002d00: 601a         	str	r2, [r3]
10002d02: bf00         	nop
10002d04: 685a         	ldr	r2, [r3, #0x4]
10002d06: 0752         	lsls	r2, r2, #0x1d
10002d08: d5fc         	bpl	0x10002d04 <GLCD_SetWindow+0x3c> @ imm = #-0x8
10002d0a: 681a         	ldr	r2, [r3]
10002d0c: 2202         	movs	r2, #0x2
10002d0e: 601a         	str	r2, [r3]
10002d10: 685a         	ldr	r2, [r3, #0x4]
10002d12: 0752         	lsls	r2, r2, #0x1d
10002d14: d5fc         	bpl	0x10002d10 <GLCD_SetWindow+0x48> @ imm = #-0x8
10002d16: f242 024c    	movw	r2, #0x204c
10002d1a: f2c5 0230    	movt	r2, #0x5030
10002d1e: 681d         	ldr	r5, [r3]
10002d20: 6815         	ldr	r5, [r2]
10002d22: f045 0501    	orr	r5, r5, #0x1
10002d26: 6015         	str	r5, [r2]
10002d28: f8de 5000    	ldr.w	r5, [lr]
10002d2c: f025 0501    	bic	r5, r5, #0x1
10002d30: f8ce 5000    	str.w	r5, [lr]
10002d34: 2572         	movs	r5, #0x72
10002d36: 601d         	str	r5, [r3]
10002d38: 685d         	ldr	r5, [r3, #0x4]
10002d3a: 076d         	lsls	r5, r5, #0x1d
10002d3c: d5fc         	bpl	0x10002d38 <GLCD_SetWindow+0x70> @ imm = #-0x8
10002d3e: f3c0 4507    	ubfx	r5, r0, #0x10, #0x8
10002d42: 681e         	ldr	r6, [r3]
10002d44: 601d         	str	r5, [r3]
10002d46: bf00         	nop
10002d48: 685d         	ldr	r5, [r3, #0x4]
10002d4a: 076d         	lsls	r5, r5, #0x1d
10002d4c: d5fc         	bpl	0x10002d48 <GLCD_SetWindow+0x80> @ imm = #-0x8
10002d4e: f3c0 2507    	ubfx	r5, r0, #0x8, #0x8
10002d52: 681e         	ldr	r6, [r3]
10002d54: 601d         	str	r5, [r3]
10002d56: bf00         	nop
10002d58: 685d         	ldr	r5, [r3, #0x4]
10002d5a: 076d         	lsls	r5, r5, #0x1d
10002d5c: d5fc         	bpl	0x10002d58 <GLCD_SetWindow+0x90> @ imm = #-0x8
10002d5e: 681d         	ldr	r5, [r3]
10002d60: 6815         	ldr	r5, [r2]
10002d62: f045 0501    	orr	r5, r5, #0x1
10002d66: 6015         	str	r5, [r2]
10002d68: f8de 5000    	ldr.w	r5, [lr]
10002d6c: f025 0501    	bic	r5, r5, #0x1
10002d70: f8ce 5000    	str.w	r5, [lr]
10002d74: 2570         	movs	r5, #0x70
10002d76: 601d         	str	r5, [r3]
10002d78: 685d         	ldr	r5, [r3, #0x4]
10002d7a: 076d         	lsls	r5, r5, #0x1d
10002d7c: d5fc         	bpl	0x10002d78 <GLCD_SetWindow+0xb0> @ imm = #-0x8
10002d7e: 681d         	ldr	r5, [r3]
10002d80: 2500         	movs	r5, #0x0
10002d82: 601d         	str	r5, [r3]
10002d84: 685d         	ldr	r5, [r3, #0x4]
10002d86: 076d         	lsls	r5, r5, #0x1d
10002d88: d5fc         	bpl	0x10002d84 <GLCD_SetWindow+0xbc> @ imm = #-0x8
10002d8a: 681d         	ldr	r5, [r3]
10002d8c: 2503         	movs	r5, #0x3
10002d8e: 601d         	str	r5, [r3]
10002d90: 685d         	ldr	r5, [r3, #0x4]
10002d92: 076d         	lsls	r5, r5, #0x1d
10002d94: d5fc         	bpl	0x10002d90 <GLCD_SetWindow+0xc8> @ imm = #-0x8
10002d96: 681d         	ldr	r5, [r3]
10002d98: 6815         	ldr	r5, [r2]
10002d9a: f045 0501    	orr	r5, r5, #0x1
10002d9e: 6015         	str	r5, [r2]
10002da0: f8de 5000    	ldr.w	r5, [lr]
10002da4: f025 0501    	bic	r5, r5, #0x1
10002da8: f8ce 5000    	str.w	r5, [lr]
10002dac: 2572         	movs	r5, #0x72
10002dae: 601d         	str	r5, [r3]
10002db0: 685d         	ldr	r5, [r3, #0x4]
10002db2: 076d         	lsls	r5, r5, #0x1d
10002db4: d5fc         	bpl	0x10002db0 <GLCD_SetWindow+0xe8> @ imm = #-0x8
10002db6: 681d         	ldr	r5, [r3]
10002db8: 2500         	movs	r5, #0x0
10002dba: 601d         	str	r5, [r3]
10002dbc: 685d         	ldr	r5, [r3, #0x4]
10002dbe: 076d         	lsls	r5, r5, #0x1d
10002dc0: d5fc         	bpl	0x10002dbc <GLCD_SetWindow+0xf4> @ imm = #-0x8
10002dc2: b2c0         	uxtb	r0, r0
10002dc4: 681d         	ldr	r5, [r3]
10002dc6: 6018         	str	r0, [r3]
10002dc8: 6858         	ldr	r0, [r3, #0x4]
10002dca: 0740         	lsls	r0, r0, #0x1d
10002dcc: d5fc         	bpl	0x10002dc8 <GLCD_SetWindow+0x100> @ imm = #-0x8
10002dce: 6818         	ldr	r0, [r3]
10002dd0: 6810         	ldr	r0, [r2]
10002dd2: f040 0001    	orr	r0, r0, #0x1
10002dd6: 6010         	str	r0, [r2]
10002dd8: f8de 0000    	ldr.w	r0, [lr]
10002ddc: f020 0001    	bic	r0, r0, #0x1
10002de0: f8ce 0000    	str.w	r0, [lr]
10002de4: 2070         	movs	r0, #0x70
10002de6: 6018         	str	r0, [r3]
10002de8: 6858         	ldr	r0, [r3, #0x4]
10002dea: 0740         	lsls	r0, r0, #0x1d
10002dec: d5fc         	bpl	0x10002de8 <GLCD_SetWindow+0x120> @ imm = #-0x8
10002dee: 6818         	ldr	r0, [r3]
10002df0: 2000         	movs	r0, #0x0
10002df2: 6018         	str	r0, [r3]
10002df4: 6858         	ldr	r0, [r3, #0x4]
10002df6: 0740         	lsls	r0, r0, #0x1d
10002df8: d5fc         	bpl	0x10002df4 <GLCD_SetWindow+0x12c> @ imm = #-0x8
10002dfa: 6818         	ldr	r0, [r3]
10002dfc: 2004         	movs	r0, #0x4
10002dfe: 6018         	str	r0, [r3]
10002e00: 6858         	ldr	r0, [r3, #0x4]
10002e02: 0740         	lsls	r0, r0, #0x1d
10002e04: d5fc         	bpl	0x10002e00 <GLCD_SetWindow+0x138> @ imm = #-0x8
10002e06: 6818         	ldr	r0, [r3]
10002e08: 6810         	ldr	r0, [r2]
10002e0a: f040 0001    	orr	r0, r0, #0x1
10002e0e: 6010         	str	r0, [r2]
10002e10: f8de 0000    	ldr.w	r0, [lr]
10002e14: f020 0001    	bic	r0, r0, #0x1
10002e18: f8ce 0000    	str.w	r0, [lr]
10002e1c: 2072         	movs	r0, #0x72
10002e1e: 6018         	str	r0, [r3]
10002e20: 6858         	ldr	r0, [r3, #0x4]
10002e22: 0740         	lsls	r0, r0, #0x1d
10002e24: d5fc         	bpl	0x10002e20 <GLCD_SetWindow+0x158> @ imm = #-0x8
10002e26: f3c4 4007    	ubfx	r0, r4, #0x10, #0x8
10002e2a: 681d         	ldr	r5, [r3]
10002e2c: 6018         	str	r0, [r3]
10002e2e: bf00         	nop
10002e30: 6858         	ldr	r0, [r3, #0x4]
10002e32: 0740         	lsls	r0, r0, #0x1d
10002e34: d5fc         	bpl	0x10002e30 <GLCD_SetWindow+0x168> @ imm = #-0x8
10002e36: f3c4 2007    	ubfx	r0, r4, #0x8, #0x8
10002e3a: 681d         	ldr	r5, [r3]
10002e3c: 6018         	str	r0, [r3]
10002e3e: bf00         	nop
10002e40: 6858         	ldr	r0, [r3, #0x4]
10002e42: 0740         	lsls	r0, r0, #0x1d
10002e44: d5fc         	bpl	0x10002e40 <GLCD_SetWindow+0x178> @ imm = #-0x8
10002e46: 6818         	ldr	r0, [r3]
10002e48: 6810         	ldr	r0, [r2]
10002e4a: f040 0001    	orr	r0, r0, #0x1
10002e4e: 6010         	str	r0, [r2]
10002e50: f8de 0000    	ldr.w	r0, [lr]
10002e54: f020 0001    	bic	r0, r0, #0x1
10002e58: f8ce 0000    	str.w	r0, [lr]
10002e5c: 2070         	movs	r0, #0x70
10002e5e: 6018         	str	r0, [r3]
10002e60: 6858         	ldr	r0, [r3, #0x4]
10002e62: 0740         	lsls	r0, r0, #0x1d
10002e64: d5fc         	bpl	0x10002e60 <GLCD_SetWindow+0x198> @ imm = #-0x8
10002e66: 6818         	ldr	r0, [r3]
10002e68: 2000         	movs	r0, #0x0
10002e6a: 6018         	str	r0, [r3]
10002e6c: 6858         	ldr	r0, [r3, #0x4]
10002e6e: 0740         	lsls	r0, r0, #0x1d
10002e70: d5fc         	bpl	0x10002e6c <GLCD_SetWindow+0x1a4> @ imm = #-0x8
10002e72: 6818         	ldr	r0, [r3]
10002e74: 2005         	movs	r0, #0x5
10002e76: 6018         	str	r0, [r3]
10002e78: 6858         	ldr	r0, [r3, #0x4]
10002e7a: 0740         	lsls	r0, r0, #0x1d
10002e7c: d5fc         	bpl	0x10002e78 <GLCD_SetWindow+0x1b0> @ imm = #-0x8
10002e7e: 6818         	ldr	r0, [r3]
10002e80: 6810         	ldr	r0, [r2]
10002e82: f040 0001    	orr	r0, r0, #0x1
10002e86: 6010         	str	r0, [r2]
10002e88: f8de 0000    	ldr.w	r0, [lr]
10002e8c: f020 0001    	bic	r0, r0, #0x1
10002e90: f8ce 0000    	str.w	r0, [lr]
10002e94: 2072         	movs	r0, #0x72
10002e96: 6018         	str	r0, [r3]
10002e98: 6858         	ldr	r0, [r3, #0x4]
10002e9a: 0740         	lsls	r0, r0, #0x1d
10002e9c: d5fc         	bpl	0x10002e98 <GLCD_SetWindow+0x1d0> @ imm = #-0x8
10002e9e: 6818         	ldr	r0, [r3]
10002ea0: 2000         	movs	r0, #0x0
10002ea2: 6018         	str	r0, [r3]
10002ea4: 6858         	ldr	r0, [r3, #0x4]
10002ea6: 0740         	lsls	r0, r0, #0x1d
10002ea8: d5fc         	bpl	0x10002ea4 <GLCD_SetWindow+0x1dc> @ imm = #-0x8
10002eaa: b2e0         	uxtb	r0, r4
10002eac: 681c         	ldr	r4, [r3]
10002eae: 6018         	str	r0, [r3]
10002eb0: 6858         	ldr	r0, [r3, #0x4]
10002eb2: 0740         	lsls	r0, r0, #0x1d
10002eb4: d5fc         	bpl	0x10002eb0 <GLCD_SetWindow+0x1e8> @ imm = #-0x8
10002eb6: 6818         	ldr	r0, [r3]
10002eb8: 6810         	ldr	r0, [r2]
10002eba: f040 0001    	orr	r0, r0, #0x1
10002ebe: 6010         	str	r0, [r2]
10002ec0: f8de 0000    	ldr.w	r0, [lr]
10002ec4: f020 0001    	bic	r0, r0, #0x1
10002ec8: f8ce 0000    	str.w	r0, [lr]
10002ecc: 2070         	movs	r0, #0x70
10002ece: 6018         	str	r0, [r3]
10002ed0: 6858         	ldr	r0, [r3, #0x4]
10002ed2: 0740         	lsls	r0, r0, #0x1d
10002ed4: d5fc         	bpl	0x10002ed0 <GLCD_SetWindow+0x208> @ imm = #-0x8
10002ed6: 6818         	ldr	r0, [r3]
10002ed8: 2000         	movs	r0, #0x0
10002eda: 6018         	str	r0, [r3]
10002edc: 6858         	ldr	r0, [r3, #0x4]
10002ede: 0740         	lsls	r0, r0, #0x1d
10002ee0: d5fc         	bpl	0x10002edc <GLCD_SetWindow+0x214> @ imm = #-0x8
10002ee2: 6818         	ldr	r0, [r3]
10002ee4: 2006         	movs	r0, #0x6
10002ee6: 6018         	str	r0, [r3]
10002ee8: 6858         	ldr	r0, [r3, #0x4]
10002eea: 0740         	lsls	r0, r0, #0x1d
10002eec: d5fc         	bpl	0x10002ee8 <GLCD_SetWindow+0x220> @ imm = #-0x8
10002eee: 6818         	ldr	r0, [r3]
10002ef0: 6810         	ldr	r0, [r2]
10002ef2: f040 0001    	orr	r0, r0, #0x1
10002ef6: 6010         	str	r0, [r2]
10002ef8: f8de 0000    	ldr.w	r0, [lr]
10002efc: f020 0001    	bic	r0, r0, #0x1
10002f00: f8ce 0000    	str.w	r0, [lr]
10002f04: 2072         	movs	r0, #0x72
10002f06: 6018         	str	r0, [r3]
10002f08: 6858         	ldr	r0, [r3, #0x4]
10002f0a: 0740         	lsls	r0, r0, #0x1d
10002f0c: d5fc         	bpl	0x10002f08 <GLCD_SetWindow+0x240> @ imm = #-0x8
10002f0e: f3c1 4007    	ubfx	r0, r1, #0x10, #0x8
10002f12: 681c         	ldr	r4, [r3]
10002f14: 6018         	str	r0, [r3]
10002f16: bf00         	nop
10002f18: 6858         	ldr	r0, [r3, #0x4]
10002f1a: 0740         	lsls	r0, r0, #0x1d
10002f1c: d5fc         	bpl	0x10002f18 <GLCD_SetWindow+0x250> @ imm = #-0x8
10002f1e: f3c1 2007    	ubfx	r0, r1, #0x8, #0x8
10002f22: 681c         	ldr	r4, [r3]
10002f24: 6018         	str	r0, [r3]
10002f26: bf00         	nop
10002f28: 6858         	ldr	r0, [r3, #0x4]
10002f2a: 0740         	lsls	r0, r0, #0x1d
10002f2c: d5fc         	bpl	0x10002f28 <GLCD_SetWindow+0x260> @ imm = #-0x8
10002f2e: 6818         	ldr	r0, [r3]
10002f30: 6810         	ldr	r0, [r2]
10002f32: f040 0001    	orr	r0, r0, #0x1
10002f36: 6010         	str	r0, [r2]
10002f38: f8de 0000    	ldr.w	r0, [lr]
10002f3c: f020 0001    	bic	r0, r0, #0x1
10002f40: f8ce 0000    	str.w	r0, [lr]
10002f44: 2070         	movs	r0, #0x70
10002f46: 6018         	str	r0, [r3]
10002f48: 6858         	ldr	r0, [r3, #0x4]
10002f4a: 0740         	lsls	r0, r0, #0x1d
10002f4c: d5fc         	bpl	0x10002f48 <GLCD_SetWindow+0x280> @ imm = #-0x8
10002f4e: 6818         	ldr	r0, [r3]
10002f50: 2000         	movs	r0, #0x0
10002f52: 6018         	str	r0, [r3]
10002f54: 6858         	ldr	r0, [r3, #0x4]
10002f56: 0740         	lsls	r0, r0, #0x1d
10002f58: d5fc         	bpl	0x10002f54 <GLCD_SetWindow+0x28c> @ imm = #-0x8
10002f5a: 6818         	ldr	r0, [r3]
10002f5c: 2007         	movs	r0, #0x7
10002f5e: 6018         	str	r0, [r3]
10002f60: 6858         	ldr	r0, [r3, #0x4]
10002f62: 0740         	lsls	r0, r0, #0x1d
10002f64: d5fc         	bpl	0x10002f60 <GLCD_SetWindow+0x298> @ imm = #-0x8
10002f66: 6818         	ldr	r0, [r3]
10002f68: 6810         	ldr	r0, [r2]
10002f6a: f040 0001    	orr	r0, r0, #0x1
10002f6e: 6010         	str	r0, [r2]
10002f70: f8de 0000    	ldr.w	r0, [lr]
10002f74: f020 0001    	bic	r0, r0, #0x1
10002f78: f8ce 0000    	str.w	r0, [lr]
10002f7c: 2072         	movs	r0, #0x72
10002f7e: 6018         	str	r0, [r3]
10002f80: 6858         	ldr	r0, [r3, #0x4]
10002f82: 0740         	lsls	r0, r0, #0x1d
10002f84: d5fc         	bpl	0x10002f80 <GLCD_SetWindow+0x2b8> @ imm = #-0x8
10002f86: 6818         	ldr	r0, [r3]
10002f88: 2000         	movs	r0, #0x0
10002f8a: 6018         	str	r0, [r3]
10002f8c: 6858         	ldr	r0, [r3, #0x4]
10002f8e: 0740         	lsls	r0, r0, #0x1d
10002f90: d5fc         	bpl	0x10002f8c <GLCD_SetWindow+0x2c4> @ imm = #-0x8
10002f92: b2c8         	uxtb	r0, r1
10002f94: 6819         	ldr	r1, [r3]
10002f96: 6018         	str	r0, [r3]
10002f98: 6858         	ldr	r0, [r3, #0x4]
10002f9a: 0740         	lsls	r0, r0, #0x1d
10002f9c: d5fc         	bpl	0x10002f98 <GLCD_SetWindow+0x2d0> @ imm = #-0x8
10002f9e: 6818         	ldr	r0, [r3]
10002fa0: 6810         	ldr	r0, [r2]
10002fa2: f040 0001    	orr	r0, r0, #0x1
10002fa6: 6010         	str	r0, [r2]
10002fa8: f8de 0000    	ldr.w	r0, [lr]
10002fac: f020 0001    	bic	r0, r0, #0x1
10002fb0: f8ce 0000    	str.w	r0, [lr]
10002fb4: 2070         	movs	r0, #0x70
10002fb6: 6018         	str	r0, [r3]
10002fb8: 6858         	ldr	r0, [r3, #0x4]
10002fba: 0740         	lsls	r0, r0, #0x1d
10002fbc: d5fc         	bpl	0x10002fb8 <GLCD_SetWindow+0x2f0> @ imm = #-0x8
10002fbe: 6818         	ldr	r0, [r3]
10002fc0: 2000         	movs	r0, #0x0
10002fc2: 6018         	str	r0, [r3]
10002fc4: 6858         	ldr	r0, [r3, #0x4]
10002fc6: 0740         	lsls	r0, r0, #0x1d
10002fc8: d5fc         	bpl	0x10002fc4 <GLCD_SetWindow+0x2fc> @ imm = #-0x8
10002fca: 6818         	ldr	r0, [r3]
10002fcc: 2008         	movs	r0, #0x8
10002fce: 6018         	str	r0, [r3]
10002fd0: 6858         	ldr	r0, [r3, #0x4]
10002fd2: 0740         	lsls	r0, r0, #0x1d
10002fd4: d5fc         	bpl	0x10002fd0 <GLCD_SetWindow+0x308> @ imm = #-0x8
10002fd6: 6818         	ldr	r0, [r3]
10002fd8: 6810         	ldr	r0, [r2]
10002fda: f040 0001    	orr	r0, r0, #0x1
10002fde: 6010         	str	r0, [r2]
10002fe0: f8de 0000    	ldr.w	r0, [lr]
10002fe4: f020 0001    	bic	r0, r0, #0x1
10002fe8: f8ce 0000    	str.w	r0, [lr]
10002fec: 2072         	movs	r0, #0x72
10002fee: 6018         	str	r0, [r3]
10002ff0: 6858         	ldr	r0, [r3, #0x4]
10002ff2: 0740         	lsls	r0, r0, #0x1d
10002ff4: d5fc         	bpl	0x10002ff0 <GLCD_SetWindow+0x328> @ imm = #-0x8
10002ff6: f3cc 4007    	ubfx	r0, r12, #0x10, #0x8
10002ffa: 6819         	ldr	r1, [r3]
10002ffc: 6018         	str	r0, [r3]
10002ffe: bf00         	nop
10003000: 6858         	ldr	r0, [r3, #0x4]
10003002: 0740         	lsls	r0, r0, #0x1d
10003004: d5fc         	bpl	0x10003000 <GLCD_SetWindow+0x338> @ imm = #-0x8
10003006: f3cc 2007    	ubfx	r0, r12, #0x8, #0x8
1000300a: 6819         	ldr	r1, [r3]
1000300c: 6018         	str	r0, [r3]
1000300e: bf00         	nop
10003010: 6858         	ldr	r0, [r3, #0x4]
10003012: 0740         	lsls	r0, r0, #0x1d
10003014: d5fc         	bpl	0x10003010 <GLCD_SetWindow+0x348> @ imm = #-0x8
10003016: 6818         	ldr	r0, [r3]
10003018: 6810         	ldr	r0, [r2]
1000301a: f040 0001    	orr	r0, r0, #0x1
1000301e: 6010         	str	r0, [r2]
10003020: f8de 0000    	ldr.w	r0, [lr]
10003024: f020 0001    	bic	r0, r0, #0x1
10003028: f8ce 0000    	str.w	r0, [lr]
1000302c: 2070         	movs	r0, #0x70
1000302e: 6018         	str	r0, [r3]
10003030: 6858         	ldr	r0, [r3, #0x4]
10003032: 0740         	lsls	r0, r0, #0x1d
10003034: d5fc         	bpl	0x10003030 <GLCD_SetWindow+0x368> @ imm = #-0x8
10003036: 6818         	ldr	r0, [r3]
10003038: 2000         	movs	r0, #0x0
1000303a: 6018         	str	r0, [r3]
1000303c: 6858         	ldr	r0, [r3, #0x4]
1000303e: 0740         	lsls	r0, r0, #0x1d
10003040: d5fc         	bpl	0x1000303c <GLCD_SetWindow+0x374> @ imm = #-0x8
10003042: 6818         	ldr	r0, [r3]
10003044: 2009         	movs	r0, #0x9
10003046: 6018         	str	r0, [r3]
10003048: 6858         	ldr	r0, [r3, #0x4]
1000304a: 0740         	lsls	r0, r0, #0x1d
1000304c: d5fc         	bpl	0x10003048 <GLCD_SetWindow+0x380> @ imm = #-0x8
1000304e: 6818         	ldr	r0, [r3]
10003050: 6810         	ldr	r0, [r2]
10003052: f040 0001    	orr	r0, r0, #0x1
10003056: 6010         	str	r0, [r2]
10003058: f8de 0000    	ldr.w	r0, [lr]
1000305c: f020 0001    	bic	r0, r0, #0x1
10003060: f8ce 0000    	str.w	r0, [lr]
10003064: 2072         	movs	r0, #0x72
10003066: 6018         	str	r0, [r3]
10003068: 6858         	ldr	r0, [r3, #0x4]
1000306a: 0740         	lsls	r0, r0, #0x1d
1000306c: d5fc         	bpl	0x10003068 <GLCD_SetWindow+0x3a0> @ imm = #-0x8
1000306e: 6818         	ldr	r0, [r3]
10003070: 2000         	movs	r0, #0x0
10003072: 6018         	str	r0, [r3]
10003074: 6858         	ldr	r0, [r3, #0x4]
10003076: 0740         	lsls	r0, r0, #0x1d
10003078: d5fc         	bpl	0x10003074 <GLCD_SetWindow+0x3ac> @ imm = #-0x8
1000307a: fa5f f08c    	uxtb.w	r0, r12
1000307e: 6819         	ldr	r1, [r3]
10003080: 6018         	str	r0, [r3]
10003082: bf00         	nop
10003084: 6858         	ldr	r0, [r3, #0x4]
10003086: 0740         	lsls	r0, r0, #0x1d
10003088: d5fc         	bpl	0x10003084 <GLCD_SetWindow+0x3bc> @ imm = #-0x8
1000308a: 6818         	ldr	r0, [r3]
1000308c: 6810         	ldr	r0, [r2]
1000308e: f040 0001    	orr	r0, r0, #0x1
10003092: 6010         	str	r0, [r2]
10003094: bd70         	pop	{r4, r5, r6, pc}
10003096: 0000         	movs	r0, r0

10003098 <HardFault_Handler>:
10003098: e7fe         	b	0x10003098 <HardFault_Handler> @ imm = #-0x4
1000309a: 0000         	movs	r0, r0

1000309c <I2C_clear>:
1000309c: b5b0         	push	{r4, r5, r7, lr}
1000309e: f242 0118    	movw	r1, #0x2018
100030a2: f247 0300    	movw	r3, #0x7000
100030a6: 2000         	movs	r0, #0x0
100030a8: f2c5 0130    	movt	r1, #0x5030
100030ac: f04f 0c02    	mov.w	r12, #0x2
100030b0: f2c5 0320    	movt	r3, #0x5020
100030b4: f04f 0e01    	mov.w	lr, #0x1
100030b8: e004         	b	0x100030c4 <I2C_clear+0x28> @ imm = #0x8
100030ba: bf00         	nop
100030bc: 3001         	adds	r0, #0x1
100030be: 2805         	cmp	r0, #0x5
100030c0: bf08         	it	eq
100030c2: bdb0         	popeq	{r4, r5, r7, pc}
100030c4: f8c3 c004    	str.w	r12, [r3, #0x4]
100030c8: 680c         	ldr	r4, [r1]
100030ca: f114 0f10    	cmn.w	r4, #0x10
100030ce: f104 020f    	add.w	r2, r4, #0xf
100030d2: d907         	bls	0x100030e4 <I2C_clear+0x48> @ imm = #0xe
100030d4: 680d         	ldr	r5, [r1]
100030d6: 42a5         	cmp	r5, r4
100030d8: d2fc         	bhs	0x100030d4 <I2C_clear+0x38> @ imm = #-0x8
100030da: bf00         	nop
100030dc: 680c         	ldr	r4, [r1]
100030de: 4294         	cmp	r4, r2
100030e0: d3fc         	blo	0x100030dc <I2C_clear+0x40> @ imm = #-0x8
100030e2: e005         	b	0x100030f0 <I2C_clear+0x54> @ imm = #0xa
100030e4: 680d         	ldr	r5, [r1]
100030e6: 42a5         	cmp	r5, r4
100030e8: d302         	blo	0x100030f0 <I2C_clear+0x54> @ imm = #0x4
100030ea: 680d         	ldr	r5, [r1]
100030ec: 4295         	cmp	r5, r2
100030ee: d3f9         	blo	0x100030e4 <I2C_clear+0x48> @ imm = #-0xe
100030f0: f8c3 e004    	str.w	lr, [r3, #0x4]
100030f4: 680c         	ldr	r4, [r1]
100030f6: f114 0f10    	cmn.w	r4, #0x10
100030fa: f104 020f    	add.w	r2, r4, #0xf
100030fe: d907         	bls	0x10003110 <I2C_clear+0x74> @ imm = #0xe
10003100: 680d         	ldr	r5, [r1]
10003102: 42a5         	cmp	r5, r4
10003104: d2fc         	bhs	0x10003100 <I2C_clear+0x64> @ imm = #-0x8
10003106: bf00         	nop
10003108: 680c         	ldr	r4, [r1]
1000310a: 4294         	cmp	r4, r2
1000310c: d3fc         	blo	0x10003108 <I2C_clear+0x6c> @ imm = #-0x8
1000310e: e005         	b	0x1000311c <I2C_clear+0x80> @ imm = #0xa
10003110: 680d         	ldr	r5, [r1]
10003112: 42a5         	cmp	r5, r4
10003114: d302         	blo	0x1000311c <I2C_clear+0x80> @ imm = #0x4
10003116: 680d         	ldr	r5, [r1]
10003118: 4295         	cmp	r5, r2
1000311a: d3f9         	blo	0x10003110 <I2C_clear+0x74> @ imm = #-0xe
1000311c: f8c3 e000    	str.w	lr, [r3]
10003120: 680c         	ldr	r4, [r1]
10003122: f114 0f10    	cmn.w	r4, #0x10
10003126: f104 020f    	add.w	r2, r4, #0xf
1000312a: d907         	bls	0x1000313c <I2C_clear+0xa0> @ imm = #0xe
1000312c: 680d         	ldr	r5, [r1]
1000312e: 42a5         	cmp	r5, r4
10003130: d2fc         	bhs	0x1000312c <I2C_clear+0x90> @ imm = #-0x8
10003132: bf00         	nop
10003134: 680c         	ldr	r4, [r1]
10003136: 4294         	cmp	r4, r2
10003138: d3fc         	blo	0x10003134 <I2C_clear+0x98> @ imm = #-0x8
1000313a: e005         	b	0x10003148 <I2C_clear+0xac> @ imm = #0xa
1000313c: 680d         	ldr	r5, [r1]
1000313e: 42a5         	cmp	r5, r4
10003140: d302         	blo	0x10003148 <I2C_clear+0xac> @ imm = #0x4
10003142: 680d         	ldr	r5, [r1]
10003144: 4295         	cmp	r5, r2
10003146: d3f9         	blo	0x1000313c <I2C_clear+0xa0> @ imm = #-0xe
10003148: f8c3 c000    	str.w	r12, [r3]
1000314c: 680c         	ldr	r4, [r1]
1000314e: f114 0f10    	cmn.w	r4, #0x10
10003152: f104 020f    	add.w	r2, r4, #0xf
10003156: d907         	bls	0x10003168 <I2C_clear+0xcc> @ imm = #0xe
10003158: 680d         	ldr	r5, [r1]
1000315a: 42a5         	cmp	r5, r4
1000315c: d2fc         	bhs	0x10003158 <I2C_clear+0xbc> @ imm = #-0x8
1000315e: bf00         	nop
10003160: 680c         	ldr	r4, [r1]
10003162: 4294         	cmp	r4, r2
10003164: d3fc         	blo	0x10003160 <I2C_clear+0xc4> @ imm = #-0x8
10003166: e7a9         	b	0x100030bc <I2C_clear+0x20> @ imm = #-0xae
10003168: 680d         	ldr	r5, [r1]
1000316a: 42a5         	cmp	r5, r4
1000316c: d3a6         	blo	0x100030bc <I2C_clear+0x20> @ imm = #-0xb4
1000316e: 680d         	ldr	r5, [r1]
10003170: 4295         	cmp	r5, r2
10003172: d3f9         	blo	0x10003168 <I2C_clear+0xcc> @ imm = #-0xe
10003174: e7a2         	b	0x100030bc <I2C_clear+0x20> @ imm = #-0xbc
10003176: 0000         	movs	r0, r0

10003178 <I2C_rx>:
10003178: e92d 47f0    	push.w	{r4, r5, r6, r7, r8, r9, r10, lr}
1000317c: 2703         	movs	r7, #0x3
1000317e: f242 0c18    	movw	r12, #0x2018
10003182: f2c5 0c30    	movt	r12, #0x5030
10003186: 6007         	str	r7, [r0]
10003188: f8dc 6000    	ldr.w	r6, [r12]
1000318c: f116 0f10    	cmn.w	r6, #0x10
10003190: f106 070f    	add.w	r7, r6, #0xf
10003194: d90a         	bls	0x100031ac <I2C_rx+0x34> @ imm = #0x14
10003196: bf00         	nop
10003198: f8dc 5000    	ldr.w	r5, [r12]
1000319c: 42b5         	cmp	r5, r6
1000319e: d2fb         	bhs	0x10003198 <I2C_rx+0x20> @ imm = #-0xa
100031a0: f8dc 6000    	ldr.w	r6, [r12]
100031a4: 42be         	cmp	r6, r7
100031a6: d3fb         	blo	0x100031a0 <I2C_rx+0x28> @ imm = #-0xa
100031a8: e008         	b	0x100031bc <I2C_rx+0x44> @ imm = #0x10
100031aa: bf00         	nop
100031ac: f8dc 5000    	ldr.w	r5, [r12]
100031b0: 42b5         	cmp	r5, r6
100031b2: d303         	blo	0x100031bc <I2C_rx+0x44> @ imm = #0x6
100031b4: f8dc 5000    	ldr.w	r5, [r12]
100031b8: 42bd         	cmp	r5, r7
100031ba: d3f7         	blo	0x100031ac <I2C_rx+0x34> @ imm = #-0x12
100031bc: 2702         	movs	r7, #0x2
100031be: 6047         	str	r7, [r0, #0x4]
100031c0: f8dc 6000    	ldr.w	r6, [r12]
100031c4: f116 0f10    	cmn.w	r6, #0x10
100031c8: f106 070f    	add.w	r7, r6, #0xf
100031cc: d90a         	bls	0x100031e4 <I2C_rx+0x6c> @ imm = #0x14
100031ce: bf00         	nop
100031d0: f8dc 5000    	ldr.w	r5, [r12]
100031d4: 42b5         	cmp	r5, r6
100031d6: d2fb         	bhs	0x100031d0 <I2C_rx+0x58> @ imm = #-0xa
100031d8: f8dc 6000    	ldr.w	r6, [r12]
100031dc: 42be         	cmp	r6, r7
100031de: d3fb         	blo	0x100031d8 <I2C_rx+0x60> @ imm = #-0xa
100031e0: e008         	b	0x100031f4 <I2C_rx+0x7c> @ imm = #0x10
100031e2: bf00         	nop
100031e4: f8dc 5000    	ldr.w	r5, [r12]
100031e8: 42b5         	cmp	r5, r6
100031ea: d303         	blo	0x100031f4 <I2C_rx+0x7c> @ imm = #0x6
100031ec: f8dc 5000    	ldr.w	r5, [r12]
100031f0: 42bd         	cmp	r5, r7
100031f2: d3f7         	blo	0x100031e4 <I2C_rx+0x6c> @ imm = #-0x12
100031f4: 2701         	movs	r7, #0x1
100031f6: 6047         	str	r7, [r0, #0x4]
100031f8: f8dc 6000    	ldr.w	r6, [r12]
100031fc: f116 0f10    	cmn.w	r6, #0x10
10003200: f106 070f    	add.w	r7, r6, #0xf
10003204: d90a         	bls	0x1000321c <I2C_rx+0xa4> @ imm = #0x14
10003206: bf00         	nop
10003208: f8dc 5000    	ldr.w	r5, [r12]
1000320c: 42b5         	cmp	r5, r6
1000320e: d2fb         	bhs	0x10003208 <I2C_rx+0x90> @ imm = #-0xa
10003210: f8dc 6000    	ldr.w	r6, [r12]
10003214: 42be         	cmp	r6, r7
10003216: d3fb         	blo	0x10003210 <I2C_rx+0x98> @ imm = #-0xa
10003218: e008         	b	0x1000322c <I2C_rx+0xb4> @ imm = #0x10
1000321a: bf00         	nop
1000321c: f8dc 5000    	ldr.w	r5, [r12]
10003220: 42b5         	cmp	r5, r6
10003222: d303         	blo	0x1000322c <I2C_rx+0xb4> @ imm = #0x6
10003224: f8dc 5000    	ldr.w	r5, [r12]
10003228: 42bd         	cmp	r5, r7
1000322a: d3f7         	blo	0x1000321c <I2C_rx+0xa4> @ imm = #-0x12
1000322c: f8dd e020    	ldr.w	lr, [sp, #0x20]
10003230: 2400         	movs	r4, #0x0
10003232: f04f 0802    	mov.w	r8, #0x2
10003236: f04f 0901    	mov.w	r9, #0x1
1000323a: e006         	b	0x1000324a <I2C_rx+0xd2> @ imm = #0xc
1000323c: 0049         	lsls	r1, r1, #0x1
1000323e: 2c07         	cmp	r4, #0x7
10003240: f104 0401    	add.w	r4, r4, #0x1
10003244: f8c0 9004    	str.w	r9, [r0, #0x4]
10003248: d23d         	bhs	0x100032c6 <I2C_rx+0x14e> @ imm = #0x7a
1000324a: b24d         	sxtb	r5, r1
1000324c: f1b5 3fff    	cmp.w	r5, #0xffffffff
10003250: 4605         	mov	r5, r0
10003252: bfc8         	it	gt
10003254: 3504         	addgt	r5, #0x4
10003256: f8c5 8000    	str.w	r8, [r5]
1000325a: f8dc 5000    	ldr.w	r5, [r12]
1000325e: f115 0f10    	cmn.w	r5, #0x10
10003262: f105 070f    	add.w	r7, r5, #0xf
10003266: d909         	bls	0x1000327c <I2C_rx+0x104> @ imm = #0x12
10003268: f8dc 6000    	ldr.w	r6, [r12]
1000326c: 42ae         	cmp	r6, r5
1000326e: d2fb         	bhs	0x10003268 <I2C_rx+0xf0> @ imm = #-0xa
10003270: f8dc 5000    	ldr.w	r5, [r12]
10003274: 42bd         	cmp	r5, r7
10003276: d3fb         	blo	0x10003270 <I2C_rx+0xf8> @ imm = #-0xa
10003278: e008         	b	0x1000328c <I2C_rx+0x114> @ imm = #0x10
1000327a: bf00         	nop
1000327c: f8dc 6000    	ldr.w	r6, [r12]
10003280: 42ae         	cmp	r6, r5
10003282: d303         	blo	0x1000328c <I2C_rx+0x114> @ imm = #0x6
10003284: f8dc 6000    	ldr.w	r6, [r12]
10003288: 42be         	cmp	r6, r7
1000328a: d3f7         	blo	0x1000327c <I2C_rx+0x104> @ imm = #-0x12
1000328c: f8c0 9000    	str.w	r9, [r0]
10003290: f8dc 5000    	ldr.w	r5, [r12]
10003294: f115 0f10    	cmn.w	r5, #0x10
10003298: f105 070f    	add.w	r7, r5, #0xf
1000329c: d90a         	bls	0x100032b4 <I2C_rx+0x13c> @ imm = #0x14
1000329e: bf00         	nop
100032a0: f8dc 6000    	ldr.w	r6, [r12]
100032a4: 42ae         	cmp	r6, r5
100032a6: d2fb         	bhs	0x100032a0 <I2C_rx+0x128> @ imm = #-0xa
100032a8: f8dc 5000    	ldr.w	r5, [r12]
100032ac: 42bd         	cmp	r5, r7
100032ae: d3fb         	blo	0x100032a8 <I2C_rx+0x130> @ imm = #-0xa
100032b0: e7c4         	b	0x1000323c <I2C_rx+0xc4> @ imm = #-0x78
100032b2: bf00         	nop
100032b4: f8dc 6000    	ldr.w	r6, [r12]
100032b8: 42ae         	cmp	r6, r5
100032ba: d3bf         	blo	0x1000323c <I2C_rx+0xc4> @ imm = #-0x82
100032bc: f8dc 6000    	ldr.w	r6, [r12]
100032c0: 42be         	cmp	r6, r7
100032c2: d3f7         	blo	0x100032b4 <I2C_rx+0x13c> @ imm = #-0x12
100032c4: e7ba         	b	0x1000323c <I2C_rx+0xc4> @ imm = #-0x8c
100032c6: 2102         	movs	r1, #0x2
100032c8: 6001         	str	r1, [r0]
100032ca: f8dc 4000    	ldr.w	r4, [r12]
100032ce: f114 0f10    	cmn.w	r4, #0x10
100032d2: f104 010f    	add.w	r1, r4, #0xf
100032d6: d909         	bls	0x100032ec <I2C_rx+0x174> @ imm = #0x12
100032d8: f8dc 5000    	ldr.w	r5, [r12]
100032dc: 42a5         	cmp	r5, r4
100032de: d2fb         	bhs	0x100032d8 <I2C_rx+0x160> @ imm = #-0xa
100032e0: f8dc 4000    	ldr.w	r4, [r12]
100032e4: 428c         	cmp	r4, r1
100032e6: d3fb         	blo	0x100032e0 <I2C_rx+0x168> @ imm = #-0xa
100032e8: e008         	b	0x100032fc <I2C_rx+0x184> @ imm = #0x10
100032ea: bf00         	nop
100032ec: f8dc 5000    	ldr.w	r5, [r12]
100032f0: 42a5         	cmp	r5, r4
100032f2: d303         	blo	0x100032fc <I2C_rx+0x184> @ imm = #0x6
100032f4: f8dc 5000    	ldr.w	r5, [r12]
100032f8: 428d         	cmp	r5, r1
100032fa: d3f7         	blo	0x100032ec <I2C_rx+0x174> @ imm = #-0x12
100032fc: 2101         	movs	r1, #0x1
100032fe: 6001         	str	r1, [r0]
10003300: f8dc 4000    	ldr.w	r4, [r12]
10003304: f114 0f10    	cmn.w	r4, #0x10
10003308: f104 010f    	add.w	r1, r4, #0xf
1000330c: d90a         	bls	0x10003324 <I2C_rx+0x1ac> @ imm = #0x14
1000330e: bf00         	nop
10003310: f8dc 5000    	ldr.w	r5, [r12]
10003314: 42a5         	cmp	r5, r4
10003316: d2fb         	bhs	0x10003310 <I2C_rx+0x198> @ imm = #-0xa
10003318: f8dc 4000    	ldr.w	r4, [r12]
1000331c: 428c         	cmp	r4, r1
1000331e: d3fb         	blo	0x10003318 <I2C_rx+0x1a0> @ imm = #-0xa
10003320: e008         	b	0x10003334 <I2C_rx+0x1bc> @ imm = #0x10
10003322: bf00         	nop
10003324: f8dc 5000    	ldr.w	r5, [r12]
10003328: 42a5         	cmp	r5, r4
1000332a: d303         	blo	0x10003334 <I2C_rx+0x1bc> @ imm = #0x6
1000332c: f8dc 5000    	ldr.w	r5, [r12]
10003330: 428d         	cmp	r5, r1
10003332: d3f7         	blo	0x10003324 <I2C_rx+0x1ac> @ imm = #-0x12
10003334: 6801         	ldr	r1, [r0]
10003336: f04f 0901    	mov.w	r9, #0x1
1000333a: 2400         	movs	r4, #0x0
1000333c: f04f 0802    	mov.w	r8, #0x2
10003340: 2600         	movs	r6, #0x0
10003342: f8c0 9004    	str.w	r9, [r0, #0x4]
10003346: e00b         	b	0x10003360 <I2C_rx+0x1e8> @ imm = #0x16
10003348: 6801         	ldr	r1, [r0]
1000334a: 0064         	lsls	r4, r4, #0x1
1000334c: f3c1 0140    	ubfx	r1, r1, #0x1, #0x1
10003350: 2e07         	cmp	r6, #0x7
10003352: ea44 0401    	orr.w	r4, r4, r1
10003356: f106 0601    	add.w	r6, r6, #0x1
1000335a: f8c0 9004    	str.w	r9, [r0, #0x4]
1000335e: d238         	bhs	0x100033d2 <I2C_rx+0x25a> @ imm = #0x70
10003360: f8c0 8000    	str.w	r8, [r0]
10003364: f8dc 5000    	ldr.w	r5, [r12]
10003368: f115 0f10    	cmn.w	r5, #0x10
1000336c: f105 070f    	add.w	r7, r5, #0xf
10003370: d90a         	bls	0x10003388 <I2C_rx+0x210> @ imm = #0x14
10003372: bf00         	nop
10003374: f8dc 1000    	ldr.w	r1, [r12]
10003378: 42a9         	cmp	r1, r5
1000337a: d2fb         	bhs	0x10003374 <I2C_rx+0x1fc> @ imm = #-0xa
1000337c: f8dc 1000    	ldr.w	r1, [r12]
10003380: 42b9         	cmp	r1, r7
10003382: d3fb         	blo	0x1000337c <I2C_rx+0x204> @ imm = #-0xa
10003384: e008         	b	0x10003398 <I2C_rx+0x220> @ imm = #0x10
10003386: bf00         	nop
10003388: f8dc 1000    	ldr.w	r1, [r12]
1000338c: 42a9         	cmp	r1, r5
1000338e: d303         	blo	0x10003398 <I2C_rx+0x220> @ imm = #0x6
10003390: f8dc 1000    	ldr.w	r1, [r12]
10003394: 42b9         	cmp	r1, r7
10003396: d3f7         	blo	0x10003388 <I2C_rx+0x210> @ imm = #-0x12
10003398: f8c0 9000    	str.w	r9, [r0]
1000339c: f8dc 5000    	ldr.w	r5, [r12]
100033a0: f115 0f10    	cmn.w	r5, #0x10
100033a4: f105 070f    	add.w	r7, r5, #0xf
100033a8: d90a         	bls	0x100033c0 <I2C_rx+0x248> @ imm = #0x14
100033aa: bf00         	nop
100033ac: f8dc 1000    	ldr.w	r1, [r12]
100033b0: 42a9         	cmp	r1, r5
100033b2: d2fb         	bhs	0x100033ac <I2C_rx+0x234> @ imm = #-0xa
100033b4: f8dc 1000    	ldr.w	r1, [r12]
100033b8: 42b9         	cmp	r1, r7
100033ba: d3fb         	blo	0x100033b4 <I2C_rx+0x23c> @ imm = #-0xa
100033bc: e7c4         	b	0x10003348 <I2C_rx+0x1d0> @ imm = #-0x78
100033be: bf00         	nop
100033c0: f8dc 1000    	ldr.w	r1, [r12]
100033c4: 42a9         	cmp	r1, r5
100033c6: d3bf         	blo	0x10003348 <I2C_rx+0x1d0> @ imm = #-0x82
100033c8: f8dc 1000    	ldr.w	r1, [r12]
100033cc: 42b9         	cmp	r1, r7
100033ce: d3f7         	blo	0x100033c0 <I2C_rx+0x248> @ imm = #-0x12
100033d0: e7ba         	b	0x10003348 <I2C_rx+0x1d0> @ imm = #-0x8c
100033d2: 2b02         	cmp	r3, #0x2
100033d4: 7014         	strb	r4, [r2]
100033d6: f0c0 8090    	blo.w	0x100034fa <I2C_rx+0x382> @ imm = #0x120
100033da: f04f 0a01    	mov.w	r10, #0x1
100033de: f04f 0902    	mov.w	r9, #0x2
100033e2: f04f 0801    	mov.w	r8, #0x1
100033e6: e006         	b	0x100033f6 <I2C_rx+0x27e> @ imm = #0xc
100033e8: f802 6008    	strb.w	r6, [r2, r8]
100033ec: f108 0801    	add.w	r8, r8, #0x1
100033f0: 4598         	cmp	r8, r3
100033f2: f000 8082    	beq.w	0x100034fa <I2C_rx+0x382> @ imm = #0x104
100033f6: f8c0 9004    	str.w	r9, [r0, #0x4]
100033fa: f8dc 5000    	ldr.w	r5, [r12]
100033fe: f115 0f10    	cmn.w	r5, #0x10
10003402: f105 060f    	add.w	r6, r5, #0xf
10003406: d909         	bls	0x1000341c <I2C_rx+0x2a4> @ imm = #0x12
10003408: f8dc 4000    	ldr.w	r4, [r12]
1000340c: 42ac         	cmp	r4, r5
1000340e: d2fb         	bhs	0x10003408 <I2C_rx+0x290> @ imm = #-0xa
10003410: f8dc 4000    	ldr.w	r4, [r12]
10003414: 42b4         	cmp	r4, r6
10003416: d3fb         	blo	0x10003410 <I2C_rx+0x298> @ imm = #-0xa
10003418: e008         	b	0x1000342c <I2C_rx+0x2b4> @ imm = #0x10
1000341a: bf00         	nop
1000341c: f8dc 4000    	ldr.w	r4, [r12]
10003420: 42ac         	cmp	r4, r5
10003422: d303         	blo	0x1000342c <I2C_rx+0x2b4> @ imm = #0x6
10003424: f8dc 4000    	ldr.w	r4, [r12]
10003428: 42b4         	cmp	r4, r6
1000342a: d3f7         	blo	0x1000341c <I2C_rx+0x2a4> @ imm = #-0x12
1000342c: f8c0 a000    	str.w	r10, [r0]
10003430: f8dc 5000    	ldr.w	r5, [r12]
10003434: f115 0f10    	cmn.w	r5, #0x10
10003438: f105 060f    	add.w	r6, r5, #0xf
1000343c: d90a         	bls	0x10003454 <I2C_rx+0x2dc> @ imm = #0x14
1000343e: bf00         	nop
10003440: f8dc 4000    	ldr.w	r4, [r12]
10003444: 42ac         	cmp	r4, r5
10003446: d2fb         	bhs	0x10003440 <I2C_rx+0x2c8> @ imm = #-0xa
10003448: f8dc 4000    	ldr.w	r4, [r12]
1000344c: 42b4         	cmp	r4, r6
1000344e: d3fb         	blo	0x10003448 <I2C_rx+0x2d0> @ imm = #-0xa
10003450: e008         	b	0x10003464 <I2C_rx+0x2ec> @ imm = #0x10
10003452: bf00         	nop
10003454: f8dc 4000    	ldr.w	r4, [r12]
10003458: 42ac         	cmp	r4, r5
1000345a: d303         	blo	0x10003464 <I2C_rx+0x2ec> @ imm = #0x6
1000345c: f8dc 4000    	ldr.w	r4, [r12]
10003460: 42b4         	cmp	r4, r6
10003462: d3f7         	blo	0x10003454 <I2C_rx+0x2dc> @ imm = #-0x12
10003464: 2600         	movs	r6, #0x0
10003466: 2700         	movs	r7, #0x0
10003468: f8c0 a004    	str.w	r10, [r0, #0x4]
1000346c: e00c         	b	0x10003488 <I2C_rx+0x310> @ imm = #0x18
1000346e: bf00         	nop
10003470: 6801         	ldr	r1, [r0]
10003472: 0074         	lsls	r4, r6, #0x1
10003474: f3c1 0140    	ubfx	r1, r1, #0x1, #0x1
10003478: 2f07         	cmp	r7, #0x7
1000347a: ea41 0604    	orr.w	r6, r1, r4
1000347e: f107 0701    	add.w	r7, r7, #0x1
10003482: f8c0 a004    	str.w	r10, [r0, #0x4]
10003486: d2af         	bhs	0x100033e8 <I2C_rx+0x270> @ imm = #-0xa2
10003488: f8c0 9000    	str.w	r9, [r0]
1000348c: f8dc 4000    	ldr.w	r4, [r12]
10003490: f114 0f10    	cmn.w	r4, #0x10
10003494: f104 050f    	add.w	r5, r4, #0xf
10003498: d90a         	bls	0x100034b0 <I2C_rx+0x338> @ imm = #0x14
1000349a: bf00         	nop
1000349c: f8dc 1000    	ldr.w	r1, [r12]
100034a0: 42a1         	cmp	r1, r4
100034a2: d2fb         	bhs	0x1000349c <I2C_rx+0x324> @ imm = #-0xa
100034a4: f8dc 1000    	ldr.w	r1, [r12]
100034a8: 42a9         	cmp	r1, r5
100034aa: d3fb         	blo	0x100034a4 <I2C_rx+0x32c> @ imm = #-0xa
100034ac: e008         	b	0x100034c0 <I2C_rx+0x348> @ imm = #0x10
100034ae: bf00         	nop
100034b0: f8dc 1000    	ldr.w	r1, [r12]
100034b4: 42a1         	cmp	r1, r4
100034b6: d303         	blo	0x100034c0 <I2C_rx+0x348> @ imm = #0x6
100034b8: f8dc 1000    	ldr.w	r1, [r12]
100034bc: 42a9         	cmp	r1, r5
100034be: d3f7         	blo	0x100034b0 <I2C_rx+0x338> @ imm = #-0x12
100034c0: f8c0 a000    	str.w	r10, [r0]
100034c4: f8dc 4000    	ldr.w	r4, [r12]
100034c8: f114 0f10    	cmn.w	r4, #0x10
100034cc: f104 050f    	add.w	r5, r4, #0xf
100034d0: d90a         	bls	0x100034e8 <I2C_rx+0x370> @ imm = #0x14
100034d2: bf00         	nop
100034d4: f8dc 1000    	ldr.w	r1, [r12]
100034d8: 42a1         	cmp	r1, r4
100034da: d2fb         	bhs	0x100034d4 <I2C_rx+0x35c> @ imm = #-0xa
100034dc: f8dc 1000    	ldr.w	r1, [r12]
100034e0: 42a9         	cmp	r1, r5
100034e2: d3fb         	blo	0x100034dc <I2C_rx+0x364> @ imm = #-0xa
100034e4: e7c4         	b	0x10003470 <I2C_rx+0x2f8> @ imm = #-0x78
100034e6: bf00         	nop
100034e8: f8dc 1000    	ldr.w	r1, [r12]
100034ec: 42a1         	cmp	r1, r4
100034ee: d3bf         	blo	0x10003470 <I2C_rx+0x2f8> @ imm = #-0x82
100034f0: f8dc 1000    	ldr.w	r1, [r12]
100034f4: 42a9         	cmp	r1, r5
100034f6: d3f7         	blo	0x100034e8 <I2C_rx+0x370> @ imm = #-0x12
100034f8: e7ba         	b	0x10003470 <I2C_rx+0x2f8> @ imm = #-0x8c
100034fa: 2102         	movs	r1, #0x2
100034fc: 6001         	str	r1, [r0]
100034fe: f8dc 2000    	ldr.w	r2, [r12]
10003502: f112 0f10    	cmn.w	r2, #0x10
10003506: f102 010f    	add.w	r1, r2, #0xf
1000350a: d909         	bls	0x10003520 <I2C_rx+0x3a8> @ imm = #0x12
1000350c: f8dc 3000    	ldr.w	r3, [r12]
10003510: 4293         	cmp	r3, r2
10003512: d2fb         	bhs	0x1000350c <I2C_rx+0x394> @ imm = #-0xa
10003514: f8dc 2000    	ldr.w	r2, [r12]
10003518: 428a         	cmp	r2, r1
1000351a: d3fb         	blo	0x10003514 <I2C_rx+0x39c> @ imm = #-0xa
1000351c: e008         	b	0x10003530 <I2C_rx+0x3b8> @ imm = #0x10
1000351e: bf00         	nop
10003520: f8dc 3000    	ldr.w	r3, [r12]
10003524: 4293         	cmp	r3, r2
10003526: d303         	blo	0x10003530 <I2C_rx+0x3b8> @ imm = #0x6
10003528: f8dc 3000    	ldr.w	r3, [r12]
1000352c: 428b         	cmp	r3, r1
1000352e: d3f7         	blo	0x10003520 <I2C_rx+0x3a8> @ imm = #-0x12
10003530: 2101         	movs	r1, #0x1
10003532: 6001         	str	r1, [r0]
10003534: f8dc 2000    	ldr.w	r2, [r12]
10003538: f112 0f10    	cmn.w	r2, #0x10
1000353c: f102 010f    	add.w	r1, r2, #0xf
10003540: d90a         	bls	0x10003558 <I2C_rx+0x3e0> @ imm = #0x14
10003542: bf00         	nop
10003544: f8dc 3000    	ldr.w	r3, [r12]
10003548: 4293         	cmp	r3, r2
1000354a: d2fb         	bhs	0x10003544 <I2C_rx+0x3cc> @ imm = #-0xa
1000354c: f8dc 2000    	ldr.w	r2, [r12]
10003550: 428a         	cmp	r2, r1
10003552: d3fb         	blo	0x1000354c <I2C_rx+0x3d4> @ imm = #-0xa
10003554: e008         	b	0x10003568 <I2C_rx+0x3f0> @ imm = #0x10
10003556: bf00         	nop
10003558: f8dc 3000    	ldr.w	r3, [r12]
1000355c: 4293         	cmp	r3, r2
1000355e: d303         	blo	0x10003568 <I2C_rx+0x3f0> @ imm = #0x6
10003560: f8dc 3000    	ldr.w	r3, [r12]
10003564: 428b         	cmp	r3, r1
10003566: d3f7         	blo	0x10003558 <I2C_rx+0x3e0> @ imm = #-0x12
10003568: 2101         	movs	r1, #0x1
1000356a: f1be 0f00    	cmp.w	lr, #0x0
1000356e: 6041         	str	r1, [r0, #0x4]
10003570: d148         	bne	0x10003604 <I2C_rx+0x48c> @ imm = #0x90
10003572: 2102         	movs	r1, #0x2
10003574: 6041         	str	r1, [r0, #0x4]
10003576: f8dc 2000    	ldr.w	r2, [r12]
1000357a: f112 0f10    	cmn.w	r2, #0x10
1000357e: f102 010f    	add.w	r1, r2, #0xf
10003582: d909         	bls	0x10003598 <I2C_rx+0x420> @ imm = #0x12
10003584: f8dc 3000    	ldr.w	r3, [r12]
10003588: 4293         	cmp	r3, r2
1000358a: d2fb         	bhs	0x10003584 <I2C_rx+0x40c> @ imm = #-0xa
1000358c: f8dc 2000    	ldr.w	r2, [r12]
10003590: 428a         	cmp	r2, r1
10003592: d3fb         	blo	0x1000358c <I2C_rx+0x414> @ imm = #-0xa
10003594: e008         	b	0x100035a8 <I2C_rx+0x430> @ imm = #0x10
10003596: bf00         	nop
10003598: f8dc 3000    	ldr.w	r3, [r12]
1000359c: 4293         	cmp	r3, r2
1000359e: d303         	blo	0x100035a8 <I2C_rx+0x430> @ imm = #0x6
100035a0: f8dc 3000    	ldr.w	r3, [r12]
100035a4: 428b         	cmp	r3, r1
100035a6: d3f7         	blo	0x10003598 <I2C_rx+0x420> @ imm = #-0x12
100035a8: 2101         	movs	r1, #0x1
100035aa: 6001         	str	r1, [r0]
100035ac: f8dc 2000    	ldr.w	r2, [r12]
100035b0: f112 0f10    	cmn.w	r2, #0x10
100035b4: f102 010f    	add.w	r1, r2, #0xf
100035b8: d90a         	bls	0x100035d0 <I2C_rx+0x458> @ imm = #0x14
100035ba: bf00         	nop
100035bc: f8dc 3000    	ldr.w	r3, [r12]
100035c0: 4293         	cmp	r3, r2
100035c2: d2fb         	bhs	0x100035bc <I2C_rx+0x444> @ imm = #-0xa
100035c4: f8dc 2000    	ldr.w	r2, [r12]
100035c8: 428a         	cmp	r2, r1
100035ca: d3fb         	blo	0x100035c4 <I2C_rx+0x44c> @ imm = #-0xa
100035cc: e008         	b	0x100035e0 <I2C_rx+0x468> @ imm = #0x10
100035ce: bf00         	nop
100035d0: f8dc 3000    	ldr.w	r3, [r12]
100035d4: 4293         	cmp	r3, r2
100035d6: d303         	blo	0x100035e0 <I2C_rx+0x468> @ imm = #0x6
100035d8: f8dc 3000    	ldr.w	r3, [r12]
100035dc: 428b         	cmp	r3, r1
100035de: d3f7         	blo	0x100035d0 <I2C_rx+0x458> @ imm = #-0x12
100035e0: 2102         	movs	r1, #0x2
100035e2: 6001         	str	r1, [r0]
100035e4: f8dc 1000    	ldr.w	r1, [r12]
100035e8: f111 0f10    	cmn.w	r1, #0x10
100035ec: f101 000f    	add.w	r0, r1, #0xf
100035f0: d90a         	bls	0x10003608 <I2C_rx+0x490> @ imm = #0x14
100035f2: bf00         	nop
100035f4: f8dc 2000    	ldr.w	r2, [r12]
100035f8: 428a         	cmp	r2, r1
100035fa: d2fb         	bhs	0x100035f4 <I2C_rx+0x47c> @ imm = #-0xa
100035fc: f8dc 1000    	ldr.w	r1, [r12]
10003600: 4281         	cmp	r1, r0
10003602: d3fb         	blo	0x100035fc <I2C_rx+0x484> @ imm = #-0xa
10003604: e8bd 87f0    	pop.w	{r4, r5, r6, r7, r8, r9, r10, pc}
10003608: f8dc 2000    	ldr.w	r2, [r12]
1000360c: 428a         	cmp	r2, r1
1000360e: d3f9         	blo	0x10003604 <I2C_rx+0x48c> @ imm = #-0xe
10003610: f8dc 2000    	ldr.w	r2, [r12]
10003614: 4282         	cmp	r2, r0
10003616: bf28         	it	hs
10003618: e8bd 87f0    	pophs.w	{r4, r5, r6, r7, r8, r9, r10, pc}
1000361c: e7f4         	b	0x10003608 <I2C_rx+0x490> @ imm = #-0x18
1000361e: 0000         	movs	r0, r0

10003620 <I2C_tx>:
10003620: e92d 4ff0    	push.w	{r4, r5, r6, r7, r8, r9, r10, r11, lr}
10003624: 2703         	movs	r7, #0x3
10003626: f242 0c18    	movw	r12, #0x2018
1000362a: f2c5 0c30    	movt	r12, #0x5030
1000362e: 6007         	str	r7, [r0]
10003630: f8dc 6000    	ldr.w	r6, [r12]
10003634: f116 0f10    	cmn.w	r6, #0x10
10003638: f106 070f    	add.w	r7, r6, #0xf
1000363c: d90a         	bls	0x10003654 <I2C_tx+0x34> @ imm = #0x14
1000363e: bf00         	nop
10003640: f8dc 5000    	ldr.w	r5, [r12]
10003644: 42b5         	cmp	r5, r6
10003646: d2fb         	bhs	0x10003640 <I2C_tx+0x20> @ imm = #-0xa
10003648: f8dc 6000    	ldr.w	r6, [r12]
1000364c: 42be         	cmp	r6, r7
1000364e: d3fb         	blo	0x10003648 <I2C_tx+0x28> @ imm = #-0xa
10003650: e008         	b	0x10003664 <I2C_tx+0x44> @ imm = #0x10
10003652: bf00         	nop
10003654: f8dc 5000    	ldr.w	r5, [r12]
10003658: 42b5         	cmp	r5, r6
1000365a: d303         	blo	0x10003664 <I2C_tx+0x44> @ imm = #0x6
1000365c: f8dc 5000    	ldr.w	r5, [r12]
10003660: 42bd         	cmp	r5, r7
10003662: d3f7         	blo	0x10003654 <I2C_tx+0x34> @ imm = #-0x12
10003664: 2702         	movs	r7, #0x2
10003666: 6047         	str	r7, [r0, #0x4]
10003668: f8dc 6000    	ldr.w	r6, [r12]
1000366c: f116 0f10    	cmn.w	r6, #0x10
10003670: f106 070f    	add.w	r7, r6, #0xf
10003674: d90a         	bls	0x1000368c <I2C_tx+0x6c> @ imm = #0x14
10003676: bf00         	nop
10003678: f8dc 5000    	ldr.w	r5, [r12]
1000367c: 42b5         	cmp	r5, r6
1000367e: d2fb         	bhs	0x10003678 <I2C_tx+0x58> @ imm = #-0xa
10003680: f8dc 6000    	ldr.w	r6, [r12]
10003684: 42be         	cmp	r6, r7
10003686: d3fb         	blo	0x10003680 <I2C_tx+0x60> @ imm = #-0xa
10003688: e008         	b	0x1000369c <I2C_tx+0x7c> @ imm = #0x10
1000368a: bf00         	nop
1000368c: f8dc 5000    	ldr.w	r5, [r12]
10003690: 42b5         	cmp	r5, r6
10003692: d303         	blo	0x1000369c <I2C_tx+0x7c> @ imm = #0x6
10003694: f8dc 5000    	ldr.w	r5, [r12]
10003698: 42bd         	cmp	r5, r7
1000369a: d3f7         	blo	0x1000368c <I2C_tx+0x6c> @ imm = #-0x12
1000369c: 2701         	movs	r7, #0x1
1000369e: 6047         	str	r7, [r0, #0x4]
100036a0: f8dc 6000    	ldr.w	r6, [r12]
100036a4: f116 0f10    	cmn.w	r6, #0x10
100036a8: f106 070f    	add.w	r7, r6, #0xf
100036ac: d90a         	bls	0x100036c4 <I2C_tx+0xa4> @ imm = #0x14
100036ae: bf00         	nop
100036b0: f8dc 5000    	ldr.w	r5, [r12]
100036b4: 42b5         	cmp	r5, r6
100036b6: d2fb         	bhs	0x100036b0 <I2C_tx+0x90> @ imm = #-0xa
100036b8: f8dc 6000    	ldr.w	r6, [r12]
100036bc: 42be         	cmp	r6, r7
100036be: d3fb         	blo	0x100036b8 <I2C_tx+0x98> @ imm = #-0xa
100036c0: e008         	b	0x100036d4 <I2C_tx+0xb4> @ imm = #0x10
100036c2: bf00         	nop
100036c4: f8dc 5000    	ldr.w	r5, [r12]
100036c8: 42b5         	cmp	r5, r6
100036ca: d303         	blo	0x100036d4 <I2C_tx+0xb4> @ imm = #0x6
100036cc: f8dc 5000    	ldr.w	r5, [r12]
100036d0: 42bd         	cmp	r5, r7
100036d2: d3f7         	blo	0x100036c4 <I2C_tx+0xa4> @ imm = #-0x12
100036d4: f8dd e024    	ldr.w	lr, [sp, #0x24]
100036d8: 2500         	movs	r5, #0x0
100036da: f100 0a04    	add.w	r10, r0, #0x4
100036de: f04f 0802    	mov.w	r8, #0x2
100036e2: f04f 0901    	mov.w	r9, #0x1
100036e6: e006         	b	0x100036f6 <I2C_tx+0xd6> @ imm = #0xc
100036e8: 0049         	lsls	r1, r1, #0x1
100036ea: 2d07         	cmp	r5, #0x7
100036ec: f105 0501    	add.w	r5, r5, #0x1
100036f0: f8c0 9004    	str.w	r9, [r0, #0x4]
100036f4: d23d         	bhs	0x10003772 <I2C_tx+0x152> @ imm = #0x7a
100036f6: b24c         	sxtb	r4, r1
100036f8: f1b4 3fff    	cmp.w	r4, #0xffffffff
100036fc: 4604         	mov	r4, r0
100036fe: bfc8         	it	gt
10003700: 4654         	movgt	r4, r10
10003702: f8c4 8000    	str.w	r8, [r4]
10003706: f8dc 7000    	ldr.w	r7, [r12]
1000370a: f117 0f10    	cmn.w	r7, #0x10
1000370e: f107 060f    	add.w	r6, r7, #0xf
10003712: d909         	bls	0x10003728 <I2C_tx+0x108> @ imm = #0x12
10003714: f8dc 4000    	ldr.w	r4, [r12]
10003718: 42bc         	cmp	r4, r7
1000371a: d2fb         	bhs	0x10003714 <I2C_tx+0xf4> @ imm = #-0xa
1000371c: f8dc 4000    	ldr.w	r4, [r12]
10003720: 42b4         	cmp	r4, r6
10003722: d3fb         	blo	0x1000371c <I2C_tx+0xfc> @ imm = #-0xa
10003724: e008         	b	0x10003738 <I2C_tx+0x118> @ imm = #0x10
10003726: bf00         	nop
10003728: f8dc 4000    	ldr.w	r4, [r12]
1000372c: 42bc         	cmp	r4, r7
1000372e: d303         	blo	0x10003738 <I2C_tx+0x118> @ imm = #0x6
10003730: f8dc 4000    	ldr.w	r4, [r12]
10003734: 42b4         	cmp	r4, r6
10003736: d3f7         	blo	0x10003728 <I2C_tx+0x108> @ imm = #-0x12
10003738: f8c0 9000    	str.w	r9, [r0]
1000373c: f8dc 7000    	ldr.w	r7, [r12]
10003740: f117 0f10    	cmn.w	r7, #0x10
10003744: f107 060f    	add.w	r6, r7, #0xf
10003748: d90a         	bls	0x10003760 <I2C_tx+0x140> @ imm = #0x14
1000374a: bf00         	nop
1000374c: f8dc 4000    	ldr.w	r4, [r12]
10003750: 42bc         	cmp	r4, r7
10003752: d2fb         	bhs	0x1000374c <I2C_tx+0x12c> @ imm = #-0xa
10003754: f8dc 4000    	ldr.w	r4, [r12]
10003758: 42b4         	cmp	r4, r6
1000375a: d3fb         	blo	0x10003754 <I2C_tx+0x134> @ imm = #-0xa
1000375c: e7c4         	b	0x100036e8 <I2C_tx+0xc8> @ imm = #-0x78
1000375e: bf00         	nop
10003760: f8dc 4000    	ldr.w	r4, [r12]
10003764: 42bc         	cmp	r4, r7
10003766: d3bf         	blo	0x100036e8 <I2C_tx+0xc8> @ imm = #-0x82
10003768: f8dc 4000    	ldr.w	r4, [r12]
1000376c: 42b4         	cmp	r4, r6
1000376e: d3f7         	blo	0x10003760 <I2C_tx+0x140> @ imm = #-0x12
10003770: e7ba         	b	0x100036e8 <I2C_tx+0xc8> @ imm = #-0x8c
10003772: 2102         	movs	r1, #0x2
10003774: 6001         	str	r1, [r0]
10003776: f8dc 5000    	ldr.w	r5, [r12]
1000377a: f115 0f10    	cmn.w	r5, #0x10
1000377e: f105 010f    	add.w	r1, r5, #0xf
10003782: d909         	bls	0x10003798 <I2C_tx+0x178> @ imm = #0x12
10003784: f8dc 4000    	ldr.w	r4, [r12]
10003788: 42ac         	cmp	r4, r5
1000378a: d2fb         	bhs	0x10003784 <I2C_tx+0x164> @ imm = #-0xa
1000378c: f8dc 4000    	ldr.w	r4, [r12]
10003790: 428c         	cmp	r4, r1
10003792: d3fb         	blo	0x1000378c <I2C_tx+0x16c> @ imm = #-0xa
10003794: e008         	b	0x100037a8 <I2C_tx+0x188> @ imm = #0x10
10003796: bf00         	nop
10003798: f8dc 4000    	ldr.w	r4, [r12]
1000379c: 42ac         	cmp	r4, r5
1000379e: d303         	blo	0x100037a8 <I2C_tx+0x188> @ imm = #0x6
100037a0: f8dc 4000    	ldr.w	r4, [r12]
100037a4: 428c         	cmp	r4, r1
100037a6: d3f7         	blo	0x10003798 <I2C_tx+0x178> @ imm = #-0x12
100037a8: 2101         	movs	r1, #0x1
100037aa: 6001         	str	r1, [r0]
100037ac: f8dc 5000    	ldr.w	r5, [r12]
100037b0: f115 0f10    	cmn.w	r5, #0x10
100037b4: f105 010f    	add.w	r1, r5, #0xf
100037b8: d90a         	bls	0x100037d0 <I2C_tx+0x1b0> @ imm = #0x14
100037ba: bf00         	nop
100037bc: f8dc 4000    	ldr.w	r4, [r12]
100037c0: 42ac         	cmp	r4, r5
100037c2: d2fb         	bhs	0x100037bc <I2C_tx+0x19c> @ imm = #-0xa
100037c4: f8dc 4000    	ldr.w	r4, [r12]
100037c8: 428c         	cmp	r4, r1
100037ca: d3fb         	blo	0x100037c4 <I2C_tx+0x1a4> @ imm = #-0xa
100037cc: e008         	b	0x100037e0 <I2C_tx+0x1c0> @ imm = #0x10
100037ce: bf00         	nop
100037d0: f8dc 4000    	ldr.w	r4, [r12]
100037d4: 42ac         	cmp	r4, r5
100037d6: d303         	blo	0x100037e0 <I2C_tx+0x1c0> @ imm = #0x6
100037d8: f8dc 4000    	ldr.w	r4, [r12]
100037dc: 428c         	cmp	r4, r1
100037de: d3f7         	blo	0x100037d0 <I2C_tx+0x1b0> @ imm = #-0x12
100037e0: 6801         	ldr	r1, [r0]
100037e2: f04f 0b01    	mov.w	r11, #0x1
100037e6: 2b00         	cmp	r3, #0x0
100037e8: f8c0 b004    	str.w	r11, [r0, #0x4]
100037ec: f000 8092    	beq.w	0x10003914 <I2C_tx+0x2f4> @ imm = #0x124
100037f0: f04f 0800    	mov.w	r8, #0x0
100037f4: f04f 0902    	mov.w	r9, #0x2
100037f8: e008         	b	0x1000380c <I2C_tx+0x1ec> @ imm = #0x10
100037fa: bf00         	nop
100037fc: f108 0801    	add.w	r8, r8, #0x1
10003800: 6801         	ldr	r1, [r0]
10003802: 4598         	cmp	r8, r3
10003804: f8c0 b004    	str.w	r11, [r0, #0x4]
10003808: f000 8084    	beq.w	0x10003914 <I2C_tx+0x2f4> @ imm = #0x108
1000380c: f812 7008    	ldrb.w	r7, [r2, r8]
10003810: 2500         	movs	r5, #0x0
10003812: e006         	b	0x10003822 <I2C_tx+0x202> @ imm = #0xc
10003814: 007f         	lsls	r7, r7, #0x1
10003816: 2d07         	cmp	r5, #0x7
10003818: f105 0501    	add.w	r5, r5, #0x1
1000381c: f8c0 b004    	str.w	r11, [r0, #0x4]
10003820: d23e         	bhs	0x100038a0 <I2C_tx+0x280> @ imm = #0x7c
10003822: b27c         	sxtb	r4, r7
10003824: f1b4 3fff    	cmp.w	r4, #0xffffffff
10003828: 4604         	mov	r4, r0
1000382a: bfc8         	it	gt
1000382c: 4654         	movgt	r4, r10
1000382e: f8c4 9000    	str.w	r9, [r4]
10003832: f8dc 4000    	ldr.w	r4, [r12]
10003836: f114 0f10    	cmn.w	r4, #0x10
1000383a: f104 060f    	add.w	r6, r4, #0xf
1000383e: d909         	bls	0x10003854 <I2C_tx+0x234> @ imm = #0x12
10003840: f8dc 1000    	ldr.w	r1, [r12]
10003844: 42a1         	cmp	r1, r4
10003846: d2fb         	bhs	0x10003840 <I2C_tx+0x220> @ imm = #-0xa
10003848: f8dc 1000    	ldr.w	r1, [r12]
1000384c: 42b1         	cmp	r1, r6
1000384e: d3fb         	blo	0x10003848 <I2C_tx+0x228> @ imm = #-0xa
10003850: e008         	b	0x10003864 <I2C_tx+0x244> @ imm = #0x10
10003852: bf00         	nop
10003854: f8dc 1000    	ldr.w	r1, [r12]
10003858: 42a1         	cmp	r1, r4
1000385a: d303         	blo	0x10003864 <I2C_tx+0x244> @ imm = #0x6
1000385c: f8dc 1000    	ldr.w	r1, [r12]
10003860: 42b1         	cmp	r1, r6
10003862: d3f7         	blo	0x10003854 <I2C_tx+0x234> @ imm = #-0x12
10003864: f8c0 b000    	str.w	r11, [r0]
10003868: f8dc 4000    	ldr.w	r4, [r12]
1000386c: f114 0f10    	cmn.w	r4, #0x10
10003870: f104 060f    	add.w	r6, r4, #0xf
10003874: d90a         	bls	0x1000388c <I2C_tx+0x26c> @ imm = #0x14
10003876: bf00         	nop
10003878: f8dc 1000    	ldr.w	r1, [r12]
1000387c: 42a1         	cmp	r1, r4
1000387e: d2fb         	bhs	0x10003878 <I2C_tx+0x258> @ imm = #-0xa
10003880: f8dc 1000    	ldr.w	r1, [r12]
10003884: 42b1         	cmp	r1, r6
10003886: d3fb         	blo	0x10003880 <I2C_tx+0x260> @ imm = #-0xa
10003888: e7c4         	b	0x10003814 <I2C_tx+0x1f4> @ imm = #-0x78
1000388a: bf00         	nop
1000388c: f8dc 1000    	ldr.w	r1, [r12]
10003890: 42a1         	cmp	r1, r4
10003892: d3bf         	blo	0x10003814 <I2C_tx+0x1f4> @ imm = #-0x82
10003894: f8dc 1000    	ldr.w	r1, [r12]
10003898: 42b1         	cmp	r1, r6
1000389a: d3f7         	blo	0x1000388c <I2C_tx+0x26c> @ imm = #-0x12
1000389c: e7ba         	b	0x10003814 <I2C_tx+0x1f4> @ imm = #-0x8c
1000389e: bf00         	nop
100038a0: f8c0 9000    	str.w	r9, [r0]
100038a4: f8dc 4000    	ldr.w	r4, [r12]
100038a8: f114 0f10    	cmn.w	r4, #0x10
100038ac: f104 050f    	add.w	r5, r4, #0xf
100038b0: d90a         	bls	0x100038c8 <I2C_tx+0x2a8> @ imm = #0x14
100038b2: bf00         	nop
100038b4: f8dc 1000    	ldr.w	r1, [r12]
100038b8: 42a1         	cmp	r1, r4
100038ba: d2fb         	bhs	0x100038b4 <I2C_tx+0x294> @ imm = #-0xa
100038bc: f8dc 1000    	ldr.w	r1, [r12]
100038c0: 42a9         	cmp	r1, r5
100038c2: d3fb         	blo	0x100038bc <I2C_tx+0x29c> @ imm = #-0xa
100038c4: e008         	b	0x100038d8 <I2C_tx+0x2b8> @ imm = #0x10
100038c6: bf00         	nop
100038c8: f8dc 1000    	ldr.w	r1, [r12]
100038cc: 42a1         	cmp	r1, r4
100038ce: d303         	blo	0x100038d8 <I2C_tx+0x2b8> @ imm = #0x6
100038d0: f8dc 1000    	ldr.w	r1, [r12]
100038d4: 42a9         	cmp	r1, r5
100038d6: d3f7         	blo	0x100038c8 <I2C_tx+0x2a8> @ imm = #-0x12
100038d8: f8c0 b000    	str.w	r11, [r0]
100038dc: f8dc 4000    	ldr.w	r4, [r12]
100038e0: f114 0f10    	cmn.w	r4, #0x10
100038e4: f104 050f    	add.w	r5, r4, #0xf
100038e8: d90a         	bls	0x10003900 <I2C_tx+0x2e0> @ imm = #0x14
100038ea: bf00         	nop
100038ec: f8dc 1000    	ldr.w	r1, [r12]
100038f0: 42a1         	cmp	r1, r4
100038f2: d2fb         	bhs	0x100038ec <I2C_tx+0x2cc> @ imm = #-0xa
100038f4: f8dc 1000    	ldr.w	r1, [r12]
100038f8: 42a9         	cmp	r1, r5
100038fa: d3fb         	blo	0x100038f4 <I2C_tx+0x2d4> @ imm = #-0xa
100038fc: e77e         	b	0x100037fc <I2C_tx+0x1dc> @ imm = #-0x104
100038fe: bf00         	nop
10003900: f8dc 1000    	ldr.w	r1, [r12]
10003904: 42a1         	cmp	r1, r4
10003906: f4ff af79    	blo.w	0x100037fc <I2C_tx+0x1dc> @ imm = #-0x10e
1000390a: f8dc 1000    	ldr.w	r1, [r12]
1000390e: 42a9         	cmp	r1, r5
10003910: d3f6         	blo	0x10003900 <I2C_tx+0x2e0> @ imm = #-0x14
10003912: e773         	b	0x100037fc <I2C_tx+0x1dc> @ imm = #-0x11a
10003914: f1be 0f00    	cmp.w	lr, #0x0
10003918: d148         	bne	0x100039ac <I2C_tx+0x38c> @ imm = #0x90
1000391a: 2102         	movs	r1, #0x2
1000391c: 6041         	str	r1, [r0, #0x4]
1000391e: f8dc 2000    	ldr.w	r2, [r12]
10003922: f112 0f10    	cmn.w	r2, #0x10
10003926: f102 010f    	add.w	r1, r2, #0xf
1000392a: d909         	bls	0x10003940 <I2C_tx+0x320> @ imm = #0x12
1000392c: f8dc 3000    	ldr.w	r3, [r12]
10003930: 4293         	cmp	r3, r2
10003932: d2fb         	bhs	0x1000392c <I2C_tx+0x30c> @ imm = #-0xa
10003934: f8dc 2000    	ldr.w	r2, [r12]
10003938: 428a         	cmp	r2, r1
1000393a: d3fb         	blo	0x10003934 <I2C_tx+0x314> @ imm = #-0xa
1000393c: e008         	b	0x10003950 <I2C_tx+0x330> @ imm = #0x10
1000393e: bf00         	nop
10003940: f8dc 3000    	ldr.w	r3, [r12]
10003944: 4293         	cmp	r3, r2
10003946: d303         	blo	0x10003950 <I2C_tx+0x330> @ imm = #0x6
10003948: f8dc 3000    	ldr.w	r3, [r12]
1000394c: 428b         	cmp	r3, r1
1000394e: d3f7         	blo	0x10003940 <I2C_tx+0x320> @ imm = #-0x12
10003950: 2101         	movs	r1, #0x1
10003952: 6001         	str	r1, [r0]
10003954: f8dc 2000    	ldr.w	r2, [r12]
10003958: f112 0f10    	cmn.w	r2, #0x10
1000395c: f102 010f    	add.w	r1, r2, #0xf
10003960: d90a         	bls	0x10003978 <I2C_tx+0x358> @ imm = #0x14
10003962: bf00         	nop
10003964: f8dc 3000    	ldr.w	r3, [r12]
10003968: 4293         	cmp	r3, r2
1000396a: d2fb         	bhs	0x10003964 <I2C_tx+0x344> @ imm = #-0xa
1000396c: f8dc 2000    	ldr.w	r2, [r12]
10003970: 428a         	cmp	r2, r1
10003972: d3fb         	blo	0x1000396c <I2C_tx+0x34c> @ imm = #-0xa
10003974: e008         	b	0x10003988 <I2C_tx+0x368> @ imm = #0x10
10003976: bf00         	nop
10003978: f8dc 3000    	ldr.w	r3, [r12]
1000397c: 4293         	cmp	r3, r2
1000397e: d303         	blo	0x10003988 <I2C_tx+0x368> @ imm = #0x6
10003980: f8dc 3000    	ldr.w	r3, [r12]
10003984: 428b         	cmp	r3, r1
10003986: d3f7         	blo	0x10003978 <I2C_tx+0x358> @ imm = #-0x12
10003988: 2102         	movs	r1, #0x2
1000398a: 6001         	str	r1, [r0]
1000398c: f8dc 1000    	ldr.w	r1, [r12]
10003990: f111 0f10    	cmn.w	r1, #0x10
10003994: f101 000f    	add.w	r0, r1, #0xf
10003998: d90a         	bls	0x100039b0 <I2C_tx+0x390> @ imm = #0x14
1000399a: bf00         	nop
1000399c: f8dc 2000    	ldr.w	r2, [r12]
100039a0: 428a         	cmp	r2, r1
100039a2: d2fb         	bhs	0x1000399c <I2C_tx+0x37c> @ imm = #-0xa
100039a4: f8dc 1000    	ldr.w	r1, [r12]
100039a8: 4281         	cmp	r1, r0
100039aa: d3fb         	blo	0x100039a4 <I2C_tx+0x384> @ imm = #-0xa
100039ac: e8bd 8ff0    	pop.w	{r4, r5, r6, r7, r8, r9, r10, r11, pc}
100039b0: f8dc 2000    	ldr.w	r2, [r12]
100039b4: 428a         	cmp	r2, r1
100039b6: d3f9         	blo	0x100039ac <I2C_tx+0x38c> @ imm = #-0xe
100039b8: f8dc 2000    	ldr.w	r2, [r12]
100039bc: 4282         	cmp	r2, r0
100039be: bf28         	it	hs
100039c0: e8bd 8ff0    	pophs.w	{r4, r5, r6, r7, r8, r9, r10, r11, pc}
100039c4: e7f4         	b	0x100039b0 <I2C_tx+0x390> @ imm = #-0x18
100039c6: 0000         	movs	r0, r0

100039c8 <LED_GetCount>:
100039c8: 2002         	movs	r0, #0x2
100039ca: 4770         	bx	lr

100039cc <LED_Initialize>:
100039cc: f242 0200    	movw	r2, #0x2000
100039d0: 2100         	movs	r1, #0x0
100039d2: f2c5 0230    	movt	r2, #0x5030
100039d6: 2000         	movs	r0, #0x0
100039d8: 6011         	str	r1, [r2]
100039da: 4770         	bx	lr

100039dc <LED_Off>:
100039dc: 2801         	cmp	r0, #0x1
100039de: d80a         	bhi	0x100039f6 <LED_Off+0x1a> @ imm = #0x14
100039e0: f242 0200    	movw	r2, #0x2000
100039e4: f2c5 0230    	movt	r2, #0x5030
100039e8: 2101         	movs	r1, #0x1
100039ea: 6813         	ldr	r3, [r2]
100039ec: fa01 f000    	lsl.w	r0, r1, r0
100039f0: ea23 0000    	bic.w	r0, r3, r0
100039f4: 6010         	str	r0, [r2]
100039f6: 2000         	movs	r0, #0x0
100039f8: 4770         	bx	lr
100039fa: 0000         	movs	r0, r0

100039fc <LED_On>:
100039fc: 2801         	cmp	r0, #0x1
100039fe: d809         	bhi	0x10003a14 <LED_On+0x18> @ imm = #0x12
10003a00: f242 0200    	movw	r2, #0x2000
10003a04: f2c5 0230    	movt	r2, #0x5030
10003a08: 2101         	movs	r1, #0x1
10003a0a: 6813         	ldr	r3, [r2]
10003a0c: fa01 f000    	lsl.w	r0, r1, r0
10003a10: 4318         	orrs	r0, r3
10003a12: 6010         	str	r0, [r2]
10003a14: 2000         	movs	r0, #0x0
10003a16: 4770         	bx	lr

10003a18 <Reset_Handler>:
10003a18: f64f 70f8    	movw	r0, #0xfff8
10003a1c: f6c3 001f    	movt	r0, #0x381f
10003a20: f380 8809    	msr	psp, r0
10003a24: f64f 70f8    	movw	r0, #0xfff8
10003a28: f64e 52a5    	movw	r2, #0xeda5
10003a2c: f64f 31f8    	movw	r1, #0xfbf8
10003a30: f6c3 001f    	movt	r0, #0x381f
10003a34: f6cf 62f5    	movt	r2, #0xfef5
10003a38: f6c3 011f    	movt	r1, #0x381f
10003a3c: f381 880a    	msr	msplim, r1
10003a40: f381 880b    	msr	psplim, r1
10003a44: e9c0 2200    	strd	r2, r2, [r0]
10003a48: f000 f80c    	bl	0x10003a64 <SystemInit> @ imm = #0x18
10003a4c: f7fc fcd8    	bl	0x10000400 <__main>     @ imm = #-0x3650

10003a50 <SystemCoreClockUpdate>:
10003a50: f240 000c    	movw	r0, #0xc
10003a54: f647 0140    	movw	r1, #0x7840
10003a58: f6c3 0000    	movt	r0, #0x3800
10003a5c: f2c0 117d    	movt	r1, #0x17d
10003a60: 6001         	str	r1, [r0]
10003a62: 4770         	bx	lr

10003a64 <SystemInit>:
10003a64: f240 0100    	movw	r1, #0x0
10003a68: f64e 50d8    	movw	r0, #0xedd8
10003a6c: f2c1 0100    	movt	r1, #0x1000
10003a70: f2ce 0000    	movt	r0, #0xe000
10003a74: f840 1cd0    	str	r1, [r0, #-208]
10003a78: f850 1c50    	ldr	r1, [r0, #-80]
10003a7c: 2300         	movs	r3, #0x0
10003a7e: f441 0170    	orr	r1, r1, #0xf00000
10003a82: f840 1c50    	str	r1, [r0, #-80]
10003a86: f850 1cb4    	ldr	r1, [r0, #-180]
10003a8a: f04f 0c00    	mov.w	r12, #0x0
10003a8e: f441 2170    	orr	r1, r1, #0xf0000
10003a92: f840 1cb4    	str	r1, [r0, #-180]
10003a96: f850 1cb0    	ldr	r1, [r0, #-176]
10003a9a: f6cf 73ff    	movt	r3, #0xffff
10003a9e: f441 7100    	orr	r1, r1, #0x200
10003aa2: f840 1cb0    	str	r1, [r0, #-176]
10003aa6: f247 0100    	movw	r1, #0x7000
10003aaa: f6c5 0100    	movt	r1, #0x5800
10003aae: 680a         	ldr	r2, [r1]
10003ab0: f422 7280    	bic	r2, r2, #0x100
10003ab4: 600a         	str	r2, [r1]
10003ab6: f8c1 c018    	str.w	r12, [r1, #0x18]
10003aba: 61cb         	str	r3, [r1, #0x1c]
10003abc: f249 0100    	movw	r1, #0x9000
10003ac0: f6c5 0100    	movt	r1, #0x5800
10003ac4: 680b         	ldr	r3, [r1]
10003ac6: f04f 32ff    	mov.w	r2, #0xffffffff
10003aca: f423 7380    	bic	r3, r3, #0x100
10003ace: 600b         	str	r3, [r1]
10003ad0: 2301         	movs	r3, #0x1
10003ad2: 618b         	str	r3, [r1, #0x18]
10003ad4: 61ca         	str	r2, [r1, #0x1c]
10003ad6: 2114         	movs	r1, #0x14
10003ad8: f2c5 0108    	movt	r1, #0x5008
10003adc: 680a         	ldr	r2, [r1]
10003ade: f042 0201    	orr	r2, r2, #0x1
10003ae2: 600a         	str	r2, [r1]
10003ae4: f04f 5180    	mov.w	r1, #0x10000000
10003ae8: f8c0 c000    	str.w	r12, [r0]
10003aec: 6041         	str	r1, [r0, #0x4]
10003aee: f64f 71e3    	movw	r1, #0xffe3
10003af2: f2c1 011f    	movt	r1, #0x101f
10003af6: 6081         	str	r1, [r0, #0x8]
10003af8: f44f 1100    	mov.w	r1, #0x200000
10003afc: 6003         	str	r3, [r0]
10003afe: 6041         	str	r1, [r0, #0x4]
10003b00: f64f 71e1    	movw	r1, #0xffe1
10003b04: f2c0 013f    	movt	r1, #0x3f
10003b08: 6081         	str	r1, [r0, #0x8]
10003b0a: 2102         	movs	r1, #0x2
10003b0c: 6001         	str	r1, [r0]
10003b0e: 2100         	movs	r1, #0x0
10003b10: f6c2 0120    	movt	r1, #0x2820
10003b14: 6041         	str	r1, [r0, #0x4]
10003b16: f64f 71e1    	movw	r1, #0xffe1
10003b1a: f6c2 013f    	movt	r1, #0x283f
10003b1e: 2203         	movs	r2, #0x3
10003b20: 6081         	str	r1, [r0, #0x8]
10003b22: 6002         	str	r2, [r0]
10003b24: f04f 4280    	mov.w	r2, #0x40000000
10003b28: f101 51c0    	add.w	r1, r1, #0x18000000
10003b2c: 6042         	str	r2, [r0, #0x4]
10003b2e: 6081         	str	r1, [r0, #0x8]
10003b30: f850 1cc8    	ldr	r1, [r0, #-200]
10003b34: f649 72f7    	movw	r2, #0x9ff7
10003b38: f041 0108    	orr	r1, r1, #0x8
10003b3c: f840 1cc8    	str	r1, [r0, #-200]
10003b40: f850 1ccc    	ldr	r1, [r0, #-204]
10003b44: 4011         	ands	r1, r2
10003b46: f041 61b8    	orr	r1, r1, #0x5c00000
10003b4a: f441 1169    	orr	r1, r1, #0x3a4000
10003b4e: f840 1ccc    	str	r1, [r0, #-204]
10003b52: f850 1c4c    	ldr	r1, [r0, #-76]
10003b56: 2204         	movs	r2, #0x4
10003b58: f441 6140    	orr	r1, r1, #0xc00
10003b5c: f840 1c4c    	str	r1, [r0, #-76]
10003b60: f8d0 115c    	ldr.w	r1, [r0, #0x15c]
10003b64: f362 619c    	bfi	r1, r2, #26, #3
10003b68: f8c0 115c    	str.w	r1, [r0, #0x15c]
10003b6c: f240 000c    	movw	r0, #0xc
10003b70: f647 0140    	movw	r1, #0x7840
10003b74: f6c3 0000    	movt	r0, #0x3800
10003b78: f2c0 117d    	movt	r1, #0x17d
10003b7c: 6001         	str	r1, [r0]
10003b7e: 4770         	bx	lr

10003b80 <TIMER0_Handler>:
10003b80: f240 107c    	movw	r0, #0x17c
10003b84: f6c3 0000    	movt	r0, #0x3800
10003b88: 6801         	ldr	r1, [r0]
10003b8a: 1c4a         	adds	r2, r1, #0x1
10003b8c: 2963         	cmp	r1, #0x63
10003b8e: 6002         	str	r2, [r0]
10003b90: d307         	blo	0x10003ba2 <TIMER0_Handler+0x22> @ imm = #0xe
10003b92: 2100         	movs	r1, #0x0
10003b94: 6001         	str	r1, [r0]
10003b96: f240 10b0    	movw	r0, #0x1b0
10003b9a: f6c3 0000    	movt	r0, #0x3800
10003b9e: 2101         	movs	r1, #0x1
10003ba0: 7001         	strb	r1, [r0]
10003ba2: f240 1078    	movw	r0, #0x178
10003ba6: f6c3 0000    	movt	r0, #0x3800
10003baa: 6802         	ldr	r2, [r0]
10003bac: 1c51         	adds	r1, r2, #0x1
10003bae: 2a2d         	cmp	r2, #0x2d
10003bb0: 6001         	str	r1, [r0]
10003bb2: d009         	beq	0x10003bc8 <TIMER0_Handler+0x48> @ imm = #0x12
10003bb4: 2a28         	cmp	r2, #0x28
10003bb6: d00a         	beq	0x10003bce <TIMER0_Handler+0x4e> @ imm = #0x14
10003bb8: b982         	cbnz	r2, 0x10003bdc <TIMER0_Handler+0x5c> @ imm = #0x20
10003bba: f240 1074    	movw	r0, #0x174
10003bbe: f6c3 0000    	movt	r0, #0x3800
10003bc2: 2101         	movs	r1, #0x1
10003bc4: 7001         	strb	r1, [r0]
10003bc6: e00d         	b	0x10003be4 <TIMER0_Handler+0x64> @ imm = #0x1a
10003bc8: 2100         	movs	r1, #0x0
10003bca: 6001         	str	r1, [r0]
10003bcc: e00a         	b	0x10003be4 <TIMER0_Handler+0x64> @ imm = #0x14
10003bce: f240 1070    	movw	r0, #0x170
10003bd2: f6c3 0000    	movt	r0, #0x3800
10003bd6: 2101         	movs	r1, #0x1
10003bd8: 7001         	strb	r1, [r0]
10003bda: e003         	b	0x10003be4 <TIMER0_Handler+0x64> @ imm = #0x6
10003bdc: 2933         	cmp	r1, #0x33
10003bde: bf24         	itt	hs
10003be0: 2100         	movhs	r1, #0x0
10003be2: 6001         	strhs	r1, [r0]
10003be4: 200c         	movs	r0, #0xc
10003be6: f2c4 0000    	movt	r0, #0x4000
10003bea: 2101         	movs	r1, #0x1
10003bec: 6001         	str	r1, [r0]
10003bee: 4770         	bx	lr

10003bf0 <Touch_GetState>:
10003bf0: e92d 4ff0    	push.w	{r4, r5, r6, r7, r8, r9, r10, r11, lr}
10003bf4: b085         	sub	sp, #0x14
10003bf6: f247 0400    	movw	r4, #0x7000
10003bfa: 4680         	mov	r8, r0
10003bfc: 2040         	movs	r0, #0x40
10003bfe: f2c5 0420    	movt	r4, #0x5020
10003c02: f88d 0010    	strb.w	r0, [sp, #0x10]
10003c06: 2501         	movs	r5, #0x1
10003c08: aa04         	add	r2, sp, #0x10
10003c0a: 4620         	mov	r0, r4
10003c0c: 2182         	movs	r1, #0x82
10003c0e: 2301         	movs	r3, #0x1
10003c10: 9500         	str	r5, [sp]
10003c12: f7ff fd05    	bl	0x10003620 <I2C_tx>     @ imm = #-0x5f6
10003c16: f04f 0900    	mov.w	r9, #0x0
10003c1a: f10d 020f    	add.w	r2, sp, #0xf
10003c1e: 4620         	mov	r0, r4
10003c20: 2183         	movs	r1, #0x83
10003c22: 2301         	movs	r3, #0x1
10003c24: f8cd 9000    	str.w	r9, [sp]
10003c28: f7ff faa6    	bl	0x10003178 <I2C_rx>     @ imm = #-0xab4
10003c2c: f89d 000f    	ldrb.w	r0, [sp, #0xf]
10003c30: b241         	sxtb	r1, r0
10003c32: 09c0         	lsrs	r0, r0, #0x7
10003c34: f1b1 3fff    	cmp.w	r1, #0xffffffff
10003c38: f888 0004    	strb.w	r0, [r8, #0x4]
10003c3c: dc4d         	bgt	0x10003cda <Touch_GetState+0xea> @ imm = #0x9a
10003c3e: 20d7         	movs	r0, #0xd7
10003c40: f88d 000f    	strb.w	r0, [sp, #0xf]
10003c44: 204c         	movs	r0, #0x4c
10003c46: f88d 0011    	strb.w	r0, [sp, #0x11]
10003c4a: f10d 0211    	add.w	r2, sp, #0x11
10003c4e: 4620         	mov	r0, r4
10003c50: 2182         	movs	r1, #0x82
10003c52: 2301         	movs	r3, #0x1
10003c54: 9500         	str	r5, [sp]
10003c56: f7ff fce3    	bl	0x10003620 <I2C_tx>     @ imm = #-0x63a
10003c5a: f10d 020e    	add.w	r2, sp, #0xe
10003c5e: 4620         	mov	r0, r4
10003c60: 2183         	movs	r1, #0x83
10003c62: 2301         	movs	r3, #0x1
10003c64: f8cd 9000    	str.w	r9, [sp]
10003c68: f7ff fa86    	bl	0x10003178 <I2C_rx>     @ imm = #-0xaf4
10003c6c: f89d 000e    	ldrb.w	r0, [sp, #0xe]
10003c70: 2800         	cmp	r0, #0x0
10003c72: d043         	beq	0x10003cfc <Touch_GetState+0x10c> @ imm = #0x86
10003c74: f89d 000e    	ldrb.w	r0, [sp, #0xe]
10003c78: f1a0 0501    	sub.w	r5, r0, #0x1
10003c7c: b1d0         	cbz	r0, 0x10003cb4 <Touch_GetState+0xc4> @ imm = #0x34
10003c7e: f04f 0a01    	mov.w	r10, #0x1
10003c82: f10d 0b0f    	add.w	r11, sp, #0xf
10003c86: 2700         	movs	r7, #0x0
10003c88: f10d 060a    	add.w	r6, sp, #0xa
10003c8c: 4620         	mov	r0, r4
10003c8e: 2182         	movs	r1, #0x82
10003c90: 465a         	mov	r2, r11
10003c92: 2301         	movs	r3, #0x1
10003c94: f8cd a000    	str.w	r10, [sp]
10003c98: f7ff fcc2    	bl	0x10003620 <I2C_tx>     @ imm = #-0x67c
10003c9c: 4620         	mov	r0, r4
10003c9e: 2183         	movs	r1, #0x83
10003ca0: 4632         	mov	r2, r6
10003ca2: 2304         	movs	r3, #0x4
10003ca4: 9700         	str	r7, [sp]
10003ca6: f7ff fa67    	bl	0x10003178 <I2C_rx>     @ imm = #-0xb32
10003caa: 0628         	lsls	r0, r5, #0x18
10003cac: f1a5 0501    	sub.w	r5, r5, #0x1
10003cb0: d1ec         	bne	0x10003c8c <Touch_GetState+0x9c> @ imm = #-0x28
10003cb2: 25ff         	movs	r5, #0xff
10003cb4: f89d 000a    	ldrb.w	r0, [sp, #0xa]
10003cb8: f89d 100b    	ldrb.w	r1, [sp, #0xb]
10003cbc: f89d 200c    	ldrb.w	r2, [sp, #0xc]
10003cc0: 0100         	lsls	r0, r0, #0x4
10003cc2: ea40 1011    	orr.w	r0, r0, r1, lsr #4
10003cc6: f001 010f    	and	r1, r1, #0xf
10003cca: ea42 2101    	orr.w	r1, r2, r1, lsl #8
10003cce: f88d 500e    	strb.w	r5, [sp, #0xe]
10003cd2: f8a8 0000    	strh.w	r0, [r8]
10003cd6: f8a8 1002    	strh.w	r1, [r8, #0x2]
10003cda: f641 700b    	movw	r0, #0x1f0b
10003cde: f8ad 0012    	strh.w	r0, [sp, #0x12]
10003ce2: f10d 0212    	add.w	r2, sp, #0x12
10003ce6: 4620         	mov	r0, r4
10003ce8: 2182         	movs	r1, #0x82
10003cea: 2302         	movs	r3, #0x2
10003cec: f8cd 9000    	str.w	r9, [sp]
10003cf0: f7ff fc96    	bl	0x10003620 <I2C_tx>     @ imm = #-0x6d4
10003cf4: 4648         	mov	r0, r9
10003cf6: b005         	add	sp, #0x14
10003cf8: e8bd 8ff0    	pop.w	{r4, r5, r6, r7, r8, r9, r10, r11, pc}
10003cfc: f04f 39ff    	mov.w	r9, #0xffffffff
10003d00: e7f8         	b	0x10003cf4 <Touch_GetState+0x104> @ imm = #-0x10
10003d02: 0000         	movs	r0, r0

10003d04 <Touch_Initialize>:
10003d04: b5f0         	push	{r4, r5, r6, r7, lr}
10003d06: b083         	sub	sp, #0xc
10003d08: f247 0400    	movw	r4, #0x7000
10003d0c: f2c5 0420    	movt	r4, #0x5020
10003d10: f7ff f9c4    	bl	0x1000309c <I2C_clear>  @ imm = #-0xc78
10003d14: ad02         	add	r5, sp, #0x8
10003d16: 2600         	movs	r6, #0x0
10003d18: 2701         	movs	r7, #0x1
10003d1a: 4620         	mov	r0, r4
10003d1c: 2182         	movs	r1, #0x82
10003d1e: 462a         	mov	r2, r5
10003d20: 2301         	movs	r3, #0x1
10003d22: f88d 6008    	strb.w	r6, [sp, #0x8]
10003d26: 9700         	str	r7, [sp]
10003d28: f7ff fc7a    	bl	0x10003620 <I2C_tx>     @ imm = #-0x70c
10003d2c: 4620         	mov	r0, r4
10003d2e: 2183         	movs	r1, #0x83
10003d30: 462a         	mov	r2, r5
10003d32: 2302         	movs	r3, #0x2
10003d34: 9600         	str	r6, [sp]
10003d36: f7ff fa1f    	bl	0x10003178 <I2C_rx>     @ imm = #-0xbc2
10003d3a: f240 2003    	movw	r0, #0x203
10003d3e: f8ad 000a    	strh.w	r0, [sp, #0xa]
10003d42: f10d 020a    	add.w	r2, sp, #0xa
10003d46: 4620         	mov	r0, r4
10003d48: 2182         	movs	r1, #0x82
10003d4a: 2302         	movs	r3, #0x2
10003d4c: 9600         	str	r6, [sp]
10003d4e: f7ff fc67    	bl	0x10003620 <I2C_tx>     @ imm = #-0x732
10003d52: f240 070c    	movw	r7, #0xc
10003d56: f6c3 0700    	movt	r7, #0x3800
10003d5a: 6838         	ldr	r0, [r7]
10003d5c: f644 55d3    	movw	r5, #0x4dd3
10003d60: f5b0 7f7a    	cmp.w	r0, #0x3e8
10003d64: f2c1 0562    	movt	r5, #0x1062
10003d68: d30e         	blo	0x10003d88 <Touch_Initialize+0x84> @ imm = #0x1c
10003d6a: fba0 0105    	umull	r0, r1, r0, r5
10003d6e: 0988         	lsrs	r0, r1, #0x6
10003d70: eb00 0080    	add.w	r0, r0, r0, lsl #2
10003d74: 4240         	rsbs	r0, r0, #0
10003d76: 0040         	lsls	r0, r0, #0x1
10003d78: bf00         	nop
10003d7a: bf00         	nop
10003d7c: bf00         	nop
10003d7e: bf00         	nop
10003d80: bf00         	nop
10003d82: 3001         	adds	r0, #0x1
10003d84: bf00         	nop
10003d86: d3f7         	blo	0x10003d78 <Touch_Initialize+0x74> @ imm = #-0x12
10003d88: f640 4004    	movw	r0, #0xc04
10003d8c: f8ad 000a    	strh.w	r0, [sp, #0xa]
10003d90: f10d 020a    	add.w	r2, sp, #0xa
10003d94: 4620         	mov	r0, r4
10003d96: 2182         	movs	r1, #0x82
10003d98: 2302         	movs	r3, #0x2
10003d9a: 9600         	str	r6, [sp]
10003d9c: f7ff fc40    	bl	0x10003620 <I2C_tx>     @ imm = #-0x780
10003da0: f240 700a    	movw	r0, #0x70a
10003da4: f8ad 000a    	strh.w	r0, [sp, #0xa]
10003da8: f10d 020a    	add.w	r2, sp, #0xa
10003dac: 4620         	mov	r0, r4
10003dae: 2182         	movs	r1, #0x82
10003db0: 2302         	movs	r3, #0x2
10003db2: 9600         	str	r6, [sp]
10003db4: f7ff fc34    	bl	0x10003620 <I2C_tx>     @ imm = #-0x798
10003db8: f646 1020    	movw	r0, #0x6920
10003dbc: f8ad 000a    	strh.w	r0, [sp, #0xa]
10003dc0: f10d 020a    	add.w	r2, sp, #0xa
10003dc4: 4620         	mov	r0, r4
10003dc6: 2182         	movs	r1, #0x82
10003dc8: 2302         	movs	r3, #0x2
10003dca: 9600         	str	r6, [sp]
10003dcc: f7ff fc28    	bl	0x10003620 <I2C_tx>     @ imm = #-0x7b0
10003dd0: 6838         	ldr	r0, [r7]
10003dd2: f5b0 7f7a    	cmp.w	r0, #0x3e8
10003dd6: d30f         	blo	0x10003df8 <Touch_Initialize+0xf4> @ imm = #0x1e
10003dd8: fba0 0105    	umull	r0, r1, r0, r5
10003ddc: 0988         	lsrs	r0, r1, #0x6
10003dde: eb00 0080    	add.w	r0, r0, r0, lsl #2
10003de2: 4240         	rsbs	r0, r0, #0
10003de4: 0040         	lsls	r0, r0, #0x1
10003de6: bf00         	nop
10003de8: bf00         	nop
10003dea: bf00         	nop
10003dec: bf00         	nop
10003dee: bf00         	nop
10003df0: bf00         	nop
10003df2: 3001         	adds	r0, #0x1
10003df4: bf00         	nop
10003df6: d3f7         	blo	0x10003de8 <Touch_Initialize+0xe4> @ imm = #-0x12
10003df8: f240 1021    	movw	r0, #0x121
10003dfc: f8ad 000a    	strh.w	r0, [sp, #0xa]
10003e00: 2500         	movs	r5, #0x0
10003e02: f10d 020a    	add.w	r2, sp, #0xa
10003e06: 4620         	mov	r0, r4
10003e08: 2182         	movs	r1, #0x82
10003e0a: 2302         	movs	r3, #0x2
10003e0c: 9500         	str	r5, [sp]
10003e0e: f7ff fc07    	bl	0x10003620 <I2C_tx>     @ imm = #-0x7f2
10003e12: f24c 2041    	movw	r0, #0xc241
10003e16: f8ad 000a    	strh.w	r0, [sp, #0xa]
10003e1a: f10d 020a    	add.w	r2, sp, #0xa
10003e1e: 4620         	mov	r0, r4
10003e20: 2182         	movs	r1, #0x82
10003e22: 2302         	movs	r3, #0x2
10003e24: 9500         	str	r5, [sp]
10003e26: f7ff fbfb    	bl	0x10003620 <I2C_tx>     @ imm = #-0x80a
10003e2a: f44f 70a5    	mov.w	r0, #0x14a
10003e2e: f8ad 000a    	strh.w	r0, [sp, #0xa]
10003e32: f10d 020a    	add.w	r2, sp, #0xa
10003e36: 4620         	mov	r0, r4
10003e38: 2182         	movs	r1, #0x82
10003e3a: 2302         	movs	r3, #0x2
10003e3c: 9500         	str	r5, [sp]
10003e3e: f7ff fbef    	bl	0x10003620 <I2C_tx>     @ imm = #-0x822
10003e42: f240 104b    	movw	r0, #0x14b
10003e46: f8ad 000a    	strh.w	r0, [sp, #0xa]
10003e4a: f10d 020a    	add.w	r2, sp, #0xa
10003e4e: 4620         	mov	r0, r4
10003e50: 2182         	movs	r1, #0x82
10003e52: 2302         	movs	r3, #0x2
10003e54: 9500         	str	r5, [sp]
10003e56: f7ff fbe3    	bl	0x10003620 <I2C_tx>     @ imm = #-0x83a
10003e5a: 204b         	movs	r0, #0x4b
10003e5c: f8ad 000a    	strh.w	r0, [sp, #0xa]
10003e60: f10d 020a    	add.w	r2, sp, #0xa
10003e64: 4620         	mov	r0, r4
10003e66: 2182         	movs	r1, #0x82
10003e68: 2302         	movs	r3, #0x2
10003e6a: 9500         	str	r5, [sp]
10003e6c: f7ff fbd8    	bl	0x10003620 <I2C_tx>     @ imm = #-0x850
10003e70: f240 7056    	movw	r0, #0x756
10003e74: f8ad 000a    	strh.w	r0, [sp, #0xa]
10003e78: f10d 020a    	add.w	r2, sp, #0xa
10003e7c: 4620         	mov	r0, r4
10003e7e: 2182         	movs	r1, #0x82
10003e80: 2302         	movs	r3, #0x2
10003e82: 9500         	str	r5, [sp]
10003e84: f7ff fbcc    	bl	0x10003620 <I2C_tx>     @ imm = #-0x868
10003e88: f44f 70ac    	mov.w	r0, #0x158
10003e8c: f8ad 000a    	strh.w	r0, [sp, #0xa]
10003e90: f10d 020a    	add.w	r2, sp, #0xa
10003e94: 4620         	mov	r0, r4
10003e96: 2182         	movs	r1, #0x82
10003e98: 2302         	movs	r3, #0x2
10003e9a: 9500         	str	r5, [sp]
10003e9c: f7ff fbc0    	bl	0x10003620 <I2C_tx>     @ imm = #-0x880
10003ea0: 2017         	movs	r0, #0x17
10003ea2: f8ad 000a    	strh.w	r0, [sp, #0xa]
10003ea6: f10d 020a    	add.w	r2, sp, #0xa
10003eaa: 4620         	mov	r0, r4
10003eac: 2182         	movs	r1, #0x82
10003eae: 2302         	movs	r3, #0x2
10003eb0: 9500         	str	r5, [sp]
10003eb2: f7ff fbb5    	bl	0x10003620 <I2C_tx>     @ imm = #-0x896
10003eb6: f44f 70a0    	mov.w	r0, #0x140
10003eba: f8ad 000a    	strh.w	r0, [sp, #0xa]
10003ebe: f10d 020a    	add.w	r2, sp, #0xa
10003ec2: 4620         	mov	r0, r4
10003ec4: 2182         	movs	r1, #0x82
10003ec6: 2302         	movs	r3, #0x2
10003ec8: 9500         	str	r5, [sp]
10003eca: f7ff fba9    	bl	0x10003620 <I2C_tx>     @ imm = #-0x8ae
10003ece: f64f 700b    	movw	r0, #0xff0b
10003ed2: f8ad 000a    	strh.w	r0, [sp, #0xa]
10003ed6: f10d 020a    	add.w	r2, sp, #0xa
10003eda: 4620         	mov	r0, r4
10003edc: 2182         	movs	r1, #0x82
10003ede: 2302         	movs	r3, #0x2
10003ee0: 9500         	str	r5, [sp]
10003ee2: f7ff fb9d    	bl	0x10003620 <I2C_tx>     @ imm = #-0x8c6
10003ee6: 2000         	movs	r0, #0x0
10003ee8: b003         	add	sp, #0xc
10003eea: bdf0         	pop	{r4, r5, r6, r7, pc}

10003eec <UART0RX_Handler>:
10003eec: b570         	push	{r4, r5, r6, lr}
10003eee: 2408         	movs	r4, #0x8
10003ef0: f240 1090    	movw	r0, #0x190
10003ef4: f2c5 0420    	movt	r4, #0x5020
10003ef8: f6c3 0000    	movt	r0, #0x3800
10003efc: 6866         	ldr	r6, [r4, #0x4]
10003efe: 6881         	ldr	r1, [r0, #0x8]
10003f00: b129         	cbz	r1, 0x10003f0e <UART0RX_Handler+0x22> @ imm = #0xa
10003f02: f854 2c08    	ldr	r2, [r4, #-8]
10003f06: 6903         	ldr	r3, [r0, #0x10]
10003f08: 1c5d         	adds	r5, r3, #0x1
10003f0a: 6105         	str	r5, [r0, #0x10]
10003f0c: 54ca         	strb	r2, [r1, r3]
10003f0e: 6801         	ldr	r1, [r0]
10003f10: 6902         	ldr	r2, [r0, #0x10]
10003f12: 428a         	cmp	r2, r1
10003f14: d313         	blo	0x10003f3e <UART0RX_Handler+0x52> @ imm = #0x26
10003f16: 2100         	movs	r1, #0x0
10003f18: 6001         	str	r1, [r0]
10003f1a: f240 1088    	movw	r0, #0x188
10003f1e: f6c3 0000    	movt	r0, #0x3800
10003f22: 7001         	strb	r1, [r0]
10003f24: 6820         	ldr	r0, [r4]
10003f26: f020 0008    	bic	r0, r0, #0x8
10003f2a: 6020         	str	r0, [r4]
10003f2c: f240 1080    	movw	r0, #0x180
10003f30: f6c3 0000    	movt	r0, #0x3800
10003f34: 6801         	ldr	r1, [r0]
10003f36: 2900         	cmp	r1, #0x0
10003f38: bf1c         	itt	ne
10003f3a: 2002         	movne	r0, #0x2
10003f3c: 4788         	blxne	r1
10003f3e: 6066         	str	r6, [r4, #0x4]
10003f40: bd70         	pop	{r4, r5, r6, pc}
10003f42: 0000         	movs	r0, r0

10003f44 <UART0TX_Handler>:
10003f44: b5b0         	push	{r4, r5, r7, lr}
10003f46: 2408         	movs	r4, #0x8
10003f48: f240 1090    	movw	r0, #0x190
10003f4c: f2c5 0420    	movt	r4, #0x5020
10003f50: f6c3 0000    	movt	r0, #0x3800
10003f54: 6865         	ldr	r5, [r4, #0x4]
10003f56: 6841         	ldr	r1, [r0, #0x4]
10003f58: b1f1         	cbz	r1, 0x10003f98 <UART0TX_Handler+0x54> @ imm = #0x3c
10003f5a: 6942         	ldr	r2, [r0, #0x14]
10003f5c: 3201         	adds	r2, #0x1
10003f5e: 428a         	cmp	r2, r1
10003f60: 6142         	str	r2, [r0, #0x14]
10003f62: d205         	bhs	0x10003f70 <UART0TX_Handler+0x2c> @ imm = #0xa
10003f64: 68c0         	ldr	r0, [r0, #0xc]
10003f66: 5c80         	ldrb	r0, [r0, r2]
10003f68: f844 0c08    	str	r0, [r4, #-8]
10003f6c: 6065         	str	r5, [r4, #0x4]
10003f6e: bdb0         	pop	{r4, r5, r7, pc}
10003f70: 2100         	movs	r1, #0x0
10003f72: 6041         	str	r1, [r0, #0x4]
10003f74: f240 1084    	movw	r0, #0x184
10003f78: f6c3 0000    	movt	r0, #0x3800
10003f7c: 7001         	strb	r1, [r0]
10003f7e: 6820         	ldr	r0, [r4]
10003f80: f020 0004    	bic	r0, r0, #0x4
10003f84: 6020         	str	r0, [r4]
10003f86: f240 1080    	movw	r0, #0x180
10003f8a: f6c3 0000    	movt	r0, #0x3800
10003f8e: 6801         	ldr	r1, [r0]
10003f90: 2900         	cmp	r1, #0x0
10003f92: bf1c         	itt	ne
10003f94: 2001         	movne	r0, #0x1
10003f96: 4788         	blxne	r1
10003f98: 6065         	str	r5, [r4, #0x4]
10003f9a: bdb0         	pop	{r4, r5, r7, pc}

10003f9c <USART0_Control>:
10003f9c: b510         	push	{r4, lr}
10003f9e: f240 1c8c    	movw	r12, #0x18c
10003fa2: f6c3 0c00    	movt	r12, #0x3800
10003fa6: f89c 4000    	ldrb.w	r4, [r12]
10003faa: 07a2         	lsls	r2, r4, #0x1e
10003fac: bf5c         	itt	pl
10003fae: f04f 30ff    	movpl.w	r0, #0xffffffff
10003fb2: bd10         	poppl	{r4, pc}
10003fb4: 4686         	mov	lr, r0
10003fb6: f06f 0014    	mvn	r0, #0x14
10003fba: fa50 f28e    	uxtab	r2, r0, lr
10003fbe: 2a05         	cmp	r2, #0x5
10003fc0: d807         	bhi	0x10003fd2 <USART0_Control+0x36> @ imm = #0xe
10003fc2: f06f 0003    	mvn	r0, #0x3
10003fc6: e8df f002    	tbb	[pc, r2]

10003fca <$d.13>:
10003fca: 51 5d 03 6c  	.word	0x6c035d51
10003fce: 78 03        	.short	0x0378

10003fd0 <$t.14>:
10003fd0: bd10         	pop	{r4, pc}
10003fd2: f240 1084    	movw	r0, #0x184
10003fd6: f6c3 0000    	movt	r0, #0x3800
10003fda: 7800         	ldrb	r0, [r0]
10003fdc: 2800         	cmp	r0, #0x0
10003fde: f06f 0001    	mvn	r0, #0x1
10003fe2: bf18         	it	ne
10003fe4: bd10         	popne	{r4, pc}
10003fe6: f240 1288    	movw	r2, #0x188
10003fea: f6c3 0200    	movt	r2, #0x3800
10003fee: 7812         	ldrb	r2, [r2]
10003ff0: 2a00         	cmp	r2, #0x0
10003ff2: d1ed         	bne	0x10003fd0 <USART0_Control+0x34> @ imm = #-0x26
10003ff4: 2008         	movs	r0, #0x8
10003ff6: f2c5 0020    	movt	r0, #0x5020
10003ffa: f850 2c04    	ldr	r2, [r0, #-4]
10003ffe: 0792         	lsls	r2, r2, #0x1e
10004000: bf1c         	itt	ne
10004002: f06f 0001    	mvnne	r0, #0x1
10004006: bd10         	popne	{r4, pc}
10004008: fa5f f28e    	uxtb.w	r2, lr
1000400c: 2a01         	cmp	r2, #0x1
1000400e: bf1c         	itt	ne
10004010: f06f 0003    	mvnne	r0, #0x3
10004014: bd10         	popne	{r4, pc}
10004016: f41e 6fe0    	tst.w	lr, #0x700
1000401a: bf1c         	itt	ne
1000401c: f06f 0008    	mvnne	r0, #0x8
10004020: bd10         	popne	{r4, pc}
10004022: f41e 5f40    	tst.w	lr, #0x3000
10004026: bf1c         	itt	ne
10004028: f06f 0009    	mvnne	r0, #0x9
1000402c: bd10         	popne	{r4, pc}
1000402e: f41e 4f40    	tst.w	lr, #0xc000
10004032: bf1c         	itt	ne
10004034: f06f 000a    	mvnne	r0, #0xa
10004038: bd10         	popne	{r4, pc}
1000403a: f41e 3f40    	tst.w	lr, #0x30000
1000403e: bf1c         	itt	ne
10004040: f06f 000b    	mvnne	r0, #0xb
10004044: bd10         	popne	{r4, pc}
10004046: f240 020c    	movw	r2, #0xc
1000404a: f6c3 0200    	movt	r2, #0x3800
1000404e: 6812         	ldr	r2, [r2]
10004050: fbb2 f1f1    	udiv	r1, r2, r1
10004054: 2910         	cmp	r1, #0x10
10004056: bf3c         	itt	lo
10004058: f06f 0007    	mvnlo	r0, #0x7
1000405c: bd10         	poplo	{r4, pc}
1000405e: 6081         	str	r1, [r0, #0x8]
10004060: f044 0004    	orr	r0, r4, #0x4
10004064: f88c 0000    	strb.w	r0, [r12]
10004068: 2000         	movs	r0, #0x0
1000406a: bd10         	pop	{r4, pc}
1000406c: f044 0008    	orr	r0, r4, #0x8
10004070: f88c 0000    	strb.w	r0, [r12]
10004074: 2008         	movs	r0, #0x8
10004076: f2c5 0020    	movt	r0, #0x5020
1000407a: 6802         	ldr	r2, [r0]
1000407c: f001 0101    	and	r1, r1, #0x1
10004080: 4311         	orrs	r1, r2
10004082: e00b         	b	0x1000409c <USART0_Control+0x100> @ imm = #0x16
10004084: f044 0010    	orr	r0, r4, #0x10
10004088: f88c 0000    	strb.w	r0, [r12]
1000408c: 2008         	movs	r0, #0x8
1000408e: f2c5 0020    	movt	r0, #0x5020
10004092: 6802         	ldr	r2, [r0]
10004094: f001 0101    	and	r1, r1, #0x1
10004098: ea42 0141    	orr.w	r1, r2, r1, lsl #1
1000409c: 6001         	str	r1, [r0]
1000409e: 2000         	movs	r0, #0x0
100040a0: bd10         	pop	{r4, pc}
100040a2: 2008         	movs	r0, #0x8
100040a4: f2c5 0020    	movt	r0, #0x5020
100040a8: 6801         	ldr	r1, [r0]
100040aa: f021 0104    	bic	r1, r1, #0x4
100040ae: 6001         	str	r1, [r0]
100040b0: f240 1184    	movw	r1, #0x184
100040b4: f6c3 0100    	movt	r1, #0x3800
100040b8: e00a         	b	0x100040d0 <USART0_Control+0x134> @ imm = #0x14
100040ba: 2008         	movs	r0, #0x8
100040bc: f2c5 0020    	movt	r0, #0x5020
100040c0: 6801         	ldr	r1, [r0]
100040c2: f021 0108    	bic	r1, r1, #0x8
100040c6: 6001         	str	r1, [r0]
100040c8: f240 1188    	movw	r1, #0x188
100040cc: f6c3 0100    	movt	r1, #0x3800
100040d0: 2000         	movs	r0, #0x0
100040d2: 7008         	strb	r0, [r1]
100040d4: bd10         	pop	{r4, pc}
100040d6: 0000         	movs	r0, r0

100040d8 <USART0_GetCapabilities>:
100040d8: f240 6001    	movw	r0, #0x601
100040dc: 4770         	bx	lr
100040de: 0000         	movs	r0, r0

100040e0 <USART0_GetModemStatus>:
100040e0: 2000         	movs	r0, #0x0
100040e2: 4770         	bx	lr

100040e4 <USART0_GetRxCount>:
100040e4: f240 1090    	movw	r0, #0x190
100040e8: f6c3 0000    	movt	r0, #0x3800
100040ec: 6900         	ldr	r0, [r0, #0x10]
100040ee: 4770         	bx	lr

100040f0 <USART0_GetStatus>:
100040f0: f240 1084    	movw	r0, #0x184
100040f4: f240 1188    	movw	r1, #0x188
100040f8: f6c3 0000    	movt	r0, #0x3800
100040fc: f6c3 0100    	movt	r1, #0x3800
10004100: 7800         	ldrb	r0, [r0]
10004102: 7809         	ldrb	r1, [r1]
10004104: f361 0041    	bfi	r0, r1, #1, #1
10004108: 4770         	bx	lr
1000410a: 0000         	movs	r0, r0

1000410c <USART0_GetTxCount>:
1000410c: f240 1090    	movw	r0, #0x190
10004110: f6c3 0000    	movt	r0, #0x3800
10004114: 6940         	ldr	r0, [r0, #0x14]
10004116: 4770         	bx	lr

10004118 <USART0_Initialize>:
10004118: f240 118c    	movw	r1, #0x18c
1000411c: f6c3 0100    	movt	r1, #0x3800
10004120: 780a         	ldrb	r2, [r1]
10004122: 07d2         	lsls	r2, r2, #0x1f
10004124: d11d         	bne	0x10004162 <USART0_Initialize+0x4a> @ imm = #0x3a
10004126: f240 1280    	movw	r2, #0x180
1000412a: f6c3 0200    	movt	r2, #0x3800
1000412e: 6010         	str	r0, [r2]
10004130: f240 1090    	movw	r0, #0x190
10004134: f6c3 0000    	movt	r0, #0x3800
10004138: 2200         	movs	r2, #0x0
1000413a: e9c0 2200    	strd	r2, r2, [r0]
1000413e: e9c0 2202    	strd	r2, r2, [r0, #8]
10004142: e9c0 2204    	strd	r2, r2, [r0, #16]
10004146: f241 0018    	movw	r0, #0x1018
1000414a: f2c5 0010    	movt	r0, #0x5010
1000414e: 6802         	ldr	r2, [r0]
10004150: f042 0201    	orr	r2, r2, #0x1
10004154: 6002         	str	r2, [r0]
10004156: 6802         	ldr	r2, [r0]
10004158: f042 0202    	orr	r2, r2, #0x2
1000415c: 6002         	str	r2, [r0]
1000415e: 2001         	movs	r0, #0x1
10004160: 7008         	strb	r0, [r1]
10004162: 2000         	movs	r0, #0x0
10004164: 4770         	bx	lr
10004166: 0000         	movs	r0, r0

10004168 <USART0_PowerControl>:
10004168: 2802         	cmp	r0, #0x2
1000416a: d023         	beq	0x100041b4 <USART0_PowerControl+0x4c> @ imm = #0x46
1000416c: 2801         	cmp	r0, #0x1
1000416e: bf04         	itt	eq
10004170: f06f 0003    	mvneq	r0, #0x3
10004174: 4770         	bxeq	lr
10004176: b9d8         	cbnz	r0, 0x100041b0 <USART0_PowerControl+0x48> @ imm = #0x36
10004178: f240 108c    	movw	r0, #0x18c
1000417c: f6c3 0000    	movt	r0, #0x3800
10004180: 7801         	ldrb	r1, [r0]
10004182: 2201         	movs	r2, #0x1
10004184: f001 01fd    	and	r1, r1, #0xfd
10004188: 7001         	strb	r1, [r0]
1000418a: f24e 2184    	movw	r1, #0xe284
1000418e: f06f 00ff    	mvn	r0, #0xff
10004192: f2ce 0100    	movt	r1, #0xe000
10004196: 500a         	str	r2, [r1, r0]
10004198: f3bf 8f4f    	dsb	sy
1000419c: f3bf 8f6f    	isb	sy
100041a0: 600a         	str	r2, [r1]
100041a2: 2202         	movs	r2, #0x2
100041a4: 500a         	str	r2, [r1, r0]
100041a6: f3bf 8f4f    	dsb	sy
100041aa: f3bf 8f6f    	isb	sy
100041ae: 600a         	str	r2, [r1]
100041b0: 2000         	movs	r0, #0x0
100041b2: 4770         	bx	lr
100041b4: f240 118c    	movw	r1, #0x18c
100041b8: f6c3 0100    	movt	r1, #0x3800
100041bc: 7808         	ldrb	r0, [r1]
100041be: 07c2         	lsls	r2, r0, #0x1f
100041c0: bf04         	itt	eq
100041c2: f04f 30ff    	moveq.w	r0, #0xffffffff
100041c6: 4770         	bxeq	lr
100041c8: 0780         	lsls	r0, r0, #0x1e
100041ca: f04f 0000    	mov.w	r0, #0x0
100041ce: bf48         	it	mi
100041d0: 4770         	bxmi	lr
100041d2: f240 1284    	movw	r2, #0x184
100041d6: f6c3 0200    	movt	r2, #0x3800
100041da: 7010         	strb	r0, [r2]
100041dc: f240 1288    	movw	r2, #0x188
100041e0: f6c3 0200    	movt	r2, #0x3800
100041e4: 7010         	strb	r0, [r2]
100041e6: 2003         	movs	r0, #0x3
100041e8: 7008         	strb	r0, [r1]
100041ea: f24e 2084    	movw	r0, #0xe284
100041ee: f2ce 0000    	movt	r0, #0xe000
100041f2: 2101         	movs	r1, #0x1
100041f4: f64f 6280    	movw	r2, #0xfe80
100041f8: 6001         	str	r1, [r0]
100041fa: f6cf 72ff    	movt	r2, #0xffff
100041fe: 5081         	str	r1, [r0, r2]
10004200: 2102         	movs	r1, #0x2
10004202: 6001         	str	r1, [r0]
10004204: 5081         	str	r1, [r0, r2]
10004206: 2000         	movs	r0, #0x0
10004208: 4770         	bx	lr
1000420a: 0000         	movs	r0, r0

1000420c <USART0_Receive>:
1000420c: b580         	push	{r7, lr}
1000420e: 4602         	mov	r2, r0
10004210: 2800         	cmp	r0, #0x0
10004212: f06f 0004    	mvn	r0, #0x4
10004216: bf18         	it	ne
10004218: 2900         	cmpne	r1, #0x0
1000421a: d100         	bne	0x1000421e <USART0_Receive+0x12> @ imm = #0x0
1000421c: bd80         	pop	{r7, pc}
1000421e: f240 108c    	movw	r0, #0x18c
10004222: f6c3 0000    	movt	r0, #0x3800
10004226: 7800         	ldrb	r0, [r0]
10004228: 0740         	lsls	r0, r0, #0x1d
1000422a: bf5c         	itt	pl
1000422c: f04f 30ff    	movpl.w	r0, #0xffffffff
10004230: bd80         	poppl	{r7, pc}
10004232: f240 1388    	movw	r3, #0x188
10004236: f6c3 0300    	movt	r3, #0x3800
1000423a: 7818         	ldrb	r0, [r3]
1000423c: b9d8         	cbnz	r0, 0x10004276 <USART0_Receive+0x6a> @ imm = #0x36
1000423e: f240 0c08    	movw	r12, #0x8
10004242: f2c5 0c20    	movt	r12, #0x5020
10004246: f85c 0c04    	ldr	r0, [r12, #-4]
1000424a: 0780         	lsls	r0, r0, #0x1e
1000424c: d413         	bmi	0x10004276 <USART0_Receive+0x6a> @ imm = #0x26
1000424e: f240 1e90    	movw	lr, #0x190
10004252: f6c3 0e00    	movt	lr, #0x3800
10004256: f8ce 1000    	str.w	r1, [lr]
1000425a: 2000         	movs	r0, #0x0
1000425c: 2101         	movs	r1, #0x1
1000425e: f8ce 2008    	str.w	r2, [lr, #0x8]
10004262: f8ce 0010    	str.w	r0, [lr, #0x10]
10004266: 7019         	strb	r1, [r3]
10004268: f8dc 1000    	ldr.w	r1, [r12]
1000426c: f041 0108    	orr	r1, r1, #0x8
10004270: f8cc 1000    	str.w	r1, [r12]
10004274: bd80         	pop	{r7, pc}
10004276: f06f 0001    	mvn	r0, #0x1
1000427a: bd80         	pop	{r7, pc}

1000427c <USART0_Send>:
1000427c: 2800         	cmp	r0, #0x0
1000427e: f06f 0204    	mvn	r2, #0x4
10004282: bf18         	it	ne
10004284: 2900         	cmpne	r1, #0x0
10004286: d101         	bne	0x1000428c <USART0_Send+0x10> @ imm = #0x2
10004288: 4610         	mov	r0, r2
1000428a: 4770         	bx	lr
1000428c: f240 128c    	movw	r2, #0x18c
10004290: f6c3 0200    	movt	r2, #0x3800
10004294: 7812         	ldrb	r2, [r2]
10004296: 0752         	lsls	r2, r2, #0x1d
10004298: bf5c         	itt	pl
1000429a: f04f 30ff    	movpl.w	r0, #0xffffffff
1000429e: 4770         	bxpl	lr
100042a0: f240 1284    	movw	r2, #0x184
100042a4: f6c3 0200    	movt	r2, #0x3800
100042a8: 7813         	ldrb	r3, [r2]
100042aa: b9e3         	cbnz	r3, 0x100042e6 <USART0_Send+0x6a> @ imm = #0x38
100042ac: f240 0c08    	movw	r12, #0x8
100042b0: f2c5 0c20    	movt	r12, #0x5020
100042b4: f85c 3c04    	ldr	r3, [r12, #-4]
100042b8: 07db         	lsls	r3, r3, #0x1f
100042ba: d114         	bne	0x100042e6 <USART0_Send+0x6a> @ imm = #0x28
100042bc: 2301         	movs	r3, #0x1
100042be: 7013         	strb	r3, [r2]
100042c0: f240 1390    	movw	r3, #0x190
100042c4: f6c3 0300    	movt	r3, #0x3800
100042c8: 2200         	movs	r2, #0x0
100042ca: 60d8         	str	r0, [r3, #0xc]
100042cc: 6059         	str	r1, [r3, #0x4]
100042ce: 615a         	str	r2, [r3, #0x14]
100042d0: f8dc 1000    	ldr.w	r1, [r12]
100042d4: f041 0104    	orr	r1, r1, #0x4
100042d8: f8cc 1000    	str.w	r1, [r12]
100042dc: 7800         	ldrb	r0, [r0]
100042de: f84c 0c08    	str	r0, [r12, #-8]
100042e2: 4610         	mov	r0, r2
100042e4: 4770         	bx	lr
100042e6: f06f 0001    	mvn	r0, #0x1
100042ea: 4770         	bx	lr

100042ec <USART0_SetModemControl>:
100042ec: f06f 0003    	mvn	r0, #0x3
100042f0: 4770         	bx	lr
100042f2: 0000         	movs	r0, r0

100042f4 <USART0_Transfer>:
100042f4: f06f 0003    	mvn	r0, #0x3
100042f8: 4770         	bx	lr
100042fa: 0000         	movs	r0, r0

100042fc <USART0_Uninitialize>:
100042fc: f241 0018    	movw	r0, #0x1018
10004300: f2c5 0010    	movt	r0, #0x5010
10004304: 6801         	ldr	r1, [r0]
10004306: f240 128c    	movw	r2, #0x18c
1000430a: f021 0101    	bic	r1, r1, #0x1
1000430e: 6001         	str	r1, [r0]
10004310: 6801         	ldr	r1, [r0]
10004312: f6c3 0200    	movt	r2, #0x3800
10004316: f021 0102    	bic	r1, r1, #0x2
1000431a: 6001         	str	r1, [r0]
1000431c: 2100         	movs	r1, #0x0
1000431e: 2000         	movs	r0, #0x0
10004320: 7011         	strb	r1, [r2]
10004322: 4770         	bx	lr

10004324 <USARTx_GetVersion>:
10004324: f240 2004    	movw	r0, #0x204
10004328: f2c0 1000    	movt	r0, #0x100
1000432c: 4770         	bx	lr
1000432e: 0000         	movs	r0, r0

10004330 <_sys_close>:
10004330: f248 0104    	movw	r1, #0x8004
10004334: 1a41         	subs	r1, r0, r1
10004336: 2000         	movs	r0, #0x0
10004338: f111 0f03    	cmn.w	r1, #0x3
1000433c: bf38         	it	lo
1000433e: f04f 30ff    	movlo.w	r0, #0xffffffff
10004342: 4770         	bx	lr

10004344 <_sys_flen>:
10004344: 2000         	movs	r0, #0x0
10004346: 4770         	bx	lr

10004348 <_sys_istty>:
10004348: f248 0101    	movw	r1, #0x8001
1000434c: 1a41         	subs	r1, r0, r1
1000434e: 2000         	movs	r0, #0x0
10004350: 2903         	cmp	r1, #0x3
10004352: bf38         	it	lo
10004354: 2001         	movlo	r0, #0x1
10004356: 4770         	bx	lr

10004358 <_sys_open>:
10004358: b510         	push	{r4, lr}
1000435a: b350         	cbz	r0, 0x100043b2 <_sys_open+0x5a> @ imm = #0x54
1000435c: 4604         	mov	r4, r0
1000435e: 7800         	ldrb	r0, [r0]
10004360: 283a         	cmp	r0, #0x3a
10004362: d126         	bne	0x100043b2 <_sys_open+0x5a> @ imm = #0x4c
10004364: f645 51a8    	movw	r1, #0x5da8
10004368: f2c1 0100    	movt	r1, #0x1000
1000436c: 4620         	mov	r0, r4
1000436e: f7fc f913    	bl	0x10000598 <strcmp>     @ imm = #-0x3dda
10004372: 2800         	cmp	r0, #0x0
10004374: bf04         	itt	eq
10004376: f248 0001    	movweq	r0, #0x8001
1000437a: bd10         	popeq	{r4, pc}
1000437c: f645 51af    	movw	r1, #0x5daf
10004380: f2c1 0100    	movt	r1, #0x1000
10004384: 4620         	mov	r0, r4
10004386: f7fc f907    	bl	0x10000598 <strcmp>     @ imm = #-0x3df2
1000438a: 2800         	cmp	r0, #0x0
1000438c: bf04         	itt	eq
1000438e: f248 0002    	movweq	r0, #0x8002
10004392: bd10         	popeq	{r4, pc}
10004394: f645 51a0    	movw	r1, #0x5da0
10004398: f2c1 0100    	movt	r1, #0x1000
1000439c: 4620         	mov	r0, r4
1000439e: f7fc f8fb    	bl	0x10000598 <strcmp>     @ imm = #-0x3e0a
100043a2: 4601         	mov	r1, r0
100043a4: f04f 30ff    	mov.w	r0, #0xffffffff
100043a8: 2900         	cmp	r1, #0x0
100043aa: bf08         	it	eq
100043ac: f248 0003    	movweq	r0, #0x8003
100043b0: bd10         	pop	{r4, pc}
100043b2: f04f 30ff    	mov.w	r0, #0xffffffff
100043b6: bd10         	pop	{r4, pc}

100043b8 <_sys_seek>:
100043b8: f04f 30ff    	mov.w	r0, #0xffffffff
100043bc: 4770         	bx	lr
100043be: 0000         	movs	r0, r0

100043c0 <_sys_write>:
100043c0: b5b0         	push	{r4, r5, r7, lr}
100043c2: 4614         	mov	r4, r2
100043c4: f248 0203    	movw	r2, #0x8003
100043c8: 4290         	cmp	r0, r2
100043ca: d011         	beq	0x100043f0 <_sys_write+0x30> @ imm = #0x22
100043cc: f248 0202    	movw	r2, #0x8002
100043d0: 4290         	cmp	r0, r2
100043d2: bf1c         	itt	ne
100043d4: f04f 30ff    	movne.w	r0, #0xffffffff
100043d8: bdb0         	popne	{r4, r5, r7, pc}
100043da: 2c00         	cmp	r4, #0x0
100043dc: bf04         	itt	eq
100043de: 2000         	moveq	r0, #0x0
100043e0: bdb0         	popeq	{r4, r5, r7, pc}
100043e2: 1e4d         	subs	r5, r1, #0x1
100043e4: f815 0f01    	ldrb	r0, [r5, #1]!
100043e8: f000 fa00    	bl	0x100047ec <stdout_putchar> @ imm = #0x400
100043ec: 3c01         	subs	r4, #0x1
100043ee: d1f9         	bne	0x100043e4 <_sys_write+0x24> @ imm = #-0xe
100043f0: 2000         	movs	r0, #0x0
100043f2: bdb0         	pop	{r4, r5, r7, pc}

100043f4 <main>:
100043f4: b088         	sub	sp, #0x20
100043f6: f24e 1800    	movw	r8, #0xe100
100043fa: f2ce 0800    	movt	r8, #0xe000
100043fe: f7ff fae3    	bl	0x100039c8 <LED_GetCount> @ imm = #-0xa3a
10004402: f1a0 0901    	sub.w	r9, r0, #0x1
10004406: f7fc fe21    	bl	0x1000104c <Buttons_GetCount> @ imm = #-0x33be
1000440a: 4604         	mov	r4, r0
1000440c: 4607         	mov	r7, r0
1000440e: f646 4072    	movw	r0, #0x6c72
10004412: f2c0 0064    	movt	r0, #0x64
10004416: 9007         	str	r0, [sp, #0x1c]
10004418: f242 006f    	movw	r0, #0x206f
1000441c: f6c6 7057    	movt	r0, #0x6f57
10004420: 9006         	str	r0, [sp, #0x18]
10004422: f246 5048    	movw	r0, #0x6548
10004426: f6c6 406c    	movt	r0, #0x6c6c
1000442a: 9005         	str	r0, [sp, #0x14]
1000442c: f7ff fb10    	bl	0x10003a50 <SystemCoreClockUpdate> @ imm = #-0x9e0
10004430: f7ff facc    	bl	0x100039cc <LED_Initialize> @ imm = #-0xa68
10004434: f7fc fe14    	bl	0x10001060 <Buttons_Initialize> @ imm = #-0x33d8
10004438: f000 f9ba    	bl	0x100047b0 <stdout_init> @ imm = #0x374
1000443c: f7ff fc62    	bl	0x10003d04 <Touch_Initialize> @ imm = #-0x73c
10004440: f7fc ff22    	bl	0x10001288 <GLCD_Initialize> @ imm = #-0x31bc
10004444: f645 50b7    	movw	r0, #0x5db7
10004448: f2c1 0000    	movt	r0, #0x1000
1000444c: a905         	add	r1, sp, #0x14
1000444e: f7fc f839    	bl	0x100004c4 <__2printf>  @ imm = #-0x3f8e
10004452: f645 5090    	movw	r0, #0x5d90
10004456: f2c1 0000    	movt	r0, #0x1000
1000445a: f7fe fc25    	bl	0x10002ca8 <GLCD_SetFont> @ imm = #-0x17b6
1000445e: f64f 70ff    	movw	r0, #0xffff
10004462: f7fe fc19    	bl	0x10002c98 <GLCD_SetBackgroundColor> @ imm = #-0x17ce
10004466: f7fc fdff    	bl	0x10001068 <GLCD_ClearScreen> @ imm = #-0x3402
1000446a: 201f         	movs	r0, #0x1f
1000446c: f7fe fc14    	bl	0x10002c98 <GLCD_SetBackgroundColor> @ imm = #-0x17d8
10004470: f44f 4078    	mov.w	r0, #0xf800
10004474: f7fe fc20    	bl	0x10002cb8 <GLCD_SetForegroundColor> @ imm = #-0x17c0
10004478: f645 52bc    	movw	r2, #0x5dbc
1000447c: 2000         	movs	r0, #0x0
1000447e: f2c1 0200    	movt	r2, #0x1000
10004482: 2100         	movs	r1, #0x0
10004484: 2600         	movs	r6, #0x0
10004486: f7fc fee3    	bl	0x10001250 <GLCD_DrawString> @ imm = #-0x323a
1000448a: a2a7         	adr	r2, #668 <main+0x141>
1000448c: 2000         	movs	r0, #0x0
1000448e: 2118         	movs	r1, #0x18
10004490: f7fc fede    	bl	0x10001250 <GLCD_DrawString> @ imm = #-0x3244
10004494: a2aa         	adr	r2, #680 <main+0x14e>
10004496: 2000         	movs	r0, #0x0
10004498: 2130         	movs	r1, #0x30
1000449a: f7fc fed9    	bl	0x10001250 <GLCD_DrawString> @ imm = #-0x324e
1000449e: f64f 70ff    	movw	r0, #0xffff
100044a2: f7fe fbf9    	bl	0x10002c98 <GLCD_SetBackgroundColor> @ imm = #-0x180e
100044a6: 2000         	movs	r0, #0x0
100044a8: f7fe fc06    	bl	0x10002cb8 <GLCD_SetForegroundColor> @ imm = #-0x17f4
100044ac: f8d8 0c00    	ldr.w	r0, [r8, #0xc00]
100044b0: f640 5221    	movw	r2, #0xd21
100044b4: f3c0 100b    	ubfx	r0, r0, #0x4, #0xc
100044b8: a1a7         	adr	r1, #668 <main+0x16f>
100044ba: a3ad         	adr	r3, #692 <main+0x177>
100044bc: 4290         	cmp	r0, r2
100044be: bf08         	it	eq
100044c0: 460b         	moveq	r3, r1
100044c2: a2b1         	adr	r2, #708 <main+0x183>
100044c4: f5b0 6f52    	cmp.w	r0, #0xd20
100044c8: bf18         	it	ne
100044ca: 461a         	movne	r2, r3
100044cc: 2000         	movs	r0, #0x0
100044ce: 2160         	movs	r1, #0x60
100044d0: f7fc febe    	bl	0x10001250 <GLCD_DrawString> @ imm = #-0x3284
100044d4: a2b2         	adr	r2, #712 <main+0x196>
100044d6: 2020         	movs	r0, #0x20
100044d8: 2190         	movs	r1, #0x90
100044da: 2590         	movs	r5, #0x90
100044dc: f7fc feb8    	bl	0x10001250 <GLCD_DrawString> @ imm = #-0x3290
100044e0: a2b1         	adr	r2, #708 <main+0x1a1>
100044e2: 2020         	movs	r0, #0x20
100044e4: 21a8         	movs	r1, #0xa8
100044e6: f7fc feb3    	bl	0x10001250 <GLCD_DrawString> @ imm = #-0x329a
100044ea: f645 52d1    	movw	r2, #0x5dd1
100044ee: 2020         	movs	r0, #0x20
100044f0: f2c1 0200    	movt	r2, #0x1000
100044f4: 21c0         	movs	r1, #0xc0
100044f6: f7fc feab    	bl	0x10001250 <GLCD_DrawString> @ imm = #-0x32aa
100044fa: f24c 6018    	movw	r0, #0xc618
100044fe: f7fe fbdb    	bl	0x10002cb8 <GLCD_SetForegroundColor> @ imm = #-0x184a
10004502: bf00         	nop
10004504: 4628         	mov	r0, r5
10004506: 2190         	movs	r1, #0x90
10004508: 2280         	movs	r2, #0x80
1000450a: f7fc fe03    	bl	0x10001114 <GLCD_DrawChar> @ imm = #-0x33fa
1000450e: 3601         	adds	r6, #0x1
10004510: 454e         	cmp	r6, r9
10004512: f105 0510    	add.w	r5, r5, #0x10
10004516: d9f5         	bls	0x10004504 <main+0x110> @ imm = #-0x16
10004518: f8cd 9000    	str.w	r9, [sp]
1000451c: b14c         	cbz	r4, 0x10004532 <main+0x13e> @ imm = #0x12
1000451e: 2590         	movs	r5, #0x90
10004520: 4628         	mov	r0, r5
10004522: 21a8         	movs	r1, #0xa8
10004524: 2280         	movs	r2, #0x80
10004526: f7fc fdf5    	bl	0x10001114 <GLCD_DrawChar> @ imm = #-0x3416
1000452a: 3f01         	subs	r7, #0x1
1000452c: f105 0510    	add.w	r5, r5, #0x10
10004530: d1f6         	bne	0x10004520 <main+0x12c> @ imm = #-0x14
10004532: 2090         	movs	r0, #0x90
10004534: 21c0         	movs	r1, #0xc0
10004536: 2280         	movs	r2, #0x80
10004538: f7fc fdec    	bl	0x10001114 <GLCD_DrawChar> @ imm = #-0x3428
1000453c: f240 000c    	movw	r0, #0xc
10004540: f6c3 0000    	movt	r0, #0x3800
10004544: 6800         	ldr	r0, [r0]
10004546: f248 511f    	movw	r1, #0x851f
1000454a: f2c5 11eb    	movt	r1, #0x51eb
1000454e: fba0 0101    	umull	r0, r1, r0, r1
10004552: f04f 35ff    	mov.w	r5, #0xffffffff
10004556: 2008         	movs	r0, #0x8
10004558: eb05 1151    	add.w	r1, r5, r1, lsr #5
1000455c: f04f 0a01    	mov.w	r10, #0x1
10004560: f2c4 0000    	movt	r0, #0x4000
10004564: f8c0 a004    	str.w	r10, [r0, #0x4]
10004568: 6001         	str	r1, [r0]
1000456a: f04f 4080    	mov.w	r0, #0x40000000
1000456e: 2109         	movs	r1, #0x9
10004570: 6001         	str	r1, [r0]
10004572: 2008         	movs	r0, #0x8
10004574: f8c8 0000    	str.w	r0, [r8]
10004578: f240 1770    	movw	r7, #0x170
1000457c: f240 1bb0    	movw	r11, #0x1b0
10004580: 2001         	movs	r0, #0x1
10004582: f6c3 0700    	movt	r7, #0x3800
10004586: f04f 0900    	mov.w	r9, #0x0
1000458a: f6c3 0b00    	movt	r11, #0x3800
1000458e: 9002         	str	r0, [sp, #0x8]
10004590: f04f 30ff    	mov.w	r0, #0xffffffff
10004594: 9001         	str	r0, [sp, #0x4]
10004596: bf00         	nop
10004598: f240 1074    	movw	r0, #0x174
1000459c: f6c3 0000    	movt	r0, #0x3800
100045a0: 7800         	ldrb	r0, [r0]
100045a2: 2801         	cmp	r0, #0x1
100045a4: d113         	bne	0x100045ce <main+0x1da> @ imm = #0x26
100045a6: f240 1174    	movw	r1, #0x174
100045aa: 2000         	movs	r0, #0x0
100045ac: f6c3 0100    	movt	r1, #0x3800
100045b0: 7008         	strb	r0, [r1]
100045b2: 4648         	mov	r0, r9
100045b4: f7ff fa22    	bl	0x100039fc <LED_On>     @ imm = #-0xbbc
100045b8: f44f 60fc    	mov.w	r0, #0x7e0
100045bc: f7fe fb7c    	bl	0x10002cb8 <GLCD_SetForegroundColor> @ imm = #-0x1908
100045c0: 2090         	movs	r0, #0x90
100045c2: eb00 1009    	add.w	r0, r0, r9, lsl #4
100045c6: 2190         	movs	r1, #0x90
100045c8: 2281         	movs	r2, #0x81
100045ca: f7fc fda3    	bl	0x10001114 <GLCD_DrawChar> @ imm = #-0x34ba
100045ce: 7838         	ldrb	r0, [r7]
100045d0: 2801         	cmp	r0, #0x1
100045d2: d120         	bne	0x10004616 <main+0x222> @ imm = #0x40
100045d4: 2000         	movs	r0, #0x0
100045d6: 7038         	strb	r0, [r7]
100045d8: 4648         	mov	r0, r9
100045da: f7ff f9ff    	bl	0x100039dc <LED_Off>    @ imm = #-0xc02
100045de: f24c 6018    	movw	r0, #0xc618
100045e2: f7fe fb69    	bl	0x10002cb8 <GLCD_SetForegroundColor> @ imm = #-0x192e
100045e6: 2090         	movs	r0, #0x90
100045e8: eb00 1009    	add.w	r0, r0, r9, lsl #4
100045ec: 2190         	movs	r1, #0x90
100045ee: 2280         	movs	r2, #0x80
100045f0: f7fc fd90    	bl	0x10001114 <GLCD_DrawChar> @ imm = #-0x34e0
100045f4: 9902         	ldr	r1, [sp, #0x8]
100045f6: 2901         	cmp	r1, #0x1
100045f8: 4489         	add	r9, r1
100045fa: d107         	bne	0x1000460c <main+0x218> @ imm = #0xe
100045fc: 9800         	ldr	r0, [sp]
100045fe: 4581         	cmp	r9, r0
10004600: d104         	bne	0x1000460c <main+0x218> @ imm = #0x8
10004602: f04f 30ff    	mov.w	r0, #0xffffffff
10004606: 9002         	str	r0, [sp, #0x8]
10004608: e005         	b	0x10004616 <main+0x222> @ imm = #0xa
1000460a: bf00         	nop
1000460c: f1b9 0f00    	cmp.w	r9, #0x0
10004610: bf08         	it	eq
10004612: 2101         	moveq	r1, #0x1
10004614: 9102         	str	r1, [sp, #0x8]
10004616: f7fc fd1b    	bl	0x10001050 <Buttons_GetState> @ imm = #-0x35ca
1000461a: 4606         	mov	r6, r0
1000461c: 42a8         	cmp	r0, r5
1000461e: bf18         	it	ne
10004620: 2c00         	cmpne	r4, #0x0
10004622: d01a         	beq	0x1000465a <main+0x266> @ imm = #0x34
10004624: 2700         	movs	r7, #0x0
10004626: 2590         	movs	r5, #0x90
10004628: fa0a f007    	lsl.w	r0, r10, r7
1000462c: 4030         	ands	r0, r6
1000462e: f04f 0000    	mov.w	r0, #0x0
10004632: f04f 0881    	mov.w	r8, #0x81
10004636: bf08         	it	eq
10004638: f24c 6018    	movweq	r0, #0xc618
1000463c: bf08         	it	eq
1000463e: f04f 0880    	moveq.w	r8, #0x80
10004642: f7fe fb39    	bl	0x10002cb8 <GLCD_SetForegroundColor> @ imm = #-0x198e
10004646: 4628         	mov	r0, r5
10004648: 21a8         	movs	r1, #0xa8
1000464a: 4642         	mov	r2, r8
1000464c: f7fc fd62    	bl	0x10001114 <GLCD_DrawChar> @ imm = #-0x353c
10004650: 3701         	adds	r7, #0x1
10004652: 42bc         	cmp	r4, r7
10004654: f105 0510    	add.w	r5, r5, #0x10
10004658: d1e6         	bne	0x10004628 <main+0x234> @ imm = #-0x34
1000465a: a803         	add	r0, sp, #0xc
1000465c: f7ff fac8    	bl	0x10003bf0 <Touch_GetState> @ imm = #-0xa70
10004660: 2800         	cmp	r0, #0x0
10004662: d14b         	bne	0x100046fc <main+0x308> @ imm = #0x96
10004664: f89d 8010    	ldrb.w	r8, [sp, #0x10]
10004668: 9801         	ldr	r0, [sp, #0x4]
1000466a: 4540         	cmp	r0, r8
1000466c: d046         	beq	0x100046fc <main+0x308> @ imm = #0x8c
1000466e: 4640         	mov	r0, r8
10004670: f1b8 0f00    	cmp.w	r8, #0x0
10004674: bf18         	it	ne
10004676: 2001         	movne	r0, #0x1
10004678: f9bd 100c    	ldrsh.w	r1, [sp, #0xc]
1000467c: 2300         	movs	r3, #0x0
1000467e: f5b1 7ffa    	cmp.w	r1, #0x1f4
10004682: f9bd 200e    	ldrsh.w	r2, [sp, #0xe]
10004686: bfa8         	it	ge
10004688: 2301         	movge	r3, #0x1
1000468a: f5b1 7f7a    	cmp.w	r1, #0x3e8
1000468e: f04f 0100    	mov.w	r1, #0x0
10004692: ea00 0003    	and.w	r0, r0, r3
10004696: bfd8         	it	le
10004698: 2101         	movle	r1, #0x1
1000469a: 4008         	ands	r0, r1
1000469c: f240 2125    	movw	r1, #0x225
100046a0: 428a         	cmp	r2, r1
100046a2: f04f 0100    	mov.w	r1, #0x0
100046a6: bfc8         	it	gt
100046a8: 2101         	movgt	r1, #0x1
100046aa: 4008         	ands	r0, r1
100046ac: f240 610f    	movw	r1, #0x60f
100046b0: 428a         	cmp	r2, r1
100046b2: f04f 0100    	mov.w	r1, #0x0
100046b6: bfb8         	it	lt
100046b8: 2101         	movlt	r1, #0x1
100046ba: 4008         	ands	r0, r1
100046bc: f24c 6518    	movw	r5, #0xc618
100046c0: bf18         	it	ne
100046c2: f24c 6018    	movwne	r0, #0xc618
100046c6: f04f 0780    	mov.w	r7, #0x80
100046ca: bf18         	it	ne
100046cc: f64f 75e0    	movwne	r5, #0xffe0
100046d0: bf18         	it	ne
100046d2: 2781         	movne	r7, #0x81
100046d4: f7fe faf0    	bl	0x10002cb8 <GLCD_SetForegroundColor> @ imm = #-0x1a20
100046d8: f645 52d1    	movw	r2, #0x5dd1
100046dc: 2020         	movs	r0, #0x20
100046de: 21c0         	movs	r1, #0xc0
100046e0: f2c1 0200    	movt	r2, #0x1000
100046e4: f7fc fdb4    	bl	0x10001250 <GLCD_DrawString> @ imm = #-0x3498
100046e8: 4628         	mov	r0, r5
100046ea: f7fe fae5    	bl	0x10002cb8 <GLCD_SetForegroundColor> @ imm = #-0x1a36
100046ee: 2090         	movs	r0, #0x90
100046f0: 21c0         	movs	r1, #0xc0
100046f2: 463a         	mov	r2, r7
100046f4: f7fc fd0e    	bl	0x10001114 <GLCD_DrawChar> @ imm = #-0x35e4
100046f8: f8cd 8004    	str.w	r8, [sp, #0x4]
100046fc: f89b 0000    	ldrb.w	r0, [r11]
10004700: f240 1770    	movw	r7, #0x170
10004704: 2801         	cmp	r0, #0x1
10004706: 4635         	mov	r5, r6
10004708: f6c3 0700    	movt	r7, #0x3800
1000470c: f47f af44    	bne.w	0x10004598 <main+0x1a4> @ imm = #-0x178
10004710: 2000         	movs	r0, #0x0
10004712: f88b 0000    	strb.w	r0, [r11]
10004716: f645 50b7    	movw	r0, #0x5db7
1000471a: f2c1 0000    	movt	r0, #0x1000
1000471e: a905         	add	r1, sp, #0x14
10004720: f7fb fed0    	bl	0x100004c4 <__2printf>  @ imm = #-0x4260
10004724: 4635         	mov	r5, r6
10004726: e737         	b	0x10004598 <main+0x1a4> @ imm = #-0x192

10004728 <$d.3>:
10004728: 20 20 20 20  	.word	0x20202020
1000472c: 20 20 42 6c  	.word	0x6c422020
10004730: 69 6e 6b 79  	.word	0x796b6e69
10004734: 20 20 20 20  	.word	0x20202020
10004738: 20 20 20 20  	.word	0x20202020
1000473c: 00 00 00 00  	.word	0x00000000
10004740: 20 20 20 77  	.word	0x77202020
10004744: 77 77 2e 6b  	.word	0x6b2e7777
10004748: 65 69 6c 2e  	.word	0x2e6c6965
1000474c: 63 6f 6d 20  	.word	0x206d6f63
10004750: 20 20 20 20  	.word	0x20202020
10004754: 00 00 00 00  	.word	0x00000000
10004758: 20 20 43 6f  	.word	0x6f432020
1000475c: 72 74 65 78  	.word	0x78657472
10004760: 2d 4d 33 33  	.word	0x33334d2d
10004764: 20 20 20 20  	.word	0x20202020
10004768: 20 20 20 20  	.word	0x20202020
1000476c: 00 00 00 00  	.word	0x00000000
10004770: 20 20 75 6e  	.word	0x6e752020
10004774: 6b 6e 6f 77  	.word	0x776f6e6b
10004778: 6e 20 43 6f  	.word	0x6f43206e
1000477c: 72 74 65 78  	.word	0x78657472
10004780: 2d 4d 20 20  	.word	0x20204d2d
10004784: 00 00 00 00  	.word	0x00000000
10004788: 20 20 43 6f  	.word	0x6f432020
1000478c: 72 74 65 78  	.word	0x78657472
10004790: 2d 4d 32 33  	.word	0x33324d2d
10004794: 20 20 20 20  	.word	0x20202020
10004798: 20 20 20 20  	.word	0x20202020
1000479c: 00 00 00 00  	.word	0x00000000
100047a0: 4c 45 44 3a  	.word	0x3a44454c
100047a4: 00 00 00 00  	.word	0x00000000
100047a8: 4b 45 59 3a  	.word	0x3a59454b
100047ac: 00 00 00 00  	.word	0x00000000

100047b0 <stdout_init>:
100047b0: b510         	push	{r4, lr}
100047b2: f644 0458    	movw	r4, #0x4858
100047b6: f2c1 0400    	movt	r4, #0x1000
100047ba: 68a1         	ldr	r1, [r4, #0x8]
100047bc: 2000         	movs	r0, #0x0
100047be: 4788         	blx	r1
100047c0: b948         	cbnz	r0, 0x100047d6 <stdout_init+0x26> @ imm = #0x12
100047c2: 6921         	ldr	r1, [r4, #0x10]
100047c4: 2002         	movs	r0, #0x2
100047c6: 4788         	blx	r1
100047c8: b928         	cbnz	r0, 0x100047d6 <stdout_init+0x26> @ imm = #0xa
100047ca: 6aa4         	ldr	r4, [r4, #0x28]
100047cc: 2001         	movs	r0, #0x1
100047ce: f44f 31e1    	mov.w	r1, #0x1c200
100047d2: 47a0         	blx	r4
100047d4: b110         	cbz	r0, 0x100047dc <stdout_init+0x2c> @ imm = #0x4
100047d6: f04f 30ff    	mov.w	r0, #0xffffffff
100047da: bd10         	pop	{r4, pc}
100047dc: 2015         	movs	r0, #0x15
100047de: 2101         	movs	r1, #0x1
100047e0: 47a0         	blx	r4
100047e2: 2800         	cmp	r0, #0x0
100047e4: bf18         	it	ne
100047e6: f04f 30ff    	movne.w	r0, #0xffffffff
100047ea: bd10         	pop	{r4, pc}

100047ec <stdout_putchar>:
100047ec: b5b0         	push	{r4, r5, r7, lr}
100047ee: b082         	sub	sp, #0x8
100047f0: f644 0558    	movw	r5, #0x4858
100047f4: f2c1 0500    	movt	r5, #0x1000
100047f8: 696a         	ldr	r2, [r5, #0x14]
100047fa: 4604         	mov	r4, r0
100047fc: f88d 0007    	strb.w	r0, [sp, #0x7]
10004800: f10d 0007    	add.w	r0, sp, #0x7
10004804: 2101         	movs	r1, #0x1
10004806: 4790         	blx	r2
10004808: b110         	cbz	r0, 0x10004810 <stdout_putchar+0x24> @ imm = #0x4
1000480a: f04f 34ff    	mov.w	r4, #0xffffffff
1000480e: e004         	b	0x1000481a <stdout_putchar+0x2e> @ imm = #0x8
10004810: 6a2d         	ldr	r5, [r5, #0x20]
10004812: bf00         	nop
10004814: 47a8         	blx	r5
10004816: 2801         	cmp	r0, #0x1
10004818: d1fc         	bne	0x10004814 <stdout_putchar+0x28> @ imm = #-0x8
1000481a: 4620         	mov	r0, r4
1000481c: b002         	add	sp, #0x8
1000481e: bdb0         	pop	{r4, r5, r7, pc}

10004820 <fputc>:
10004820: 688a         	ldr	r2, [r1, #0x8]
10004822: 2a00         	cmp	r2, #0x0
10004824: dc02         	bgt	0x1000482c <fputc+0xc>  @ imm = #0x4
10004826: 2200         	movs	r2, #0x0
10004828: f7fb bffb    	b.w	0x10000822 <__flsbuf_wide> @ imm = #-0x400a
1000482c: 1e52         	subs	r2, r2, #0x1
1000482e: 608a         	str	r2, [r1, #0x8]
10004830: 684a         	ldr	r2, [r1, #0x4]
10004832: b2c0         	uxtb	r0, r0
10004834: 1c53         	adds	r3, r2, #0x1
10004836: 604b         	str	r3, [r1, #0x4]
10004838: 7010         	strb	r0, [r2]
1000483a: 4770         	bx	lr

1000483c <_fp_init>:
1000483c: eef1 0a10    	vmrs	r0, fpscr
10004840: f64f 71ff    	movw	r1, #0xffff
10004844: f2c0 31c0    	movt	r1, #0x3c0
10004848: ea20 0001    	bic.w	r0, r0, r1
1000484c: f040 7040    	orr	r0, r0, #0x3000000
10004850: eee1 0a10    	vmsr	fpscr, r0

10004854 <__fplib_config_pureend_doubles>:
10004854: 4770         	bx	lr
10004856: 0000         	movs	r0, r0

10004858 <$d.realdata>:
10004858: 25 43 00 10  	.word	0x10004325
1000485c: d9 40 00 10  	.word	0x100040d9
10004860: 19 41 00 10  	.word	0x10004119
10004864: fd 42 00 10  	.word	0x100042fd
10004868: 69 41 00 10  	.word	0x10004169
1000486c: 7d 42 00 10  	.word	0x1000427d
10004870: 0d 42 00 10  	.word	0x1000420d
10004874: f5 42 00 10  	.word	0x100042f5
10004878: 0d 41 00 10  	.word	0x1000410d
1000487c: e5 40 00 10  	.word	0x100040e5
10004880: 9d 3f 00 10  	.word	0x10003f9d
10004884: f1 40 00 10  	.word	0x100040f1
10004888: ed 42 00 10  	.word	0x100042ed
1000488c: e1 40 00 10  	.word	0x100040e1

10004890 <Font_16x24_h>:
10004890: 00 00 00 00 00 00 00 00         ........
10004898: 00 00 00 00 00 00 00 00         ........
100048a0: 00 00 00 00 00 00 00 00         ........
100048a8: 00 00 00 00 00 00 00 00         ........
100048b0: 00 00 00 00 00 00 00 00         ........
100048b8: 00 00 00 00 00 00 00 00         ........
100048c0: 00 00 80 01 80 01 80 01         ........
100048c8: 80 01 80 01 80 01 80 01         ........
100048d0: 80 01 80 01 80 01 80 01         ........
100048d8: 80 01 80 01 00 00 00 00         ........
100048e0: 80 01 80 01 00 00 00 00         ........
100048e8: 00 00 00 00 00 00 00 00         ........
100048f0: 00 00 00 00 cc 00 cc 00         ........
100048f8: cc 00 cc 00 cc 00 cc 00         ........
10004900: 00 00 00 00 00 00 00 00         ........
10004908: 00 00 00 00 00 00 00 00         ........
10004910: 00 00 00 00 00 00 00 00         ........
10004918: 00 00 00 00 00 00 00 00         ........
10004920: 00 00 00 00 00 00 00 00         ........
10004928: 00 00 00 00 60 0c 60 0c         ....`.`.
10004930: 60 0c 30 06 30 06 fe 1f         `.0.0...
10004938: fe 1f 30 06 38 07 18 03         ..0.8...
10004940: fe 1f fe 1f 18 03 18 03         ........
10004948: 8c 01 8c 01 8c 01 00 00         ........
10004950: 00 00 80 00 e0 03 f8 0f         ........
10004958: 9c 0e 8c 1c 8c 18 8c 00         ........
10004960: 98 00 f8 01 e0 07 80 0e         ........
10004968: 80 1c 8c 18 8c 18 9c 18         ........
10004970: b8 0c f0 0f e0 03 80 00         ........
10004978: 80 00 00 00 00 00 00 00         ........
10004980: 00 00 00 00 00 00 0e 18         ........
10004988: 1b 0c 11 0c 11 06 11 06         ........
10004990: 11 03 11 03 9b 01 8e 01         ........
10004998: c0 38 c0 6c 60 44 60 44         .8.l`D`D
100049a0: 30 44 30 44 18 44 18 6c         0D0D.D.l
100049a8: 0c 38 00 00 00 00 00 00         .8......
100049b0: 00 00 e0 01 f0 03 38 07         ......8.
100049b8: 18 06 18 06 30 03 f0 01         ....0...
100049c0: f0 00 f8 00 9c 31 0e 33         .....1.3
100049c8: 06 1e 06 1c 06 1c 06 3f         .......?
100049d0: fc 73 f0 21 00 00 00 00         .s.!....
100049d8: 00 00 00 00 00 00 00 00         ........
100049e0: 00 00 00 00 0c 00 0c 00         ........
100049e8: 0c 00 0c 00 0c 00 0c 00         ........
100049f0: 00 00 00 00 00 00 00 00         ........
100049f8: 00 00 00 00 00 00 00 00         ........
10004a00: 00 00 00 00 00 00 00 00         ........
10004a08: 00 00 00 00 00 00 00 00         ........
10004a10: 00 00 00 02 00 03 80 01         ........
10004a18: c0 00 c0 00 60 00 60 00         ....`.`.
10004a20: 30 00 30 00 30 00 30 00         0.0.0.0.
10004a28: 30 00 30 00 30 00 30 00         0.0.0.0.
10004a30: 60 00 60 00 c0 00 c0 00         `.`.....
10004a38: 80 01 00 03 00 02 00 00         ........
10004a40: 00 00 20 00 60 00 c0 00         .. .`...
10004a48: 80 01 80 01 00 03 00 03         ........
10004a50: 00 06 00 06 00 06 00 06         ........
10004a58: 00 06 00 06 00 06 00 06         ........
10004a60: 00 03 00 03 80 01 80 01         ........
10004a68: c0 00 60 00 20 00 00 00         ..`. ...
10004a70: 00 00 00 00 00 00 00 00         ........
10004a78: 00 00 00 00 c0 00 c0 00         ........
10004a80: d8 06 f8 07 e0 01 30 03         ......0.
10004a88: 38 07 00 00 00 00 00 00         8.......
10004a90: 00 00 00 00 00 00 00 00         ........
10004a98: 00 00 00 00 00 00 00 00         ........
10004aa0: 00 00 00 00 00 00 00 00         ........
10004aa8: 00 00 00 00 80 01 80 01         ........
10004ab0: 80 01 80 01 80 01 fc 3f         .......?
10004ab8: fc 3f 80 01 80 01 80 01         .?......
10004ac0: 80 01 80 01 00 00 00 00         ........
10004ac8: 00 00 00 00 00 00 00 00         ........
10004ad0: 00 00 00 00 00 00 00 00         ........
10004ad8: 00 00 00 00 00 00 00 00         ........
10004ae0: 00 00 00 00 00 00 00 00         ........
10004ae8: 00 00 00 00 00 00 00 00         ........
10004af0: 00 00 80 01 80 01 00 01         ........
10004af8: 00 01 80 00 00 00 00 00         ........
10004b00: 00 00 00 00 00 00 00 00         ........
10004b08: 00 00 00 00 00 00 00 00         ........
10004b10: 00 00 00 00 00 00 00 00         ........
10004b18: e0 07 e0 07 00 00 00 00         ........
10004b20: 00 00 00 00 00 00 00 00         ........
10004b28: 00 00 00 00 00 00 00 00         ........
10004b30: 00 00 00 00 00 00 00 00         ........
10004b38: 00 00 00 00 00 00 00 00         ........
10004b40: 00 00 00 00 00 00 00 00         ........
10004b48: 00 00 00 00 00 00 00 00         ........
10004b50: 00 00 c0 00 c0 00 00 00         ........
10004b58: 00 00 00 00 00 00 00 00         ........
10004b60: 00 00 00 0c 00 0c 00 06         ........
10004b68: 00 06 00 06 00 03 00 03         ........
10004b70: 00 03 80 03 80 01 80 01         ........
10004b78: 80 01 c0 00 c0 00 c0 00         ........
10004b80: 60 00 60 00 00 00 00 00         `.`.....
10004b88: 00 00 00 00 00 00 00 00         ........
10004b90: 00 00 e0 03 f0 07 38 0e         ......8.
10004b98: 18 0c 0c 18 0c 18 0c 18         ........
10004ba0: 0c 18 0c 18 0c 18 0c 18         ........
10004ba8: 0c 18 0c 18 18 0c 38 0e         ......8.
10004bb0: f0 07 e0 03 00 00 00 00         ........
10004bb8: 00 00 00 00 00 00 00 00         ........
10004bc0: 00 00 00 01 80 01 c0 01         ........
10004bc8: f0 01 98 01 88 01 80 01         ........
10004bd0: 80 01 80 01 80 01 80 01         ........
10004bd8: 80 01 80 01 80 01 80 01         ........
10004be0: 80 01 80 01 00 00 00 00         ........
10004be8: 00 00 00 00 00 00 00 00         ........
10004bf0: 00 00 e0 03 f8 0f 18 0c         ........
10004bf8: 0c 18 0c 18 00 18 00 18         ........
10004c00: 00 0c 00 06 00 03 80 01         ........
10004c08: c0 00 60 00 30 00 18 00         ..`.0...
10004c10: fc 1f fc 1f 00 00 00 00         ........
10004c18: 00 00 00 00 00 00 00 00         ........
10004c20: 00 00 e0 01 f8 07 18 0e         ........
10004c28: 0c 0c 0c 0c 00 0c 00 06         ........
10004c30: c0 03 c0 07 00 0c 00 18         ........
10004c38: 00 18 0c 18 0c 18 18 0c         ........
10004c40: f8 07 e0 03 00 00 00 00         ........
10004c48: 00 00 00 00 00 00 00 00         ........
10004c50: 00 00 00 0c 00 0e 00 0f         ........
10004c58: 00 0f 80 0d c0 0c 60 0c         ......`.
10004c60: 60 0c 30 0c 18 0c 0c 0c         `.0.....
10004c68: fc 3f fc 3f 00 0c 00 0c         .?.?....
10004c70: 00 0c 00 0c 00 00 00 00         ........
10004c78: 00 00 00 00 00 00 00 00         ........
10004c80: 00 00 f8 0f f8 0f 18 00         ........
10004c88: 18 00 0c 00 ec 03 fc 07         ........
10004c90: 1c 0e 00 1c 00 18 00 18         ........
10004c98: 00 18 0c 18 1c 0c 18 0e         ........
10004ca0: f8 07 e0 03 00 00 00 00         ........
10004ca8: 00 00 00 00 00 00 00 00         ........
10004cb0: 00 00 c0 07 f0 0f 38 1c         ......8.
10004cb8: 18 18 18 00 0c 00 cc 03         ........
10004cc0: ec 0f 3c 0e 1c 1c 0c 18         ..<.....
10004cc8: 0c 18 0c 18 18 1c 38 0e         ......8.
10004cd0: f0 07 e0 03 00 00 00 00         ........
10004cd8: 00 00 00 00 00 00 00 00         ........
10004ce0: 00 00 fc 1f fc 1f 00 0c         ........
10004ce8: 00 06 00 06 00 03 80 03         ........
10004cf0: 80 01 c0 01 c0 00 e0 00         ........
10004cf8: 60 00 60 00 70 00 30 00         `.`.p.0.
10004d00: 30 00 30 00 00 00 00 00         0.0.....
10004d08: 00 00 00 00 00 00 00 00         ........
10004d10: 00 00 e0 03 f0 07 38 0e         ......8.
10004d18: 18 0c 18 0c 18 0c 38 06         ......8.
10004d20: f0 07 f0 07 18 0c 0c 18         ........
10004d28: 0c 18 0c 18 0c 18 38 0c         ......8.
10004d30: f8 0f e0 03 00 00 00 00         ........
10004d38: 00 00 00 00 00 00 00 00         ........
10004d40: 00 00 e0 03 f0 07 38 0e         ......8.
10004d48: 1c 0c 0c 18 0c 18 0c 18         ........
10004d50: 1c 1c 38 1e f8 1b e0 19         ..8.....
10004d58: 00 18 00 0c 00 0c 1c 0e         ........
10004d60: f8 07 f0 01 00 00 00 00         ........
10004d68: 00 00 00 00 00 00 00 00         ........
10004d70: 00 00 00 00 00 00 00 00         ........
10004d78: 00 00 00 00 80 01 80 01         ........
10004d80: 00 00 00 00 00 00 00 00         ........
10004d88: 00 00 00 00 00 00 00 00         ........
10004d90: 80 01 80 01 00 00 00 00         ........
10004d98: 00 00 00 00 00 00 00 00         ........
10004da0: 00 00 00 00 00 00 00 00         ........
10004da8: 00 00 00 00 80 01 80 01         ........
10004db0: 00 00 00 00 00 00 00 00         ........
10004db8: 00 00 00 00 00 00 00 00         ........
10004dc0: 80 01 80 01 00 01 00 01         ........
10004dc8: 80 00 00 00 00 00 00 00         ........
10004dd0: 00 00 00 00 00 00 00 00         ........
10004dd8: 00 00 00 00 00 00 00 00         ........
10004de0: 00 10 00 1c 80 0f e0 03         ........
10004de8: f8 00 18 00 f8 00 e0 03         ........
10004df0: 80 0f 00 1c 00 10 00 00         ........
10004df8: 00 00 00 00 00 00 00 00         ........
10004e00: 00 00 00 00 00 00 00 00         ........
10004e08: 00 00 00 00 00 00 00 00         ........
10004e10: f8 1f 00 00 00 00 00 00         ........
10004e18: f8 1f 00 00 00 00 00 00         ........
10004e20: 00 00 00 00 00 00 00 00         ........
10004e28: 00 00 00 00 00 00 00 00         ........
10004e30: 00 00 00 00 00 00 00 00         ........
10004e38: 00 00 00 00 00 00 00 00         ........
10004e40: 08 00 38 00 f0 01 c0 07         ..8.....
10004e48: 00 1f 00 18 00 1f c0 07         ........
10004e50: f0 01 38 00 08 00 00 00         ..8.....
10004e58: 00 00 00 00 00 00 00 00         ........
10004e60: 00 00 e0 03 f8 0f 18 0c         ........
10004e68: 0c 18 0c 18 00 18 00 0c         ........
10004e70: 00 06 00 03 80 01 c0 00         ........
10004e78: c0 00 c0 00 00 00 00 00         ........
10004e80: c0 00 c0 00 00 00 00 00         ........
10004e88: 00 00 00 00 00 00 00 00         ........
10004e90: 00 00 00 00 e0 07 18 18         ........
10004e98: 04 20 c2 29 22 4a 11 44         . .)"J.D
10004ea0: 09 44 09 44 09 44 09 22         .D.D.D."
10004ea8: 11 13 e2 0c 02 40 04 20         .....@. 
10004eb0: 18 18 e0 07 00 00 00 00         ........
10004eb8: 00 00 00 00 00 00 00 00         ........
10004ec0: 00 00 80 03 80 03 c0 06         ........
10004ec8: c0 06 c0 06 60 0c 60 0c         ....`.`.
10004ed0: 30 18 30 18 30 18 f8 3f         0.0.0..?
10004ed8: f8 3f 1c 70 0c 60 0c 60         .?.p.`.`
10004ee0: 06 c0 06 c0 00 00 00 00         ........
10004ee8: 00 00 00 00 00 00 00 00         ........
10004ef0: 00 00 fc 03 fc 0f 0c 0c         ........
10004ef8: 0c 18 0c 18 0c 18 0c 0c         ........
10004f00: fc 07 fc 0f 0c 18 0c 30         .......0
10004f08: 0c 30 0c 30 0c 30 0c 18         .0.0.0..
10004f10: fc 1f fc 07 00 00 00 00         ........
10004f18: 00 00 00 00 00 00 00 00         ........
10004f20: 00 00 c0 07 f0 1f 38 38         ......88
10004f28: 1c 30 0c 70 06 60 06 00         .0.p.`..
10004f30: 06 00 06 00 06 00 06 00         ........
10004f38: 06 00 06 60 0c 70 1c 30         ...`.p.0
10004f40: f0 1f e0 07 00 00 00 00         ........
10004f48: 00 00 00 00 00 00 00 00         ........
10004f50: 00 00 fe 03 fe 0f 06 0e         ........
10004f58: 06 18 06 18 06 30 06 30         .....0.0
10004f60: 06 30 06 30 06 30 06 30         .0.0.0.0
10004f68: 06 30 06 18 06 18 06 0e         .0......
10004f70: fe 0f fe 03 00 00 00 00         ........
10004f78: 00 00 00 00 00 00 00 00         ........
10004f80: 00 00 fc 3f fc 3f 0c 00         ...?.?..
10004f88: 0c 00 0c 00 0c 00 0c 00         ........
10004f90: fc 1f fc 1f 0c 00 0c 00         ........
10004f98: 0c 00 0c 00 0c 00 0c 00         ........
10004fa0: fc 3f fc 3f 00 00 00 00         .?.?....
10004fa8: 00 00 00 00 00 00 00 00         ........
10004fb0: 00 00 f8 3f f8 3f 18 00         ...?.?..
10004fb8: 18 00 18 00 18 00 18 00         ........
10004fc0: f8 1f f8 1f 18 00 18 00         ........
10004fc8: 18 00 18 00 18 00 18 00         ........
10004fd0: 18 00 18 00 00 00 00 00         ........
10004fd8: 00 00 00 00 00 00 00 00         ........
10004fe0: 00 00 e0 0f f8 3f 3c 78         .....?<x
10004fe8: 0e 60 06 e0 07 c0 03 00         .`......
10004ff0: 03 00 03 fe 03 fe 03 c0         ........
10004ff8: 07 c0 06 c0 0e c0 3c f0         ......<.
10005000: f8 3f e0 0f 00 00 00 00         .?......
10005008: 00 00 00 00 00 00 00 00         ........
10005010: 00 00 0c 30 0c 30 0c 30         ...0.0.0
10005018: 0c 30 0c 30 0c 30 0c 30         .0.0.0.0
10005020: fc 3f fc 3f 0c 30 0c 30         .?.?.0.0
10005028: 0c 30 0c 30 0c 30 0c 30         .0.0.0.0
10005030: 0c 30 0c 30 00 00 00 00         .0.0....
10005038: 00 00 00 00 00 00 00 00         ........
10005040: 00 00 80 01 80 01 80 01         ........
10005048: 80 01 80 01 80 01 80 01         ........
10005050: 80 01 80 01 80 01 80 01         ........
10005058: 80 01 80 01 80 01 80 01         ........
10005060: 80 01 80 01 00 00 00 00         ........
10005068: 00 00 00 00 00 00 00 00         ........
10005070: 00 00 00 06 00 06 00 06         ........
10005078: 00 06 00 06 00 06 00 06         ........
10005080: 00 06 00 06 00 06 00 06         ........
10005088: 00 06 18 06 18 06 38 07         ......8.
10005090: f0 03 e0 01 00 00 00 00         ........
10005098: 00 00 00 00 00 00 00 00         ........
100050a0: 00 00 06 30 06 18 06 0c         ...0....
100050a8: 06 06 06 03 86 01 c6 00         ........
100050b0: 66 00 76 00 de 00 8e 01         f.v.....
100050b8: 06 03 06 06 06 0c 06 18         ........
100050c0: 06 30 06 60 00 00 00 00         .0.`....
100050c8: 00 00 00 00 00 00 00 00         ........
100050d0: 00 00 18 00 18 00 18 00         ........
100050d8: 18 00 18 00 18 00 18 00         ........
100050e0: 18 00 18 00 18 00 18 00         ........
100050e8: 18 00 18 00 18 00 18 00         ........
100050f0: f8 1f f8 1f 00 00 00 00         ........
100050f8: 00 00 00 00 00 00 00 00         ........
10005100: 00 00 0e e0 1e f0 1e f0         ........
10005108: 1e f0 36 d8 36 d8 36 d8         ..6.6.6.
10005110: 36 d8 66 cc 66 cc 66 cc         6.f.f.f.
10005118: c6 c6 c6 c6 c6 c6 c6 c6         ........
10005120: 86 c3 86 c3 00 00 00 00         ........
10005128: 00 00 00 00 00 00 00 00         ........
10005130: 00 00 0c 30 1c 30 3c 30         ...0.0<0
10005138: 3c 30 6c 30 6c 30 cc 30         <0l0l0.0
10005140: cc 30 8c 31 0c 33 0c 33         .0.1.3.3
10005148: 0c 36 0c 36 0c 3c 0c 3c         .6.6.<.<
10005150: 0c 38 0c 30 00 00 00 00         .8.0....
10005158: 00 00 00 00 00 00 00 00         ........
10005160: 00 00 e0 07 f8 1f 1c 38         .......8
10005168: 0e 70 06 60 03 c0 03 c0         .p.`....
10005170: 03 c0 03 c0 03 c0 03 c0         ........
10005178: 03 c0 06 60 0e 70 1c 38         ...`.p.8
10005180: f8 1f e0 07 00 00 00 00         ........
10005188: 00 00 00 00 00 00 00 00         ........
10005190: 00 00 fc 0f fc 1f 0c 38         .......8
10005198: 0c 30 0c 30 0c 30 0c 30         .0.0.0.0
100051a0: 0c 18 fc 1f fc 07 0c 00         ........
100051a8: 0c 00 0c 00 0c 00 0c 00         ........
100051b0: 0c 00 0c 00 00 00 00 00         ........
100051b8: 00 00 00 00 00 00 00 00         ........
100051c0: 00 00 e0 07 f8 1f 1c 38         .......8
100051c8: 0e 70 06 60 03 e0 03 c0         .p.`....
100051d0: 03 c0 03 c0 03 c0 03 c0         ........
100051d8: 07 e0 06 63 0e 3f 1c 3c         ...c.?.<
100051e0: f8 3f e0 f7 00 c0 00 00         .?......
100051e8: 00 00 00 00 00 00 00 00         ........
100051f0: 00 00 fe 0f fe 1f 06 38         .......8
100051f8: 06 30 06 30 06 30 06 38         .0.0.0.8
10005200: fe 1f fe 07 06 03 06 06         ........
10005208: 06 0c 06 18 06 18 06 30         .......0
10005210: 06 30 06 60 00 00 00 00         .0.`....
10005218: 00 00 00 00 00 00 00 00         ........
10005220: 00 00 e0 03 f8 0f 1c 0c         ........
10005228: 0c 18 0c 18 0c 00 1c 00         ........
10005230: f8 03 e0 0f 00 1e 00 38         .......8
10005238: 06 30 06 30 0e 30 1c 1c         .0.0.0..
10005240: f8 0f e0 07 00 00 00 00         ........
10005248: 00 00 00 00 00 00 00 00         ........
10005250: 00 00 fe 7f fe 7f 80 01         ........
10005258: 80 01 80 01 80 01 80 01         ........
10005260: 80 01 80 01 80 01 80 01         ........
10005268: 80 01 80 01 80 01 80 01         ........
10005270: 80 01 80 01 00 00 00 00         ........
10005278: 00 00 00 00 00 00 00 00         ........
10005280: 00 00 0c 30 0c 30 0c 30         ...0.0.0
10005288: 0c 30 0c 30 0c 30 0c 30         .0.0.0.0
10005290: 0c 30 0c 30 0c 30 0c 30         .0.0.0.0
10005298: 0c 30 0c 30 0c 30 18 18         .0.0.0..
100052a0: f8 1f e0 07 00 00 00 00         ........
100052a8: 00 00 00 00 00 00 00 00         ........
100052b0: 00 00 03 60 06 30 06 30         ...`.0.0
100052b8: 06 30 0c 18 0c 18 0c 18         .0......
100052c0: 18 0c 18 0c 38 0e 30 06         ....8.0.
100052c8: 30 06 70 07 60 03 60 03         0.p.`.`.
100052d0: c0 01 c0 01 00 00 00 00         ........
100052d8: 00 00 00 00 00 00 00 00         ........
100052e0: 00 00 03 60 c3 61 c3 61         ...`.a.a
100052e8: c3 61 66 33 66 33 66 33         .af3f3f3
100052f0: 66 33 66 33 66 33 6c 1b         f3f3f3l.
100052f8: 6c 1b 6c 1b 2c 1a 3c 1e         l.l.,.<.
10005300: 38 0e 38 0e 00 00 00 00         8.8.....
10005308: 00 00 00 00 00 00 00 00         ........
10005310: 00 00 0f e0 0c 70 18 30         .....p.0
10005318: 30 18 70 0c 60 0e c0 07         0.p.`...
10005320: 80 03 80 03 c0 03 e0 06         ........
10005328: 70 0c 30 1c 18 18 0c 30         p.0....0
10005330: 0e 60 07 e0 00 00 00 00         .`......
10005338: 00 00 00 00 00 00 00 00         ........
10005340: 00 00 03 c0 06 60 0c 30         .....`.0
10005348: 1c 38 38 18 30 0c 60 06         .88.0.`.
10005350: e0 07 c0 03 80 01 80 01         ........
10005358: 80 01 80 01 80 01 80 01         ........
10005360: 80 01 80 01 00 00 00 00         ........
10005368: 00 00 00 00 00 00 00 00         ........
10005370: 00 00 fc 7f fc 7f 00 60         .......`
10005378: 00 30 00 18 00 0c 00 06         .0......
10005380: 00 03 80 01 c0 00 60 00         ......`.
10005388: 30 00 18 00 0c 00 06 00         0.......
10005390: fe 7f fe 7f 00 00 00 00         ........
10005398: 00 00 00 00 00 00 00 00         ........
100053a0: 00 00 e0 03 e0 03 60 00         ......`.
100053a8: 60 00 60 00 60 00 60 00         `.`.`.`.
100053b0: 60 00 60 00 60 00 60 00         `.`.`.`.
100053b8: 60 00 60 00 60 00 60 00         `.`.`.`.
100053c0: 60 00 60 00 60 00 60 00         `.`.`.`.
100053c8: 60 00 e0 03 e0 03 00 00         `.......
100053d0: 00 00 30 00 30 00 60 00         ..0.0.`.
100053d8: 60 00 60 00 c0 00 c0 00         `.`.....
100053e0: c0 00 c0 01 80 01 80 01         ........
100053e8: 80 01 00 03 00 03 00 03         ........
100053f0: 00 06 00 06 00 00 00 00         ........
100053f8: 00 00 00 00 00 00 00 00         ........
10005400: 00 00 e0 03 e0 03 00 03         ........
10005408: 00 03 00 03 00 03 00 03         ........
10005410: 00 03 00 03 00 03 00 03         ........
10005418: 00 03 00 03 00 03 00 03         ........
10005420: 00 03 00 03 00 03 00 03         ........
10005428: 00 03 e0 03 e0 03 00 00         ........
10005430: 00 00 00 00 c0 01 c0 01         ........
10005438: 60 03 60 03 60 03 30 06         `.`.`.0.
10005440: 30 06 18 0c 18 0c 00 00         0.......
10005448: 00 00 00 00 00 00 00 00         ........
10005450: 00 00 00 00 00 00 00 00         ........
10005458: 00 00 00 00 00 00 00 00         ........
10005460: 00 00 00 00 00 00 00 00         ........
10005468: 00 00 00 00 00 00 00 00         ........
10005470: 00 00 00 00 00 00 00 00         ........
10005478: 00 00 00 00 00 00 00 00         ........
10005480: 00 00 ff ff ff ff 00 00         ........
10005488: 00 00 00 00 00 00 00 00         ........
10005490: 00 00 0c 00 0c 00 0c 00         ........
10005498: 0c 00 0c 00 0c 00 00 00         ........
100054a0: 00 00 00 00 00 00 00 00         ........
100054a8: 00 00 00 00 00 00 00 00         ........
100054b0: 00 00 00 00 00 00 00 00         ........
100054b8: 00 00 00 00 00 00 00 00         ........
100054c0: 00 00 00 00 00 00 00 00         ........
100054c8: 00 00 00 00 f0 03 f8 07         ........
100054d0: 1c 0c 0c 0c 00 0f f0 0f         ........
100054d8: f8 0c 0c 0c 0c 0c 1c 0f         ........
100054e0: f8 0f f0 18 00 00 00 00         ........
100054e8: 00 00 00 00 00 00 00 00         ........
100054f0: 00 00 18 00 18 00 18 00         ........
100054f8: 18 00 18 00 d8 03 f8 0f         ........
10005500: 38 0c 18 18 18 18 18 18         8.......
10005508: 18 18 18 18 18 18 38 0c         ......8.
10005510: f8 0f d8 03 00 00 00 00         ........
10005518: 00 00 00 00 00 00 00 00         ........
10005520: 00 00 00 00 00 00 00 00         ........
10005528: 00 00 00 00 c0 03 f0 07         ........
10005530: 30 0e 18 0c 18 00 18 00         0.......
10005538: 18 00 18 00 18 0c 30 0e         ......0.
10005540: f0 07 c0 03 00 00 00 00         ........
10005548: 00 00 00 00 00 00 00 00         ........
10005550: 00 00 00 18 00 18 00 18         ........
10005558: 00 18 00 18 c0 1b f0 1f         ........
10005560: 30 1c 18 18 18 18 18 18         0.......
10005568: 18 18 18 18 18 18 30 1c         ......0.
10005570: f0 1f c0 1b 00 00 00 00         ........
10005578: 00 00 00 00 00 00 00 00         ........
10005580: 00 00 00 00 00 00 00 00         ........
10005588: 00 00 00 00 c0 03 f0 0f         ........
10005590: 30 0c 18 18 f8 1f f8 1f         0.......
10005598: 18 00 18 00 38 18 30 1c         ....8.0.
100055a0: f0 0f c0 07 00 00 00 00         ........
100055a8: 00 00 00 00 00 00 00 00         ........
100055b0: 00 00 80 0f c0 0f c0 00         ........
100055b8: c0 00 c0 00 f0 07 f0 07         ........
100055c0: c0 00 c0 00 c0 00 c0 00         ........
100055c8: c0 00 c0 00 c0 00 c0 00         ........
100055d0: c0 00 c0 00 00 00 00 00         ........
100055d8: 00 00 00 00 00 00 00 00         ........
100055e0: 00 00 00 00 00 00 00 00         ........
100055e8: 00 00 00 00 e0 0d f8 0f         ........
100055f0: 18 0e 0c 0c 0c 0c 0c 0c         ........
100055f8: 0c 0c 0c 0c 0c 0c 18 0e         ........
10005600: f8 0f e0 0d 00 0c 0c 0c         ........
10005608: 1c 06 f8 07 f0 01 00 00         ........
10005610: 00 00 18 00 18 00 18 00         ........
10005618: 18 00 18 00 d8 07 f8 0f         ........
10005620: 38 1c 18 18 18 18 18 18         8.......
10005628: 18 18 18 18 18 18 18 18         ........
10005630: 18 18 18 18 00 00 00 00         ........
10005638: 00 00 00 00 00 00 00 00         ........
10005640: 00 00 c0 00 c0 00 00 00         ........
10005648: 00 00 00 00 c0 00 c0 00         ........
10005650: c0 00 c0 00 c0 00 c0 00         ........
10005658: c0 00 c0 00 c0 00 c0 00         ........
10005660: c0 00 c0 00 00 00 00 00         ........
10005668: 00 00 00 00 00 00 00 00         ........
10005670: 00 00 c0 00 c0 00 00 00         ........
10005678: 00 00 00 00 c0 00 c0 00         ........
10005680: c0 00 c0 00 c0 00 c0 00         ........
10005688: c0 00 c0 00 c0 00 c0 00         ........
10005690: c0 00 c0 00 c0 00 c0 00         ........
10005698: c0 00 f8 00 78 00 00 00         ....x...
100056a0: 00 00 0c 00 0c 00 0c 00         ........
100056a8: 0c 00 0c 00 0c 0c 0c 06         ........
100056b0: 0c 03 8c 01 cc 00 6c 00         ......l.
100056b8: fc 00 9c 01 8c 03 0c 03         ........
100056c0: 0c 06 0c 0c 00 00 00 00         ........
100056c8: 00 00 00 00 00 00 00 00         ........
100056d0: 00 00 c0 00 c0 00 c0 00         ........
100056d8: c0 00 c0 00 c0 00 c0 00         ........
100056e0: c0 00 c0 00 c0 00 c0 00         ........
100056e8: c0 00 c0 00 c0 00 c0 00         ........
100056f0: c0 00 c0 00 00 00 00 00         ........
100056f8: 00 00 00 00 00 00 00 00         ........
10005700: 00 00 00 00 00 00 00 00         ........
10005708: 00 00 00 00 7c 3c ff 7e         ....|<.~
10005710: c7 e3 83 c1 83 c1 83 c1         ........
10005718: 83 c1 83 c1 83 c1 83 c1         ........
10005720: 83 c1 83 c1 00 00 00 00         ........
10005728: 00 00 00 00 00 00 00 00         ........
10005730: 00 00 00 00 00 00 00 00         ........
10005738: 00 00 00 00 98 07 f8 0f         ........
10005740: 38 1c 18 18 18 18 18 18         8.......
10005748: 18 18 18 18 18 18 18 18         ........
10005750: 18 18 18 18 00 00 00 00         ........
10005758: 00 00 00 00 00 00 00 00         ........
10005760: 00 00 00 00 00 00 00 00         ........
10005768: 00 00 00 00 c0 03 f0 0f         ........
10005770: 30 0c 18 18 18 18 18 18         0.......
10005778: 18 18 18 18 18 18 30 0c         ......0.
10005780: f0 0f c0 03 00 00 00 00         ........
10005788: 00 00 00 00 00 00 00 00         ........
10005790: 00 00 00 00 00 00 00 00         ........
10005798: 00 00 00 00 d8 03 f8 0f         ........
100057a0: 38 0c 18 18 18 18 18 18         8.......
100057a8: 18 18 18 18 18 18 38 0c         ......8.
100057b0: f8 0f d8 03 18 00 18 00         ........
100057b8: 18 00 18 00 18 00 00 00         ........
100057c0: 00 00 00 00 00 00 00 00         ........
100057c8: 00 00 00 00 c0 1b f0 1f         ........
100057d0: 30 1c 18 18 18 18 18 18         0.......
100057d8: 18 18 18 18 18 18 30 1c         ......0.
100057e0: f0 1f c0 1b 00 18 00 18         ........
100057e8: 00 18 00 18 00 18 00 00         ........
100057f0: 00 00 00 00 00 00 00 00         ........
100057f8: 00 00 00 00 b0 07 f0 03         ........
10005800: 70 00 30 00 30 00 30 00         p.0.0.0.
10005808: 30 00 30 00 30 00 30 00         0.0.0.0.
10005810: 30 00 30 00 00 00 00 00         0.0.....
10005818: 00 00 00 00 00 00 00 00         ........
10005820: 00 00 00 00 00 00 00 00         ........
10005828: 00 00 00 00 e0 03 f0 03         ........
10005830: 38 0e 18 0c 38 00 f0 03         8...8...
10005838: c0 07 00 0c 18 0c 38 0e         ......8.
10005840: f0 07 e0 03 00 00 00 00         ........
10005848: 00 00 00 00 00 00 00 00         ........
10005850: 00 00 00 00 80 00 c0 00         ........
10005858: c0 00 c0 00 f0 07 f0 07         ........
10005860: c0 00 c0 00 c0 00 c0 00         ........
10005868: c0 00 c0 00 c0 00 c0 00         ........
10005870: c0 07 80 07 00 00 00 00         ........
10005878: 00 00 00 00 00 00 00 00         ........
10005880: 00 00 00 00 00 00 00 00         ........
10005888: 00 00 00 00 18 18 18 18         ........
10005890: 18 18 18 18 18 18 18 18         ........
10005898: 18 18 18 18 18 18 38 1c         ......8.
100058a0: f0 1f e0 19 00 00 00 00         ........
100058a8: 00 00 00 00 00 00 00 00         ........
100058b0: 00 00 00 00 00 00 00 00         ........
100058b8: 00 00 00 00 0c 18 18 0c         ........
100058c0: 18 0c 18 0c 30 06 30 06         ....0.0.
100058c8: 30 06 60 03 60 03 60 03         0.`.`.`.
100058d0: c0 01 c0 01 00 00 00 00         ........
100058d8: 00 00 00 00 00 00 00 00         ........
100058e0: 00 00 00 00 00 00 00 00         ........
100058e8: 00 00 00 00 c1 41 c1 41         .....A.A
100058f0: c3 61 63 63 63 63 63 63         .acccccc
100058f8: 36 36 36 36 36 36 1c 1c         666666..
10005900: 1c 1c 1c 1c 00 00 00 00         ........
10005908: 00 00 00 00 00 00 00 00         ........
10005910: 00 00 00 00 00 00 00 00         ........
10005918: 00 00 00 00 1c 38 38 1c         .....88.
10005920: 30 0c 60 06 c0 03 c0 03         0.`.....
10005928: c0 03 c0 03 60 06 30 0c         ....`.0.
10005930: 38 1c 1c 38 00 00 00 00         8..8....
10005938: 00 00 00 00 00 00 00 00         ........
10005940: 00 00 00 00 00 00 00 00         ........
10005948: 00 00 00 00 18 30 30 18         .....00.
10005950: 30 18 70 18 60 0c 60 0c         0.p.`.`.
10005958: e0 0c c0 06 c0 06 80 03         ........
10005960: 80 03 80 03 80 01 80 01         ........
10005968: c0 01 f0 00 70 00 00 00         ....p...
10005970: 00 00 00 00 00 00 00 00         ........
10005978: 00 00 00 00 fc 1f fc 1f         ........
10005980: 00 0c 00 06 00 03 80 01         ........
10005988: c0 00 60 00 30 00 18 00         ..`.0...
10005990: fc 1f fc 1f 00 00 00 00         ........
10005998: 00 00 00 00 00 00 00 00         ........
100059a0: 00 00 00 03 80 01 c0 00         ........
100059a8: c0 00 c0 00 c0 00 c0 00         ........
100059b0: c0 00 60 00 60 00 30 00         ..`.`.0.
100059b8: 60 00 40 00 c0 00 c0 00         `.@.....
100059c0: c0 00 c0 00 c0 00 c0 00         ........
100059c8: 80 01 00 03 00 00 00 00         ........
100059d0: 00 00 80 01 80 01 80 01         ........
100059d8: 80 01 80 01 80 01 80 01         ........
100059e0: 80 01 80 01 80 01 80 01         ........
100059e8: 80 01 80 01 80 01 80 01         ........
100059f0: 80 01 80 01 80 01 80 01         ........
100059f8: 80 01 80 01 80 01 00 00         ........
10005a00: 00 00 60 00 c0 00 c0 01         ..`.....
10005a08: 80 01 80 01 80 01 80 01         ........
10005a10: 80 01 00 03 00 03 00 06         ........
10005a18: 00 03 00 01 80 01 80 01         ........
10005a20: 80 01 80 01 80 01 80 01         ........
10005a28: c0 00 60 00 00 00 00 00         ..`.....
10005a30: 00 00 00 00 00 00 00 00         ........
10005a38: 00 00 00 00 00 00 00 00         ........
10005a40: f0 10 f8 1f 08 0f 00 00         ........
10005a48: 00 00 00 00 00 00 00 00         ........
10005a50: 00 00 00 00 00 00 00 00         ........
10005a58: 00 00 00 00 00 00 00 00         ........
10005a60: 00 00 00 00 00 00 00 00         ........
10005a68: 00 00 00 00 00 00 00 00         ........
10005a70: 00 00 00 00 00 00 00 00         ........
10005a78: 00 00 00 00 00 00 00 00         ........
10005a80: 00 00 00 00 00 00 00 00         ........
10005a88: 00 00 00 00 00 00 00 00         ........
10005a90: 00 00 00 00 00 00 00 00         ........
10005a98: 00 00 c0 03 30 0c 08 10         ....0...
10005aa0: 04 20 04 20 02 40 02 40         . . .@.@
10005aa8: 02 40 02 40 02 40 04 20         .@.@.@. 
10005ab0: 04 20 08 10 30 0c c0 03         . ..0...
10005ab8: 00 00 00 00 00 00 00 00         ........
10005ac0: 00 00 00 00 00 00 00 00         ........
10005ac8: 00 00 c0 03 f0 0f f8 1f         ........
10005ad0: fc 3f fc 3f fe 7f fe 7f         .?.?....
10005ad8: fe 7f fe 7f fe 7f fc 3f         .......?
10005ae0: fc 3f f8 1f f0 0f c0 03         .?......
10005ae8: 00 00 00 00 00 00 00 00         ........
10005af0: 00 00 00 00 00 00 00 00         ........
10005af8: 00 00 00 00 00 00 e0 07         ........
10005b00: f0 0f 18 18 18 18 18 18         ........
10005b08: 18 18 18 18 18 18 f0 0f         ........
10005b10: e0 07 00 00 00 00 00 00         ........
10005b18: 00 00 00 00 00 00 00 00         ........
10005b20: 00 00 00 00 00 00 00 00         ........
10005b28: 00 00 00 00 00 00 e0 07         ........
10005b30: f0 0f f8 1f f8 1f f8 1f         ........
10005b38: f8 1f f8 1f f8 1f f0 0f         ........
10005b40: e0 07 00 00 00 00 00 00         ........
10005b48: 00 00 00 00 00 00 00 00         ........
10005b50: 00 00 00 00 00 00 00 00         ........
10005b58: 00 00 00 00 00 00 00 00         ........
10005b60: 00 00 00 00 00 00 00 00         ........
10005b68: 80 01 c0 03 60 06 30 0c         ....`.0.
10005b70: 18 18 18 18 f8 1f f8 1f         ........
10005b78: 00 00 00 00 00 00 00 00         ........
10005b80: 00 00 00 00 00 00 00 00         ........
10005b88: 00 00 00 00 00 00 00 00         ........
10005b90: 00 00 00 00 00 00 00 00         ........
10005b98: 80 01 c0 03 e0 07 f0 0f         ........
10005ba0: f8 1f f8 1f f8 1f f8 1f         ........
10005ba8: 00 00 00 00 00 00 00 00         ........
10005bb0: 00 00 00 00 00 00 00 00         ........
10005bb8: f8 1f f8 1f 18 18 18 18         ........
10005bc0: 30 0c 60 06 c0 03 80 01         0.`.....
10005bc8: 00 00 00 00 00 00 00 00         ........
10005bd0: 00 00 00 00 00 00 00 00         ........
10005bd8: 00 00 00 00 00 00 00 00         ........
10005be0: 00 00 00 00 00 00 00 00         ........
10005be8: f8 1f f8 1f f8 1f f8 1f         ........
10005bf0: f0 0f e0 07 c0 03 80 01         ........
10005bf8: 00 00 00 00 00 00 00 00         ........
10005c00: 00 00 00 00 00 00 00 00         ........
10005c08: 00 00 00 00 00 00 00 00         ........
10005c10: 00 00 00 00 00 00 00 00         ........
10005c18: 00 00 00 00 00 00 e0 01         ........
10005c20: f0 01 98 01 8c 01 86 01         ........
10005c28: 86 01 8c 01 98 01 f0 01         ........
10005c30: e0 01 00 00 00 00 00 00         ........
10005c38: 00 00 00 00 00 00 00 00         ........
10005c40: 00 00 00 00 00 00 00 00         ........
10005c48: 00 00 00 00 00 00 e0 01         ........
10005c50: f0 01 f8 01 fc 01 fe 01         ........
10005c58: fe 01 fc 01 f8 01 f0 01         ........
10005c60: e0 01 00 00 00 00 00 00         ........
10005c68: 00 00 00 00 00 00 00 00         ........
10005c70: 00 00 00 00 00 00 00 00         ........
10005c78: 00 00 00 00 00 00 80 07         ........
10005c80: 80 0f 80 19 80 31 80 61         .....1.a
10005c88: 80 61 80 31 80 19 80 0f         .a.1....
10005c90: 80 07 00 00 00 00 00 00         ........
10005c98: 00 00 00 00 00 00 00 00         ........
10005ca0: 00 00 00 00 00 00 00 00         ........
10005ca8: 00 00 00 00 00 00 80 07         ........
10005cb0: 80 0f 80 1f 80 3f 80 7f         .....?..
10005cb8: 80 7f 80 3f 80 1f 80 0f         ...?....
10005cc0: 80 07 00 00 00 00 00 00         ........
10005cc8: 00 00 00 00 00 00 00 00         ........
10005cd0: 00 00 c0 01 20 02 20 02         .... . .
10005cd8: 40 01 30 06 08 08 08 08         @.0.....
10005ce0: 08 08 08 08 08 08 08 08         ........
10005ce8: 08 08 20 02 20 02 20 02         .. . . .
10005cf0: 20 02 20 02 20 02 20 02          . . . .
10005cf8: 20 02 20 02 20 02 00 00          . . ...
10005d00: 00 00 c0 01 e0 03 e0 03         ........
10005d08: c0 01 f0 07 d8 0d d8 0d         ........
10005d10: d8 0d d8 0d d8 0d d8 0d         ........
10005d18: d8 0d 60 03 60 03 60 03         ..`.`.`.
10005d20: 60 03 60 03 60 03 60 03         `.`.`.`.
10005d28: 60 03 60 03 60 03 00 00         `.`.`...
10005d30: 00 00 c0 01 20 02 20 02         .... . .
10005d38: 40 01 30 06 08 08 08 08         @.0.....
10005d40: 08 08 04 10 02 20 02 20         ..... . 
10005d48: 40 01 20 02 20 02 10 04         @. . ...
10005d50: 08 08 08 08 04 10 04 10         ........
10005d58: 04 20 04 40 00 00 00 00         . .@....
10005d60: 00 00 c0 01 e0 03 e0 03         ........
10005d68: c0 01 f0 07 d8 0d d8 0d         ........
10005d70: d8 0d cc 19 c6 31 c2 61         .....1.a
10005d78: c0 01 60 03 60 03 70 06         ..`.`.p.
10005d80: 38 0c 18 0c 0c 18 0c 18         8.......
10005d88: 0c 30 0c 60 00 00 00 00         .0.`....

10005d90 <GLCD_Font_16x24>:
10005d90: 10 00 18 00 20 00 00 00         .... ...
10005d98: 70 00 00 00 90 48 00 10         p....H..

10005da0 <__stderr_name>:
10005da0: 3a 53 54 44 45 52 52 00         :STDERR.

10005da8 <__stdin_name>:
10005da8: 3a 53 54 44 49 4e 00            :STDIN.

10005daf <__stdout_name>:
10005daf: 3a 53 54 44 4f 55 54 00         :STDOUT.

10005db7 <.L.str>:
10005db7: 25 73 0d 0a 00                  %s...

10005dbc <.L.str.1>:
10005dbc: 20 20 20 56 32 4d 2d 4d            V2M-M
10005dc4: 50 53 32 20 44 65 6d 6f         PS2 Demo
10005dcc: 20 20 20 20 00                      .

10005dd1 <.L.str.9>:
10005dd1: 54 6f 75 63 68 3a 00            Touch:.

10005dd8 <Region$$Table$$Base>:
10005dd8: f8 5d 00 10  	.word	0x10005df8
10005ddc: 00 00 00 38  	.word	0x38000000
10005de0: 14 00 00 00  	.word	0x00000014
10005de4: 3c 04 00 10  	.word	0x1000043c
10005de8: 0c 5e 00 10  	.word	0x10005e0c
10005dec: 14 00 00 38  	.word	0x38000014
10005df0: a0 01 00 00  	.word	0x000001a0
10005df4: 58 04 00 10  	.word	0x10000458
