	.text
	.syntax unified
	.eabi_attribute	67, "2.09"	@ Tag_conformance
	.cpu	cortex-m23
	.eabi_attribute	6, 16	@ Tag_CPU_arch
	.eabi_attribute	7, 77	@ Tag_CPU_arch_profile
	.eabi_attribute	8, 0	@ Tag_ARM_ISA_use
	.eabi_attribute	9, 3	@ Tag_THUMB_ISA_use
	.eabi_attribute	34, 0	@ Tag_CPU_unaligned_access
	.eabi_attribute	17, 1	@ Tag_ABI_PCS_GOT_use
	.eabi_attribute	20, 2	@ Tag_ABI_FP_denormal
	.eabi_attribute	21, 0	@ Tag_ABI_FP_exceptions
	.eabi_attribute	23, 1	@ Tag_ABI_FP_number_model
	.eabi_attribute	24, 1	@ Tag_ABI_align_needed
	.eabi_attribute	25, 1	@ Tag_ABI_align_preserved
	.eabi_attribute	38, 1	@ Tag_ABI_FP_16bit_format
	.eabi_attribute	18, 2	@ Tag_ABI_PCS_wchar_t
	.eabi_attribute	26, 1	@ Tag_ABI_enum_size
	.eabi_attribute	14, 0	@ Tag_ABI_PCS_R9_use
	.file	"GLCD_V2M-MPS2.c"
	.file	1 "C:\\" "Keil_v5\\ARM\\ARMCLANG\\Bin\\..\\include\\stdint.h"
	.file	2 "C:/Users/dakum/AppData/Local/Arm/Packs/Keil/V2M-MPS2_IOTKit_BSP/1.5.1/Boards/ARM/V2M-MPS2/Common" "GLCD_V2M-MPS2.c"
	.file	3 "C:/Users/dakum/AppData/Local/Arm/Packs/Keil/MDK-Middleware/7.15.0/Board" "Board_GLCD.h"
	.file	4 "C:/Users/dakum/AppData/Local/Arm/Packs/Keil/V2M-MPS2_IOTKit_BSP/1.5.1/Boards/ARM/V2M-MPS2/Common" "SMM_MPS2.h"
	.section	.text.GLCD_Initialize,"ax",%progbits
	.hidden	GLCD_Initialize                 @ -- Begin function GLCD_Initialize
	.globl	GLCD_Initialize
	.p2align	2
	.type	GLCD_Initialize,%function
	.code	16                              @ @GLCD_Initialize
	.thumb_func
GLCD_Initialize:
.Lfunc_begin0:
	.loc	2 255 0                         @ C:/Users/dakum/AppData/Local/Arm/Packs/Keil/V2M-MPS2_IOTKit_BSP/1.5.1/Boards/ARM/V2M-MPS2/Common/GLCD_V2M-MPS2.c:255:0
	.fnstart
	.cfi_sections .debug_frame
	.cfi_startproc
@ %bb.0:
	.save	{r4, r5, r6, r7, lr}
	push	{r4, r5, r6, r7, lr}
	.cfi_def_cfa_offset 20
	.cfi_offset lr, -4
	.cfi_offset r7, -8
	.cfi_offset r6, -12
	.cfi_offset r5, -16
	.cfi_offset r4, -20
	.pad	#68
	sub	sp, #68
	.cfi_def_cfa_offset 88
	ldr	r0, __arm_cp.0_3
.Ltmp0:
	.loc	2 258 24 prologue_end           @ C:/Users/dakum/AppData/Local/Arm/Packs/Keil/V2M-MPS2_IOTKit_BSP/1.5.1/Boards/ARM/V2M-MPS2/Common/GLCD_V2M-MPS2.c:258:24
	subs	r1, r0, #4
	movs	r2, #0
	str	r2, [r1]
	.loc	2 259 24                        @ C:/Users/dakum/AppData/Local/Arm/Packs/Keil/V2M-MPS2_IOTKit_BSP/1.5.1/Boards/ARM/V2M-MPS2/Common/GLCD_V2M-MPS2.c:259:24
	str	r2, [r0, #28]
	.loc	2 260 24                        @ C:/Users/dakum/AppData/Local/Arm/Packs/Keil/V2M-MPS2_IOTKit_BSP/1.5.1/Boards/ARM/V2M-MPS2/Common/GLCD_V2M-MPS2.c:260:24
	str	r2, [r0, #12]
	movs	r3, #3
	.loc	2 261 24                        @ C:/Users/dakum/AppData/Local/Arm/Packs/Keil/V2M-MPS2_IOTKit_BSP/1.5.1/Boards/ARM/V2M-MPS2/Common/GLCD_V2M-MPS2.c:261:24
	str	r3, [r0, #24]
	.loc	2 263 24                        @ C:/Users/dakum/AppData/Local/Arm/Packs/Keil/V2M-MPS2_IOTKit_BSP/1.5.1/Boards/ARM/V2M-MPS2/Common/GLCD_V2M-MPS2.c:263:24
	mov	r3, r0
	subs	r3, #8
	movw	r4, #263
	str	r4, [r3]
	movs	r3, #2
	.loc	2 268 24                        @ C:/Users/dakum/AppData/Local/Arm/Packs/Keil/V2M-MPS2_IOTKit_BSP/1.5.1/Boards/ARM/V2M-MPS2/Common/GLCD_V2M-MPS2.c:268:24
	str	r3, [r0, #8]
	str	r3, [sp, #52]                   @ 4-byte Spill
	.loc	2 269 24                        @ C:/Users/dakum/AppData/Local/Arm/Packs/Keil/V2M-MPS2_IOTKit_BSP/1.5.1/Boards/ARM/V2M-MPS2/Common/GLCD_V2M-MPS2.c:269:24
	str	r3, [r1]
	ldr	r1, __arm_cp.0_4
	.loc	2 273 26                        @ C:/Users/dakum/AppData/Local/Arm/Packs/Keil/V2M-MPS2_IOTKit_BSP/1.5.1/Boards/ARM/V2M-MPS2/Common/GLCD_V2M-MPS2.c:273:26
	ldr	r3, [r1]
	movs	r7, #9
	orrs	r3, r7
	str	r3, [r1]
	.loc	2 275 26                        @ C:/Users/dakum/AppData/Local/Arm/Packs/Keil/V2M-MPS2_IOTKit_BSP/1.5.1/Boards/ARM/V2M-MPS2/Common/GLCD_V2M-MPS2.c:275:26
	ldr	r3, [r1]
	movs	r4, #112
	bics	r3, r4
	str	r3, [r1]
	.loc	2 280 26                        @ C:/Users/dakum/AppData/Local/Arm/Packs/Keil/V2M-MPS2_IOTKit_BSP/1.5.1/Boards/ARM/V2M-MPS2/Common/GLCD_V2M-MPS2.c:280:26
	ldr	r5, [r1]
	movs	r3, #8
	bics	r5, r3
	str	r5, [r1]
.Ltmp1:
	@DEBUG_VALUE: delay_ms:ms <- 1
	.loc	2 115 12                        @ C:/Users/dakum/AppData/Local/Arm/Packs/Keil/V2M-MPS2_IOTKit_BSP/1.5.1/Boards/ARM/V2M-MPS2/Common/GLCD_V2M-MPS2.c:115:12
	ldr	r5, .LCPI0_5
	ldr	r5, [r5]
.Ltmp2:
	@DEBUG_VALUE: delay_ms:ms <- [DW_OP_constu 1, DW_OP_minus, DW_OP_stack_value] undef
	.loc	2 116 5                         @ C:/Users/dakum/AppData/Local/Arm/Packs/Keil/V2M-MPS2_IOTKit_BSP/1.5.1/Boards/ARM/V2M-MPS2/Common/GLCD_V2M-MPS2.c:116:5
	lsrs	r6, r5, #3
	cmp	r6, #125
	blo	.LBB0_6
	b	.LBB0_4
.Ltmp3:
	.p2align	2
@ %bb.1:
	.loc	2 0 5 is_stmt 0                 @ C:/Users/dakum/AppData/Local/Arm/Packs/Keil/V2M-MPS2_IOTKit_BSP/1.5.1/Boards/ARM/V2M-MPS2/Common/GLCD_V2M-MPS2.c:0:5
__arm_cp.0_3:
	.long	1075863560                      @ 0x40206008
.Lcpi_end0:
	.size	__arm_cp.0_3, .Lcpi_end0-__arm_cp.0_3
	.p2align	2
@ %bb.2:
__arm_cp.0_4:
	.long	1076895820                      @ 0x4030204c
.Lcpi_end1:
	.size	__arm_cp.0_4, .Lcpi_end1-__arm_cp.0_4
	.p2align	2
@ %bb.3:
.LCPI0_5:
	.long	SystemCoreClock
	.p2align	1
.LBB0_4:
	.loc	2 115 27 is_stmt 1              @ C:/Users/dakum/AppData/Local/Arm/Packs/Keil/V2M-MPS2_IOTKit_BSP/1.5.1/Boards/ARM/V2M-MPS2/Common/GLCD_V2M-MPS2.c:115:27
	movw	r6, #1000
	udiv	r5, r5, r6
.Ltmp4:
	@DEBUG_VALUE: delay_ms:ms <- [DW_OP_constu 1, DW_OP_minus, DW_OP_stack_value] $r5
.LBB0_5:                                @ =>This Inner Loop Header: Depth=1
	@DEBUG_VALUE: delay_ms:ms <- [DW_OP_constu 1, DW_OP_minus, DW_OP_stack_value] $r5
	@DEBUG_VALUE: delay_ms:ms <- $r5
	.loc	2 116 20                        @ C:/Users/dakum/AppData/Local/Arm/Packs/Keil/V2M-MPS2_IOTKit_BSP/1.5.1/Boards/ARM/V2M-MPS2/Common/GLCD_V2M-MPS2.c:116:20
	nop
.Ltmp5:
	.loc	2 116 14 is_stmt 0              @ C:/Users/dakum/AppData/Local/Arm/Packs/Keil/V2M-MPS2_IOTKit_BSP/1.5.1/Boards/ARM/V2M-MPS2/Common/GLCD_V2M-MPS2.c:116:14
	subs	r5, r5, #1
.Ltmp6:
	@DEBUG_VALUE: delay_ms:ms <- [DW_OP_constu 1, DW_OP_minus, DW_OP_stack_value] $r5
	.loc	2 116 5                         @ C:/Users/dakum/AppData/Local/Arm/Packs/Keil/V2M-MPS2_IOTKit_BSP/1.5.1/Boards/ARM/V2M-MPS2/Common/GLCD_V2M-MPS2.c:116:5
	bne	.LBB0_5
.Ltmp7:
.LBB0_6:
	.loc	2 282 26 is_stmt 1              @ C:/Users/dakum/AppData/Local/Arm/Packs/Keil/V2M-MPS2_IOTKit_BSP/1.5.1/Boards/ARM/V2M-MPS2/Common/GLCD_V2M-MPS2.c:282:26
	ldr	r5, [r1]
	orrs	r5, r3
	str	r5, [r1]
	mvns	r5, r7
.Ltmp8:
	.loc	2 115 12                        @ C:/Users/dakum/AppData/Local/Arm/Packs/Keil/V2M-MPS2_IOTKit_BSP/1.5.1/Boards/ARM/V2M-MPS2/Common/GLCD_V2M-MPS2.c:115:12
	ldr	r3, .LCPI0_6
.Ltmp9:
	@DEBUG_VALUE: delay_ms:ms <- 5
	ldr	r3, [r3]
.Ltmp10:
	@DEBUG_VALUE: delay_ms:ms <- [DW_OP_constu 5, DW_OP_mul, DW_OP_constu 1, DW_OP_minus, DW_OP_stack_value] undef
	.loc	2 116 5                         @ C:/Users/dakum/AppData/Local/Arm/Packs/Keil/V2M-MPS2_IOTKit_BSP/1.5.1/Boards/ARM/V2M-MPS2/Common/GLCD_V2M-MPS2.c:116:5
	movw	r6, #1000
	cmp	r3, r6
	blo	.LBB0_10
	b	.LBB0_8
.Ltmp11:
	.p2align	2
@ %bb.7:
	.loc	2 0 5 is_stmt 0                 @ C:/Users/dakum/AppData/Local/Arm/Packs/Keil/V2M-MPS2_IOTKit_BSP/1.5.1/Boards/ARM/V2M-MPS2/Common/GLCD_V2M-MPS2.c:0:5
.LCPI0_6:
	.long	SystemCoreClock
	.p2align	1
.LBB0_8:
	movw	r6, #1000
	.loc	2 115 27 is_stmt 1              @ C:/Users/dakum/AppData/Local/Arm/Packs/Keil/V2M-MPS2_IOTKit_BSP/1.5.1/Boards/ARM/V2M-MPS2/Common/GLCD_V2M-MPS2.c:115:27
	udiv	r6, r3, r6
.Ltmp12:
	@DEBUG_VALUE: delay_ms:ms <- [DW_OP_constu 5, DW_OP_mul, DW_OP_constu 1, DW_OP_minus, DW_OP_stack_value] $r6
	.loc	2 116 5                         @ C:/Users/dakum/AppData/Local/Arm/Packs/Keil/V2M-MPS2_IOTKit_BSP/1.5.1/Boards/ARM/V2M-MPS2/Common/GLCD_V2M-MPS2.c:116:5
	adds	r3, r5, #5
	muls	r3, r6, r3
.Ltmp13:
.LBB0_9:                                @ =>This Inner Loop Header: Depth=1
	@DEBUG_VALUE: delay_ms:ms <- [DW_OP_LLVM_arg 0, DW_OP_consts 18446744073709551611, DW_OP_LLVM_arg 0, DW_OP_consts 1000, DW_OP_div, DW_OP_mul, DW_OP_minus, DW_OP_consts 18446744073709551615, DW_OP_mul, DW_OP_consts 18446744073709551615, DW_OP_consts 5, DW_OP_LLVM_arg 0, DW_OP_consts 1000, DW_OP_div, DW_OP_mul, DW_OP_plus, DW_OP_plus, DW_OP_stack_value] undef
	.loc	2 116 20 is_stmt 0              @ C:/Users/dakum/AppData/Local/Arm/Packs/Keil/V2M-MPS2_IOTKit_BSP/1.5.1/Boards/ARM/V2M-MPS2/Common/GLCD_V2M-MPS2.c:116:20
	nop
.Ltmp14:
	@DEBUG_VALUE: delay_ms:ms <- [DW_OP_LLVM_arg 0, DW_OP_consts 18446744073709551611, DW_OP_LLVM_arg 0, DW_OP_consts 1000, DW_OP_div, DW_OP_mul, DW_OP_minus, DW_OP_consts 18446744073709551615, DW_OP_mul, DW_OP_consts 18446744073709551615, DW_OP_consts 5, DW_OP_LLVM_arg 0, DW_OP_consts 1000, DW_OP_div, DW_OP_mul, DW_OP_plus, DW_OP_plus, DW_OP_constu 1, DW_OP_minus, DW_OP_stack_value] undef
	.loc	2 116 5                         @ C:/Users/dakum/AppData/Local/Arm/Packs/Keil/V2M-MPS2_IOTKit_BSP/1.5.1/Boards/ARM/V2M-MPS2/Common/GLCD_V2M-MPS2.c:116:5
	adds	r3, r3, #1
	blo	.LBB0_9
.Ltmp15:
.LBB0_10:
	@DEBUG_VALUE: wr_reg:reg <- -22
	@DEBUG_VALUE: wr_reg:val <- 0
	@DEBUG_VALUE: wr_cmd:cmd <- -22
	.loc	2 138 3 is_stmt 1               @ C:/Users/dakum/AppData/Local/Arm/Packs/Keil/V2M-MPS2_IOTKit_BSP/1.5.1/Boards/ARM/V2M-MPS2/Common/GLCD_V2M-MPS2.c:138:3
	ldr	r6, [r1]
	movs	r3, #1
	bics	r6, r3
	str	r6, [r1]
.Ltmp16:
	@DEBUG_VALUE: spi_tran:byte <- 112
	.loc	2 127 21                        @ C:/Users/dakum/AppData/Local/Arm/Packs/Keil/V2M-MPS2_IOTKit_BSP/1.5.1/Boards/ARM/V2M-MPS2/Common/GLCD_V2M-MPS2.c:127:21
	str	r4, [r0]
.Ltmp17:
.LBB0_11:                               @ =>This Inner Loop Header: Depth=1
	@DEBUG_VALUE: spi_tran:byte <- 112
	@DEBUG_VALUE: wr_cmd:cmd <- -22
	@DEBUG_VALUE: wr_reg:val <- 0
	@DEBUG_VALUE: wr_reg:reg <- -22
	.loc	2 128 27                        @ C:/Users/dakum/AppData/Local/Arm/Packs/Keil/V2M-MPS2_IOTKit_BSP/1.5.1/Boards/ARM/V2M-MPS2/Common/GLCD_V2M-MPS2.c:128:27
	ldr	r6, [r0, #4]
	.loc	2 128 3 is_stmt 0               @ C:/Users/dakum/AppData/Local/Arm/Packs/Keil/V2M-MPS2_IOTKit_BSP/1.5.1/Boards/ARM/V2M-MPS2/Common/GLCD_V2M-MPS2.c:128:3
	lsls	r6, r6, #29
	bpl	.LBB0_11
.Ltmp18:
@ %bb.12:
	@DEBUG_VALUE: spi_tran:byte <- 112
	@DEBUG_VALUE: wr_cmd:cmd <- -22
	@DEBUG_VALUE: wr_reg:val <- 0
	@DEBUG_VALUE: wr_reg:reg <- -22
	.loc	2 129 35 is_stmt 1              @ C:/Users/dakum/AppData/Local/Arm/Packs/Keil/V2M-MPS2_IOTKit_BSP/1.5.1/Boards/ARM/V2M-MPS2/Common/GLCD_V2M-MPS2.c:129:35
	ldr	r6, [r0]
.Ltmp19:
	@DEBUG_VALUE: spi_tran:byte <- 0
	.loc	2 127 21                        @ C:/Users/dakum/AppData/Local/Arm/Packs/Keil/V2M-MPS2_IOTKit_BSP/1.5.1/Boards/ARM/V2M-MPS2/Common/GLCD_V2M-MPS2.c:127:21
	str	r2, [r0]
.Ltmp20:
.LBB0_13:                               @ =>This Inner Loop Header: Depth=1
	@DEBUG_VALUE: spi_tran:byte <- 0
	@DEBUG_VALUE: wr_cmd:cmd <- -22
	@DEBUG_VALUE: wr_reg:val <- 0
	@DEBUG_VALUE: wr_reg:reg <- -22
	.loc	2 128 27                        @ C:/Users/dakum/AppData/Local/Arm/Packs/Keil/V2M-MPS2_IOTKit_BSP/1.5.1/Boards/ARM/V2M-MPS2/Common/GLCD_V2M-MPS2.c:128:27
	ldr	r6, [r0, #4]
	.loc	2 128 3 is_stmt 0               @ C:/Users/dakum/AppData/Local/Arm/Packs/Keil/V2M-MPS2_IOTKit_BSP/1.5.1/Boards/ARM/V2M-MPS2/Common/GLCD_V2M-MPS2.c:128:3
	lsls	r6, r6, #29
	bpl	.LBB0_13
.Ltmp21:
@ %bb.14:
	@DEBUG_VALUE: spi_tran:byte <- 0
	@DEBUG_VALUE: wr_cmd:cmd <- -22
	@DEBUG_VALUE: wr_reg:val <- 0
	@DEBUG_VALUE: wr_reg:reg <- -22
	.loc	2 0 3                           @ C:/Users/dakum/AppData/Local/Arm/Packs/Keil/V2M-MPS2_IOTKit_BSP/1.5.1/Boards/ARM/V2M-MPS2/Common/GLCD_V2M-MPS2.c:0:3
	str	r7, [sp, #20]                   @ 4-byte Spill
	.loc	2 129 35 is_stmt 1              @ C:/Users/dakum/AppData/Local/Arm/Packs/Keil/V2M-MPS2_IOTKit_BSP/1.5.1/Boards/ARM/V2M-MPS2/Common/GLCD_V2M-MPS2.c:129:35
	ldr	r6, [r0]
	movs	r6, #234
.Ltmp22:
	@DEBUG_VALUE: spi_tran:byte <- -22
	.loc	2 127 21                        @ C:/Users/dakum/AppData/Local/Arm/Packs/Keil/V2M-MPS2_IOTKit_BSP/1.5.1/Boards/ARM/V2M-MPS2/Common/GLCD_V2M-MPS2.c:127:21
	str	r6, [r0]
.Ltmp23:
.LBB0_15:                               @ =>This Inner Loop Header: Depth=1
	@DEBUG_VALUE: spi_tran:byte <- -22
	@DEBUG_VALUE: wr_cmd:cmd <- -22
	@DEBUG_VALUE: wr_reg:val <- 0
	@DEBUG_VALUE: wr_reg:reg <- -22
	.loc	2 128 27                        @ C:/Users/dakum/AppData/Local/Arm/Packs/Keil/V2M-MPS2_IOTKit_BSP/1.5.1/Boards/ARM/V2M-MPS2/Common/GLCD_V2M-MPS2.c:128:27
	ldr	r6, [r0, #4]
	.loc	2 128 3 is_stmt 0               @ C:/Users/dakum/AppData/Local/Arm/Packs/Keil/V2M-MPS2_IOTKit_BSP/1.5.1/Boards/ARM/V2M-MPS2/Common/GLCD_V2M-MPS2.c:128:3
	lsls	r6, r6, #29
	bpl	.LBB0_15
.Ltmp24:
@ %bb.16:
	@DEBUG_VALUE: spi_tran:byte <- -22
	@DEBUG_VALUE: wr_cmd:cmd <- -22
	@DEBUG_VALUE: wr_reg:val <- 0
	@DEBUG_VALUE: wr_reg:reg <- -22
	.loc	2 129 35 is_stmt 1              @ C:/Users/dakum/AppData/Local/Arm/Packs/Keil/V2M-MPS2_IOTKit_BSP/1.5.1/Boards/ARM/V2M-MPS2/Common/GLCD_V2M-MPS2.c:129:35
	ldr	r6, [r0]
.Ltmp25:
	.loc	2 142 3                         @ C:/Users/dakum/AppData/Local/Arm/Packs/Keil/V2M-MPS2_IOTKit_BSP/1.5.1/Boards/ARM/V2M-MPS2/Common/GLCD_V2M-MPS2.c:142:3
	ldr	r6, [r1]
	orrs	r6, r3
	str	r6, [r1]
.Ltmp26:
	@DEBUG_VALUE: wr_dat:dat <- 0
	.loc	2 151 3                         @ C:/Users/dakum/AppData/Local/Arm/Packs/Keil/V2M-MPS2_IOTKit_BSP/1.5.1/Boards/ARM/V2M-MPS2/Common/GLCD_V2M-MPS2.c:151:3
	ldr	r6, [r1]
	bics	r6, r3
	str	r6, [r1]
	movs	r7, #114
.Ltmp27:
	@DEBUG_VALUE: spi_tran:byte <- 114
	.loc	2 127 21                        @ C:/Users/dakum/AppData/Local/Arm/Packs/Keil/V2M-MPS2_IOTKit_BSP/1.5.1/Boards/ARM/V2M-MPS2/Common/GLCD_V2M-MPS2.c:127:21
	str	r7, [r0]
.Ltmp28:
.LBB0_17:                               @ =>This Inner Loop Header: Depth=1
	@DEBUG_VALUE: spi_tran:byte <- 114
	@DEBUG_VALUE: wr_dat:dat <- 0
	@DEBUG_VALUE: wr_reg:val <- 0
	@DEBUG_VALUE: wr_reg:reg <- -22
	.loc	2 128 27                        @ C:/Users/dakum/AppData/Local/Arm/Packs/Keil/V2M-MPS2_IOTKit_BSP/1.5.1/Boards/ARM/V2M-MPS2/Common/GLCD_V2M-MPS2.c:128:27
	ldr	r6, [r0, #4]
	.loc	2 128 3 is_stmt 0               @ C:/Users/dakum/AppData/Local/Arm/Packs/Keil/V2M-MPS2_IOTKit_BSP/1.5.1/Boards/ARM/V2M-MPS2/Common/GLCD_V2M-MPS2.c:128:3
	lsls	r6, r6, #29
	bpl	.LBB0_17
.Ltmp29:
@ %bb.18:
	@DEBUG_VALUE: spi_tran:byte <- 114
	@DEBUG_VALUE: wr_dat:dat <- 0
	@DEBUG_VALUE: wr_reg:val <- 0
	@DEBUG_VALUE: wr_reg:reg <- -22
	.loc	2 129 35 is_stmt 1              @ C:/Users/dakum/AppData/Local/Arm/Packs/Keil/V2M-MPS2_IOTKit_BSP/1.5.1/Boards/ARM/V2M-MPS2/Common/GLCD_V2M-MPS2.c:129:35
	ldr	r6, [r0]
.Ltmp30:
	@DEBUG_VALUE: spi_tran:byte <- 0
	.loc	2 127 21                        @ C:/Users/dakum/AppData/Local/Arm/Packs/Keil/V2M-MPS2_IOTKit_BSP/1.5.1/Boards/ARM/V2M-MPS2/Common/GLCD_V2M-MPS2.c:127:21
	str	r2, [r0]
.Ltmp31:
.LBB0_19:                               @ =>This Inner Loop Header: Depth=1
	@DEBUG_VALUE: spi_tran:byte <- 0
	@DEBUG_VALUE: wr_dat:dat <- 0
	@DEBUG_VALUE: wr_reg:val <- 0
	@DEBUG_VALUE: wr_reg:reg <- -22
	.loc	2 128 27                        @ C:/Users/dakum/AppData/Local/Arm/Packs/Keil/V2M-MPS2_IOTKit_BSP/1.5.1/Boards/ARM/V2M-MPS2/Common/GLCD_V2M-MPS2.c:128:27
	ldr	r6, [r0, #4]
	.loc	2 128 3 is_stmt 0               @ C:/Users/dakum/AppData/Local/Arm/Packs/Keil/V2M-MPS2_IOTKit_BSP/1.5.1/Boards/ARM/V2M-MPS2/Common/GLCD_V2M-MPS2.c:128:3
	lsls	r6, r6, #29
	bpl	.LBB0_19
.Ltmp32:
@ %bb.20:
	@DEBUG_VALUE: spi_tran:byte <- 0
	@DEBUG_VALUE: wr_dat:dat <- 0
	@DEBUG_VALUE: wr_reg:val <- 0
	@DEBUG_VALUE: wr_reg:reg <- -22
	.loc	2 129 35 is_stmt 1              @ C:/Users/dakum/AppData/Local/Arm/Packs/Keil/V2M-MPS2_IOTKit_BSP/1.5.1/Boards/ARM/V2M-MPS2/Common/GLCD_V2M-MPS2.c:129:35
	ldr	r6, [r0]
.Ltmp33:
	@DEBUG_VALUE: spi_tran:byte <- [DW_OP_stack_value] 0
	.loc	2 127 21                        @ C:/Users/dakum/AppData/Local/Arm/Packs/Keil/V2M-MPS2_IOTKit_BSP/1.5.1/Boards/ARM/V2M-MPS2/Common/GLCD_V2M-MPS2.c:127:21
	str	r2, [r0]
.Ltmp34:
.LBB0_21:                               @ =>This Inner Loop Header: Depth=1
	@DEBUG_VALUE: spi_tran:byte <- [DW_OP_stack_value] 0
	@DEBUG_VALUE: wr_dat:dat <- 0
	@DEBUG_VALUE: wr_reg:val <- 0
	@DEBUG_VALUE: wr_reg:reg <- -22
	.loc	2 128 27                        @ C:/Users/dakum/AppData/Local/Arm/Packs/Keil/V2M-MPS2_IOTKit_BSP/1.5.1/Boards/ARM/V2M-MPS2/Common/GLCD_V2M-MPS2.c:128:27
	ldr	r6, [r0, #4]
	.loc	2 128 3 is_stmt 0               @ C:/Users/dakum/AppData/Local/Arm/Packs/Keil/V2M-MPS2_IOTKit_BSP/1.5.1/Boards/ARM/V2M-MPS2/Common/GLCD_V2M-MPS2.c:128:3
	lsls	r6, r6, #29
	bpl	.LBB0_21
.Ltmp35:
@ %bb.22:
	@DEBUG_VALUE: spi_tran:byte <- [DW_OP_stack_value] 0
	@DEBUG_VALUE: wr_dat:dat <- 0
	@DEBUG_VALUE: wr_reg:val <- 0
	@DEBUG_VALUE: wr_reg:reg <- -22
	.loc	2 129 35 is_stmt 1              @ C:/Users/dakum/AppData/Local/Arm/Packs/Keil/V2M-MPS2_IOTKit_BSP/1.5.1/Boards/ARM/V2M-MPS2/Common/GLCD_V2M-MPS2.c:129:35
	ldr	r6, [r0]
.Ltmp36:
	.loc	2 155 3                         @ C:/Users/dakum/AppData/Local/Arm/Packs/Keil/V2M-MPS2_IOTKit_BSP/1.5.1/Boards/ARM/V2M-MPS2/Common/GLCD_V2M-MPS2.c:155:3
	ldr	r6, [r1]
	orrs	r6, r3
	str	r6, [r1]
.Ltmp37:
	@DEBUG_VALUE: wr_cmd:cmd <- -21
	@DEBUG_VALUE: wr_reg:val <- 32
	@DEBUG_VALUE: wr_reg:reg <- -21
	.loc	2 138 3                         @ C:/Users/dakum/AppData/Local/Arm/Packs/Keil/V2M-MPS2_IOTKit_BSP/1.5.1/Boards/ARM/V2M-MPS2/Common/GLCD_V2M-MPS2.c:138:3
	ldr	r6, [r1]
	bics	r6, r3
	str	r6, [r1]
.Ltmp38:
	@DEBUG_VALUE: spi_tran:byte <- 112
	.loc	2 127 21                        @ C:/Users/dakum/AppData/Local/Arm/Packs/Keil/V2M-MPS2_IOTKit_BSP/1.5.1/Boards/ARM/V2M-MPS2/Common/GLCD_V2M-MPS2.c:127:21
	str	r4, [r0]
.Ltmp39:
.LBB0_23:                               @ =>This Inner Loop Header: Depth=1
	@DEBUG_VALUE: spi_tran:byte <- 112
	@DEBUG_VALUE: wr_reg:reg <- -21
	@DEBUG_VALUE: wr_reg:val <- 32
	@DEBUG_VALUE: wr_cmd:cmd <- -21
	.loc	2 128 27                        @ C:/Users/dakum/AppData/Local/Arm/Packs/Keil/V2M-MPS2_IOTKit_BSP/1.5.1/Boards/ARM/V2M-MPS2/Common/GLCD_V2M-MPS2.c:128:27
	ldr	r6, [r0, #4]
	.loc	2 128 3 is_stmt 0               @ C:/Users/dakum/AppData/Local/Arm/Packs/Keil/V2M-MPS2_IOTKit_BSP/1.5.1/Boards/ARM/V2M-MPS2/Common/GLCD_V2M-MPS2.c:128:3
	lsls	r6, r6, #29
	bpl	.LBB0_23
.Ltmp40:
@ %bb.24:
	@DEBUG_VALUE: spi_tran:byte <- 112
	@DEBUG_VALUE: wr_reg:reg <- -21
	@DEBUG_VALUE: wr_reg:val <- 32
	@DEBUG_VALUE: wr_cmd:cmd <- -21
	.loc	2 129 35 is_stmt 1              @ C:/Users/dakum/AppData/Local/Arm/Packs/Keil/V2M-MPS2_IOTKit_BSP/1.5.1/Boards/ARM/V2M-MPS2/Common/GLCD_V2M-MPS2.c:129:35
	ldr	r6, [r0]
.Ltmp41:
	@DEBUG_VALUE: spi_tran:byte <- 0
	.loc	2 127 21                        @ C:/Users/dakum/AppData/Local/Arm/Packs/Keil/V2M-MPS2_IOTKit_BSP/1.5.1/Boards/ARM/V2M-MPS2/Common/GLCD_V2M-MPS2.c:127:21
	str	r2, [r0]
.Ltmp42:
.LBB0_25:                               @ =>This Inner Loop Header: Depth=1
	@DEBUG_VALUE: spi_tran:byte <- 0
	@DEBUG_VALUE: wr_reg:reg <- -21
	@DEBUG_VALUE: wr_reg:val <- 32
	@DEBUG_VALUE: wr_cmd:cmd <- -21
	.loc	2 128 27                        @ C:/Users/dakum/AppData/Local/Arm/Packs/Keil/V2M-MPS2_IOTKit_BSP/1.5.1/Boards/ARM/V2M-MPS2/Common/GLCD_V2M-MPS2.c:128:27
	ldr	r6, [r0, #4]
	.loc	2 128 3 is_stmt 0               @ C:/Users/dakum/AppData/Local/Arm/Packs/Keil/V2M-MPS2_IOTKit_BSP/1.5.1/Boards/ARM/V2M-MPS2/Common/GLCD_V2M-MPS2.c:128:3
	lsls	r6, r6, #29
	bpl	.LBB0_25
.Ltmp43:
@ %bb.26:
	@DEBUG_VALUE: spi_tran:byte <- 0
	@DEBUG_VALUE: wr_reg:reg <- -21
	@DEBUG_VALUE: wr_reg:val <- 32
	@DEBUG_VALUE: wr_cmd:cmd <- -21
	.loc	2 129 35 is_stmt 1              @ C:/Users/dakum/AppData/Local/Arm/Packs/Keil/V2M-MPS2_IOTKit_BSP/1.5.1/Boards/ARM/V2M-MPS2/Common/GLCD_V2M-MPS2.c:129:35
	ldr	r6, [r0]
	movs	r6, #235
.Ltmp44:
	@DEBUG_VALUE: spi_tran:byte <- -21
	.loc	2 127 21                        @ C:/Users/dakum/AppData/Local/Arm/Packs/Keil/V2M-MPS2_IOTKit_BSP/1.5.1/Boards/ARM/V2M-MPS2/Common/GLCD_V2M-MPS2.c:127:21
	str	r6, [r0]
.Ltmp45:
.LBB0_27:                               @ =>This Inner Loop Header: Depth=1
	@DEBUG_VALUE: spi_tran:byte <- -21
	@DEBUG_VALUE: wr_reg:reg <- -21
	@DEBUG_VALUE: wr_reg:val <- 32
	@DEBUG_VALUE: wr_cmd:cmd <- -21
	.loc	2 128 27                        @ C:/Users/dakum/AppData/Local/Arm/Packs/Keil/V2M-MPS2_IOTKit_BSP/1.5.1/Boards/ARM/V2M-MPS2/Common/GLCD_V2M-MPS2.c:128:27
	ldr	r6, [r0, #4]
	.loc	2 128 3 is_stmt 0               @ C:/Users/dakum/AppData/Local/Arm/Packs/Keil/V2M-MPS2_IOTKit_BSP/1.5.1/Boards/ARM/V2M-MPS2/Common/GLCD_V2M-MPS2.c:128:3
	lsls	r6, r6, #29
	bpl	.LBB0_27
.Ltmp46:
@ %bb.28:
	@DEBUG_VALUE: spi_tran:byte <- -21
	@DEBUG_VALUE: wr_reg:reg <- -21
	@DEBUG_VALUE: wr_reg:val <- 32
	@DEBUG_VALUE: wr_cmd:cmd <- -21
	.loc	2 129 35 is_stmt 1              @ C:/Users/dakum/AppData/Local/Arm/Packs/Keil/V2M-MPS2_IOTKit_BSP/1.5.1/Boards/ARM/V2M-MPS2/Common/GLCD_V2M-MPS2.c:129:35
	ldr	r6, [r0]
.Ltmp47:
	.loc	2 142 3                         @ C:/Users/dakum/AppData/Local/Arm/Packs/Keil/V2M-MPS2_IOTKit_BSP/1.5.1/Boards/ARM/V2M-MPS2/Common/GLCD_V2M-MPS2.c:142:3
	ldr	r6, [r1]
	orrs	r6, r3
	str	r6, [r1]
.Ltmp48:
	@DEBUG_VALUE: wr_dat:dat <- 32
	.loc	2 151 3                         @ C:/Users/dakum/AppData/Local/Arm/Packs/Keil/V2M-MPS2_IOTKit_BSP/1.5.1/Boards/ARM/V2M-MPS2/Common/GLCD_V2M-MPS2.c:151:3
	ldr	r6, [r1]
	bics	r6, r3
	str	r6, [r1]
.Ltmp49:
	@DEBUG_VALUE: spi_tran:byte <- 114
	.loc	2 127 21                        @ C:/Users/dakum/AppData/Local/Arm/Packs/Keil/V2M-MPS2_IOTKit_BSP/1.5.1/Boards/ARM/V2M-MPS2/Common/GLCD_V2M-MPS2.c:127:21
	str	r7, [r0]
.Ltmp50:
.LBB0_29:                               @ =>This Inner Loop Header: Depth=1
	@DEBUG_VALUE: spi_tran:byte <- 114
	@DEBUG_VALUE: wr_dat:dat <- 32
	@DEBUG_VALUE: wr_reg:reg <- -21
	@DEBUG_VALUE: wr_reg:val <- 32
	.loc	2 128 27                        @ C:/Users/dakum/AppData/Local/Arm/Packs/Keil/V2M-MPS2_IOTKit_BSP/1.5.1/Boards/ARM/V2M-MPS2/Common/GLCD_V2M-MPS2.c:128:27
	ldr	r6, [r0, #4]
	.loc	2 128 3 is_stmt 0               @ C:/Users/dakum/AppData/Local/Arm/Packs/Keil/V2M-MPS2_IOTKit_BSP/1.5.1/Boards/ARM/V2M-MPS2/Common/GLCD_V2M-MPS2.c:128:3
	lsls	r6, r6, #29
	bpl	.LBB0_29
.Ltmp51:
@ %bb.30:
	@DEBUG_VALUE: spi_tran:byte <- 114
	@DEBUG_VALUE: wr_dat:dat <- 32
	@DEBUG_VALUE: wr_reg:reg <- -21
	@DEBUG_VALUE: wr_reg:val <- 32
	.loc	2 129 35 is_stmt 1              @ C:/Users/dakum/AppData/Local/Arm/Packs/Keil/V2M-MPS2_IOTKit_BSP/1.5.1/Boards/ARM/V2M-MPS2/Common/GLCD_V2M-MPS2.c:129:35
	ldr	r6, [r0]
.Ltmp52:
	@DEBUG_VALUE: spi_tran:byte <- 0
	.loc	2 127 21                        @ C:/Users/dakum/AppData/Local/Arm/Packs/Keil/V2M-MPS2_IOTKit_BSP/1.5.1/Boards/ARM/V2M-MPS2/Common/GLCD_V2M-MPS2.c:127:21
	str	r2, [r0]
.Ltmp53:
.LBB0_31:                               @ =>This Inner Loop Header: Depth=1
	@DEBUG_VALUE: spi_tran:byte <- 0
	@DEBUG_VALUE: wr_dat:dat <- 32
	@DEBUG_VALUE: wr_reg:reg <- -21
	@DEBUG_VALUE: wr_reg:val <- 32
	.loc	2 128 27                        @ C:/Users/dakum/AppData/Local/Arm/Packs/Keil/V2M-MPS2_IOTKit_BSP/1.5.1/Boards/ARM/V2M-MPS2/Common/GLCD_V2M-MPS2.c:128:27
	ldr	r6, [r0, #4]
	.loc	2 128 3 is_stmt 0               @ C:/Users/dakum/AppData/Local/Arm/Packs/Keil/V2M-MPS2_IOTKit_BSP/1.5.1/Boards/ARM/V2M-MPS2/Common/GLCD_V2M-MPS2.c:128:3
	lsls	r6, r6, #29
	bpl	.LBB0_31
.Ltmp54:
@ %bb.32:
	@DEBUG_VALUE: spi_tran:byte <- 0
	@DEBUG_VALUE: wr_dat:dat <- 32
	@DEBUG_VALUE: wr_reg:reg <- -21
	@DEBUG_VALUE: wr_reg:val <- 32
	.loc	2 129 35 is_stmt 1              @ C:/Users/dakum/AppData/Local/Arm/Packs/Keil/V2M-MPS2_IOTKit_BSP/1.5.1/Boards/ARM/V2M-MPS2/Common/GLCD_V2M-MPS2.c:129:35
	ldr	r6, [r0]
	movs	r6, #32
.Ltmp55:
	@DEBUG_VALUE: spi_tran:byte <- [DW_OP_stack_value] 32
	.loc	2 127 21                        @ C:/Users/dakum/AppData/Local/Arm/Packs/Keil/V2M-MPS2_IOTKit_BSP/1.5.1/Boards/ARM/V2M-MPS2/Common/GLCD_V2M-MPS2.c:127:21
	str	r6, [r0]
.Ltmp56:
.LBB0_33:                               @ =>This Inner Loop Header: Depth=1
	@DEBUG_VALUE: spi_tran:byte <- [DW_OP_stack_value] 32
	@DEBUG_VALUE: wr_dat:dat <- 32
	@DEBUG_VALUE: wr_reg:reg <- -21
	@DEBUG_VALUE: wr_reg:val <- 32
	.loc	2 128 27                        @ C:/Users/dakum/AppData/Local/Arm/Packs/Keil/V2M-MPS2_IOTKit_BSP/1.5.1/Boards/ARM/V2M-MPS2/Common/GLCD_V2M-MPS2.c:128:27
	ldr	r6, [r0, #4]
	.loc	2 128 3 is_stmt 0               @ C:/Users/dakum/AppData/Local/Arm/Packs/Keil/V2M-MPS2_IOTKit_BSP/1.5.1/Boards/ARM/V2M-MPS2/Common/GLCD_V2M-MPS2.c:128:3
	lsls	r6, r6, #29
	bpl	.LBB0_33
.Ltmp57:
@ %bb.34:
	@DEBUG_VALUE: spi_tran:byte <- [DW_OP_stack_value] 32
	@DEBUG_VALUE: wr_dat:dat <- 32
	@DEBUG_VALUE: wr_reg:reg <- -21
	@DEBUG_VALUE: wr_reg:val <- 32
	.loc	2 129 35 is_stmt 1              @ C:/Users/dakum/AppData/Local/Arm/Packs/Keil/V2M-MPS2_IOTKit_BSP/1.5.1/Boards/ARM/V2M-MPS2/Common/GLCD_V2M-MPS2.c:129:35
	ldr	r6, [r0]
.Ltmp58:
	.loc	2 155 3                         @ C:/Users/dakum/AppData/Local/Arm/Packs/Keil/V2M-MPS2_IOTKit_BSP/1.5.1/Boards/ARM/V2M-MPS2/Common/GLCD_V2M-MPS2.c:155:3
	ldr	r6, [r1]
	orrs	r6, r3
	str	r6, [r1]
.Ltmp59:
	@DEBUG_VALUE: wr_cmd:cmd <- -20
	@DEBUG_VALUE: wr_reg:val <- 12
	@DEBUG_VALUE: wr_reg:reg <- -20
	.loc	2 138 3                         @ C:/Users/dakum/AppData/Local/Arm/Packs/Keil/V2M-MPS2_IOTKit_BSP/1.5.1/Boards/ARM/V2M-MPS2/Common/GLCD_V2M-MPS2.c:138:3
	ldr	r6, [r1]
	bics	r6, r3
	str	r6, [r1]
.Ltmp60:
	@DEBUG_VALUE: spi_tran:byte <- 112
	.loc	2 127 21                        @ C:/Users/dakum/AppData/Local/Arm/Packs/Keil/V2M-MPS2_IOTKit_BSP/1.5.1/Boards/ARM/V2M-MPS2/Common/GLCD_V2M-MPS2.c:127:21
	str	r4, [r0]
.Ltmp61:
.LBB0_35:                               @ =>This Inner Loop Header: Depth=1
	@DEBUG_VALUE: spi_tran:byte <- 112
	@DEBUG_VALUE: wr_reg:reg <- -20
	@DEBUG_VALUE: wr_reg:val <- 12
	@DEBUG_VALUE: wr_cmd:cmd <- -20
	.loc	2 128 27                        @ C:/Users/dakum/AppData/Local/Arm/Packs/Keil/V2M-MPS2_IOTKit_BSP/1.5.1/Boards/ARM/V2M-MPS2/Common/GLCD_V2M-MPS2.c:128:27
	ldr	r6, [r0, #4]
	.loc	2 128 3 is_stmt 0               @ C:/Users/dakum/AppData/Local/Arm/Packs/Keil/V2M-MPS2_IOTKit_BSP/1.5.1/Boards/ARM/V2M-MPS2/Common/GLCD_V2M-MPS2.c:128:3
	lsls	r6, r6, #29
	bpl	.LBB0_35
.Ltmp62:
@ %bb.36:
	@DEBUG_VALUE: spi_tran:byte <- 112
	@DEBUG_VALUE: wr_reg:reg <- -20
	@DEBUG_VALUE: wr_reg:val <- 12
	@DEBUG_VALUE: wr_cmd:cmd <- -20
	.loc	2 129 35 is_stmt 1              @ C:/Users/dakum/AppData/Local/Arm/Packs/Keil/V2M-MPS2_IOTKit_BSP/1.5.1/Boards/ARM/V2M-MPS2/Common/GLCD_V2M-MPS2.c:129:35
	ldr	r6, [r0]
.Ltmp63:
	@DEBUG_VALUE: spi_tran:byte <- 0
	.loc	2 127 21                        @ C:/Users/dakum/AppData/Local/Arm/Packs/Keil/V2M-MPS2_IOTKit_BSP/1.5.1/Boards/ARM/V2M-MPS2/Common/GLCD_V2M-MPS2.c:127:21
	str	r2, [r0]
.Ltmp64:
.LBB0_37:                               @ =>This Inner Loop Header: Depth=1
	@DEBUG_VALUE: spi_tran:byte <- 0
	@DEBUG_VALUE: wr_reg:reg <- -20
	@DEBUG_VALUE: wr_reg:val <- 12
	@DEBUG_VALUE: wr_cmd:cmd <- -20
	.loc	2 128 27                        @ C:/Users/dakum/AppData/Local/Arm/Packs/Keil/V2M-MPS2_IOTKit_BSP/1.5.1/Boards/ARM/V2M-MPS2/Common/GLCD_V2M-MPS2.c:128:27
	ldr	r6, [r0, #4]
	.loc	2 128 3 is_stmt 0               @ C:/Users/dakum/AppData/Local/Arm/Packs/Keil/V2M-MPS2_IOTKit_BSP/1.5.1/Boards/ARM/V2M-MPS2/Common/GLCD_V2M-MPS2.c:128:3
	lsls	r6, r6, #29
	bpl	.LBB0_37
.Ltmp65:
@ %bb.38:
	@DEBUG_VALUE: spi_tran:byte <- 0
	@DEBUG_VALUE: wr_reg:reg <- -20
	@DEBUG_VALUE: wr_reg:val <- 12
	@DEBUG_VALUE: wr_cmd:cmd <- -20
	.loc	2 129 35 is_stmt 1              @ C:/Users/dakum/AppData/Local/Arm/Packs/Keil/V2M-MPS2_IOTKit_BSP/1.5.1/Boards/ARM/V2M-MPS2/Common/GLCD_V2M-MPS2.c:129:35
	ldr	r6, [r0]
	movs	r6, #236
.Ltmp66:
	@DEBUG_VALUE: spi_tran:byte <- -20
	.loc	2 127 21                        @ C:/Users/dakum/AppData/Local/Arm/Packs/Keil/V2M-MPS2_IOTKit_BSP/1.5.1/Boards/ARM/V2M-MPS2/Common/GLCD_V2M-MPS2.c:127:21
	str	r6, [r0]
.Ltmp67:
.LBB0_39:                               @ =>This Inner Loop Header: Depth=1
	@DEBUG_VALUE: spi_tran:byte <- -20
	@DEBUG_VALUE: wr_reg:reg <- -20
	@DEBUG_VALUE: wr_reg:val <- 12
	@DEBUG_VALUE: wr_cmd:cmd <- -20
	.loc	2 128 27                        @ C:/Users/dakum/AppData/Local/Arm/Packs/Keil/V2M-MPS2_IOTKit_BSP/1.5.1/Boards/ARM/V2M-MPS2/Common/GLCD_V2M-MPS2.c:128:27
	ldr	r6, [r0, #4]
	.loc	2 128 3 is_stmt 0               @ C:/Users/dakum/AppData/Local/Arm/Packs/Keil/V2M-MPS2_IOTKit_BSP/1.5.1/Boards/ARM/V2M-MPS2/Common/GLCD_V2M-MPS2.c:128:3
	lsls	r6, r6, #29
	bpl	.LBB0_39
.Ltmp68:
@ %bb.40:
	@DEBUG_VALUE: spi_tran:byte <- -20
	@DEBUG_VALUE: wr_reg:reg <- -20
	@DEBUG_VALUE: wr_reg:val <- 12
	@DEBUG_VALUE: wr_cmd:cmd <- -20
	.loc	2 129 35 is_stmt 1              @ C:/Users/dakum/AppData/Local/Arm/Packs/Keil/V2M-MPS2_IOTKit_BSP/1.5.1/Boards/ARM/V2M-MPS2/Common/GLCD_V2M-MPS2.c:129:35
	ldr	r6, [r0]
.Ltmp69:
	.loc	2 142 3                         @ C:/Users/dakum/AppData/Local/Arm/Packs/Keil/V2M-MPS2_IOTKit_BSP/1.5.1/Boards/ARM/V2M-MPS2/Common/GLCD_V2M-MPS2.c:142:3
	ldr	r6, [r1]
	orrs	r6, r3
	str	r6, [r1]
.Ltmp70:
	@DEBUG_VALUE: wr_dat:dat <- 12
	.loc	2 151 3                         @ C:/Users/dakum/AppData/Local/Arm/Packs/Keil/V2M-MPS2_IOTKit_BSP/1.5.1/Boards/ARM/V2M-MPS2/Common/GLCD_V2M-MPS2.c:151:3
	ldr	r6, [r1]
	bics	r6, r3
	str	r6, [r1]
.Ltmp71:
	@DEBUG_VALUE: spi_tran:byte <- 114
	.loc	2 127 21                        @ C:/Users/dakum/AppData/Local/Arm/Packs/Keil/V2M-MPS2_IOTKit_BSP/1.5.1/Boards/ARM/V2M-MPS2/Common/GLCD_V2M-MPS2.c:127:21
	str	r7, [r0]
.Ltmp72:
.LBB0_41:                               @ =>This Inner Loop Header: Depth=1
	@DEBUG_VALUE: spi_tran:byte <- 114
	@DEBUG_VALUE: wr_dat:dat <- 12
	@DEBUG_VALUE: wr_reg:reg <- -20
	@DEBUG_VALUE: wr_reg:val <- 12
	.loc	2 128 27                        @ C:/Users/dakum/AppData/Local/Arm/Packs/Keil/V2M-MPS2_IOTKit_BSP/1.5.1/Boards/ARM/V2M-MPS2/Common/GLCD_V2M-MPS2.c:128:27
	ldr	r6, [r0, #4]
	.loc	2 128 3 is_stmt 0               @ C:/Users/dakum/AppData/Local/Arm/Packs/Keil/V2M-MPS2_IOTKit_BSP/1.5.1/Boards/ARM/V2M-MPS2/Common/GLCD_V2M-MPS2.c:128:3
	lsls	r6, r6, #29
	bpl	.LBB0_41
.Ltmp73:
@ %bb.42:
	@DEBUG_VALUE: spi_tran:byte <- 114
	@DEBUG_VALUE: wr_dat:dat <- 12
	@DEBUG_VALUE: wr_reg:reg <- -20
	@DEBUG_VALUE: wr_reg:val <- 12
	.loc	2 129 35 is_stmt 1              @ C:/Users/dakum/AppData/Local/Arm/Packs/Keil/V2M-MPS2_IOTKit_BSP/1.5.1/Boards/ARM/V2M-MPS2/Common/GLCD_V2M-MPS2.c:129:35
	ldr	r6, [r0]
.Ltmp74:
	@DEBUG_VALUE: spi_tran:byte <- 0
	.loc	2 127 21                        @ C:/Users/dakum/AppData/Local/Arm/Packs/Keil/V2M-MPS2_IOTKit_BSP/1.5.1/Boards/ARM/V2M-MPS2/Common/GLCD_V2M-MPS2.c:127:21
	str	r2, [r0]
.Ltmp75:
.LBB0_43:                               @ =>This Inner Loop Header: Depth=1
	@DEBUG_VALUE: spi_tran:byte <- 0
	@DEBUG_VALUE: wr_dat:dat <- 12
	@DEBUG_VALUE: wr_reg:reg <- -20
	@DEBUG_VALUE: wr_reg:val <- 12
	.loc	2 128 27                        @ C:/Users/dakum/AppData/Local/Arm/Packs/Keil/V2M-MPS2_IOTKit_BSP/1.5.1/Boards/ARM/V2M-MPS2/Common/GLCD_V2M-MPS2.c:128:27
	ldr	r6, [r0, #4]
	.loc	2 128 3 is_stmt 0               @ C:/Users/dakum/AppData/Local/Arm/Packs/Keil/V2M-MPS2_IOTKit_BSP/1.5.1/Boards/ARM/V2M-MPS2/Common/GLCD_V2M-MPS2.c:128:3
	lsls	r6, r6, #29
	bpl	.LBB0_43
.Ltmp76:
@ %bb.44:
	@DEBUG_VALUE: spi_tran:byte <- 0
	@DEBUG_VALUE: wr_dat:dat <- 12
	@DEBUG_VALUE: wr_reg:reg <- -20
	@DEBUG_VALUE: wr_reg:val <- 12
	.loc	2 129 35 is_stmt 1              @ C:/Users/dakum/AppData/Local/Arm/Packs/Keil/V2M-MPS2_IOTKit_BSP/1.5.1/Boards/ARM/V2M-MPS2/Common/GLCD_V2M-MPS2.c:129:35
	ldr	r6, [r0]
	movs	r6, #12
	str	r6, [sp, #16]                   @ 4-byte Spill
.Ltmp77:
	@DEBUG_VALUE: spi_tran:byte <- [DW_OP_stack_value] 12
	.loc	2 127 21                        @ C:/Users/dakum/AppData/Local/Arm/Packs/Keil/V2M-MPS2_IOTKit_BSP/1.5.1/Boards/ARM/V2M-MPS2/Common/GLCD_V2M-MPS2.c:127:21
	str	r6, [r0]
.Ltmp78:
.LBB0_45:                               @ =>This Inner Loop Header: Depth=1
	@DEBUG_VALUE: spi_tran:byte <- [DW_OP_stack_value] 12
	@DEBUG_VALUE: wr_dat:dat <- 12
	@DEBUG_VALUE: wr_reg:reg <- -20
	@DEBUG_VALUE: wr_reg:val <- 12
	.loc	2 128 27                        @ C:/Users/dakum/AppData/Local/Arm/Packs/Keil/V2M-MPS2_IOTKit_BSP/1.5.1/Boards/ARM/V2M-MPS2/Common/GLCD_V2M-MPS2.c:128:27
	ldr	r6, [r0, #4]
	.loc	2 128 3 is_stmt 0               @ C:/Users/dakum/AppData/Local/Arm/Packs/Keil/V2M-MPS2_IOTKit_BSP/1.5.1/Boards/ARM/V2M-MPS2/Common/GLCD_V2M-MPS2.c:128:3
	lsls	r6, r6, #29
	bpl	.LBB0_45
.Ltmp79:
@ %bb.46:
	@DEBUG_VALUE: spi_tran:byte <- [DW_OP_stack_value] 12
	@DEBUG_VALUE: wr_dat:dat <- 12
	@DEBUG_VALUE: wr_reg:reg <- -20
	@DEBUG_VALUE: wr_reg:val <- 12
	.loc	2 129 35 is_stmt 1              @ C:/Users/dakum/AppData/Local/Arm/Packs/Keil/V2M-MPS2_IOTKit_BSP/1.5.1/Boards/ARM/V2M-MPS2/Common/GLCD_V2M-MPS2.c:129:35
	ldr	r6, [r0]
.Ltmp80:
	.loc	2 155 3                         @ C:/Users/dakum/AppData/Local/Arm/Packs/Keil/V2M-MPS2_IOTKit_BSP/1.5.1/Boards/ARM/V2M-MPS2/Common/GLCD_V2M-MPS2.c:155:3
	ldr	r6, [r1]
	orrs	r6, r3
	str	r6, [r1]
.Ltmp81:
	@DEBUG_VALUE: wr_cmd:cmd <- -19
	@DEBUG_VALUE: wr_reg:val <- 199
	@DEBUG_VALUE: wr_reg:reg <- -19
	.loc	2 138 3                         @ C:/Users/dakum/AppData/Local/Arm/Packs/Keil/V2M-MPS2_IOTKit_BSP/1.5.1/Boards/ARM/V2M-MPS2/Common/GLCD_V2M-MPS2.c:138:3
	ldr	r6, [r1]
	bics	r6, r3
	str	r6, [r1]
.Ltmp82:
	@DEBUG_VALUE: spi_tran:byte <- 112
	.loc	2 127 21                        @ C:/Users/dakum/AppData/Local/Arm/Packs/Keil/V2M-MPS2_IOTKit_BSP/1.5.1/Boards/ARM/V2M-MPS2/Common/GLCD_V2M-MPS2.c:127:21
	str	r4, [r0]
.Ltmp83:
.LBB0_47:                               @ =>This Inner Loop Header: Depth=1
	@DEBUG_VALUE: spi_tran:byte <- 112
	@DEBUG_VALUE: wr_reg:reg <- -19
	@DEBUG_VALUE: wr_reg:val <- 199
	@DEBUG_VALUE: wr_cmd:cmd <- -19
	.loc	2 128 27                        @ C:/Users/dakum/AppData/Local/Arm/Packs/Keil/V2M-MPS2_IOTKit_BSP/1.5.1/Boards/ARM/V2M-MPS2/Common/GLCD_V2M-MPS2.c:128:27
	ldr	r6, [r0, #4]
	.loc	2 128 3 is_stmt 0               @ C:/Users/dakum/AppData/Local/Arm/Packs/Keil/V2M-MPS2_IOTKit_BSP/1.5.1/Boards/ARM/V2M-MPS2/Common/GLCD_V2M-MPS2.c:128:3
	lsls	r6, r6, #29
	bpl	.LBB0_47
.Ltmp84:
@ %bb.48:
	@DEBUG_VALUE: spi_tran:byte <- 112
	@DEBUG_VALUE: wr_reg:reg <- -19
	@DEBUG_VALUE: wr_reg:val <- 199
	@DEBUG_VALUE: wr_cmd:cmd <- -19
	.loc	2 129 35 is_stmt 1              @ C:/Users/dakum/AppData/Local/Arm/Packs/Keil/V2M-MPS2_IOTKit_BSP/1.5.1/Boards/ARM/V2M-MPS2/Common/GLCD_V2M-MPS2.c:129:35
	ldr	r6, [r0]
.Ltmp85:
	@DEBUG_VALUE: spi_tran:byte <- 0
	.loc	2 127 21                        @ C:/Users/dakum/AppData/Local/Arm/Packs/Keil/V2M-MPS2_IOTKit_BSP/1.5.1/Boards/ARM/V2M-MPS2/Common/GLCD_V2M-MPS2.c:127:21
	str	r2, [r0]
.Ltmp86:
.LBB0_49:                               @ =>This Inner Loop Header: Depth=1
	@DEBUG_VALUE: spi_tran:byte <- 0
	@DEBUG_VALUE: wr_reg:reg <- -19
	@DEBUG_VALUE: wr_reg:val <- 199
	@DEBUG_VALUE: wr_cmd:cmd <- -19
	.loc	2 128 27                        @ C:/Users/dakum/AppData/Local/Arm/Packs/Keil/V2M-MPS2_IOTKit_BSP/1.5.1/Boards/ARM/V2M-MPS2/Common/GLCD_V2M-MPS2.c:128:27
	ldr	r6, [r0, #4]
	.loc	2 128 3 is_stmt 0               @ C:/Users/dakum/AppData/Local/Arm/Packs/Keil/V2M-MPS2_IOTKit_BSP/1.5.1/Boards/ARM/V2M-MPS2/Common/GLCD_V2M-MPS2.c:128:3
	lsls	r6, r6, #29
	bpl	.LBB0_49
.Ltmp87:
@ %bb.50:
	@DEBUG_VALUE: spi_tran:byte <- 0
	@DEBUG_VALUE: wr_reg:reg <- -19
	@DEBUG_VALUE: wr_reg:val <- 199
	@DEBUG_VALUE: wr_cmd:cmd <- -19
	.loc	2 129 35 is_stmt 1              @ C:/Users/dakum/AppData/Local/Arm/Packs/Keil/V2M-MPS2_IOTKit_BSP/1.5.1/Boards/ARM/V2M-MPS2/Common/GLCD_V2M-MPS2.c:129:35
	ldr	r6, [r0]
	movs	r6, #237
.Ltmp88:
	@DEBUG_VALUE: spi_tran:byte <- -19
	.loc	2 127 21                        @ C:/Users/dakum/AppData/Local/Arm/Packs/Keil/V2M-MPS2_IOTKit_BSP/1.5.1/Boards/ARM/V2M-MPS2/Common/GLCD_V2M-MPS2.c:127:21
	str	r6, [r0]
.Ltmp89:
.LBB0_51:                               @ =>This Inner Loop Header: Depth=1
	@DEBUG_VALUE: spi_tran:byte <- -19
	@DEBUG_VALUE: wr_reg:reg <- -19
	@DEBUG_VALUE: wr_reg:val <- 199
	@DEBUG_VALUE: wr_cmd:cmd <- -19
	.loc	2 128 27                        @ C:/Users/dakum/AppData/Local/Arm/Packs/Keil/V2M-MPS2_IOTKit_BSP/1.5.1/Boards/ARM/V2M-MPS2/Common/GLCD_V2M-MPS2.c:128:27
	ldr	r6, [r0, #4]
	.loc	2 128 3 is_stmt 0               @ C:/Users/dakum/AppData/Local/Arm/Packs/Keil/V2M-MPS2_IOTKit_BSP/1.5.1/Boards/ARM/V2M-MPS2/Common/GLCD_V2M-MPS2.c:128:3
	lsls	r6, r6, #29
	bpl	.LBB0_51
.Ltmp90:
@ %bb.52:
	@DEBUG_VALUE: spi_tran:byte <- -19
	@DEBUG_VALUE: wr_reg:reg <- -19
	@DEBUG_VALUE: wr_reg:val <- 199
	@DEBUG_VALUE: wr_cmd:cmd <- -19
	.loc	2 129 35 is_stmt 1              @ C:/Users/dakum/AppData/Local/Arm/Packs/Keil/V2M-MPS2_IOTKit_BSP/1.5.1/Boards/ARM/V2M-MPS2/Common/GLCD_V2M-MPS2.c:129:35
	ldr	r6, [r0]
.Ltmp91:
	.loc	2 142 3                         @ C:/Users/dakum/AppData/Local/Arm/Packs/Keil/V2M-MPS2_IOTKit_BSP/1.5.1/Boards/ARM/V2M-MPS2/Common/GLCD_V2M-MPS2.c:142:3
	ldr	r6, [r1]
	orrs	r6, r3
	str	r6, [r1]
.Ltmp92:
	@DEBUG_VALUE: wr_dat:dat <- 199
	.loc	2 151 3                         @ C:/Users/dakum/AppData/Local/Arm/Packs/Keil/V2M-MPS2_IOTKit_BSP/1.5.1/Boards/ARM/V2M-MPS2/Common/GLCD_V2M-MPS2.c:151:3
	ldr	r6, [r1]
	bics	r6, r3
	str	r6, [r1]
.Ltmp93:
	@DEBUG_VALUE: spi_tran:byte <- 114
	.loc	2 127 21                        @ C:/Users/dakum/AppData/Local/Arm/Packs/Keil/V2M-MPS2_IOTKit_BSP/1.5.1/Boards/ARM/V2M-MPS2/Common/GLCD_V2M-MPS2.c:127:21
	str	r7, [r0]
.Ltmp94:
.LBB0_53:                               @ =>This Inner Loop Header: Depth=1
	@DEBUG_VALUE: spi_tran:byte <- 114
	@DEBUG_VALUE: wr_dat:dat <- 199
	@DEBUG_VALUE: wr_reg:reg <- -19
	@DEBUG_VALUE: wr_reg:val <- 199
	.loc	2 128 27                        @ C:/Users/dakum/AppData/Local/Arm/Packs/Keil/V2M-MPS2_IOTKit_BSP/1.5.1/Boards/ARM/V2M-MPS2/Common/GLCD_V2M-MPS2.c:128:27
	ldr	r6, [r0, #4]
	.loc	2 128 3 is_stmt 0               @ C:/Users/dakum/AppData/Local/Arm/Packs/Keil/V2M-MPS2_IOTKit_BSP/1.5.1/Boards/ARM/V2M-MPS2/Common/GLCD_V2M-MPS2.c:128:3
	lsls	r6, r6, #29
	bpl	.LBB0_53
.Ltmp95:
@ %bb.54:
	@DEBUG_VALUE: spi_tran:byte <- 114
	@DEBUG_VALUE: wr_dat:dat <- 199
	@DEBUG_VALUE: wr_reg:reg <- -19
	@DEBUG_VALUE: wr_reg:val <- 199
	.loc	2 129 35 is_stmt 1              @ C:/Users/dakum/AppData/Local/Arm/Packs/Keil/V2M-MPS2_IOTKit_BSP/1.5.1/Boards/ARM/V2M-MPS2/Common/GLCD_V2M-MPS2.c:129:35
	ldr	r6, [r0]
.Ltmp96:
	@DEBUG_VALUE: spi_tran:byte <- 0
	.loc	2 127 21                        @ C:/Users/dakum/AppData/Local/Arm/Packs/Keil/V2M-MPS2_IOTKit_BSP/1.5.1/Boards/ARM/V2M-MPS2/Common/GLCD_V2M-MPS2.c:127:21
	str	r2, [r0]
.Ltmp97:
.LBB0_55:                               @ =>This Inner Loop Header: Depth=1
	@DEBUG_VALUE: spi_tran:byte <- 0
	@DEBUG_VALUE: wr_dat:dat <- 199
	@DEBUG_VALUE: wr_reg:reg <- -19
	@DEBUG_VALUE: wr_reg:val <- 199
	.loc	2 128 27                        @ C:/Users/dakum/AppData/Local/Arm/Packs/Keil/V2M-MPS2_IOTKit_BSP/1.5.1/Boards/ARM/V2M-MPS2/Common/GLCD_V2M-MPS2.c:128:27
	ldr	r6, [r0, #4]
	.loc	2 128 3 is_stmt 0               @ C:/Users/dakum/AppData/Local/Arm/Packs/Keil/V2M-MPS2_IOTKit_BSP/1.5.1/Boards/ARM/V2M-MPS2/Common/GLCD_V2M-MPS2.c:128:3
	lsls	r6, r6, #29
	bpl	.LBB0_55
.Ltmp98:
@ %bb.56:
	@DEBUG_VALUE: spi_tran:byte <- 0
	@DEBUG_VALUE: wr_dat:dat <- 199
	@DEBUG_VALUE: wr_reg:reg <- -19
	@DEBUG_VALUE: wr_reg:val <- 199
	.loc	2 129 35 is_stmt 1              @ C:/Users/dakum/AppData/Local/Arm/Packs/Keil/V2M-MPS2_IOTKit_BSP/1.5.1/Boards/ARM/V2M-MPS2/Common/GLCD_V2M-MPS2.c:129:35
	ldr	r6, [r0]
	movs	r6, #199
.Ltmp99:
	@DEBUG_VALUE: spi_tran:byte <- [DW_OP_stack_value] 199
	.loc	2 127 21                        @ C:/Users/dakum/AppData/Local/Arm/Packs/Keil/V2M-MPS2_IOTKit_BSP/1.5.1/Boards/ARM/V2M-MPS2/Common/GLCD_V2M-MPS2.c:127:21
	str	r6, [r0]
.Ltmp100:
.LBB0_57:                               @ =>This Inner Loop Header: Depth=1
	@DEBUG_VALUE: spi_tran:byte <- [DW_OP_stack_value] 199
	@DEBUG_VALUE: wr_dat:dat <- 199
	@DEBUG_VALUE: wr_reg:reg <- -19
	@DEBUG_VALUE: wr_reg:val <- 199
	.loc	2 128 27                        @ C:/Users/dakum/AppData/Local/Arm/Packs/Keil/V2M-MPS2_IOTKit_BSP/1.5.1/Boards/ARM/V2M-MPS2/Common/GLCD_V2M-MPS2.c:128:27
	ldr	r6, [r0, #4]
	.loc	2 128 3 is_stmt 0               @ C:/Users/dakum/AppData/Local/Arm/Packs/Keil/V2M-MPS2_IOTKit_BSP/1.5.1/Boards/ARM/V2M-MPS2/Common/GLCD_V2M-MPS2.c:128:3
	lsls	r6, r6, #29
	bpl	.LBB0_57
.Ltmp101:
@ %bb.58:
	@DEBUG_VALUE: spi_tran:byte <- [DW_OP_stack_value] 199
	@DEBUG_VALUE: wr_dat:dat <- 199
	@DEBUG_VALUE: wr_reg:reg <- -19
	@DEBUG_VALUE: wr_reg:val <- 199
	.loc	2 129 35 is_stmt 1              @ C:/Users/dakum/AppData/Local/Arm/Packs/Keil/V2M-MPS2_IOTKit_BSP/1.5.1/Boards/ARM/V2M-MPS2/Common/GLCD_V2M-MPS2.c:129:35
	ldr	r6, [r0]
.Ltmp102:
	.loc	2 155 3                         @ C:/Users/dakum/AppData/Local/Arm/Packs/Keil/V2M-MPS2_IOTKit_BSP/1.5.1/Boards/ARM/V2M-MPS2/Common/GLCD_V2M-MPS2.c:155:3
	ldr	r6, [r1]
	orrs	r6, r3
	str	r6, [r1]
.Ltmp103:
	@DEBUG_VALUE: wr_cmd:cmd <- -24
	@DEBUG_VALUE: wr_reg:val <- 56
	@DEBUG_VALUE: wr_reg:reg <- -24
	.loc	2 138 3                         @ C:/Users/dakum/AppData/Local/Arm/Packs/Keil/V2M-MPS2_IOTKit_BSP/1.5.1/Boards/ARM/V2M-MPS2/Common/GLCD_V2M-MPS2.c:138:3
	ldr	r6, [r1]
	bics	r6, r3
	str	r6, [r1]
.Ltmp104:
	@DEBUG_VALUE: spi_tran:byte <- 112
	.loc	2 127 21                        @ C:/Users/dakum/AppData/Local/Arm/Packs/Keil/V2M-MPS2_IOTKit_BSP/1.5.1/Boards/ARM/V2M-MPS2/Common/GLCD_V2M-MPS2.c:127:21
	str	r4, [r0]
.Ltmp105:
.LBB0_59:                               @ =>This Inner Loop Header: Depth=1
	@DEBUG_VALUE: spi_tran:byte <- 112
	@DEBUG_VALUE: wr_reg:reg <- -24
	@DEBUG_VALUE: wr_reg:val <- 56
	@DEBUG_VALUE: wr_cmd:cmd <- -24
	.loc	2 128 27                        @ C:/Users/dakum/AppData/Local/Arm/Packs/Keil/V2M-MPS2_IOTKit_BSP/1.5.1/Boards/ARM/V2M-MPS2/Common/GLCD_V2M-MPS2.c:128:27
	ldr	r6, [r0, #4]
	.loc	2 128 3 is_stmt 0               @ C:/Users/dakum/AppData/Local/Arm/Packs/Keil/V2M-MPS2_IOTKit_BSP/1.5.1/Boards/ARM/V2M-MPS2/Common/GLCD_V2M-MPS2.c:128:3
	lsls	r6, r6, #29
	bpl	.LBB0_59
.Ltmp106:
@ %bb.60:
	@DEBUG_VALUE: spi_tran:byte <- 112
	@DEBUG_VALUE: wr_reg:reg <- -24
	@DEBUG_VALUE: wr_reg:val <- 56
	@DEBUG_VALUE: wr_cmd:cmd <- -24
	.loc	2 129 35 is_stmt 1              @ C:/Users/dakum/AppData/Local/Arm/Packs/Keil/V2M-MPS2_IOTKit_BSP/1.5.1/Boards/ARM/V2M-MPS2/Common/GLCD_V2M-MPS2.c:129:35
	ldr	r6, [r0]
.Ltmp107:
	@DEBUG_VALUE: spi_tran:byte <- 0
	.loc	2 127 21                        @ C:/Users/dakum/AppData/Local/Arm/Packs/Keil/V2M-MPS2_IOTKit_BSP/1.5.1/Boards/ARM/V2M-MPS2/Common/GLCD_V2M-MPS2.c:127:21
	str	r2, [r0]
.Ltmp108:
.LBB0_61:                               @ =>This Inner Loop Header: Depth=1
	@DEBUG_VALUE: spi_tran:byte <- 0
	@DEBUG_VALUE: wr_reg:reg <- -24
	@DEBUG_VALUE: wr_reg:val <- 56
	@DEBUG_VALUE: wr_cmd:cmd <- -24
	.loc	2 128 27                        @ C:/Users/dakum/AppData/Local/Arm/Packs/Keil/V2M-MPS2_IOTKit_BSP/1.5.1/Boards/ARM/V2M-MPS2/Common/GLCD_V2M-MPS2.c:128:27
	ldr	r6, [r0, #4]
	.loc	2 128 3 is_stmt 0               @ C:/Users/dakum/AppData/Local/Arm/Packs/Keil/V2M-MPS2_IOTKit_BSP/1.5.1/Boards/ARM/V2M-MPS2/Common/GLCD_V2M-MPS2.c:128:3
	lsls	r6, r6, #29
	bpl	.LBB0_61
.Ltmp109:
@ %bb.62:
	@DEBUG_VALUE: spi_tran:byte <- 0
	@DEBUG_VALUE: wr_reg:reg <- -24
	@DEBUG_VALUE: wr_reg:val <- 56
	@DEBUG_VALUE: wr_cmd:cmd <- -24
	.loc	2 129 35 is_stmt 1              @ C:/Users/dakum/AppData/Local/Arm/Packs/Keil/V2M-MPS2_IOTKit_BSP/1.5.1/Boards/ARM/V2M-MPS2/Common/GLCD_V2M-MPS2.c:129:35
	ldr	r6, [r0]
	movs	r6, #232
.Ltmp110:
	@DEBUG_VALUE: spi_tran:byte <- -24
	.loc	2 127 21                        @ C:/Users/dakum/AppData/Local/Arm/Packs/Keil/V2M-MPS2_IOTKit_BSP/1.5.1/Boards/ARM/V2M-MPS2/Common/GLCD_V2M-MPS2.c:127:21
	str	r6, [r0]
.Ltmp111:
.LBB0_63:                               @ =>This Inner Loop Header: Depth=1
	@DEBUG_VALUE: spi_tran:byte <- -24
	@DEBUG_VALUE: wr_reg:reg <- -24
	@DEBUG_VALUE: wr_reg:val <- 56
	@DEBUG_VALUE: wr_cmd:cmd <- -24
	.loc	2 128 27                        @ C:/Users/dakum/AppData/Local/Arm/Packs/Keil/V2M-MPS2_IOTKit_BSP/1.5.1/Boards/ARM/V2M-MPS2/Common/GLCD_V2M-MPS2.c:128:27
	ldr	r6, [r0, #4]
	.loc	2 128 3 is_stmt 0               @ C:/Users/dakum/AppData/Local/Arm/Packs/Keil/V2M-MPS2_IOTKit_BSP/1.5.1/Boards/ARM/V2M-MPS2/Common/GLCD_V2M-MPS2.c:128:3
	lsls	r6, r6, #29
	bpl	.LBB0_63
.Ltmp112:
@ %bb.64:
	@DEBUG_VALUE: spi_tran:byte <- -24
	@DEBUG_VALUE: wr_reg:reg <- -24
	@DEBUG_VALUE: wr_reg:val <- 56
	@DEBUG_VALUE: wr_cmd:cmd <- -24
	.loc	2 129 35 is_stmt 1              @ C:/Users/dakum/AppData/Local/Arm/Packs/Keil/V2M-MPS2_IOTKit_BSP/1.5.1/Boards/ARM/V2M-MPS2/Common/GLCD_V2M-MPS2.c:129:35
	ldr	r6, [r0]
.Ltmp113:
	.loc	2 142 3                         @ C:/Users/dakum/AppData/Local/Arm/Packs/Keil/V2M-MPS2_IOTKit_BSP/1.5.1/Boards/ARM/V2M-MPS2/Common/GLCD_V2M-MPS2.c:142:3
	ldr	r6, [r1]
	orrs	r6, r3
	str	r6, [r1]
.Ltmp114:
	@DEBUG_VALUE: wr_dat:dat <- 56
	.loc	2 151 3                         @ C:/Users/dakum/AppData/Local/Arm/Packs/Keil/V2M-MPS2_IOTKit_BSP/1.5.1/Boards/ARM/V2M-MPS2/Common/GLCD_V2M-MPS2.c:151:3
	ldr	r6, [r1]
	bics	r6, r3
	str	r6, [r1]
.Ltmp115:
	@DEBUG_VALUE: spi_tran:byte <- 114
	.loc	2 127 21                        @ C:/Users/dakum/AppData/Local/Arm/Packs/Keil/V2M-MPS2_IOTKit_BSP/1.5.1/Boards/ARM/V2M-MPS2/Common/GLCD_V2M-MPS2.c:127:21
	str	r7, [r0]
.Ltmp116:
.LBB0_65:                               @ =>This Inner Loop Header: Depth=1
	@DEBUG_VALUE: spi_tran:byte <- 114
	@DEBUG_VALUE: wr_dat:dat <- 56
	@DEBUG_VALUE: wr_reg:reg <- -24
	@DEBUG_VALUE: wr_reg:val <- 56
	.loc	2 128 27                        @ C:/Users/dakum/AppData/Local/Arm/Packs/Keil/V2M-MPS2_IOTKit_BSP/1.5.1/Boards/ARM/V2M-MPS2/Common/GLCD_V2M-MPS2.c:128:27
	ldr	r6, [r0, #4]
	.loc	2 128 3 is_stmt 0               @ C:/Users/dakum/AppData/Local/Arm/Packs/Keil/V2M-MPS2_IOTKit_BSP/1.5.1/Boards/ARM/V2M-MPS2/Common/GLCD_V2M-MPS2.c:128:3
	lsls	r6, r6, #29
	bpl	.LBB0_65
.Ltmp117:
@ %bb.66:
	@DEBUG_VALUE: spi_tran:byte <- 114
	@DEBUG_VALUE: wr_dat:dat <- 56
	@DEBUG_VALUE: wr_reg:reg <- -24
	@DEBUG_VALUE: wr_reg:val <- 56
	.loc	2 129 35 is_stmt 1              @ C:/Users/dakum/AppData/Local/Arm/Packs/Keil/V2M-MPS2_IOTKit_BSP/1.5.1/Boards/ARM/V2M-MPS2/Common/GLCD_V2M-MPS2.c:129:35
	ldr	r6, [r0]
.Ltmp118:
	@DEBUG_VALUE: spi_tran:byte <- 0
	.loc	2 127 21                        @ C:/Users/dakum/AppData/Local/Arm/Packs/Keil/V2M-MPS2_IOTKit_BSP/1.5.1/Boards/ARM/V2M-MPS2/Common/GLCD_V2M-MPS2.c:127:21
	str	r2, [r0]
.Ltmp119:
.LBB0_67:                               @ =>This Inner Loop Header: Depth=1
	@DEBUG_VALUE: spi_tran:byte <- 0
	@DEBUG_VALUE: wr_dat:dat <- 56
	@DEBUG_VALUE: wr_reg:reg <- -24
	@DEBUG_VALUE: wr_reg:val <- 56
	.loc	2 128 27                        @ C:/Users/dakum/AppData/Local/Arm/Packs/Keil/V2M-MPS2_IOTKit_BSP/1.5.1/Boards/ARM/V2M-MPS2/Common/GLCD_V2M-MPS2.c:128:27
	ldr	r6, [r0, #4]
	.loc	2 128 3 is_stmt 0               @ C:/Users/dakum/AppData/Local/Arm/Packs/Keil/V2M-MPS2_IOTKit_BSP/1.5.1/Boards/ARM/V2M-MPS2/Common/GLCD_V2M-MPS2.c:128:3
	lsls	r6, r6, #29
	bpl	.LBB0_67
.Ltmp120:
@ %bb.68:
	@DEBUG_VALUE: spi_tran:byte <- 0
	@DEBUG_VALUE: wr_dat:dat <- 56
	@DEBUG_VALUE: wr_reg:reg <- -24
	@DEBUG_VALUE: wr_reg:val <- 56
	.loc	2 129 35 is_stmt 1              @ C:/Users/dakum/AppData/Local/Arm/Packs/Keil/V2M-MPS2_IOTKit_BSP/1.5.1/Boards/ARM/V2M-MPS2/Common/GLCD_V2M-MPS2.c:129:35
	ldr	r6, [r0]
	movs	r6, #56
	str	r6, [sp, #36]                   @ 4-byte Spill
.Ltmp121:
	@DEBUG_VALUE: spi_tran:byte <- [DW_OP_stack_value] 56
	.loc	2 127 21                        @ C:/Users/dakum/AppData/Local/Arm/Packs/Keil/V2M-MPS2_IOTKit_BSP/1.5.1/Boards/ARM/V2M-MPS2/Common/GLCD_V2M-MPS2.c:127:21
	str	r6, [r0]
.Ltmp122:
.LBB0_69:                               @ =>This Inner Loop Header: Depth=1
	@DEBUG_VALUE: spi_tran:byte <- [DW_OP_stack_value] 56
	@DEBUG_VALUE: wr_dat:dat <- 56
	@DEBUG_VALUE: wr_reg:reg <- -24
	@DEBUG_VALUE: wr_reg:val <- 56
	.loc	2 128 27                        @ C:/Users/dakum/AppData/Local/Arm/Packs/Keil/V2M-MPS2_IOTKit_BSP/1.5.1/Boards/ARM/V2M-MPS2/Common/GLCD_V2M-MPS2.c:128:27
	ldr	r6, [r0, #4]
	.loc	2 128 3 is_stmt 0               @ C:/Users/dakum/AppData/Local/Arm/Packs/Keil/V2M-MPS2_IOTKit_BSP/1.5.1/Boards/ARM/V2M-MPS2/Common/GLCD_V2M-MPS2.c:128:3
	lsls	r6, r6, #29
	bpl	.LBB0_69
.Ltmp123:
@ %bb.70:
	@DEBUG_VALUE: spi_tran:byte <- [DW_OP_stack_value] 56
	@DEBUG_VALUE: wr_dat:dat <- 56
	@DEBUG_VALUE: wr_reg:reg <- -24
	@DEBUG_VALUE: wr_reg:val <- 56
	.loc	2 129 35 is_stmt 1              @ C:/Users/dakum/AppData/Local/Arm/Packs/Keil/V2M-MPS2_IOTKit_BSP/1.5.1/Boards/ARM/V2M-MPS2/Common/GLCD_V2M-MPS2.c:129:35
	ldr	r6, [r0]
.Ltmp124:
	.loc	2 155 3                         @ C:/Users/dakum/AppData/Local/Arm/Packs/Keil/V2M-MPS2_IOTKit_BSP/1.5.1/Boards/ARM/V2M-MPS2/Common/GLCD_V2M-MPS2.c:155:3
	ldr	r6, [r1]
	orrs	r6, r3
	str	r6, [r1]
.Ltmp125:
	@DEBUG_VALUE: wr_cmd:cmd <- -23
	@DEBUG_VALUE: wr_reg:val <- 16
	@DEBUG_VALUE: wr_reg:reg <- -23
	.loc	2 138 3                         @ C:/Users/dakum/AppData/Local/Arm/Packs/Keil/V2M-MPS2_IOTKit_BSP/1.5.1/Boards/ARM/V2M-MPS2/Common/GLCD_V2M-MPS2.c:138:3
	ldr	r6, [r1]
	bics	r6, r3
	str	r6, [r1]
.Ltmp126:
	@DEBUG_VALUE: spi_tran:byte <- 112
	.loc	2 127 21                        @ C:/Users/dakum/AppData/Local/Arm/Packs/Keil/V2M-MPS2_IOTKit_BSP/1.5.1/Boards/ARM/V2M-MPS2/Common/GLCD_V2M-MPS2.c:127:21
	str	r4, [r0]
.Ltmp127:
.LBB0_71:                               @ =>This Inner Loop Header: Depth=1
	@DEBUG_VALUE: spi_tran:byte <- 112
	@DEBUG_VALUE: wr_reg:reg <- -23
	@DEBUG_VALUE: wr_reg:val <- 16
	@DEBUG_VALUE: wr_cmd:cmd <- -23
	.loc	2 128 27                        @ C:/Users/dakum/AppData/Local/Arm/Packs/Keil/V2M-MPS2_IOTKit_BSP/1.5.1/Boards/ARM/V2M-MPS2/Common/GLCD_V2M-MPS2.c:128:27
	ldr	r6, [r0, #4]
	.loc	2 128 3 is_stmt 0               @ C:/Users/dakum/AppData/Local/Arm/Packs/Keil/V2M-MPS2_IOTKit_BSP/1.5.1/Boards/ARM/V2M-MPS2/Common/GLCD_V2M-MPS2.c:128:3
	lsls	r6, r6, #29
	bpl	.LBB0_71
.Ltmp128:
@ %bb.72:
	@DEBUG_VALUE: spi_tran:byte <- 112
	@DEBUG_VALUE: wr_reg:reg <- -23
	@DEBUG_VALUE: wr_reg:val <- 16
	@DEBUG_VALUE: wr_cmd:cmd <- -23
	.loc	2 129 35 is_stmt 1              @ C:/Users/dakum/AppData/Local/Arm/Packs/Keil/V2M-MPS2_IOTKit_BSP/1.5.1/Boards/ARM/V2M-MPS2/Common/GLCD_V2M-MPS2.c:129:35
	ldr	r6, [r0]
.Ltmp129:
	@DEBUG_VALUE: spi_tran:byte <- 0
	.loc	2 127 21                        @ C:/Users/dakum/AppData/Local/Arm/Packs/Keil/V2M-MPS2_IOTKit_BSP/1.5.1/Boards/ARM/V2M-MPS2/Common/GLCD_V2M-MPS2.c:127:21
	str	r2, [r0]
.Ltmp130:
.LBB0_73:                               @ =>This Inner Loop Header: Depth=1
	@DEBUG_VALUE: spi_tran:byte <- 0
	@DEBUG_VALUE: wr_reg:reg <- -23
	@DEBUG_VALUE: wr_reg:val <- 16
	@DEBUG_VALUE: wr_cmd:cmd <- -23
	.loc	2 128 27                        @ C:/Users/dakum/AppData/Local/Arm/Packs/Keil/V2M-MPS2_IOTKit_BSP/1.5.1/Boards/ARM/V2M-MPS2/Common/GLCD_V2M-MPS2.c:128:27
	ldr	r6, [r0, #4]
	.loc	2 128 3 is_stmt 0               @ C:/Users/dakum/AppData/Local/Arm/Packs/Keil/V2M-MPS2_IOTKit_BSP/1.5.1/Boards/ARM/V2M-MPS2/Common/GLCD_V2M-MPS2.c:128:3
	lsls	r6, r6, #29
	bpl	.LBB0_73
.Ltmp131:
@ %bb.74:
	@DEBUG_VALUE: spi_tran:byte <- 0
	@DEBUG_VALUE: wr_reg:reg <- -23
	@DEBUG_VALUE: wr_reg:val <- 16
	@DEBUG_VALUE: wr_cmd:cmd <- -23
	.loc	2 129 35 is_stmt 1              @ C:/Users/dakum/AppData/Local/Arm/Packs/Keil/V2M-MPS2_IOTKit_BSP/1.5.1/Boards/ARM/V2M-MPS2/Common/GLCD_V2M-MPS2.c:129:35
	ldr	r6, [r0]
	movs	r6, #233
.Ltmp132:
	@DEBUG_VALUE: spi_tran:byte <- -23
	.loc	2 127 21                        @ C:/Users/dakum/AppData/Local/Arm/Packs/Keil/V2M-MPS2_IOTKit_BSP/1.5.1/Boards/ARM/V2M-MPS2/Common/GLCD_V2M-MPS2.c:127:21
	str	r6, [r0]
.Ltmp133:
.LBB0_75:                               @ =>This Inner Loop Header: Depth=1
	@DEBUG_VALUE: spi_tran:byte <- -23
	@DEBUG_VALUE: wr_reg:reg <- -23
	@DEBUG_VALUE: wr_reg:val <- 16
	@DEBUG_VALUE: wr_cmd:cmd <- -23
	.loc	2 128 27                        @ C:/Users/dakum/AppData/Local/Arm/Packs/Keil/V2M-MPS2_IOTKit_BSP/1.5.1/Boards/ARM/V2M-MPS2/Common/GLCD_V2M-MPS2.c:128:27
	ldr	r6, [r0, #4]
	.loc	2 128 3 is_stmt 0               @ C:/Users/dakum/AppData/Local/Arm/Packs/Keil/V2M-MPS2_IOTKit_BSP/1.5.1/Boards/ARM/V2M-MPS2/Common/GLCD_V2M-MPS2.c:128:3
	lsls	r6, r6, #29
	bpl	.LBB0_75
.Ltmp134:
@ %bb.76:
	@DEBUG_VALUE: spi_tran:byte <- -23
	@DEBUG_VALUE: wr_reg:reg <- -23
	@DEBUG_VALUE: wr_reg:val <- 16
	@DEBUG_VALUE: wr_cmd:cmd <- -23
	.loc	2 129 35 is_stmt 1              @ C:/Users/dakum/AppData/Local/Arm/Packs/Keil/V2M-MPS2_IOTKit_BSP/1.5.1/Boards/ARM/V2M-MPS2/Common/GLCD_V2M-MPS2.c:129:35
	ldr	r6, [r0]
.Ltmp135:
	.loc	2 142 3                         @ C:/Users/dakum/AppData/Local/Arm/Packs/Keil/V2M-MPS2_IOTKit_BSP/1.5.1/Boards/ARM/V2M-MPS2/Common/GLCD_V2M-MPS2.c:142:3
	ldr	r6, [r1]
	orrs	r6, r3
	str	r6, [r1]
.Ltmp136:
	@DEBUG_VALUE: wr_dat:dat <- 16
	.loc	2 151 3                         @ C:/Users/dakum/AppData/Local/Arm/Packs/Keil/V2M-MPS2_IOTKit_BSP/1.5.1/Boards/ARM/V2M-MPS2/Common/GLCD_V2M-MPS2.c:151:3
	ldr	r6, [r1]
	bics	r6, r3
	str	r6, [r1]
.Ltmp137:
	@DEBUG_VALUE: spi_tran:byte <- 114
	.loc	2 127 21                        @ C:/Users/dakum/AppData/Local/Arm/Packs/Keil/V2M-MPS2_IOTKit_BSP/1.5.1/Boards/ARM/V2M-MPS2/Common/GLCD_V2M-MPS2.c:127:21
	str	r7, [r0]
.Ltmp138:
.LBB0_77:                               @ =>This Inner Loop Header: Depth=1
	@DEBUG_VALUE: spi_tran:byte <- 114
	@DEBUG_VALUE: wr_dat:dat <- 16
	@DEBUG_VALUE: wr_reg:reg <- -23
	@DEBUG_VALUE: wr_reg:val <- 16
	.loc	2 128 27                        @ C:/Users/dakum/AppData/Local/Arm/Packs/Keil/V2M-MPS2_IOTKit_BSP/1.5.1/Boards/ARM/V2M-MPS2/Common/GLCD_V2M-MPS2.c:128:27
	ldr	r6, [r0, #4]
	.loc	2 128 3 is_stmt 0               @ C:/Users/dakum/AppData/Local/Arm/Packs/Keil/V2M-MPS2_IOTKit_BSP/1.5.1/Boards/ARM/V2M-MPS2/Common/GLCD_V2M-MPS2.c:128:3
	lsls	r6, r6, #29
	bpl	.LBB0_77
.Ltmp139:
@ %bb.78:
	@DEBUG_VALUE: spi_tran:byte <- 114
	@DEBUG_VALUE: wr_dat:dat <- 16
	@DEBUG_VALUE: wr_reg:reg <- -23
	@DEBUG_VALUE: wr_reg:val <- 16
	.loc	2 129 35 is_stmt 1              @ C:/Users/dakum/AppData/Local/Arm/Packs/Keil/V2M-MPS2_IOTKit_BSP/1.5.1/Boards/ARM/V2M-MPS2/Common/GLCD_V2M-MPS2.c:129:35
	ldr	r6, [r0]
.Ltmp140:
	@DEBUG_VALUE: spi_tran:byte <- 0
	.loc	2 127 21                        @ C:/Users/dakum/AppData/Local/Arm/Packs/Keil/V2M-MPS2_IOTKit_BSP/1.5.1/Boards/ARM/V2M-MPS2/Common/GLCD_V2M-MPS2.c:127:21
	str	r2, [r0]
.Ltmp141:
.LBB0_79:                               @ =>This Inner Loop Header: Depth=1
	@DEBUG_VALUE: spi_tran:byte <- 0
	@DEBUG_VALUE: wr_dat:dat <- 16
	@DEBUG_VALUE: wr_reg:reg <- -23
	@DEBUG_VALUE: wr_reg:val <- 16
	.loc	2 128 27                        @ C:/Users/dakum/AppData/Local/Arm/Packs/Keil/V2M-MPS2_IOTKit_BSP/1.5.1/Boards/ARM/V2M-MPS2/Common/GLCD_V2M-MPS2.c:128:27
	ldr	r6, [r0, #4]
	.loc	2 128 3 is_stmt 0               @ C:/Users/dakum/AppData/Local/Arm/Packs/Keil/V2M-MPS2_IOTKit_BSP/1.5.1/Boards/ARM/V2M-MPS2/Common/GLCD_V2M-MPS2.c:128:3
	lsls	r6, r6, #29
	bpl	.LBB0_79
.Ltmp142:
@ %bb.80:
	@DEBUG_VALUE: spi_tran:byte <- 0
	@DEBUG_VALUE: wr_dat:dat <- 16
	@DEBUG_VALUE: wr_reg:reg <- -23
	@DEBUG_VALUE: wr_reg:val <- 16
	.loc	2 129 35 is_stmt 1              @ C:/Users/dakum/AppData/Local/Arm/Packs/Keil/V2M-MPS2_IOTKit_BSP/1.5.1/Boards/ARM/V2M-MPS2/Common/GLCD_V2M-MPS2.c:129:35
	ldr	r6, [r0]
	movs	r6, #16
	str	r6, [sp, #56]                   @ 4-byte Spill
.Ltmp143:
	@DEBUG_VALUE: spi_tran:byte <- [DW_OP_stack_value] 16
	.loc	2 127 21                        @ C:/Users/dakum/AppData/Local/Arm/Packs/Keil/V2M-MPS2_IOTKit_BSP/1.5.1/Boards/ARM/V2M-MPS2/Common/GLCD_V2M-MPS2.c:127:21
	str	r6, [r0]
.Ltmp144:
.LBB0_81:                               @ =>This Inner Loop Header: Depth=1
	@DEBUG_VALUE: spi_tran:byte <- [DW_OP_stack_value] 16
	@DEBUG_VALUE: wr_dat:dat <- 16
	@DEBUG_VALUE: wr_reg:reg <- -23
	@DEBUG_VALUE: wr_reg:val <- 16
	.loc	2 128 27                        @ C:/Users/dakum/AppData/Local/Arm/Packs/Keil/V2M-MPS2_IOTKit_BSP/1.5.1/Boards/ARM/V2M-MPS2/Common/GLCD_V2M-MPS2.c:128:27
	ldr	r6, [r0, #4]
	.loc	2 128 3 is_stmt 0               @ C:/Users/dakum/AppData/Local/Arm/Packs/Keil/V2M-MPS2_IOTKit_BSP/1.5.1/Boards/ARM/V2M-MPS2/Common/GLCD_V2M-MPS2.c:128:3
	lsls	r6, r6, #29
	bpl	.LBB0_81
.Ltmp145:
@ %bb.82:
	@DEBUG_VALUE: spi_tran:byte <- [DW_OP_stack_value] 16
	@DEBUG_VALUE: wr_dat:dat <- 16
	@DEBUG_VALUE: wr_reg:reg <- -23
	@DEBUG_VALUE: wr_reg:val <- 16
	.loc	2 129 35 is_stmt 1              @ C:/Users/dakum/AppData/Local/Arm/Packs/Keil/V2M-MPS2_IOTKit_BSP/1.5.1/Boards/ARM/V2M-MPS2/Common/GLCD_V2M-MPS2.c:129:35
	ldr	r6, [r0]
.Ltmp146:
	.loc	2 155 3                         @ C:/Users/dakum/AppData/Local/Arm/Packs/Keil/V2M-MPS2_IOTKit_BSP/1.5.1/Boards/ARM/V2M-MPS2/Common/GLCD_V2M-MPS2.c:155:3
	ldr	r6, [r1]
	orrs	r6, r3
	str	r6, [r1]
.Ltmp147:
	@DEBUG_VALUE: wr_cmd:cmd <- -15
	@DEBUG_VALUE: wr_reg:val <- 1
	@DEBUG_VALUE: wr_reg:reg <- -15
	.loc	2 138 3                         @ C:/Users/dakum/AppData/Local/Arm/Packs/Keil/V2M-MPS2_IOTKit_BSP/1.5.1/Boards/ARM/V2M-MPS2/Common/GLCD_V2M-MPS2.c:138:3
	ldr	r6, [r1]
	bics	r6, r3
	str	r6, [r1]
.Ltmp148:
	@DEBUG_VALUE: spi_tran:byte <- 112
	.loc	2 127 21                        @ C:/Users/dakum/AppData/Local/Arm/Packs/Keil/V2M-MPS2_IOTKit_BSP/1.5.1/Boards/ARM/V2M-MPS2/Common/GLCD_V2M-MPS2.c:127:21
	str	r4, [r0]
.Ltmp149:
.LBB0_83:                               @ =>This Inner Loop Header: Depth=1
	@DEBUG_VALUE: spi_tran:byte <- 112
	@DEBUG_VALUE: wr_reg:reg <- -15
	@DEBUG_VALUE: wr_reg:val <- 1
	@DEBUG_VALUE: wr_cmd:cmd <- -15
	.loc	2 128 27                        @ C:/Users/dakum/AppData/Local/Arm/Packs/Keil/V2M-MPS2_IOTKit_BSP/1.5.1/Boards/ARM/V2M-MPS2/Common/GLCD_V2M-MPS2.c:128:27
	ldr	r6, [r0, #4]
	.loc	2 128 3 is_stmt 0               @ C:/Users/dakum/AppData/Local/Arm/Packs/Keil/V2M-MPS2_IOTKit_BSP/1.5.1/Boards/ARM/V2M-MPS2/Common/GLCD_V2M-MPS2.c:128:3
	lsls	r6, r6, #29
	bpl	.LBB0_83
.Ltmp150:
@ %bb.84:
	@DEBUG_VALUE: spi_tran:byte <- 112
	@DEBUG_VALUE: wr_reg:reg <- -15
	@DEBUG_VALUE: wr_reg:val <- 1
	@DEBUG_VALUE: wr_cmd:cmd <- -15
	.loc	2 129 35 is_stmt 1              @ C:/Users/dakum/AppData/Local/Arm/Packs/Keil/V2M-MPS2_IOTKit_BSP/1.5.1/Boards/ARM/V2M-MPS2/Common/GLCD_V2M-MPS2.c:129:35
	ldr	r6, [r0]
.Ltmp151:
	@DEBUG_VALUE: spi_tran:byte <- 0
	.loc	2 127 21                        @ C:/Users/dakum/AppData/Local/Arm/Packs/Keil/V2M-MPS2_IOTKit_BSP/1.5.1/Boards/ARM/V2M-MPS2/Common/GLCD_V2M-MPS2.c:127:21
	str	r2, [r0]
.Ltmp152:
.LBB0_85:                               @ =>This Inner Loop Header: Depth=1
	@DEBUG_VALUE: spi_tran:byte <- 0
	@DEBUG_VALUE: wr_reg:reg <- -15
	@DEBUG_VALUE: wr_reg:val <- 1
	@DEBUG_VALUE: wr_cmd:cmd <- -15
	.loc	2 128 27                        @ C:/Users/dakum/AppData/Local/Arm/Packs/Keil/V2M-MPS2_IOTKit_BSP/1.5.1/Boards/ARM/V2M-MPS2/Common/GLCD_V2M-MPS2.c:128:27
	ldr	r6, [r0, #4]
	.loc	2 128 3 is_stmt 0               @ C:/Users/dakum/AppData/Local/Arm/Packs/Keil/V2M-MPS2_IOTKit_BSP/1.5.1/Boards/ARM/V2M-MPS2/Common/GLCD_V2M-MPS2.c:128:3
	lsls	r6, r6, #29
	bpl	.LBB0_85
.Ltmp153:
@ %bb.86:
	@DEBUG_VALUE: spi_tran:byte <- 0
	@DEBUG_VALUE: wr_reg:reg <- -15
	@DEBUG_VALUE: wr_reg:val <- 1
	@DEBUG_VALUE: wr_cmd:cmd <- -15
	.loc	2 129 35 is_stmt 1              @ C:/Users/dakum/AppData/Local/Arm/Packs/Keil/V2M-MPS2_IOTKit_BSP/1.5.1/Boards/ARM/V2M-MPS2/Common/GLCD_V2M-MPS2.c:129:35
	ldr	r6, [r0]
	movs	r6, #241
.Ltmp154:
	@DEBUG_VALUE: spi_tran:byte <- -15
	.loc	2 127 21                        @ C:/Users/dakum/AppData/Local/Arm/Packs/Keil/V2M-MPS2_IOTKit_BSP/1.5.1/Boards/ARM/V2M-MPS2/Common/GLCD_V2M-MPS2.c:127:21
	str	r6, [r0]
.Ltmp155:
.LBB0_87:                               @ =>This Inner Loop Header: Depth=1
	@DEBUG_VALUE: spi_tran:byte <- -15
	@DEBUG_VALUE: wr_reg:reg <- -15
	@DEBUG_VALUE: wr_reg:val <- 1
	@DEBUG_VALUE: wr_cmd:cmd <- -15
	.loc	2 128 27                        @ C:/Users/dakum/AppData/Local/Arm/Packs/Keil/V2M-MPS2_IOTKit_BSP/1.5.1/Boards/ARM/V2M-MPS2/Common/GLCD_V2M-MPS2.c:128:27
	ldr	r6, [r0, #4]
	.loc	2 128 3 is_stmt 0               @ C:/Users/dakum/AppData/Local/Arm/Packs/Keil/V2M-MPS2_IOTKit_BSP/1.5.1/Boards/ARM/V2M-MPS2/Common/GLCD_V2M-MPS2.c:128:3
	lsls	r6, r6, #29
	bpl	.LBB0_87
.Ltmp156:
@ %bb.88:
	@DEBUG_VALUE: spi_tran:byte <- -15
	@DEBUG_VALUE: wr_reg:reg <- -15
	@DEBUG_VALUE: wr_reg:val <- 1
	@DEBUG_VALUE: wr_cmd:cmd <- -15
	.loc	2 129 35 is_stmt 1              @ C:/Users/dakum/AppData/Local/Arm/Packs/Keil/V2M-MPS2_IOTKit_BSP/1.5.1/Boards/ARM/V2M-MPS2/Common/GLCD_V2M-MPS2.c:129:35
	ldr	r6, [r0]
.Ltmp157:
	.loc	2 142 3                         @ C:/Users/dakum/AppData/Local/Arm/Packs/Keil/V2M-MPS2_IOTKit_BSP/1.5.1/Boards/ARM/V2M-MPS2/Common/GLCD_V2M-MPS2.c:142:3
	ldr	r6, [r1]
	orrs	r6, r3
	str	r6, [r1]
.Ltmp158:
	@DEBUG_VALUE: wr_dat:dat <- 1
	.loc	2 151 3                         @ C:/Users/dakum/AppData/Local/Arm/Packs/Keil/V2M-MPS2_IOTKit_BSP/1.5.1/Boards/ARM/V2M-MPS2/Common/GLCD_V2M-MPS2.c:151:3
	ldr	r6, [r1]
	bics	r6, r3
	str	r6, [r1]
.Ltmp159:
	@DEBUG_VALUE: spi_tran:byte <- 114
	.loc	2 127 21                        @ C:/Users/dakum/AppData/Local/Arm/Packs/Keil/V2M-MPS2_IOTKit_BSP/1.5.1/Boards/ARM/V2M-MPS2/Common/GLCD_V2M-MPS2.c:127:21
	str	r7, [r0]
.Ltmp160:
.LBB0_89:                               @ =>This Inner Loop Header: Depth=1
	@DEBUG_VALUE: spi_tran:byte <- 114
	@DEBUG_VALUE: wr_dat:dat <- 1
	@DEBUG_VALUE: wr_reg:reg <- -15
	@DEBUG_VALUE: wr_reg:val <- 1
	.loc	2 128 27                        @ C:/Users/dakum/AppData/Local/Arm/Packs/Keil/V2M-MPS2_IOTKit_BSP/1.5.1/Boards/ARM/V2M-MPS2/Common/GLCD_V2M-MPS2.c:128:27
	ldr	r6, [r0, #4]
	.loc	2 128 3 is_stmt 0               @ C:/Users/dakum/AppData/Local/Arm/Packs/Keil/V2M-MPS2_IOTKit_BSP/1.5.1/Boards/ARM/V2M-MPS2/Common/GLCD_V2M-MPS2.c:128:3
	lsls	r6, r6, #29
	bpl	.LBB0_89
.Ltmp161:
@ %bb.90:
	@DEBUG_VALUE: spi_tran:byte <- 114
	@DEBUG_VALUE: wr_dat:dat <- 1
	@DEBUG_VALUE: wr_reg:reg <- -15
	@DEBUG_VALUE: wr_reg:val <- 1
	.loc	2 129 35 is_stmt 1              @ C:/Users/dakum/AppData/Local/Arm/Packs/Keil/V2M-MPS2_IOTKit_BSP/1.5.1/Boards/ARM/V2M-MPS2/Common/GLCD_V2M-MPS2.c:129:35
	ldr	r6, [r0]
.Ltmp162:
	@DEBUG_VALUE: spi_tran:byte <- 0
	.loc	2 127 21                        @ C:/Users/dakum/AppData/Local/Arm/Packs/Keil/V2M-MPS2_IOTKit_BSP/1.5.1/Boards/ARM/V2M-MPS2/Common/GLCD_V2M-MPS2.c:127:21
	str	r2, [r0]
.Ltmp163:
.LBB0_91:                               @ =>This Inner Loop Header: Depth=1
	@DEBUG_VALUE: spi_tran:byte <- 0
	@DEBUG_VALUE: wr_dat:dat <- 1
	@DEBUG_VALUE: wr_reg:reg <- -15
	@DEBUG_VALUE: wr_reg:val <- 1
	.loc	2 128 27                        @ C:/Users/dakum/AppData/Local/Arm/Packs/Keil/V2M-MPS2_IOTKit_BSP/1.5.1/Boards/ARM/V2M-MPS2/Common/GLCD_V2M-MPS2.c:128:27
	ldr	r6, [r0, #4]
	.loc	2 128 3 is_stmt 0               @ C:/Users/dakum/AppData/Local/Arm/Packs/Keil/V2M-MPS2_IOTKit_BSP/1.5.1/Boards/ARM/V2M-MPS2/Common/GLCD_V2M-MPS2.c:128:3
	lsls	r6, r6, #29
	bpl	.LBB0_91
.Ltmp164:
@ %bb.92:
	@DEBUG_VALUE: spi_tran:byte <- 0
	@DEBUG_VALUE: wr_dat:dat <- 1
	@DEBUG_VALUE: wr_reg:reg <- -15
	@DEBUG_VALUE: wr_reg:val <- 1
	.loc	2 129 35 is_stmt 1              @ C:/Users/dakum/AppData/Local/Arm/Packs/Keil/V2M-MPS2_IOTKit_BSP/1.5.1/Boards/ARM/V2M-MPS2/Common/GLCD_V2M-MPS2.c:129:35
	ldr	r6, [r0]
.Ltmp165:
	@DEBUG_VALUE: spi_tran:byte <- [DW_OP_stack_value] 1
	.loc	2 127 21                        @ C:/Users/dakum/AppData/Local/Arm/Packs/Keil/V2M-MPS2_IOTKit_BSP/1.5.1/Boards/ARM/V2M-MPS2/Common/GLCD_V2M-MPS2.c:127:21
	str	r3, [r0]
.Ltmp166:
.LBB0_93:                               @ =>This Inner Loop Header: Depth=1
	@DEBUG_VALUE: spi_tran:byte <- [DW_OP_stack_value] 1
	@DEBUG_VALUE: wr_dat:dat <- 1
	@DEBUG_VALUE: wr_reg:reg <- -15
	@DEBUG_VALUE: wr_reg:val <- 1
	.loc	2 128 27                        @ C:/Users/dakum/AppData/Local/Arm/Packs/Keil/V2M-MPS2_IOTKit_BSP/1.5.1/Boards/ARM/V2M-MPS2/Common/GLCD_V2M-MPS2.c:128:27
	ldr	r6, [r0, #4]
	.loc	2 128 3 is_stmt 0               @ C:/Users/dakum/AppData/Local/Arm/Packs/Keil/V2M-MPS2_IOTKit_BSP/1.5.1/Boards/ARM/V2M-MPS2/Common/GLCD_V2M-MPS2.c:128:3
	lsls	r6, r6, #29
	bpl	.LBB0_93
.Ltmp167:
@ %bb.94:
	@DEBUG_VALUE: spi_tran:byte <- [DW_OP_stack_value] 1
	@DEBUG_VALUE: wr_dat:dat <- 1
	@DEBUG_VALUE: wr_reg:reg <- -15
	@DEBUG_VALUE: wr_reg:val <- 1
	.loc	2 129 35 is_stmt 1              @ C:/Users/dakum/AppData/Local/Arm/Packs/Keil/V2M-MPS2_IOTKit_BSP/1.5.1/Boards/ARM/V2M-MPS2/Common/GLCD_V2M-MPS2.c:129:35
	ldr	r6, [r0]
.Ltmp168:
	.loc	2 155 3                         @ C:/Users/dakum/AppData/Local/Arm/Packs/Keil/V2M-MPS2_IOTKit_BSP/1.5.1/Boards/ARM/V2M-MPS2/Common/GLCD_V2M-MPS2.c:155:3
	ldr	r6, [r1]
	orrs	r6, r3
	str	r6, [r1]
.Ltmp169:
	@DEBUG_VALUE: wr_cmd:cmd <- -14
	@DEBUG_VALUE: wr_reg:val <- 16
	@DEBUG_VALUE: wr_reg:reg <- -14
	.loc	2 138 3                         @ C:/Users/dakum/AppData/Local/Arm/Packs/Keil/V2M-MPS2_IOTKit_BSP/1.5.1/Boards/ARM/V2M-MPS2/Common/GLCD_V2M-MPS2.c:138:3
	ldr	r6, [r1]
	bics	r6, r3
	str	r6, [r1]
.Ltmp170:
	@DEBUG_VALUE: spi_tran:byte <- 112
	.loc	2 127 21                        @ C:/Users/dakum/AppData/Local/Arm/Packs/Keil/V2M-MPS2_IOTKit_BSP/1.5.1/Boards/ARM/V2M-MPS2/Common/GLCD_V2M-MPS2.c:127:21
	str	r4, [r0]
.Ltmp171:
.LBB0_95:                               @ =>This Inner Loop Header: Depth=1
	@DEBUG_VALUE: spi_tran:byte <- 112
	@DEBUG_VALUE: wr_reg:reg <- -14
	@DEBUG_VALUE: wr_reg:val <- 16
	@DEBUG_VALUE: wr_cmd:cmd <- -14
	.loc	2 128 27                        @ C:/Users/dakum/AppData/Local/Arm/Packs/Keil/V2M-MPS2_IOTKit_BSP/1.5.1/Boards/ARM/V2M-MPS2/Common/GLCD_V2M-MPS2.c:128:27
	ldr	r6, [r0, #4]
	.loc	2 128 3 is_stmt 0               @ C:/Users/dakum/AppData/Local/Arm/Packs/Keil/V2M-MPS2_IOTKit_BSP/1.5.1/Boards/ARM/V2M-MPS2/Common/GLCD_V2M-MPS2.c:128:3
	lsls	r6, r6, #29
	bpl	.LBB0_95
.Ltmp172:
@ %bb.96:
	@DEBUG_VALUE: spi_tran:byte <- 112
	@DEBUG_VALUE: wr_reg:reg <- -14
	@DEBUG_VALUE: wr_reg:val <- 16
	@DEBUG_VALUE: wr_cmd:cmd <- -14
	.loc	2 129 35 is_stmt 1              @ C:/Users/dakum/AppData/Local/Arm/Packs/Keil/V2M-MPS2_IOTKit_BSP/1.5.1/Boards/ARM/V2M-MPS2/Common/GLCD_V2M-MPS2.c:129:35
	ldr	r6, [r0]
.Ltmp173:
	@DEBUG_VALUE: spi_tran:byte <- 0
	.loc	2 127 21                        @ C:/Users/dakum/AppData/Local/Arm/Packs/Keil/V2M-MPS2_IOTKit_BSP/1.5.1/Boards/ARM/V2M-MPS2/Common/GLCD_V2M-MPS2.c:127:21
	str	r2, [r0]
.Ltmp174:
.LBB0_97:                               @ =>This Inner Loop Header: Depth=1
	@DEBUG_VALUE: spi_tran:byte <- 0
	@DEBUG_VALUE: wr_reg:reg <- -14
	@DEBUG_VALUE: wr_reg:val <- 16
	@DEBUG_VALUE: wr_cmd:cmd <- -14
	.loc	2 128 27                        @ C:/Users/dakum/AppData/Local/Arm/Packs/Keil/V2M-MPS2_IOTKit_BSP/1.5.1/Boards/ARM/V2M-MPS2/Common/GLCD_V2M-MPS2.c:128:27
	ldr	r6, [r0, #4]
	.loc	2 128 3 is_stmt 0               @ C:/Users/dakum/AppData/Local/Arm/Packs/Keil/V2M-MPS2_IOTKit_BSP/1.5.1/Boards/ARM/V2M-MPS2/Common/GLCD_V2M-MPS2.c:128:3
	lsls	r6, r6, #29
	bpl	.LBB0_97
.Ltmp175:
@ %bb.98:
	@DEBUG_VALUE: spi_tran:byte <- 0
	@DEBUG_VALUE: wr_reg:reg <- -14
	@DEBUG_VALUE: wr_reg:val <- 16
	@DEBUG_VALUE: wr_cmd:cmd <- -14
	.loc	2 129 35 is_stmt 1              @ C:/Users/dakum/AppData/Local/Arm/Packs/Keil/V2M-MPS2_IOTKit_BSP/1.5.1/Boards/ARM/V2M-MPS2/Common/GLCD_V2M-MPS2.c:129:35
	ldr	r6, [r0]
	movs	r6, #242
.Ltmp176:
	@DEBUG_VALUE: spi_tran:byte <- -14
	.loc	2 127 21                        @ C:/Users/dakum/AppData/Local/Arm/Packs/Keil/V2M-MPS2_IOTKit_BSP/1.5.1/Boards/ARM/V2M-MPS2/Common/GLCD_V2M-MPS2.c:127:21
	str	r6, [r0]
.Ltmp177:
.LBB0_99:                               @ =>This Inner Loop Header: Depth=1
	@DEBUG_VALUE: spi_tran:byte <- -14
	@DEBUG_VALUE: wr_reg:reg <- -14
	@DEBUG_VALUE: wr_reg:val <- 16
	@DEBUG_VALUE: wr_cmd:cmd <- -14
	.loc	2 128 27                        @ C:/Users/dakum/AppData/Local/Arm/Packs/Keil/V2M-MPS2_IOTKit_BSP/1.5.1/Boards/ARM/V2M-MPS2/Common/GLCD_V2M-MPS2.c:128:27
	ldr	r6, [r0, #4]
	.loc	2 128 3 is_stmt 0               @ C:/Users/dakum/AppData/Local/Arm/Packs/Keil/V2M-MPS2_IOTKit_BSP/1.5.1/Boards/ARM/V2M-MPS2/Common/GLCD_V2M-MPS2.c:128:3
	lsls	r6, r6, #29
	bpl	.LBB0_99
.Ltmp178:
@ %bb.100:
	@DEBUG_VALUE: spi_tran:byte <- -14
	@DEBUG_VALUE: wr_reg:reg <- -14
	@DEBUG_VALUE: wr_reg:val <- 16
	@DEBUG_VALUE: wr_cmd:cmd <- -14
	.loc	2 129 35 is_stmt 1              @ C:/Users/dakum/AppData/Local/Arm/Packs/Keil/V2M-MPS2_IOTKit_BSP/1.5.1/Boards/ARM/V2M-MPS2/Common/GLCD_V2M-MPS2.c:129:35
	ldr	r6, [r0]
.Ltmp179:
	.loc	2 142 3                         @ C:/Users/dakum/AppData/Local/Arm/Packs/Keil/V2M-MPS2_IOTKit_BSP/1.5.1/Boards/ARM/V2M-MPS2/Common/GLCD_V2M-MPS2.c:142:3
	ldr	r6, [r1]
	orrs	r6, r3
	str	r6, [r1]
.Ltmp180:
	@DEBUG_VALUE: wr_dat:dat <- 16
	.loc	2 151 3                         @ C:/Users/dakum/AppData/Local/Arm/Packs/Keil/V2M-MPS2_IOTKit_BSP/1.5.1/Boards/ARM/V2M-MPS2/Common/GLCD_V2M-MPS2.c:151:3
	ldr	r6, [r1]
	bics	r6, r3
	str	r6, [r1]
.Ltmp181:
	@DEBUG_VALUE: spi_tran:byte <- 114
	.loc	2 127 21                        @ C:/Users/dakum/AppData/Local/Arm/Packs/Keil/V2M-MPS2_IOTKit_BSP/1.5.1/Boards/ARM/V2M-MPS2/Common/GLCD_V2M-MPS2.c:127:21
	str	r7, [r0]
.Ltmp182:
.LBB0_101:                              @ =>This Inner Loop Header: Depth=1
	@DEBUG_VALUE: spi_tran:byte <- 114
	@DEBUG_VALUE: wr_dat:dat <- 16
	@DEBUG_VALUE: wr_reg:reg <- -14
	@DEBUG_VALUE: wr_reg:val <- 16
	.loc	2 128 27                        @ C:/Users/dakum/AppData/Local/Arm/Packs/Keil/V2M-MPS2_IOTKit_BSP/1.5.1/Boards/ARM/V2M-MPS2/Common/GLCD_V2M-MPS2.c:128:27
	ldr	r6, [r0, #4]
	.loc	2 128 3 is_stmt 0               @ C:/Users/dakum/AppData/Local/Arm/Packs/Keil/V2M-MPS2_IOTKit_BSP/1.5.1/Boards/ARM/V2M-MPS2/Common/GLCD_V2M-MPS2.c:128:3
	lsls	r6, r6, #29
	bpl	.LBB0_101
.Ltmp183:
@ %bb.102:
	@DEBUG_VALUE: spi_tran:byte <- 114
	@DEBUG_VALUE: wr_dat:dat <- 16
	@DEBUG_VALUE: wr_reg:reg <- -14
	@DEBUG_VALUE: wr_reg:val <- 16
	.loc	2 129 35 is_stmt 1              @ C:/Users/dakum/AppData/Local/Arm/Packs/Keil/V2M-MPS2_IOTKit_BSP/1.5.1/Boards/ARM/V2M-MPS2/Common/GLCD_V2M-MPS2.c:129:35
	ldr	r6, [r0]
.Ltmp184:
	@DEBUG_VALUE: spi_tran:byte <- 0
	.loc	2 127 21                        @ C:/Users/dakum/AppData/Local/Arm/Packs/Keil/V2M-MPS2_IOTKit_BSP/1.5.1/Boards/ARM/V2M-MPS2/Common/GLCD_V2M-MPS2.c:127:21
	str	r2, [r0]
.Ltmp185:
.LBB0_103:                              @ =>This Inner Loop Header: Depth=1
	@DEBUG_VALUE: spi_tran:byte <- 0
	@DEBUG_VALUE: wr_dat:dat <- 16
	@DEBUG_VALUE: wr_reg:reg <- -14
	@DEBUG_VALUE: wr_reg:val <- 16
	.loc	2 128 27                        @ C:/Users/dakum/AppData/Local/Arm/Packs/Keil/V2M-MPS2_IOTKit_BSP/1.5.1/Boards/ARM/V2M-MPS2/Common/GLCD_V2M-MPS2.c:128:27
	ldr	r6, [r0, #4]
	.loc	2 128 3 is_stmt 0               @ C:/Users/dakum/AppData/Local/Arm/Packs/Keil/V2M-MPS2_IOTKit_BSP/1.5.1/Boards/ARM/V2M-MPS2/Common/GLCD_V2M-MPS2.c:128:3
	lsls	r6, r6, #29
	bpl	.LBB0_103
.Ltmp186:
@ %bb.104:
	@DEBUG_VALUE: spi_tran:byte <- 0
	@DEBUG_VALUE: wr_dat:dat <- 16
	@DEBUG_VALUE: wr_reg:reg <- -14
	@DEBUG_VALUE: wr_reg:val <- 16
	.loc	2 129 35 is_stmt 1              @ C:/Users/dakum/AppData/Local/Arm/Packs/Keil/V2M-MPS2_IOTKit_BSP/1.5.1/Boards/ARM/V2M-MPS2/Common/GLCD_V2M-MPS2.c:129:35
	ldr	r6, [r0]
.Ltmp187:
	.loc	2 127 21                        @ C:/Users/dakum/AppData/Local/Arm/Packs/Keil/V2M-MPS2_IOTKit_BSP/1.5.1/Boards/ARM/V2M-MPS2/Common/GLCD_V2M-MPS2.c:127:21
	ldr	r6, [sp, #56]                   @ 4-byte Reload
.Ltmp188:
	@DEBUG_VALUE: spi_tran:byte <- [DW_OP_stack_value] 16
	str	r6, [r0]
.Ltmp189:
.LBB0_105:                              @ =>This Inner Loop Header: Depth=1
	@DEBUG_VALUE: spi_tran:byte <- [DW_OP_stack_value] 16
	@DEBUG_VALUE: wr_dat:dat <- 16
	@DEBUG_VALUE: wr_reg:reg <- -14
	@DEBUG_VALUE: wr_reg:val <- 16
	.loc	2 128 27                        @ C:/Users/dakum/AppData/Local/Arm/Packs/Keil/V2M-MPS2_IOTKit_BSP/1.5.1/Boards/ARM/V2M-MPS2/Common/GLCD_V2M-MPS2.c:128:27
	ldr	r6, [r0, #4]
	.loc	2 128 3 is_stmt 0               @ C:/Users/dakum/AppData/Local/Arm/Packs/Keil/V2M-MPS2_IOTKit_BSP/1.5.1/Boards/ARM/V2M-MPS2/Common/GLCD_V2M-MPS2.c:128:3
	lsls	r6, r6, #29
	bpl	.LBB0_105
.Ltmp190:
@ %bb.106:
	@DEBUG_VALUE: spi_tran:byte <- [DW_OP_stack_value] 16
	@DEBUG_VALUE: wr_dat:dat <- 16
	@DEBUG_VALUE: wr_reg:reg <- -14
	@DEBUG_VALUE: wr_reg:val <- 16
	.loc	2 129 35 is_stmt 1              @ C:/Users/dakum/AppData/Local/Arm/Packs/Keil/V2M-MPS2_IOTKit_BSP/1.5.1/Boards/ARM/V2M-MPS2/Common/GLCD_V2M-MPS2.c:129:35
	ldr	r6, [r0]
.Ltmp191:
	.loc	2 155 3                         @ C:/Users/dakum/AppData/Local/Arm/Packs/Keil/V2M-MPS2_IOTKit_BSP/1.5.1/Boards/ARM/V2M-MPS2/Common/GLCD_V2M-MPS2.c:155:3
	ldr	r6, [r1]
	orrs	r6, r3
	str	r6, [r1]
.Ltmp192:
	@DEBUG_VALUE: wr_cmd:cmd <- 64
	@DEBUG_VALUE: wr_reg:val <- 1
	@DEBUG_VALUE: wr_reg:reg <- 64
	.loc	2 138 3                         @ C:/Users/dakum/AppData/Local/Arm/Packs/Keil/V2M-MPS2_IOTKit_BSP/1.5.1/Boards/ARM/V2M-MPS2/Common/GLCD_V2M-MPS2.c:138:3
	ldr	r6, [r1]
	bics	r6, r3
	str	r6, [r1]
.Ltmp193:
	@DEBUG_VALUE: spi_tran:byte <- 112
	.loc	2 127 21                        @ C:/Users/dakum/AppData/Local/Arm/Packs/Keil/V2M-MPS2_IOTKit_BSP/1.5.1/Boards/ARM/V2M-MPS2/Common/GLCD_V2M-MPS2.c:127:21
	str	r4, [r0]
.Ltmp194:
.LBB0_107:                              @ =>This Inner Loop Header: Depth=1
	@DEBUG_VALUE: spi_tran:byte <- 112
	@DEBUG_VALUE: wr_reg:reg <- 64
	@DEBUG_VALUE: wr_reg:val <- 1
	@DEBUG_VALUE: wr_cmd:cmd <- 64
	.loc	2 128 27                        @ C:/Users/dakum/AppData/Local/Arm/Packs/Keil/V2M-MPS2_IOTKit_BSP/1.5.1/Boards/ARM/V2M-MPS2/Common/GLCD_V2M-MPS2.c:128:27
	ldr	r6, [r0, #4]
	.loc	2 128 3 is_stmt 0               @ C:/Users/dakum/AppData/Local/Arm/Packs/Keil/V2M-MPS2_IOTKit_BSP/1.5.1/Boards/ARM/V2M-MPS2/Common/GLCD_V2M-MPS2.c:128:3
	lsls	r6, r6, #29
	bpl	.LBB0_107
.Ltmp195:
@ %bb.108:
	@DEBUG_VALUE: spi_tran:byte <- 112
	@DEBUG_VALUE: wr_reg:reg <- 64
	@DEBUG_VALUE: wr_reg:val <- 1
	@DEBUG_VALUE: wr_cmd:cmd <- 64
	.loc	2 129 35 is_stmt 1              @ C:/Users/dakum/AppData/Local/Arm/Packs/Keil/V2M-MPS2_IOTKit_BSP/1.5.1/Boards/ARM/V2M-MPS2/Common/GLCD_V2M-MPS2.c:129:35
	ldr	r6, [r0]
.Ltmp196:
	@DEBUG_VALUE: spi_tran:byte <- 0
	.loc	2 127 21                        @ C:/Users/dakum/AppData/Local/Arm/Packs/Keil/V2M-MPS2_IOTKit_BSP/1.5.1/Boards/ARM/V2M-MPS2/Common/GLCD_V2M-MPS2.c:127:21
	str	r2, [r0]
.Ltmp197:
.LBB0_109:                              @ =>This Inner Loop Header: Depth=1
	@DEBUG_VALUE: spi_tran:byte <- 0
	@DEBUG_VALUE: wr_reg:reg <- 64
	@DEBUG_VALUE: wr_reg:val <- 1
	@DEBUG_VALUE: wr_cmd:cmd <- 64
	.loc	2 128 27                        @ C:/Users/dakum/AppData/Local/Arm/Packs/Keil/V2M-MPS2_IOTKit_BSP/1.5.1/Boards/ARM/V2M-MPS2/Common/GLCD_V2M-MPS2.c:128:27
	ldr	r6, [r0, #4]
	.loc	2 128 3 is_stmt 0               @ C:/Users/dakum/AppData/Local/Arm/Packs/Keil/V2M-MPS2_IOTKit_BSP/1.5.1/Boards/ARM/V2M-MPS2/Common/GLCD_V2M-MPS2.c:128:3
	lsls	r6, r6, #29
	bpl	.LBB0_109
.Ltmp198:
@ %bb.110:
	@DEBUG_VALUE: spi_tran:byte <- 0
	@DEBUG_VALUE: wr_reg:reg <- 64
	@DEBUG_VALUE: wr_reg:val <- 1
	@DEBUG_VALUE: wr_cmd:cmd <- 64
	.loc	2 129 35 is_stmt 1              @ C:/Users/dakum/AppData/Local/Arm/Packs/Keil/V2M-MPS2_IOTKit_BSP/1.5.1/Boards/ARM/V2M-MPS2/Common/GLCD_V2M-MPS2.c:129:35
	ldr	r6, [r0]
	movs	r6, #64
	str	r6, [sp, #40]                   @ 4-byte Spill
.Ltmp199:
	@DEBUG_VALUE: spi_tran:byte <- 64
	.loc	2 127 21                        @ C:/Users/dakum/AppData/Local/Arm/Packs/Keil/V2M-MPS2_IOTKit_BSP/1.5.1/Boards/ARM/V2M-MPS2/Common/GLCD_V2M-MPS2.c:127:21
	str	r6, [r0]
.Ltmp200:
.LBB0_111:                              @ =>This Inner Loop Header: Depth=1
	@DEBUG_VALUE: spi_tran:byte <- 64
	@DEBUG_VALUE: wr_reg:reg <- 64
	@DEBUG_VALUE: wr_reg:val <- 1
	@DEBUG_VALUE: wr_cmd:cmd <- 64
	.loc	2 128 27                        @ C:/Users/dakum/AppData/Local/Arm/Packs/Keil/V2M-MPS2_IOTKit_BSP/1.5.1/Boards/ARM/V2M-MPS2/Common/GLCD_V2M-MPS2.c:128:27
	ldr	r6, [r0, #4]
	.loc	2 128 3 is_stmt 0               @ C:/Users/dakum/AppData/Local/Arm/Packs/Keil/V2M-MPS2_IOTKit_BSP/1.5.1/Boards/ARM/V2M-MPS2/Common/GLCD_V2M-MPS2.c:128:3
	lsls	r6, r6, #29
	bpl	.LBB0_111
.Ltmp201:
@ %bb.112:
	@DEBUG_VALUE: spi_tran:byte <- 64
	@DEBUG_VALUE: wr_reg:reg <- 64
	@DEBUG_VALUE: wr_reg:val <- 1
	@DEBUG_VALUE: wr_cmd:cmd <- 64
	.loc	2 129 35 is_stmt 1              @ C:/Users/dakum/AppData/Local/Arm/Packs/Keil/V2M-MPS2_IOTKit_BSP/1.5.1/Boards/ARM/V2M-MPS2/Common/GLCD_V2M-MPS2.c:129:35
	ldr	r6, [r0]
.Ltmp202:
	.loc	2 142 3                         @ C:/Users/dakum/AppData/Local/Arm/Packs/Keil/V2M-MPS2_IOTKit_BSP/1.5.1/Boards/ARM/V2M-MPS2/Common/GLCD_V2M-MPS2.c:142:3
	ldr	r6, [r1]
	orrs	r6, r3
	str	r6, [r1]
.Ltmp203:
	@DEBUG_VALUE: wr_dat:dat <- 1
	.loc	2 151 3                         @ C:/Users/dakum/AppData/Local/Arm/Packs/Keil/V2M-MPS2_IOTKit_BSP/1.5.1/Boards/ARM/V2M-MPS2/Common/GLCD_V2M-MPS2.c:151:3
	ldr	r6, [r1]
	bics	r6, r3
	str	r6, [r1]
.Ltmp204:
	@DEBUG_VALUE: spi_tran:byte <- 114
	.loc	2 127 21                        @ C:/Users/dakum/AppData/Local/Arm/Packs/Keil/V2M-MPS2_IOTKit_BSP/1.5.1/Boards/ARM/V2M-MPS2/Common/GLCD_V2M-MPS2.c:127:21
	str	r7, [r0]
.Ltmp205:
.LBB0_113:                              @ =>This Inner Loop Header: Depth=1
	@DEBUG_VALUE: spi_tran:byte <- 114
	@DEBUG_VALUE: wr_dat:dat <- 1
	@DEBUG_VALUE: wr_reg:reg <- 64
	@DEBUG_VALUE: wr_reg:val <- 1
	.loc	2 128 27                        @ C:/Users/dakum/AppData/Local/Arm/Packs/Keil/V2M-MPS2_IOTKit_BSP/1.5.1/Boards/ARM/V2M-MPS2/Common/GLCD_V2M-MPS2.c:128:27
	ldr	r6, [r0, #4]
	.loc	2 128 3 is_stmt 0               @ C:/Users/dakum/AppData/Local/Arm/Packs/Keil/V2M-MPS2_IOTKit_BSP/1.5.1/Boards/ARM/V2M-MPS2/Common/GLCD_V2M-MPS2.c:128:3
	lsls	r6, r6, #29
	bpl	.LBB0_113
.Ltmp206:
@ %bb.114:
	@DEBUG_VALUE: spi_tran:byte <- 114
	@DEBUG_VALUE: wr_dat:dat <- 1
	@DEBUG_VALUE: wr_reg:reg <- 64
	@DEBUG_VALUE: wr_reg:val <- 1
	.loc	2 129 35 is_stmt 1              @ C:/Users/dakum/AppData/Local/Arm/Packs/Keil/V2M-MPS2_IOTKit_BSP/1.5.1/Boards/ARM/V2M-MPS2/Common/GLCD_V2M-MPS2.c:129:35
	ldr	r6, [r0]
.Ltmp207:
	@DEBUG_VALUE: spi_tran:byte <- 0
	.loc	2 127 21                        @ C:/Users/dakum/AppData/Local/Arm/Packs/Keil/V2M-MPS2_IOTKit_BSP/1.5.1/Boards/ARM/V2M-MPS2/Common/GLCD_V2M-MPS2.c:127:21
	str	r2, [r0]
.Ltmp208:
.LBB0_115:                              @ =>This Inner Loop Header: Depth=1
	@DEBUG_VALUE: spi_tran:byte <- 0
	@DEBUG_VALUE: wr_dat:dat <- 1
	@DEBUG_VALUE: wr_reg:reg <- 64
	@DEBUG_VALUE: wr_reg:val <- 1
	.loc	2 128 27                        @ C:/Users/dakum/AppData/Local/Arm/Packs/Keil/V2M-MPS2_IOTKit_BSP/1.5.1/Boards/ARM/V2M-MPS2/Common/GLCD_V2M-MPS2.c:128:27
	ldr	r6, [r0, #4]
	.loc	2 128 3 is_stmt 0               @ C:/Users/dakum/AppData/Local/Arm/Packs/Keil/V2M-MPS2_IOTKit_BSP/1.5.1/Boards/ARM/V2M-MPS2/Common/GLCD_V2M-MPS2.c:128:3
	lsls	r6, r6, #29
	bpl	.LBB0_115
.Ltmp209:
@ %bb.116:
	@DEBUG_VALUE: spi_tran:byte <- 0
	@DEBUG_VALUE: wr_dat:dat <- 1
	@DEBUG_VALUE: wr_reg:reg <- 64
	@DEBUG_VALUE: wr_reg:val <- 1
	.loc	2 129 35 is_stmt 1              @ C:/Users/dakum/AppData/Local/Arm/Packs/Keil/V2M-MPS2_IOTKit_BSP/1.5.1/Boards/ARM/V2M-MPS2/Common/GLCD_V2M-MPS2.c:129:35
	ldr	r6, [r0]
.Ltmp210:
	@DEBUG_VALUE: spi_tran:byte <- [DW_OP_stack_value] 1
	.loc	2 127 21                        @ C:/Users/dakum/AppData/Local/Arm/Packs/Keil/V2M-MPS2_IOTKit_BSP/1.5.1/Boards/ARM/V2M-MPS2/Common/GLCD_V2M-MPS2.c:127:21
	str	r3, [r0]
.Ltmp211:
.LBB0_117:                              @ =>This Inner Loop Header: Depth=1
	@DEBUG_VALUE: spi_tran:byte <- [DW_OP_stack_value] 1
	@DEBUG_VALUE: wr_dat:dat <- 1
	@DEBUG_VALUE: wr_reg:reg <- 64
	@DEBUG_VALUE: wr_reg:val <- 1
	.loc	2 128 27                        @ C:/Users/dakum/AppData/Local/Arm/Packs/Keil/V2M-MPS2_IOTKit_BSP/1.5.1/Boards/ARM/V2M-MPS2/Common/GLCD_V2M-MPS2.c:128:27
	ldr	r6, [r0, #4]
	.loc	2 128 3 is_stmt 0               @ C:/Users/dakum/AppData/Local/Arm/Packs/Keil/V2M-MPS2_IOTKit_BSP/1.5.1/Boards/ARM/V2M-MPS2/Common/GLCD_V2M-MPS2.c:128:3
	lsls	r6, r6, #29
	bpl	.LBB0_117
.Ltmp212:
@ %bb.118:
	@DEBUG_VALUE: spi_tran:byte <- [DW_OP_stack_value] 1
	@DEBUG_VALUE: wr_dat:dat <- 1
	@DEBUG_VALUE: wr_reg:reg <- 64
	@DEBUG_VALUE: wr_reg:val <- 1
	.loc	2 129 35 is_stmt 1              @ C:/Users/dakum/AppData/Local/Arm/Packs/Keil/V2M-MPS2_IOTKit_BSP/1.5.1/Boards/ARM/V2M-MPS2/Common/GLCD_V2M-MPS2.c:129:35
	ldr	r6, [r0]
.Ltmp213:
	.loc	2 155 3                         @ C:/Users/dakum/AppData/Local/Arm/Packs/Keil/V2M-MPS2_IOTKit_BSP/1.5.1/Boards/ARM/V2M-MPS2/Common/GLCD_V2M-MPS2.c:155:3
	ldr	r6, [r1]
	orrs	r6, r3
	str	r6, [r1]
.Ltmp214:
	@DEBUG_VALUE: wr_cmd:cmd <- 65
	@DEBUG_VALUE: wr_reg:val <- 0
	@DEBUG_VALUE: wr_reg:reg <- 65
	.loc	2 138 3                         @ C:/Users/dakum/AppData/Local/Arm/Packs/Keil/V2M-MPS2_IOTKit_BSP/1.5.1/Boards/ARM/V2M-MPS2/Common/GLCD_V2M-MPS2.c:138:3
	ldr	r6, [r1]
	bics	r6, r3
	str	r6, [r1]
.Ltmp215:
	@DEBUG_VALUE: spi_tran:byte <- 112
	.loc	2 127 21                        @ C:/Users/dakum/AppData/Local/Arm/Packs/Keil/V2M-MPS2_IOTKit_BSP/1.5.1/Boards/ARM/V2M-MPS2/Common/GLCD_V2M-MPS2.c:127:21
	str	r4, [r0]
.Ltmp216:
.LBB0_119:                              @ =>This Inner Loop Header: Depth=1
	@DEBUG_VALUE: spi_tran:byte <- 112
	@DEBUG_VALUE: wr_reg:reg <- 65
	@DEBUG_VALUE: wr_reg:val <- 0
	@DEBUG_VALUE: wr_cmd:cmd <- 65
	.loc	2 128 27                        @ C:/Users/dakum/AppData/Local/Arm/Packs/Keil/V2M-MPS2_IOTKit_BSP/1.5.1/Boards/ARM/V2M-MPS2/Common/GLCD_V2M-MPS2.c:128:27
	ldr	r6, [r0, #4]
	.loc	2 128 3 is_stmt 0               @ C:/Users/dakum/AppData/Local/Arm/Packs/Keil/V2M-MPS2_IOTKit_BSP/1.5.1/Boards/ARM/V2M-MPS2/Common/GLCD_V2M-MPS2.c:128:3
	lsls	r6, r6, #29
	bpl	.LBB0_119
.Ltmp217:
@ %bb.120:
	@DEBUG_VALUE: spi_tran:byte <- 112
	@DEBUG_VALUE: wr_reg:reg <- 65
	@DEBUG_VALUE: wr_reg:val <- 0
	@DEBUG_VALUE: wr_cmd:cmd <- 65
	.loc	2 129 35 is_stmt 1              @ C:/Users/dakum/AppData/Local/Arm/Packs/Keil/V2M-MPS2_IOTKit_BSP/1.5.1/Boards/ARM/V2M-MPS2/Common/GLCD_V2M-MPS2.c:129:35
	ldr	r6, [r0]
.Ltmp218:
	@DEBUG_VALUE: spi_tran:byte <- 0
	.loc	2 127 21                        @ C:/Users/dakum/AppData/Local/Arm/Packs/Keil/V2M-MPS2_IOTKit_BSP/1.5.1/Boards/ARM/V2M-MPS2/Common/GLCD_V2M-MPS2.c:127:21
	str	r2, [r0]
.Ltmp219:
.LBB0_121:                              @ =>This Inner Loop Header: Depth=1
	@DEBUG_VALUE: spi_tran:byte <- 0
	@DEBUG_VALUE: wr_reg:reg <- 65
	@DEBUG_VALUE: wr_reg:val <- 0
	@DEBUG_VALUE: wr_cmd:cmd <- 65
	.loc	2 128 27                        @ C:/Users/dakum/AppData/Local/Arm/Packs/Keil/V2M-MPS2_IOTKit_BSP/1.5.1/Boards/ARM/V2M-MPS2/Common/GLCD_V2M-MPS2.c:128:27
	ldr	r6, [r0, #4]
	.loc	2 128 3 is_stmt 0               @ C:/Users/dakum/AppData/Local/Arm/Packs/Keil/V2M-MPS2_IOTKit_BSP/1.5.1/Boards/ARM/V2M-MPS2/Common/GLCD_V2M-MPS2.c:128:3
	lsls	r6, r6, #29
	bpl	.LBB0_121
.Ltmp220:
@ %bb.122:
	@DEBUG_VALUE: spi_tran:byte <- 0
	@DEBUG_VALUE: wr_reg:reg <- 65
	@DEBUG_VALUE: wr_reg:val <- 0
	@DEBUG_VALUE: wr_cmd:cmd <- 65
	.loc	2 129 35 is_stmt 1              @ C:/Users/dakum/AppData/Local/Arm/Packs/Keil/V2M-MPS2_IOTKit_BSP/1.5.1/Boards/ARM/V2M-MPS2/Common/GLCD_V2M-MPS2.c:129:35
	ldr	r6, [r0]
	movs	r6, #65
.Ltmp221:
	@DEBUG_VALUE: spi_tran:byte <- 65
	.loc	2 127 21                        @ C:/Users/dakum/AppData/Local/Arm/Packs/Keil/V2M-MPS2_IOTKit_BSP/1.5.1/Boards/ARM/V2M-MPS2/Common/GLCD_V2M-MPS2.c:127:21
	str	r6, [r0]
.Ltmp222:
.LBB0_123:                              @ =>This Inner Loop Header: Depth=1
	@DEBUG_VALUE: spi_tran:byte <- 65
	@DEBUG_VALUE: wr_reg:reg <- 65
	@DEBUG_VALUE: wr_reg:val <- 0
	@DEBUG_VALUE: wr_cmd:cmd <- 65
	.loc	2 128 27                        @ C:/Users/dakum/AppData/Local/Arm/Packs/Keil/V2M-MPS2_IOTKit_BSP/1.5.1/Boards/ARM/V2M-MPS2/Common/GLCD_V2M-MPS2.c:128:27
	ldr	r6, [r0, #4]
	.loc	2 128 3 is_stmt 0               @ C:/Users/dakum/AppData/Local/Arm/Packs/Keil/V2M-MPS2_IOTKit_BSP/1.5.1/Boards/ARM/V2M-MPS2/Common/GLCD_V2M-MPS2.c:128:3
	lsls	r6, r6, #29
	bpl	.LBB0_123
.Ltmp223:
@ %bb.124:
	@DEBUG_VALUE: spi_tran:byte <- 65
	@DEBUG_VALUE: wr_reg:reg <- 65
	@DEBUG_VALUE: wr_reg:val <- 0
	@DEBUG_VALUE: wr_cmd:cmd <- 65
	.loc	2 129 35 is_stmt 1              @ C:/Users/dakum/AppData/Local/Arm/Packs/Keil/V2M-MPS2_IOTKit_BSP/1.5.1/Boards/ARM/V2M-MPS2/Common/GLCD_V2M-MPS2.c:129:35
	ldr	r6, [r0]
.Ltmp224:
	.loc	2 142 3                         @ C:/Users/dakum/AppData/Local/Arm/Packs/Keil/V2M-MPS2_IOTKit_BSP/1.5.1/Boards/ARM/V2M-MPS2/Common/GLCD_V2M-MPS2.c:142:3
	ldr	r6, [r1]
	orrs	r6, r3
	str	r6, [r1]
.Ltmp225:
	@DEBUG_VALUE: wr_dat:dat <- 0
	.loc	2 151 3                         @ C:/Users/dakum/AppData/Local/Arm/Packs/Keil/V2M-MPS2_IOTKit_BSP/1.5.1/Boards/ARM/V2M-MPS2/Common/GLCD_V2M-MPS2.c:151:3
	ldr	r6, [r1]
	bics	r6, r3
	str	r6, [r1]
.Ltmp226:
	@DEBUG_VALUE: spi_tran:byte <- 114
	.loc	2 127 21                        @ C:/Users/dakum/AppData/Local/Arm/Packs/Keil/V2M-MPS2_IOTKit_BSP/1.5.1/Boards/ARM/V2M-MPS2/Common/GLCD_V2M-MPS2.c:127:21
	str	r7, [r0]
.Ltmp227:
.LBB0_125:                              @ =>This Inner Loop Header: Depth=1
	@DEBUG_VALUE: spi_tran:byte <- 114
	@DEBUG_VALUE: wr_dat:dat <- 0
	@DEBUG_VALUE: wr_reg:reg <- 65
	@DEBUG_VALUE: wr_reg:val <- 0
	.loc	2 128 27                        @ C:/Users/dakum/AppData/Local/Arm/Packs/Keil/V2M-MPS2_IOTKit_BSP/1.5.1/Boards/ARM/V2M-MPS2/Common/GLCD_V2M-MPS2.c:128:27
	ldr	r6, [r0, #4]
	.loc	2 128 3 is_stmt 0               @ C:/Users/dakum/AppData/Local/Arm/Packs/Keil/V2M-MPS2_IOTKit_BSP/1.5.1/Boards/ARM/V2M-MPS2/Common/GLCD_V2M-MPS2.c:128:3
	lsls	r6, r6, #29
	bpl	.LBB0_125
.Ltmp228:
@ %bb.126:
	@DEBUG_VALUE: spi_tran:byte <- 114
	@DEBUG_VALUE: wr_dat:dat <- 0
	@DEBUG_VALUE: wr_reg:reg <- 65
	@DEBUG_VALUE: wr_reg:val <- 0
	.loc	2 129 35 is_stmt 1              @ C:/Users/dakum/AppData/Local/Arm/Packs/Keil/V2M-MPS2_IOTKit_BSP/1.5.1/Boards/ARM/V2M-MPS2/Common/GLCD_V2M-MPS2.c:129:35
	ldr	r6, [r0]
.Ltmp229:
	@DEBUG_VALUE: spi_tran:byte <- 0
	.loc	2 127 21                        @ C:/Users/dakum/AppData/Local/Arm/Packs/Keil/V2M-MPS2_IOTKit_BSP/1.5.1/Boards/ARM/V2M-MPS2/Common/GLCD_V2M-MPS2.c:127:21
	str	r2, [r0]
.Ltmp230:
.LBB0_127:                              @ =>This Inner Loop Header: Depth=1
	@DEBUG_VALUE: spi_tran:byte <- 0
	@DEBUG_VALUE: wr_dat:dat <- 0
	@DEBUG_VALUE: wr_reg:reg <- 65
	@DEBUG_VALUE: wr_reg:val <- 0
	.loc	2 128 27                        @ C:/Users/dakum/AppData/Local/Arm/Packs/Keil/V2M-MPS2_IOTKit_BSP/1.5.1/Boards/ARM/V2M-MPS2/Common/GLCD_V2M-MPS2.c:128:27
	ldr	r6, [r0, #4]
	.loc	2 128 3 is_stmt 0               @ C:/Users/dakum/AppData/Local/Arm/Packs/Keil/V2M-MPS2_IOTKit_BSP/1.5.1/Boards/ARM/V2M-MPS2/Common/GLCD_V2M-MPS2.c:128:3
	lsls	r6, r6, #29
	bpl	.LBB0_127
.Ltmp231:
@ %bb.128:
	@DEBUG_VALUE: spi_tran:byte <- 0
	@DEBUG_VALUE: wr_dat:dat <- 0
	@DEBUG_VALUE: wr_reg:reg <- 65
	@DEBUG_VALUE: wr_reg:val <- 0
	.loc	2 129 35 is_stmt 1              @ C:/Users/dakum/AppData/Local/Arm/Packs/Keil/V2M-MPS2_IOTKit_BSP/1.5.1/Boards/ARM/V2M-MPS2/Common/GLCD_V2M-MPS2.c:129:35
	ldr	r6, [r0]
.Ltmp232:
	@DEBUG_VALUE: spi_tran:byte <- [DW_OP_stack_value] 0
	.loc	2 127 21                        @ C:/Users/dakum/AppData/Local/Arm/Packs/Keil/V2M-MPS2_IOTKit_BSP/1.5.1/Boards/ARM/V2M-MPS2/Common/GLCD_V2M-MPS2.c:127:21
	str	r2, [r0]
.Ltmp233:
.LBB0_129:                              @ =>This Inner Loop Header: Depth=1
	@DEBUG_VALUE: spi_tran:byte <- [DW_OP_stack_value] 0
	@DEBUG_VALUE: wr_dat:dat <- 0
	@DEBUG_VALUE: wr_reg:reg <- 65
	@DEBUG_VALUE: wr_reg:val <- 0
	.loc	2 128 27                        @ C:/Users/dakum/AppData/Local/Arm/Packs/Keil/V2M-MPS2_IOTKit_BSP/1.5.1/Boards/ARM/V2M-MPS2/Common/GLCD_V2M-MPS2.c:128:27
	ldr	r6, [r0, #4]
	.loc	2 128 3 is_stmt 0               @ C:/Users/dakum/AppData/Local/Arm/Packs/Keil/V2M-MPS2_IOTKit_BSP/1.5.1/Boards/ARM/V2M-MPS2/Common/GLCD_V2M-MPS2.c:128:3
	lsls	r6, r6, #29
	bpl	.LBB0_129
.Ltmp234:
@ %bb.130:
	@DEBUG_VALUE: spi_tran:byte <- [DW_OP_stack_value] 0
	@DEBUG_VALUE: wr_dat:dat <- 0
	@DEBUG_VALUE: wr_reg:reg <- 65
	@DEBUG_VALUE: wr_reg:val <- 0
	.loc	2 129 35 is_stmt 1              @ C:/Users/dakum/AppData/Local/Arm/Packs/Keil/V2M-MPS2_IOTKit_BSP/1.5.1/Boards/ARM/V2M-MPS2/Common/GLCD_V2M-MPS2.c:129:35
	ldr	r6, [r0]
.Ltmp235:
	.loc	2 155 3                         @ C:/Users/dakum/AppData/Local/Arm/Packs/Keil/V2M-MPS2_IOTKit_BSP/1.5.1/Boards/ARM/V2M-MPS2/Common/GLCD_V2M-MPS2.c:155:3
	ldr	r6, [r1]
	orrs	r6, r3
	str	r6, [r1]
.Ltmp236:
	@DEBUG_VALUE: wr_cmd:cmd <- 66
	@DEBUG_VALUE: wr_reg:val <- 0
	@DEBUG_VALUE: wr_reg:reg <- 66
	.loc	2 138 3                         @ C:/Users/dakum/AppData/Local/Arm/Packs/Keil/V2M-MPS2_IOTKit_BSP/1.5.1/Boards/ARM/V2M-MPS2/Common/GLCD_V2M-MPS2.c:138:3
	ldr	r6, [r1]
	bics	r6, r3
	str	r6, [r1]
.Ltmp237:
	@DEBUG_VALUE: spi_tran:byte <- 112
	.loc	2 127 21                        @ C:/Users/dakum/AppData/Local/Arm/Packs/Keil/V2M-MPS2_IOTKit_BSP/1.5.1/Boards/ARM/V2M-MPS2/Common/GLCD_V2M-MPS2.c:127:21
	str	r4, [r0]
.Ltmp238:
.LBB0_131:                              @ =>This Inner Loop Header: Depth=1
	@DEBUG_VALUE: spi_tran:byte <- 112
	@DEBUG_VALUE: wr_reg:reg <- 66
	@DEBUG_VALUE: wr_reg:val <- 0
	@DEBUG_VALUE: wr_cmd:cmd <- 66
	.loc	2 128 27                        @ C:/Users/dakum/AppData/Local/Arm/Packs/Keil/V2M-MPS2_IOTKit_BSP/1.5.1/Boards/ARM/V2M-MPS2/Common/GLCD_V2M-MPS2.c:128:27
	ldr	r6, [r0, #4]
	.loc	2 128 3 is_stmt 0               @ C:/Users/dakum/AppData/Local/Arm/Packs/Keil/V2M-MPS2_IOTKit_BSP/1.5.1/Boards/ARM/V2M-MPS2/Common/GLCD_V2M-MPS2.c:128:3
	lsls	r6, r6, #29
	bpl	.LBB0_131
.Ltmp239:
@ %bb.132:
	@DEBUG_VALUE: spi_tran:byte <- 112
	@DEBUG_VALUE: wr_reg:reg <- 66
	@DEBUG_VALUE: wr_reg:val <- 0
	@DEBUG_VALUE: wr_cmd:cmd <- 66
	.loc	2 129 35 is_stmt 1              @ C:/Users/dakum/AppData/Local/Arm/Packs/Keil/V2M-MPS2_IOTKit_BSP/1.5.1/Boards/ARM/V2M-MPS2/Common/GLCD_V2M-MPS2.c:129:35
	ldr	r6, [r0]
.Ltmp240:
	@DEBUG_VALUE: spi_tran:byte <- 0
	.loc	2 127 21                        @ C:/Users/dakum/AppData/Local/Arm/Packs/Keil/V2M-MPS2_IOTKit_BSP/1.5.1/Boards/ARM/V2M-MPS2/Common/GLCD_V2M-MPS2.c:127:21
	str	r2, [r0]
.Ltmp241:
.LBB0_133:                              @ =>This Inner Loop Header: Depth=1
	@DEBUG_VALUE: spi_tran:byte <- 0
	@DEBUG_VALUE: wr_reg:reg <- 66
	@DEBUG_VALUE: wr_reg:val <- 0
	@DEBUG_VALUE: wr_cmd:cmd <- 66
	.loc	2 128 27                        @ C:/Users/dakum/AppData/Local/Arm/Packs/Keil/V2M-MPS2_IOTKit_BSP/1.5.1/Boards/ARM/V2M-MPS2/Common/GLCD_V2M-MPS2.c:128:27
	ldr	r6, [r0, #4]
	.loc	2 128 3 is_stmt 0               @ C:/Users/dakum/AppData/Local/Arm/Packs/Keil/V2M-MPS2_IOTKit_BSP/1.5.1/Boards/ARM/V2M-MPS2/Common/GLCD_V2M-MPS2.c:128:3
	lsls	r6, r6, #29
	bpl	.LBB0_133
.Ltmp242:
@ %bb.134:
	@DEBUG_VALUE: spi_tran:byte <- 0
	@DEBUG_VALUE: wr_reg:reg <- 66
	@DEBUG_VALUE: wr_reg:val <- 0
	@DEBUG_VALUE: wr_cmd:cmd <- 66
	.loc	2 129 35 is_stmt 1              @ C:/Users/dakum/AppData/Local/Arm/Packs/Keil/V2M-MPS2_IOTKit_BSP/1.5.1/Boards/ARM/V2M-MPS2/Common/GLCD_V2M-MPS2.c:129:35
	ldr	r6, [r0]
	movs	r6, #66
.Ltmp243:
	@DEBUG_VALUE: spi_tran:byte <- 66
	.loc	2 127 21                        @ C:/Users/dakum/AppData/Local/Arm/Packs/Keil/V2M-MPS2_IOTKit_BSP/1.5.1/Boards/ARM/V2M-MPS2/Common/GLCD_V2M-MPS2.c:127:21
	str	r6, [r0]
.Ltmp244:
.LBB0_135:                              @ =>This Inner Loop Header: Depth=1
	@DEBUG_VALUE: spi_tran:byte <- 66
	@DEBUG_VALUE: wr_reg:reg <- 66
	@DEBUG_VALUE: wr_reg:val <- 0
	@DEBUG_VALUE: wr_cmd:cmd <- 66
	.loc	2 128 27                        @ C:/Users/dakum/AppData/Local/Arm/Packs/Keil/V2M-MPS2_IOTKit_BSP/1.5.1/Boards/ARM/V2M-MPS2/Common/GLCD_V2M-MPS2.c:128:27
	ldr	r6, [r0, #4]
	.loc	2 128 3 is_stmt 0               @ C:/Users/dakum/AppData/Local/Arm/Packs/Keil/V2M-MPS2_IOTKit_BSP/1.5.1/Boards/ARM/V2M-MPS2/Common/GLCD_V2M-MPS2.c:128:3
	lsls	r6, r6, #29
	bpl	.LBB0_135
.Ltmp245:
@ %bb.136:
	@DEBUG_VALUE: spi_tran:byte <- 66
	@DEBUG_VALUE: wr_reg:reg <- 66
	@DEBUG_VALUE: wr_reg:val <- 0
	@DEBUG_VALUE: wr_cmd:cmd <- 66
	.loc	2 129 35 is_stmt 1              @ C:/Users/dakum/AppData/Local/Arm/Packs/Keil/V2M-MPS2_IOTKit_BSP/1.5.1/Boards/ARM/V2M-MPS2/Common/GLCD_V2M-MPS2.c:129:35
	ldr	r6, [r0]
.Ltmp246:
	.loc	2 142 3                         @ C:/Users/dakum/AppData/Local/Arm/Packs/Keil/V2M-MPS2_IOTKit_BSP/1.5.1/Boards/ARM/V2M-MPS2/Common/GLCD_V2M-MPS2.c:142:3
	ldr	r6, [r1]
	orrs	r6, r3
	str	r6, [r1]
.Ltmp247:
	@DEBUG_VALUE: wr_dat:dat <- 0
	.loc	2 151 3                         @ C:/Users/dakum/AppData/Local/Arm/Packs/Keil/V2M-MPS2_IOTKit_BSP/1.5.1/Boards/ARM/V2M-MPS2/Common/GLCD_V2M-MPS2.c:151:3
	ldr	r6, [r1]
	bics	r6, r3
	str	r6, [r1]
.Ltmp248:
	@DEBUG_VALUE: spi_tran:byte <- 114
	.loc	2 127 21                        @ C:/Users/dakum/AppData/Local/Arm/Packs/Keil/V2M-MPS2_IOTKit_BSP/1.5.1/Boards/ARM/V2M-MPS2/Common/GLCD_V2M-MPS2.c:127:21
	str	r7, [r0]
.Ltmp249:
.LBB0_137:                              @ =>This Inner Loop Header: Depth=1
	@DEBUG_VALUE: spi_tran:byte <- 114
	@DEBUG_VALUE: wr_dat:dat <- 0
	@DEBUG_VALUE: wr_reg:reg <- 66
	@DEBUG_VALUE: wr_reg:val <- 0
	.loc	2 128 27                        @ C:/Users/dakum/AppData/Local/Arm/Packs/Keil/V2M-MPS2_IOTKit_BSP/1.5.1/Boards/ARM/V2M-MPS2/Common/GLCD_V2M-MPS2.c:128:27
	ldr	r6, [r0, #4]
	.loc	2 128 3 is_stmt 0               @ C:/Users/dakum/AppData/Local/Arm/Packs/Keil/V2M-MPS2_IOTKit_BSP/1.5.1/Boards/ARM/V2M-MPS2/Common/GLCD_V2M-MPS2.c:128:3
	lsls	r6, r6, #29
	bpl	.LBB0_137
.Ltmp250:
@ %bb.138:
	@DEBUG_VALUE: spi_tran:byte <- 114
	@DEBUG_VALUE: wr_dat:dat <- 0
	@DEBUG_VALUE: wr_reg:reg <- 66
	@DEBUG_VALUE: wr_reg:val <- 0
	.loc	2 129 35 is_stmt 1              @ C:/Users/dakum/AppData/Local/Arm/Packs/Keil/V2M-MPS2_IOTKit_BSP/1.5.1/Boards/ARM/V2M-MPS2/Common/GLCD_V2M-MPS2.c:129:35
	ldr	r6, [r0]
.Ltmp251:
	@DEBUG_VALUE: spi_tran:byte <- 0
	.loc	2 127 21                        @ C:/Users/dakum/AppData/Local/Arm/Packs/Keil/V2M-MPS2_IOTKit_BSP/1.5.1/Boards/ARM/V2M-MPS2/Common/GLCD_V2M-MPS2.c:127:21
	str	r2, [r0]
.Ltmp252:
.LBB0_139:                              @ =>This Inner Loop Header: Depth=1
	@DEBUG_VALUE: spi_tran:byte <- 0
	@DEBUG_VALUE: wr_dat:dat <- 0
	@DEBUG_VALUE: wr_reg:reg <- 66
	@DEBUG_VALUE: wr_reg:val <- 0
	.loc	2 128 27                        @ C:/Users/dakum/AppData/Local/Arm/Packs/Keil/V2M-MPS2_IOTKit_BSP/1.5.1/Boards/ARM/V2M-MPS2/Common/GLCD_V2M-MPS2.c:128:27
	ldr	r6, [r0, #4]
	.loc	2 128 3 is_stmt 0               @ C:/Users/dakum/AppData/Local/Arm/Packs/Keil/V2M-MPS2_IOTKit_BSP/1.5.1/Boards/ARM/V2M-MPS2/Common/GLCD_V2M-MPS2.c:128:3
	lsls	r6, r6, #29
	bpl	.LBB0_139
.Ltmp253:
@ %bb.140:
	@DEBUG_VALUE: spi_tran:byte <- 0
	@DEBUG_VALUE: wr_dat:dat <- 0
	@DEBUG_VALUE: wr_reg:reg <- 66
	@DEBUG_VALUE: wr_reg:val <- 0
	.loc	2 129 35 is_stmt 1              @ C:/Users/dakum/AppData/Local/Arm/Packs/Keil/V2M-MPS2_IOTKit_BSP/1.5.1/Boards/ARM/V2M-MPS2/Common/GLCD_V2M-MPS2.c:129:35
	ldr	r6, [r0]
.Ltmp254:
	@DEBUG_VALUE: spi_tran:byte <- [DW_OP_stack_value] 0
	.loc	2 127 21                        @ C:/Users/dakum/AppData/Local/Arm/Packs/Keil/V2M-MPS2_IOTKit_BSP/1.5.1/Boards/ARM/V2M-MPS2/Common/GLCD_V2M-MPS2.c:127:21
	str	r2, [r0]
.Ltmp255:
.LBB0_141:                              @ =>This Inner Loop Header: Depth=1
	@DEBUG_VALUE: spi_tran:byte <- [DW_OP_stack_value] 0
	@DEBUG_VALUE: wr_dat:dat <- 0
	@DEBUG_VALUE: wr_reg:reg <- 66
	@DEBUG_VALUE: wr_reg:val <- 0
	.loc	2 128 27                        @ C:/Users/dakum/AppData/Local/Arm/Packs/Keil/V2M-MPS2_IOTKit_BSP/1.5.1/Boards/ARM/V2M-MPS2/Common/GLCD_V2M-MPS2.c:128:27
	ldr	r6, [r0, #4]
	.loc	2 128 3 is_stmt 0               @ C:/Users/dakum/AppData/Local/Arm/Packs/Keil/V2M-MPS2_IOTKit_BSP/1.5.1/Boards/ARM/V2M-MPS2/Common/GLCD_V2M-MPS2.c:128:3
	lsls	r6, r6, #29
	bpl	.LBB0_141
.Ltmp256:
@ %bb.142:
	@DEBUG_VALUE: spi_tran:byte <- [DW_OP_stack_value] 0
	@DEBUG_VALUE: wr_dat:dat <- 0
	@DEBUG_VALUE: wr_reg:reg <- 66
	@DEBUG_VALUE: wr_reg:val <- 0
	.loc	2 129 35 is_stmt 1              @ C:/Users/dakum/AppData/Local/Arm/Packs/Keil/V2M-MPS2_IOTKit_BSP/1.5.1/Boards/ARM/V2M-MPS2/Common/GLCD_V2M-MPS2.c:129:35
	ldr	r6, [r0]
.Ltmp257:
	.loc	2 155 3                         @ C:/Users/dakum/AppData/Local/Arm/Packs/Keil/V2M-MPS2_IOTKit_BSP/1.5.1/Boards/ARM/V2M-MPS2/Common/GLCD_V2M-MPS2.c:155:3
	ldr	r6, [r1]
	orrs	r6, r3
	str	r6, [r1]
.Ltmp258:
	@DEBUG_VALUE: wr_cmd:cmd <- 67
	@DEBUG_VALUE: wr_reg:val <- 16
	@DEBUG_VALUE: wr_reg:reg <- 67
	.loc	2 138 3                         @ C:/Users/dakum/AppData/Local/Arm/Packs/Keil/V2M-MPS2_IOTKit_BSP/1.5.1/Boards/ARM/V2M-MPS2/Common/GLCD_V2M-MPS2.c:138:3
	ldr	r6, [r1]
	bics	r6, r3
	str	r6, [r1]
.Ltmp259:
	@DEBUG_VALUE: spi_tran:byte <- 112
	.loc	2 127 21                        @ C:/Users/dakum/AppData/Local/Arm/Packs/Keil/V2M-MPS2_IOTKit_BSP/1.5.1/Boards/ARM/V2M-MPS2/Common/GLCD_V2M-MPS2.c:127:21
	str	r4, [r0]
.Ltmp260:
.LBB0_143:                              @ =>This Inner Loop Header: Depth=1
	@DEBUG_VALUE: spi_tran:byte <- 112
	@DEBUG_VALUE: wr_reg:reg <- 67
	@DEBUG_VALUE: wr_reg:val <- 16
	@DEBUG_VALUE: wr_cmd:cmd <- 67
	.loc	2 128 27                        @ C:/Users/dakum/AppData/Local/Arm/Packs/Keil/V2M-MPS2_IOTKit_BSP/1.5.1/Boards/ARM/V2M-MPS2/Common/GLCD_V2M-MPS2.c:128:27
	ldr	r6, [r0, #4]
	.loc	2 128 3 is_stmt 0               @ C:/Users/dakum/AppData/Local/Arm/Packs/Keil/V2M-MPS2_IOTKit_BSP/1.5.1/Boards/ARM/V2M-MPS2/Common/GLCD_V2M-MPS2.c:128:3
	lsls	r6, r6, #29
	bpl	.LBB0_143
.Ltmp261:
@ %bb.144:
	@DEBUG_VALUE: spi_tran:byte <- 112
	@DEBUG_VALUE: wr_reg:reg <- 67
	@DEBUG_VALUE: wr_reg:val <- 16
	@DEBUG_VALUE: wr_cmd:cmd <- 67
	.loc	2 129 35 is_stmt 1              @ C:/Users/dakum/AppData/Local/Arm/Packs/Keil/V2M-MPS2_IOTKit_BSP/1.5.1/Boards/ARM/V2M-MPS2/Common/GLCD_V2M-MPS2.c:129:35
	ldr	r6, [r0]
.Ltmp262:
	@DEBUG_VALUE: spi_tran:byte <- 0
	.loc	2 127 21                        @ C:/Users/dakum/AppData/Local/Arm/Packs/Keil/V2M-MPS2_IOTKit_BSP/1.5.1/Boards/ARM/V2M-MPS2/Common/GLCD_V2M-MPS2.c:127:21
	str	r2, [r0]
.Ltmp263:
.LBB0_145:                              @ =>This Inner Loop Header: Depth=1
	@DEBUG_VALUE: spi_tran:byte <- 0
	@DEBUG_VALUE: wr_reg:reg <- 67
	@DEBUG_VALUE: wr_reg:val <- 16
	@DEBUG_VALUE: wr_cmd:cmd <- 67
	.loc	2 128 27                        @ C:/Users/dakum/AppData/Local/Arm/Packs/Keil/V2M-MPS2_IOTKit_BSP/1.5.1/Boards/ARM/V2M-MPS2/Common/GLCD_V2M-MPS2.c:128:27
	ldr	r6, [r0, #4]
	.loc	2 128 3 is_stmt 0               @ C:/Users/dakum/AppData/Local/Arm/Packs/Keil/V2M-MPS2_IOTKit_BSP/1.5.1/Boards/ARM/V2M-MPS2/Common/GLCD_V2M-MPS2.c:128:3
	lsls	r6, r6, #29
	bpl	.LBB0_145
.Ltmp264:
@ %bb.146:
	@DEBUG_VALUE: spi_tran:byte <- 0
	@DEBUG_VALUE: wr_reg:reg <- 67
	@DEBUG_VALUE: wr_reg:val <- 16
	@DEBUG_VALUE: wr_cmd:cmd <- 67
	.loc	2 129 35 is_stmt 1              @ C:/Users/dakum/AppData/Local/Arm/Packs/Keil/V2M-MPS2_IOTKit_BSP/1.5.1/Boards/ARM/V2M-MPS2/Common/GLCD_V2M-MPS2.c:129:35
	ldr	r6, [r0]
	movs	r6, #67
.Ltmp265:
	@DEBUG_VALUE: spi_tran:byte <- 67
	.loc	2 127 21                        @ C:/Users/dakum/AppData/Local/Arm/Packs/Keil/V2M-MPS2_IOTKit_BSP/1.5.1/Boards/ARM/V2M-MPS2/Common/GLCD_V2M-MPS2.c:127:21
	str	r6, [r0]
.Ltmp266:
.LBB0_147:                              @ =>This Inner Loop Header: Depth=1
	@DEBUG_VALUE: spi_tran:byte <- 67
	@DEBUG_VALUE: wr_reg:reg <- 67
	@DEBUG_VALUE: wr_reg:val <- 16
	@DEBUG_VALUE: wr_cmd:cmd <- 67
	.loc	2 128 27                        @ C:/Users/dakum/AppData/Local/Arm/Packs/Keil/V2M-MPS2_IOTKit_BSP/1.5.1/Boards/ARM/V2M-MPS2/Common/GLCD_V2M-MPS2.c:128:27
	ldr	r6, [r0, #4]
	.loc	2 128 3 is_stmt 0               @ C:/Users/dakum/AppData/Local/Arm/Packs/Keil/V2M-MPS2_IOTKit_BSP/1.5.1/Boards/ARM/V2M-MPS2/Common/GLCD_V2M-MPS2.c:128:3
	lsls	r6, r6, #29
	bpl	.LBB0_147
.Ltmp267:
@ %bb.148:
	@DEBUG_VALUE: spi_tran:byte <- 67
	@DEBUG_VALUE: wr_reg:reg <- 67
	@DEBUG_VALUE: wr_reg:val <- 16
	@DEBUG_VALUE: wr_cmd:cmd <- 67
	.loc	2 129 35 is_stmt 1              @ C:/Users/dakum/AppData/Local/Arm/Packs/Keil/V2M-MPS2_IOTKit_BSP/1.5.1/Boards/ARM/V2M-MPS2/Common/GLCD_V2M-MPS2.c:129:35
	ldr	r6, [r0]
.Ltmp268:
	.loc	2 142 3                         @ C:/Users/dakum/AppData/Local/Arm/Packs/Keil/V2M-MPS2_IOTKit_BSP/1.5.1/Boards/ARM/V2M-MPS2/Common/GLCD_V2M-MPS2.c:142:3
	ldr	r6, [r1]
	orrs	r6, r3
	str	r6, [r1]
.Ltmp269:
	@DEBUG_VALUE: wr_dat:dat <- 16
	.loc	2 151 3                         @ C:/Users/dakum/AppData/Local/Arm/Packs/Keil/V2M-MPS2_IOTKit_BSP/1.5.1/Boards/ARM/V2M-MPS2/Common/GLCD_V2M-MPS2.c:151:3
	ldr	r6, [r1]
	bics	r6, r3
	str	r6, [r1]
.Ltmp270:
	@DEBUG_VALUE: spi_tran:byte <- 114
	.loc	2 127 21                        @ C:/Users/dakum/AppData/Local/Arm/Packs/Keil/V2M-MPS2_IOTKit_BSP/1.5.1/Boards/ARM/V2M-MPS2/Common/GLCD_V2M-MPS2.c:127:21
	str	r7, [r0]
.Ltmp271:
.LBB0_149:                              @ =>This Inner Loop Header: Depth=1
	@DEBUG_VALUE: spi_tran:byte <- 114
	@DEBUG_VALUE: wr_dat:dat <- 16
	@DEBUG_VALUE: wr_reg:reg <- 67
	@DEBUG_VALUE: wr_reg:val <- 16
	.loc	2 128 27                        @ C:/Users/dakum/AppData/Local/Arm/Packs/Keil/V2M-MPS2_IOTKit_BSP/1.5.1/Boards/ARM/V2M-MPS2/Common/GLCD_V2M-MPS2.c:128:27
	ldr	r6, [r0, #4]
	.loc	2 128 3 is_stmt 0               @ C:/Users/dakum/AppData/Local/Arm/Packs/Keil/V2M-MPS2_IOTKit_BSP/1.5.1/Boards/ARM/V2M-MPS2/Common/GLCD_V2M-MPS2.c:128:3
	lsls	r6, r6, #29
	bpl	.LBB0_149
.Ltmp272:
@ %bb.150:
	@DEBUG_VALUE: spi_tran:byte <- 114
	@DEBUG_VALUE: wr_dat:dat <- 16
	@DEBUG_VALUE: wr_reg:reg <- 67
	@DEBUG_VALUE: wr_reg:val <- 16
	.loc	2 129 35 is_stmt 1              @ C:/Users/dakum/AppData/Local/Arm/Packs/Keil/V2M-MPS2_IOTKit_BSP/1.5.1/Boards/ARM/V2M-MPS2/Common/GLCD_V2M-MPS2.c:129:35
	ldr	r6, [r0]
.Ltmp273:
	@DEBUG_VALUE: spi_tran:byte <- 0
	.loc	2 127 21                        @ C:/Users/dakum/AppData/Local/Arm/Packs/Keil/V2M-MPS2_IOTKit_BSP/1.5.1/Boards/ARM/V2M-MPS2/Common/GLCD_V2M-MPS2.c:127:21
	str	r2, [r0]
.Ltmp274:
.LBB0_151:                              @ =>This Inner Loop Header: Depth=1
	@DEBUG_VALUE: spi_tran:byte <- 0
	@DEBUG_VALUE: wr_dat:dat <- 16
	@DEBUG_VALUE: wr_reg:reg <- 67
	@DEBUG_VALUE: wr_reg:val <- 16
	.loc	2 128 27                        @ C:/Users/dakum/AppData/Local/Arm/Packs/Keil/V2M-MPS2_IOTKit_BSP/1.5.1/Boards/ARM/V2M-MPS2/Common/GLCD_V2M-MPS2.c:128:27
	ldr	r6, [r0, #4]
	.loc	2 128 3 is_stmt 0               @ C:/Users/dakum/AppData/Local/Arm/Packs/Keil/V2M-MPS2_IOTKit_BSP/1.5.1/Boards/ARM/V2M-MPS2/Common/GLCD_V2M-MPS2.c:128:3
	lsls	r6, r6, #29
	bpl	.LBB0_151
.Ltmp275:
@ %bb.152:
	@DEBUG_VALUE: spi_tran:byte <- 0
	@DEBUG_VALUE: wr_dat:dat <- 16
	@DEBUG_VALUE: wr_reg:reg <- 67
	@DEBUG_VALUE: wr_reg:val <- 16
	.loc	2 129 35 is_stmt 1              @ C:/Users/dakum/AppData/Local/Arm/Packs/Keil/V2M-MPS2_IOTKit_BSP/1.5.1/Boards/ARM/V2M-MPS2/Common/GLCD_V2M-MPS2.c:129:35
	ldr	r6, [r0]
.Ltmp276:
	.loc	2 127 21                        @ C:/Users/dakum/AppData/Local/Arm/Packs/Keil/V2M-MPS2_IOTKit_BSP/1.5.1/Boards/ARM/V2M-MPS2/Common/GLCD_V2M-MPS2.c:127:21
	ldr	r6, [sp, #56]                   @ 4-byte Reload
.Ltmp277:
	@DEBUG_VALUE: spi_tran:byte <- [DW_OP_stack_value] 16
	str	r6, [r0]
.Ltmp278:
.LBB0_153:                              @ =>This Inner Loop Header: Depth=1
	@DEBUG_VALUE: spi_tran:byte <- [DW_OP_stack_value] 16
	@DEBUG_VALUE: wr_dat:dat <- 16
	@DEBUG_VALUE: wr_reg:reg <- 67
	@DEBUG_VALUE: wr_reg:val <- 16
	.loc	2 128 27                        @ C:/Users/dakum/AppData/Local/Arm/Packs/Keil/V2M-MPS2_IOTKit_BSP/1.5.1/Boards/ARM/V2M-MPS2/Common/GLCD_V2M-MPS2.c:128:27
	ldr	r6, [r0, #4]
	.loc	2 128 3 is_stmt 0               @ C:/Users/dakum/AppData/Local/Arm/Packs/Keil/V2M-MPS2_IOTKit_BSP/1.5.1/Boards/ARM/V2M-MPS2/Common/GLCD_V2M-MPS2.c:128:3
	lsls	r6, r6, #29
	bpl	.LBB0_153
.Ltmp279:
@ %bb.154:
	@DEBUG_VALUE: spi_tran:byte <- [DW_OP_stack_value] 16
	@DEBUG_VALUE: wr_dat:dat <- 16
	@DEBUG_VALUE: wr_reg:reg <- 67
	@DEBUG_VALUE: wr_reg:val <- 16
	.loc	2 129 35 is_stmt 1              @ C:/Users/dakum/AppData/Local/Arm/Packs/Keil/V2M-MPS2_IOTKit_BSP/1.5.1/Boards/ARM/V2M-MPS2/Common/GLCD_V2M-MPS2.c:129:35
	ldr	r6, [r0]
.Ltmp280:
	.loc	2 155 3                         @ C:/Users/dakum/AppData/Local/Arm/Packs/Keil/V2M-MPS2_IOTKit_BSP/1.5.1/Boards/ARM/V2M-MPS2/Common/GLCD_V2M-MPS2.c:155:3
	ldr	r6, [r1]
	orrs	r6, r3
	str	r6, [r1]
.Ltmp281:
	@DEBUG_VALUE: wr_cmd:cmd <- 68
	@DEBUG_VALUE: wr_reg:val <- 14
	@DEBUG_VALUE: wr_reg:reg <- 68
	.loc	2 138 3                         @ C:/Users/dakum/AppData/Local/Arm/Packs/Keil/V2M-MPS2_IOTKit_BSP/1.5.1/Boards/ARM/V2M-MPS2/Common/GLCD_V2M-MPS2.c:138:3
	ldr	r6, [r1]
	bics	r6, r3
	str	r6, [r1]
.Ltmp282:
	@DEBUG_VALUE: spi_tran:byte <- 112
	.loc	2 127 21                        @ C:/Users/dakum/AppData/Local/Arm/Packs/Keil/V2M-MPS2_IOTKit_BSP/1.5.1/Boards/ARM/V2M-MPS2/Common/GLCD_V2M-MPS2.c:127:21
	str	r4, [r0]
.Ltmp283:
.LBB0_155:                              @ =>This Inner Loop Header: Depth=1
	@DEBUG_VALUE: spi_tran:byte <- 112
	@DEBUG_VALUE: wr_reg:reg <- 68
	@DEBUG_VALUE: wr_reg:val <- 14
	@DEBUG_VALUE: wr_cmd:cmd <- 68
	.loc	2 128 27                        @ C:/Users/dakum/AppData/Local/Arm/Packs/Keil/V2M-MPS2_IOTKit_BSP/1.5.1/Boards/ARM/V2M-MPS2/Common/GLCD_V2M-MPS2.c:128:27
	ldr	r6, [r0, #4]
	.loc	2 128 3 is_stmt 0               @ C:/Users/dakum/AppData/Local/Arm/Packs/Keil/V2M-MPS2_IOTKit_BSP/1.5.1/Boards/ARM/V2M-MPS2/Common/GLCD_V2M-MPS2.c:128:3
	lsls	r6, r6, #29
	bpl	.LBB0_155
.Ltmp284:
@ %bb.156:
	@DEBUG_VALUE: spi_tran:byte <- 112
	@DEBUG_VALUE: wr_reg:reg <- 68
	@DEBUG_VALUE: wr_reg:val <- 14
	@DEBUG_VALUE: wr_cmd:cmd <- 68
	.loc	2 129 35 is_stmt 1              @ C:/Users/dakum/AppData/Local/Arm/Packs/Keil/V2M-MPS2_IOTKit_BSP/1.5.1/Boards/ARM/V2M-MPS2/Common/GLCD_V2M-MPS2.c:129:35
	ldr	r6, [r0]
.Ltmp285:
	@DEBUG_VALUE: spi_tran:byte <- 0
	.loc	2 127 21                        @ C:/Users/dakum/AppData/Local/Arm/Packs/Keil/V2M-MPS2_IOTKit_BSP/1.5.1/Boards/ARM/V2M-MPS2/Common/GLCD_V2M-MPS2.c:127:21
	str	r2, [r0]
.Ltmp286:
.LBB0_157:                              @ =>This Inner Loop Header: Depth=1
	@DEBUG_VALUE: spi_tran:byte <- 0
	@DEBUG_VALUE: wr_reg:reg <- 68
	@DEBUG_VALUE: wr_reg:val <- 14
	@DEBUG_VALUE: wr_cmd:cmd <- 68
	.loc	2 128 27                        @ C:/Users/dakum/AppData/Local/Arm/Packs/Keil/V2M-MPS2_IOTKit_BSP/1.5.1/Boards/ARM/V2M-MPS2/Common/GLCD_V2M-MPS2.c:128:27
	ldr	r6, [r0, #4]
	.loc	2 128 3 is_stmt 0               @ C:/Users/dakum/AppData/Local/Arm/Packs/Keil/V2M-MPS2_IOTKit_BSP/1.5.1/Boards/ARM/V2M-MPS2/Common/GLCD_V2M-MPS2.c:128:3
	lsls	r6, r6, #29
	bpl	.LBB0_157
.Ltmp287:
@ %bb.158:
	@DEBUG_VALUE: spi_tran:byte <- 0
	@DEBUG_VALUE: wr_reg:reg <- 68
	@DEBUG_VALUE: wr_reg:val <- 14
	@DEBUG_VALUE: wr_cmd:cmd <- 68
	.loc	2 129 35 is_stmt 1              @ C:/Users/dakum/AppData/Local/Arm/Packs/Keil/V2M-MPS2_IOTKit_BSP/1.5.1/Boards/ARM/V2M-MPS2/Common/GLCD_V2M-MPS2.c:129:35
	ldr	r6, [r0]
	movs	r6, #68
.Ltmp288:
	@DEBUG_VALUE: spi_tran:byte <- 68
	.loc	2 127 21                        @ C:/Users/dakum/AppData/Local/Arm/Packs/Keil/V2M-MPS2_IOTKit_BSP/1.5.1/Boards/ARM/V2M-MPS2/Common/GLCD_V2M-MPS2.c:127:21
	str	r6, [r0]
.Ltmp289:
.LBB0_159:                              @ =>This Inner Loop Header: Depth=1
	@DEBUG_VALUE: spi_tran:byte <- 68
	@DEBUG_VALUE: wr_reg:reg <- 68
	@DEBUG_VALUE: wr_reg:val <- 14
	@DEBUG_VALUE: wr_cmd:cmd <- 68
	.loc	2 128 27                        @ C:/Users/dakum/AppData/Local/Arm/Packs/Keil/V2M-MPS2_IOTKit_BSP/1.5.1/Boards/ARM/V2M-MPS2/Common/GLCD_V2M-MPS2.c:128:27
	ldr	r6, [r0, #4]
	.loc	2 128 3 is_stmt 0               @ C:/Users/dakum/AppData/Local/Arm/Packs/Keil/V2M-MPS2_IOTKit_BSP/1.5.1/Boards/ARM/V2M-MPS2/Common/GLCD_V2M-MPS2.c:128:3
	lsls	r6, r6, #29
	bpl	.LBB0_159
.Ltmp290:
@ %bb.160:
	@DEBUG_VALUE: spi_tran:byte <- 68
	@DEBUG_VALUE: wr_reg:reg <- 68
	@DEBUG_VALUE: wr_reg:val <- 14
	@DEBUG_VALUE: wr_cmd:cmd <- 68
	.loc	2 129 35 is_stmt 1              @ C:/Users/dakum/AppData/Local/Arm/Packs/Keil/V2M-MPS2_IOTKit_BSP/1.5.1/Boards/ARM/V2M-MPS2/Common/GLCD_V2M-MPS2.c:129:35
	ldr	r6, [r0]
.Ltmp291:
	.loc	2 142 3                         @ C:/Users/dakum/AppData/Local/Arm/Packs/Keil/V2M-MPS2_IOTKit_BSP/1.5.1/Boards/ARM/V2M-MPS2/Common/GLCD_V2M-MPS2.c:142:3
	ldr	r6, [r1]
	orrs	r6, r3
	str	r6, [r1]
.Ltmp292:
	@DEBUG_VALUE: wr_dat:dat <- 14
	.loc	2 151 3                         @ C:/Users/dakum/AppData/Local/Arm/Packs/Keil/V2M-MPS2_IOTKit_BSP/1.5.1/Boards/ARM/V2M-MPS2/Common/GLCD_V2M-MPS2.c:151:3
	ldr	r6, [r1]
	bics	r6, r3
	str	r6, [r1]
.Ltmp293:
	@DEBUG_VALUE: spi_tran:byte <- 114
	.loc	2 127 21                        @ C:/Users/dakum/AppData/Local/Arm/Packs/Keil/V2M-MPS2_IOTKit_BSP/1.5.1/Boards/ARM/V2M-MPS2/Common/GLCD_V2M-MPS2.c:127:21
	str	r7, [r0]
.Ltmp294:
.LBB0_161:                              @ =>This Inner Loop Header: Depth=1
	@DEBUG_VALUE: spi_tran:byte <- 114
	@DEBUG_VALUE: wr_dat:dat <- 14
	@DEBUG_VALUE: wr_reg:reg <- 68
	@DEBUG_VALUE: wr_reg:val <- 14
	.loc	2 128 27                        @ C:/Users/dakum/AppData/Local/Arm/Packs/Keil/V2M-MPS2_IOTKit_BSP/1.5.1/Boards/ARM/V2M-MPS2/Common/GLCD_V2M-MPS2.c:128:27
	ldr	r6, [r0, #4]
	.loc	2 128 3 is_stmt 0               @ C:/Users/dakum/AppData/Local/Arm/Packs/Keil/V2M-MPS2_IOTKit_BSP/1.5.1/Boards/ARM/V2M-MPS2/Common/GLCD_V2M-MPS2.c:128:3
	lsls	r6, r6, #29
	bpl	.LBB0_161
.Ltmp295:
@ %bb.162:
	@DEBUG_VALUE: spi_tran:byte <- 114
	@DEBUG_VALUE: wr_dat:dat <- 14
	@DEBUG_VALUE: wr_reg:reg <- 68
	@DEBUG_VALUE: wr_reg:val <- 14
	.loc	2 129 35 is_stmt 1              @ C:/Users/dakum/AppData/Local/Arm/Packs/Keil/V2M-MPS2_IOTKit_BSP/1.5.1/Boards/ARM/V2M-MPS2/Common/GLCD_V2M-MPS2.c:129:35
	ldr	r6, [r0]
.Ltmp296:
	@DEBUG_VALUE: spi_tran:byte <- 0
	.loc	2 127 21                        @ C:/Users/dakum/AppData/Local/Arm/Packs/Keil/V2M-MPS2_IOTKit_BSP/1.5.1/Boards/ARM/V2M-MPS2/Common/GLCD_V2M-MPS2.c:127:21
	str	r2, [r0]
.Ltmp297:
.LBB0_163:                              @ =>This Inner Loop Header: Depth=1
	@DEBUG_VALUE: spi_tran:byte <- 0
	@DEBUG_VALUE: wr_dat:dat <- 14
	@DEBUG_VALUE: wr_reg:reg <- 68
	@DEBUG_VALUE: wr_reg:val <- 14
	.loc	2 128 27                        @ C:/Users/dakum/AppData/Local/Arm/Packs/Keil/V2M-MPS2_IOTKit_BSP/1.5.1/Boards/ARM/V2M-MPS2/Common/GLCD_V2M-MPS2.c:128:27
	ldr	r6, [r0, #4]
	.loc	2 128 3 is_stmt 0               @ C:/Users/dakum/AppData/Local/Arm/Packs/Keil/V2M-MPS2_IOTKit_BSP/1.5.1/Boards/ARM/V2M-MPS2/Common/GLCD_V2M-MPS2.c:128:3
	lsls	r6, r6, #29
	bpl	.LBB0_163
.Ltmp298:
@ %bb.164:
	@DEBUG_VALUE: spi_tran:byte <- 0
	@DEBUG_VALUE: wr_dat:dat <- 14
	@DEBUG_VALUE: wr_reg:reg <- 68
	@DEBUG_VALUE: wr_reg:val <- 14
	.loc	2 129 35 is_stmt 1              @ C:/Users/dakum/AppData/Local/Arm/Packs/Keil/V2M-MPS2_IOTKit_BSP/1.5.1/Boards/ARM/V2M-MPS2/Common/GLCD_V2M-MPS2.c:129:35
	ldr	r6, [r0]
	movs	r6, #14
	str	r6, [sp, #32]                   @ 4-byte Spill
.Ltmp299:
	@DEBUG_VALUE: spi_tran:byte <- [DW_OP_stack_value] 14
	.loc	2 127 21                        @ C:/Users/dakum/AppData/Local/Arm/Packs/Keil/V2M-MPS2_IOTKit_BSP/1.5.1/Boards/ARM/V2M-MPS2/Common/GLCD_V2M-MPS2.c:127:21
	str	r6, [r0]
.Ltmp300:
.LBB0_165:                              @ =>This Inner Loop Header: Depth=1
	@DEBUG_VALUE: spi_tran:byte <- [DW_OP_stack_value] 14
	@DEBUG_VALUE: wr_dat:dat <- 14
	@DEBUG_VALUE: wr_reg:reg <- 68
	@DEBUG_VALUE: wr_reg:val <- 14
	.loc	2 128 27                        @ C:/Users/dakum/AppData/Local/Arm/Packs/Keil/V2M-MPS2_IOTKit_BSP/1.5.1/Boards/ARM/V2M-MPS2/Common/GLCD_V2M-MPS2.c:128:27
	ldr	r6, [r0, #4]
	.loc	2 128 3 is_stmt 0               @ C:/Users/dakum/AppData/Local/Arm/Packs/Keil/V2M-MPS2_IOTKit_BSP/1.5.1/Boards/ARM/V2M-MPS2/Common/GLCD_V2M-MPS2.c:128:3
	lsls	r6, r6, #29
	bpl	.LBB0_165
.Ltmp301:
@ %bb.166:
	@DEBUG_VALUE: spi_tran:byte <- [DW_OP_stack_value] 14
	@DEBUG_VALUE: wr_dat:dat <- 14
	@DEBUG_VALUE: wr_reg:reg <- 68
	@DEBUG_VALUE: wr_reg:val <- 14
	.loc	2 129 35 is_stmt 1              @ C:/Users/dakum/AppData/Local/Arm/Packs/Keil/V2M-MPS2_IOTKit_BSP/1.5.1/Boards/ARM/V2M-MPS2/Common/GLCD_V2M-MPS2.c:129:35
	ldr	r6, [r0]
.Ltmp302:
	.loc	2 155 3                         @ C:/Users/dakum/AppData/Local/Arm/Packs/Keil/V2M-MPS2_IOTKit_BSP/1.5.1/Boards/ARM/V2M-MPS2/Common/GLCD_V2M-MPS2.c:155:3
	ldr	r6, [r1]
	orrs	r6, r3
	str	r6, [r1]
.Ltmp303:
	@DEBUG_VALUE: wr_cmd:cmd <- 69
	@DEBUG_VALUE: wr_reg:val <- 36
	@DEBUG_VALUE: wr_reg:reg <- 69
	.loc	2 138 3                         @ C:/Users/dakum/AppData/Local/Arm/Packs/Keil/V2M-MPS2_IOTKit_BSP/1.5.1/Boards/ARM/V2M-MPS2/Common/GLCD_V2M-MPS2.c:138:3
	ldr	r6, [r1]
	bics	r6, r3
	str	r6, [r1]
.Ltmp304:
	@DEBUG_VALUE: spi_tran:byte <- 112
	.loc	2 127 21                        @ C:/Users/dakum/AppData/Local/Arm/Packs/Keil/V2M-MPS2_IOTKit_BSP/1.5.1/Boards/ARM/V2M-MPS2/Common/GLCD_V2M-MPS2.c:127:21
	str	r4, [r0]
.Ltmp305:
.LBB0_167:                              @ =>This Inner Loop Header: Depth=1
	@DEBUG_VALUE: spi_tran:byte <- 112
	@DEBUG_VALUE: wr_reg:reg <- 69
	@DEBUG_VALUE: wr_reg:val <- 36
	@DEBUG_VALUE: wr_cmd:cmd <- 69
	.loc	2 128 27                        @ C:/Users/dakum/AppData/Local/Arm/Packs/Keil/V2M-MPS2_IOTKit_BSP/1.5.1/Boards/ARM/V2M-MPS2/Common/GLCD_V2M-MPS2.c:128:27
	ldr	r6, [r0, #4]
	.loc	2 128 3 is_stmt 0               @ C:/Users/dakum/AppData/Local/Arm/Packs/Keil/V2M-MPS2_IOTKit_BSP/1.5.1/Boards/ARM/V2M-MPS2/Common/GLCD_V2M-MPS2.c:128:3
	lsls	r6, r6, #29
	bpl	.LBB0_167
.Ltmp306:
@ %bb.168:
	@DEBUG_VALUE: spi_tran:byte <- 112
	@DEBUG_VALUE: wr_reg:reg <- 69
	@DEBUG_VALUE: wr_reg:val <- 36
	@DEBUG_VALUE: wr_cmd:cmd <- 69
	.loc	2 129 35 is_stmt 1              @ C:/Users/dakum/AppData/Local/Arm/Packs/Keil/V2M-MPS2_IOTKit_BSP/1.5.1/Boards/ARM/V2M-MPS2/Common/GLCD_V2M-MPS2.c:129:35
	ldr	r6, [r0]
.Ltmp307:
	@DEBUG_VALUE: spi_tran:byte <- 0
	.loc	2 127 21                        @ C:/Users/dakum/AppData/Local/Arm/Packs/Keil/V2M-MPS2_IOTKit_BSP/1.5.1/Boards/ARM/V2M-MPS2/Common/GLCD_V2M-MPS2.c:127:21
	str	r2, [r0]
.Ltmp308:
.LBB0_169:                              @ =>This Inner Loop Header: Depth=1
	@DEBUG_VALUE: spi_tran:byte <- 0
	@DEBUG_VALUE: wr_reg:reg <- 69
	@DEBUG_VALUE: wr_reg:val <- 36
	@DEBUG_VALUE: wr_cmd:cmd <- 69
	.loc	2 128 27                        @ C:/Users/dakum/AppData/Local/Arm/Packs/Keil/V2M-MPS2_IOTKit_BSP/1.5.1/Boards/ARM/V2M-MPS2/Common/GLCD_V2M-MPS2.c:128:27
	ldr	r6, [r0, #4]
	.loc	2 128 3 is_stmt 0               @ C:/Users/dakum/AppData/Local/Arm/Packs/Keil/V2M-MPS2_IOTKit_BSP/1.5.1/Boards/ARM/V2M-MPS2/Common/GLCD_V2M-MPS2.c:128:3
	lsls	r6, r6, #29
	bpl	.LBB0_169
.Ltmp309:
@ %bb.170:
	@DEBUG_VALUE: spi_tran:byte <- 0
	@DEBUG_VALUE: wr_reg:reg <- 69
	@DEBUG_VALUE: wr_reg:val <- 36
	@DEBUG_VALUE: wr_cmd:cmd <- 69
	.loc	2 129 35 is_stmt 1              @ C:/Users/dakum/AppData/Local/Arm/Packs/Keil/V2M-MPS2_IOTKit_BSP/1.5.1/Boards/ARM/V2M-MPS2/Common/GLCD_V2M-MPS2.c:129:35
	ldr	r6, [r0]
	movs	r6, #69
.Ltmp310:
	@DEBUG_VALUE: spi_tran:byte <- 69
	.loc	2 127 21                        @ C:/Users/dakum/AppData/Local/Arm/Packs/Keil/V2M-MPS2_IOTKit_BSP/1.5.1/Boards/ARM/V2M-MPS2/Common/GLCD_V2M-MPS2.c:127:21
	str	r6, [r0]
.Ltmp311:
.LBB0_171:                              @ =>This Inner Loop Header: Depth=1
	@DEBUG_VALUE: spi_tran:byte <- 69
	@DEBUG_VALUE: wr_reg:reg <- 69
	@DEBUG_VALUE: wr_reg:val <- 36
	@DEBUG_VALUE: wr_cmd:cmd <- 69
	.loc	2 128 27                        @ C:/Users/dakum/AppData/Local/Arm/Packs/Keil/V2M-MPS2_IOTKit_BSP/1.5.1/Boards/ARM/V2M-MPS2/Common/GLCD_V2M-MPS2.c:128:27
	ldr	r6, [r0, #4]
	.loc	2 128 3 is_stmt 0               @ C:/Users/dakum/AppData/Local/Arm/Packs/Keil/V2M-MPS2_IOTKit_BSP/1.5.1/Boards/ARM/V2M-MPS2/Common/GLCD_V2M-MPS2.c:128:3
	lsls	r6, r6, #29
	bpl	.LBB0_171
.Ltmp312:
@ %bb.172:
	@DEBUG_VALUE: spi_tran:byte <- 69
	@DEBUG_VALUE: wr_reg:reg <- 69
	@DEBUG_VALUE: wr_reg:val <- 36
	@DEBUG_VALUE: wr_cmd:cmd <- 69
	.loc	2 129 35 is_stmt 1              @ C:/Users/dakum/AppData/Local/Arm/Packs/Keil/V2M-MPS2_IOTKit_BSP/1.5.1/Boards/ARM/V2M-MPS2/Common/GLCD_V2M-MPS2.c:129:35
	ldr	r6, [r0]
.Ltmp313:
	.loc	2 142 3                         @ C:/Users/dakum/AppData/Local/Arm/Packs/Keil/V2M-MPS2_IOTKit_BSP/1.5.1/Boards/ARM/V2M-MPS2/Common/GLCD_V2M-MPS2.c:142:3
	ldr	r6, [r1]
	orrs	r6, r3
	str	r6, [r1]
.Ltmp314:
	@DEBUG_VALUE: wr_dat:dat <- 36
	.loc	2 151 3                         @ C:/Users/dakum/AppData/Local/Arm/Packs/Keil/V2M-MPS2_IOTKit_BSP/1.5.1/Boards/ARM/V2M-MPS2/Common/GLCD_V2M-MPS2.c:151:3
	ldr	r6, [r1]
	bics	r6, r3
	str	r6, [r1]
.Ltmp315:
	@DEBUG_VALUE: spi_tran:byte <- 114
	.loc	2 127 21                        @ C:/Users/dakum/AppData/Local/Arm/Packs/Keil/V2M-MPS2_IOTKit_BSP/1.5.1/Boards/ARM/V2M-MPS2/Common/GLCD_V2M-MPS2.c:127:21
	str	r7, [r0]
.Ltmp316:
.LBB0_173:                              @ =>This Inner Loop Header: Depth=1
	@DEBUG_VALUE: spi_tran:byte <- 114
	@DEBUG_VALUE: wr_dat:dat <- 36
	@DEBUG_VALUE: wr_reg:reg <- 69
	@DEBUG_VALUE: wr_reg:val <- 36
	.loc	2 128 27                        @ C:/Users/dakum/AppData/Local/Arm/Packs/Keil/V2M-MPS2_IOTKit_BSP/1.5.1/Boards/ARM/V2M-MPS2/Common/GLCD_V2M-MPS2.c:128:27
	ldr	r6, [r0, #4]
	.loc	2 128 3 is_stmt 0               @ C:/Users/dakum/AppData/Local/Arm/Packs/Keil/V2M-MPS2_IOTKit_BSP/1.5.1/Boards/ARM/V2M-MPS2/Common/GLCD_V2M-MPS2.c:128:3
	lsls	r6, r6, #29
	bpl	.LBB0_173
.Ltmp317:
@ %bb.174:
	@DEBUG_VALUE: spi_tran:byte <- 114
	@DEBUG_VALUE: wr_dat:dat <- 36
	@DEBUG_VALUE: wr_reg:reg <- 69
	@DEBUG_VALUE: wr_reg:val <- 36
	.loc	2 129 35 is_stmt 1              @ C:/Users/dakum/AppData/Local/Arm/Packs/Keil/V2M-MPS2_IOTKit_BSP/1.5.1/Boards/ARM/V2M-MPS2/Common/GLCD_V2M-MPS2.c:129:35
	ldr	r6, [r0]
.Ltmp318:
	@DEBUG_VALUE: spi_tran:byte <- 0
	.loc	2 127 21                        @ C:/Users/dakum/AppData/Local/Arm/Packs/Keil/V2M-MPS2_IOTKit_BSP/1.5.1/Boards/ARM/V2M-MPS2/Common/GLCD_V2M-MPS2.c:127:21
	str	r2, [r0]
.Ltmp319:
.LBB0_175:                              @ =>This Inner Loop Header: Depth=1
	@DEBUG_VALUE: spi_tran:byte <- 0
	@DEBUG_VALUE: wr_dat:dat <- 36
	@DEBUG_VALUE: wr_reg:reg <- 69
	@DEBUG_VALUE: wr_reg:val <- 36
	.loc	2 128 27                        @ C:/Users/dakum/AppData/Local/Arm/Packs/Keil/V2M-MPS2_IOTKit_BSP/1.5.1/Boards/ARM/V2M-MPS2/Common/GLCD_V2M-MPS2.c:128:27
	ldr	r6, [r0, #4]
	.loc	2 128 3 is_stmt 0               @ C:/Users/dakum/AppData/Local/Arm/Packs/Keil/V2M-MPS2_IOTKit_BSP/1.5.1/Boards/ARM/V2M-MPS2/Common/GLCD_V2M-MPS2.c:128:3
	lsls	r6, r6, #29
	bpl	.LBB0_175
.Ltmp320:
@ %bb.176:
	@DEBUG_VALUE: spi_tran:byte <- 0
	@DEBUG_VALUE: wr_dat:dat <- 36
	@DEBUG_VALUE: wr_reg:reg <- 69
	@DEBUG_VALUE: wr_reg:val <- 36
	.loc	2 129 35 is_stmt 1              @ C:/Users/dakum/AppData/Local/Arm/Packs/Keil/V2M-MPS2_IOTKit_BSP/1.5.1/Boards/ARM/V2M-MPS2/Common/GLCD_V2M-MPS2.c:129:35
	ldr	r6, [r0]
	movs	r6, #36
	str	r6, [sp, #8]                    @ 4-byte Spill
.Ltmp321:
	@DEBUG_VALUE: spi_tran:byte <- [DW_OP_stack_value] 36
	.loc	2 127 21                        @ C:/Users/dakum/AppData/Local/Arm/Packs/Keil/V2M-MPS2_IOTKit_BSP/1.5.1/Boards/ARM/V2M-MPS2/Common/GLCD_V2M-MPS2.c:127:21
	str	r6, [r0]
.Ltmp322:
.LBB0_177:                              @ =>This Inner Loop Header: Depth=1
	@DEBUG_VALUE: spi_tran:byte <- [DW_OP_stack_value] 36
	@DEBUG_VALUE: wr_dat:dat <- 36
	@DEBUG_VALUE: wr_reg:reg <- 69
	@DEBUG_VALUE: wr_reg:val <- 36
	.loc	2 128 27                        @ C:/Users/dakum/AppData/Local/Arm/Packs/Keil/V2M-MPS2_IOTKit_BSP/1.5.1/Boards/ARM/V2M-MPS2/Common/GLCD_V2M-MPS2.c:128:27
	ldr	r6, [r0, #4]
	.loc	2 128 3 is_stmt 0               @ C:/Users/dakum/AppData/Local/Arm/Packs/Keil/V2M-MPS2_IOTKit_BSP/1.5.1/Boards/ARM/V2M-MPS2/Common/GLCD_V2M-MPS2.c:128:3
	lsls	r6, r6, #29
	bpl	.LBB0_177
.Ltmp323:
@ %bb.178:
	@DEBUG_VALUE: spi_tran:byte <- [DW_OP_stack_value] 36
	@DEBUG_VALUE: wr_dat:dat <- 36
	@DEBUG_VALUE: wr_reg:reg <- 69
	@DEBUG_VALUE: wr_reg:val <- 36
	.loc	2 129 35 is_stmt 1              @ C:/Users/dakum/AppData/Local/Arm/Packs/Keil/V2M-MPS2_IOTKit_BSP/1.5.1/Boards/ARM/V2M-MPS2/Common/GLCD_V2M-MPS2.c:129:35
	ldr	r6, [r0]
.Ltmp324:
	.loc	2 155 3                         @ C:/Users/dakum/AppData/Local/Arm/Packs/Keil/V2M-MPS2_IOTKit_BSP/1.5.1/Boards/ARM/V2M-MPS2/Common/GLCD_V2M-MPS2.c:155:3
	ldr	r6, [r1]
	orrs	r6, r3
	str	r6, [r1]
.Ltmp325:
	@DEBUG_VALUE: wr_cmd:cmd <- 70
	@DEBUG_VALUE: wr_reg:val <- 4
	@DEBUG_VALUE: wr_reg:reg <- 70
	.loc	2 138 3                         @ C:/Users/dakum/AppData/Local/Arm/Packs/Keil/V2M-MPS2_IOTKit_BSP/1.5.1/Boards/ARM/V2M-MPS2/Common/GLCD_V2M-MPS2.c:138:3
	ldr	r6, [r1]
	bics	r6, r3
	str	r6, [r1]
.Ltmp326:
	@DEBUG_VALUE: spi_tran:byte <- 112
	.loc	2 127 21                        @ C:/Users/dakum/AppData/Local/Arm/Packs/Keil/V2M-MPS2_IOTKit_BSP/1.5.1/Boards/ARM/V2M-MPS2/Common/GLCD_V2M-MPS2.c:127:21
	str	r4, [r0]
.Ltmp327:
.LBB0_179:                              @ =>This Inner Loop Header: Depth=1
	@DEBUG_VALUE: spi_tran:byte <- 112
	@DEBUG_VALUE: wr_reg:reg <- 70
	@DEBUG_VALUE: wr_reg:val <- 4
	@DEBUG_VALUE: wr_cmd:cmd <- 70
	.loc	2 128 27                        @ C:/Users/dakum/AppData/Local/Arm/Packs/Keil/V2M-MPS2_IOTKit_BSP/1.5.1/Boards/ARM/V2M-MPS2/Common/GLCD_V2M-MPS2.c:128:27
	ldr	r6, [r0, #4]
	.loc	2 128 3 is_stmt 0               @ C:/Users/dakum/AppData/Local/Arm/Packs/Keil/V2M-MPS2_IOTKit_BSP/1.5.1/Boards/ARM/V2M-MPS2/Common/GLCD_V2M-MPS2.c:128:3
	lsls	r6, r6, #29
	bpl	.LBB0_179
.Ltmp328:
@ %bb.180:
	@DEBUG_VALUE: spi_tran:byte <- 112
	@DEBUG_VALUE: wr_reg:reg <- 70
	@DEBUG_VALUE: wr_reg:val <- 4
	@DEBUG_VALUE: wr_cmd:cmd <- 70
	.loc	2 129 35 is_stmt 1              @ C:/Users/dakum/AppData/Local/Arm/Packs/Keil/V2M-MPS2_IOTKit_BSP/1.5.1/Boards/ARM/V2M-MPS2/Common/GLCD_V2M-MPS2.c:129:35
	ldr	r6, [r0]
.Ltmp329:
	@DEBUG_VALUE: spi_tran:byte <- 0
	.loc	2 127 21                        @ C:/Users/dakum/AppData/Local/Arm/Packs/Keil/V2M-MPS2_IOTKit_BSP/1.5.1/Boards/ARM/V2M-MPS2/Common/GLCD_V2M-MPS2.c:127:21
	str	r2, [r0]
.Ltmp330:
.LBB0_181:                              @ =>This Inner Loop Header: Depth=1
	@DEBUG_VALUE: spi_tran:byte <- 0
	@DEBUG_VALUE: wr_reg:reg <- 70
	@DEBUG_VALUE: wr_reg:val <- 4
	@DEBUG_VALUE: wr_cmd:cmd <- 70
	.loc	2 128 27                        @ C:/Users/dakum/AppData/Local/Arm/Packs/Keil/V2M-MPS2_IOTKit_BSP/1.5.1/Boards/ARM/V2M-MPS2/Common/GLCD_V2M-MPS2.c:128:27
	ldr	r6, [r0, #4]
	.loc	2 128 3 is_stmt 0               @ C:/Users/dakum/AppData/Local/Arm/Packs/Keil/V2M-MPS2_IOTKit_BSP/1.5.1/Boards/ARM/V2M-MPS2/Common/GLCD_V2M-MPS2.c:128:3
	lsls	r6, r6, #29
	bpl	.LBB0_181
.Ltmp331:
@ %bb.182:
	@DEBUG_VALUE: spi_tran:byte <- 0
	@DEBUG_VALUE: wr_reg:reg <- 70
	@DEBUG_VALUE: wr_reg:val <- 4
	@DEBUG_VALUE: wr_cmd:cmd <- 70
	.loc	2 129 35 is_stmt 1              @ C:/Users/dakum/AppData/Local/Arm/Packs/Keil/V2M-MPS2_IOTKit_BSP/1.5.1/Boards/ARM/V2M-MPS2/Common/GLCD_V2M-MPS2.c:129:35
	ldr	r6, [r0]
	movs	r6, #70
.Ltmp332:
	@DEBUG_VALUE: spi_tran:byte <- 70
	.loc	2 127 21                        @ C:/Users/dakum/AppData/Local/Arm/Packs/Keil/V2M-MPS2_IOTKit_BSP/1.5.1/Boards/ARM/V2M-MPS2/Common/GLCD_V2M-MPS2.c:127:21
	str	r6, [r0]
.Ltmp333:
.LBB0_183:                              @ =>This Inner Loop Header: Depth=1
	@DEBUG_VALUE: spi_tran:byte <- 70
	@DEBUG_VALUE: wr_reg:reg <- 70
	@DEBUG_VALUE: wr_reg:val <- 4
	@DEBUG_VALUE: wr_cmd:cmd <- 70
	.loc	2 128 27                        @ C:/Users/dakum/AppData/Local/Arm/Packs/Keil/V2M-MPS2_IOTKit_BSP/1.5.1/Boards/ARM/V2M-MPS2/Common/GLCD_V2M-MPS2.c:128:27
	ldr	r6, [r0, #4]
	.loc	2 128 3 is_stmt 0               @ C:/Users/dakum/AppData/Local/Arm/Packs/Keil/V2M-MPS2_IOTKit_BSP/1.5.1/Boards/ARM/V2M-MPS2/Common/GLCD_V2M-MPS2.c:128:3
	lsls	r6, r6, #29
	bpl	.LBB0_183
.Ltmp334:
@ %bb.184:
	@DEBUG_VALUE: spi_tran:byte <- 70
	@DEBUG_VALUE: wr_reg:reg <- 70
	@DEBUG_VALUE: wr_reg:val <- 4
	@DEBUG_VALUE: wr_cmd:cmd <- 70
	.loc	2 129 35 is_stmt 1              @ C:/Users/dakum/AppData/Local/Arm/Packs/Keil/V2M-MPS2_IOTKit_BSP/1.5.1/Boards/ARM/V2M-MPS2/Common/GLCD_V2M-MPS2.c:129:35
	ldr	r6, [r0]
.Ltmp335:
	.loc	2 142 3                         @ C:/Users/dakum/AppData/Local/Arm/Packs/Keil/V2M-MPS2_IOTKit_BSP/1.5.1/Boards/ARM/V2M-MPS2/Common/GLCD_V2M-MPS2.c:142:3
	ldr	r6, [r1]
	orrs	r6, r3
	str	r6, [r1]
.Ltmp336:
	@DEBUG_VALUE: wr_dat:dat <- 4
	.loc	2 151 3                         @ C:/Users/dakum/AppData/Local/Arm/Packs/Keil/V2M-MPS2_IOTKit_BSP/1.5.1/Boards/ARM/V2M-MPS2/Common/GLCD_V2M-MPS2.c:151:3
	ldr	r6, [r1]
	bics	r6, r3
	str	r6, [r1]
.Ltmp337:
	@DEBUG_VALUE: spi_tran:byte <- 114
	.loc	2 127 21                        @ C:/Users/dakum/AppData/Local/Arm/Packs/Keil/V2M-MPS2_IOTKit_BSP/1.5.1/Boards/ARM/V2M-MPS2/Common/GLCD_V2M-MPS2.c:127:21
	str	r7, [r0]
.Ltmp338:
.LBB0_185:                              @ =>This Inner Loop Header: Depth=1
	@DEBUG_VALUE: spi_tran:byte <- 114
	@DEBUG_VALUE: wr_dat:dat <- 4
	@DEBUG_VALUE: wr_reg:reg <- 70
	@DEBUG_VALUE: wr_reg:val <- 4
	.loc	2 128 27                        @ C:/Users/dakum/AppData/Local/Arm/Packs/Keil/V2M-MPS2_IOTKit_BSP/1.5.1/Boards/ARM/V2M-MPS2/Common/GLCD_V2M-MPS2.c:128:27
	ldr	r6, [r0, #4]
	.loc	2 128 3 is_stmt 0               @ C:/Users/dakum/AppData/Local/Arm/Packs/Keil/V2M-MPS2_IOTKit_BSP/1.5.1/Boards/ARM/V2M-MPS2/Common/GLCD_V2M-MPS2.c:128:3
	lsls	r6, r6, #29
	bpl	.LBB0_185
.Ltmp339:
@ %bb.186:
	@DEBUG_VALUE: spi_tran:byte <- 114
	@DEBUG_VALUE: wr_dat:dat <- 4
	@DEBUG_VALUE: wr_reg:reg <- 70
	@DEBUG_VALUE: wr_reg:val <- 4
	.loc	2 129 35 is_stmt 1              @ C:/Users/dakum/AppData/Local/Arm/Packs/Keil/V2M-MPS2_IOTKit_BSP/1.5.1/Boards/ARM/V2M-MPS2/Common/GLCD_V2M-MPS2.c:129:35
	ldr	r6, [r0]
.Ltmp340:
	@DEBUG_VALUE: spi_tran:byte <- 0
	.loc	2 127 21                        @ C:/Users/dakum/AppData/Local/Arm/Packs/Keil/V2M-MPS2_IOTKit_BSP/1.5.1/Boards/ARM/V2M-MPS2/Common/GLCD_V2M-MPS2.c:127:21
	str	r2, [r0]
.Ltmp341:
.LBB0_187:                              @ =>This Inner Loop Header: Depth=1
	@DEBUG_VALUE: spi_tran:byte <- 0
	@DEBUG_VALUE: wr_dat:dat <- 4
	@DEBUG_VALUE: wr_reg:reg <- 70
	@DEBUG_VALUE: wr_reg:val <- 4
	.loc	2 128 27                        @ C:/Users/dakum/AppData/Local/Arm/Packs/Keil/V2M-MPS2_IOTKit_BSP/1.5.1/Boards/ARM/V2M-MPS2/Common/GLCD_V2M-MPS2.c:128:27
	ldr	r6, [r0, #4]
	.loc	2 128 3 is_stmt 0               @ C:/Users/dakum/AppData/Local/Arm/Packs/Keil/V2M-MPS2_IOTKit_BSP/1.5.1/Boards/ARM/V2M-MPS2/Common/GLCD_V2M-MPS2.c:128:3
	lsls	r6, r6, #29
	bpl	.LBB0_187
.Ltmp342:
@ %bb.188:
	@DEBUG_VALUE: spi_tran:byte <- 0
	@DEBUG_VALUE: wr_dat:dat <- 4
	@DEBUG_VALUE: wr_reg:reg <- 70
	@DEBUG_VALUE: wr_reg:val <- 4
	.loc	2 129 35 is_stmt 1              @ C:/Users/dakum/AppData/Local/Arm/Packs/Keil/V2M-MPS2_IOTKit_BSP/1.5.1/Boards/ARM/V2M-MPS2/Common/GLCD_V2M-MPS2.c:129:35
	ldr	r6, [r0]
	movs	r6, #4
.Ltmp343:
	@DEBUG_VALUE: spi_tran:byte <- [DW_OP_stack_value] 4
	.loc	2 127 21                        @ C:/Users/dakum/AppData/Local/Arm/Packs/Keil/V2M-MPS2_IOTKit_BSP/1.5.1/Boards/ARM/V2M-MPS2/Common/GLCD_V2M-MPS2.c:127:21
	str	r6, [r0]
.Ltmp344:
.LBB0_189:                              @ =>This Inner Loop Header: Depth=1
	@DEBUG_VALUE: spi_tran:byte <- [DW_OP_stack_value] 4
	@DEBUG_VALUE: wr_dat:dat <- 4
	@DEBUG_VALUE: wr_reg:reg <- 70
	@DEBUG_VALUE: wr_reg:val <- 4
	.loc	2 128 27                        @ C:/Users/dakum/AppData/Local/Arm/Packs/Keil/V2M-MPS2_IOTKit_BSP/1.5.1/Boards/ARM/V2M-MPS2/Common/GLCD_V2M-MPS2.c:128:27
	ldr	r6, [r0, #4]
	.loc	2 128 3 is_stmt 0               @ C:/Users/dakum/AppData/Local/Arm/Packs/Keil/V2M-MPS2_IOTKit_BSP/1.5.1/Boards/ARM/V2M-MPS2/Common/GLCD_V2M-MPS2.c:128:3
	lsls	r6, r6, #29
	bpl	.LBB0_189
.Ltmp345:
@ %bb.190:
	@DEBUG_VALUE: spi_tran:byte <- [DW_OP_stack_value] 4
	@DEBUG_VALUE: wr_dat:dat <- 4
	@DEBUG_VALUE: wr_reg:reg <- 70
	@DEBUG_VALUE: wr_reg:val <- 4
	.loc	2 129 35 is_stmt 1              @ C:/Users/dakum/AppData/Local/Arm/Packs/Keil/V2M-MPS2_IOTKit_BSP/1.5.1/Boards/ARM/V2M-MPS2/Common/GLCD_V2M-MPS2.c:129:35
	ldr	r6, [r0]
.Ltmp346:
	.loc	2 155 3                         @ C:/Users/dakum/AppData/Local/Arm/Packs/Keil/V2M-MPS2_IOTKit_BSP/1.5.1/Boards/ARM/V2M-MPS2/Common/GLCD_V2M-MPS2.c:155:3
	ldr	r6, [r1]
	orrs	r6, r3
	str	r6, [r1]
.Ltmp347:
	@DEBUG_VALUE: wr_cmd:cmd <- 71
	@DEBUG_VALUE: wr_reg:val <- 80
	@DEBUG_VALUE: wr_reg:reg <- 71
	.loc	2 138 3                         @ C:/Users/dakum/AppData/Local/Arm/Packs/Keil/V2M-MPS2_IOTKit_BSP/1.5.1/Boards/ARM/V2M-MPS2/Common/GLCD_V2M-MPS2.c:138:3
	ldr	r6, [r1]
	bics	r6, r3
	str	r6, [r1]
.Ltmp348:
	@DEBUG_VALUE: spi_tran:byte <- 112
	.loc	2 127 21                        @ C:/Users/dakum/AppData/Local/Arm/Packs/Keil/V2M-MPS2_IOTKit_BSP/1.5.1/Boards/ARM/V2M-MPS2/Common/GLCD_V2M-MPS2.c:127:21
	str	r4, [r0]
.Ltmp349:
.LBB0_191:                              @ =>This Inner Loop Header: Depth=1
	@DEBUG_VALUE: spi_tran:byte <- 112
	@DEBUG_VALUE: wr_reg:reg <- 71
	@DEBUG_VALUE: wr_reg:val <- 80
	@DEBUG_VALUE: wr_cmd:cmd <- 71
	.loc	2 128 27                        @ C:/Users/dakum/AppData/Local/Arm/Packs/Keil/V2M-MPS2_IOTKit_BSP/1.5.1/Boards/ARM/V2M-MPS2/Common/GLCD_V2M-MPS2.c:128:27
	ldr	r6, [r0, #4]
	.loc	2 128 3 is_stmt 0               @ C:/Users/dakum/AppData/Local/Arm/Packs/Keil/V2M-MPS2_IOTKit_BSP/1.5.1/Boards/ARM/V2M-MPS2/Common/GLCD_V2M-MPS2.c:128:3
	lsls	r6, r6, #29
	bpl	.LBB0_191
.Ltmp350:
@ %bb.192:
	@DEBUG_VALUE: spi_tran:byte <- 112
	@DEBUG_VALUE: wr_reg:reg <- 71
	@DEBUG_VALUE: wr_reg:val <- 80
	@DEBUG_VALUE: wr_cmd:cmd <- 71
	.loc	2 129 35 is_stmt 1              @ C:/Users/dakum/AppData/Local/Arm/Packs/Keil/V2M-MPS2_IOTKit_BSP/1.5.1/Boards/ARM/V2M-MPS2/Common/GLCD_V2M-MPS2.c:129:35
	ldr	r6, [r0]
.Ltmp351:
	@DEBUG_VALUE: spi_tran:byte <- 0
	.loc	2 127 21                        @ C:/Users/dakum/AppData/Local/Arm/Packs/Keil/V2M-MPS2_IOTKit_BSP/1.5.1/Boards/ARM/V2M-MPS2/Common/GLCD_V2M-MPS2.c:127:21
	str	r2, [r0]
.Ltmp352:
.LBB0_193:                              @ =>This Inner Loop Header: Depth=1
	@DEBUG_VALUE: spi_tran:byte <- 0
	@DEBUG_VALUE: wr_reg:reg <- 71
	@DEBUG_VALUE: wr_reg:val <- 80
	@DEBUG_VALUE: wr_cmd:cmd <- 71
	.loc	2 128 27                        @ C:/Users/dakum/AppData/Local/Arm/Packs/Keil/V2M-MPS2_IOTKit_BSP/1.5.1/Boards/ARM/V2M-MPS2/Common/GLCD_V2M-MPS2.c:128:27
	ldr	r6, [r0, #4]
	.loc	2 128 3 is_stmt 0               @ C:/Users/dakum/AppData/Local/Arm/Packs/Keil/V2M-MPS2_IOTKit_BSP/1.5.1/Boards/ARM/V2M-MPS2/Common/GLCD_V2M-MPS2.c:128:3
	lsls	r6, r6, #29
	bpl	.LBB0_193
.Ltmp353:
@ %bb.194:
	@DEBUG_VALUE: spi_tran:byte <- 0
	@DEBUG_VALUE: wr_reg:reg <- 71
	@DEBUG_VALUE: wr_reg:val <- 80
	@DEBUG_VALUE: wr_cmd:cmd <- 71
	.loc	2 129 35 is_stmt 1              @ C:/Users/dakum/AppData/Local/Arm/Packs/Keil/V2M-MPS2_IOTKit_BSP/1.5.1/Boards/ARM/V2M-MPS2/Common/GLCD_V2M-MPS2.c:129:35
	ldr	r6, [r0]
	movs	r6, #71
.Ltmp354:
	@DEBUG_VALUE: spi_tran:byte <- 71
	.loc	2 127 21                        @ C:/Users/dakum/AppData/Local/Arm/Packs/Keil/V2M-MPS2_IOTKit_BSP/1.5.1/Boards/ARM/V2M-MPS2/Common/GLCD_V2M-MPS2.c:127:21
	str	r6, [r0]
.Ltmp355:
.LBB0_195:                              @ =>This Inner Loop Header: Depth=1
	@DEBUG_VALUE: spi_tran:byte <- 71
	@DEBUG_VALUE: wr_reg:reg <- 71
	@DEBUG_VALUE: wr_reg:val <- 80
	@DEBUG_VALUE: wr_cmd:cmd <- 71
	.loc	2 128 27                        @ C:/Users/dakum/AppData/Local/Arm/Packs/Keil/V2M-MPS2_IOTKit_BSP/1.5.1/Boards/ARM/V2M-MPS2/Common/GLCD_V2M-MPS2.c:128:27
	ldr	r6, [r0, #4]
	.loc	2 128 3 is_stmt 0               @ C:/Users/dakum/AppData/Local/Arm/Packs/Keil/V2M-MPS2_IOTKit_BSP/1.5.1/Boards/ARM/V2M-MPS2/Common/GLCD_V2M-MPS2.c:128:3
	lsls	r6, r6, #29
	bpl	.LBB0_195
.Ltmp356:
@ %bb.196:
	@DEBUG_VALUE: spi_tran:byte <- 71
	@DEBUG_VALUE: wr_reg:reg <- 71
	@DEBUG_VALUE: wr_reg:val <- 80
	@DEBUG_VALUE: wr_cmd:cmd <- 71
	.loc	2 129 35 is_stmt 1              @ C:/Users/dakum/AppData/Local/Arm/Packs/Keil/V2M-MPS2_IOTKit_BSP/1.5.1/Boards/ARM/V2M-MPS2/Common/GLCD_V2M-MPS2.c:129:35
	ldr	r6, [r0]
.Ltmp357:
	.loc	2 142 3                         @ C:/Users/dakum/AppData/Local/Arm/Packs/Keil/V2M-MPS2_IOTKit_BSP/1.5.1/Boards/ARM/V2M-MPS2/Common/GLCD_V2M-MPS2.c:142:3
	ldr	r6, [r1]
	orrs	r6, r3
	str	r6, [r1]
.Ltmp358:
	@DEBUG_VALUE: wr_dat:dat <- 80
	.loc	2 151 3                         @ C:/Users/dakum/AppData/Local/Arm/Packs/Keil/V2M-MPS2_IOTKit_BSP/1.5.1/Boards/ARM/V2M-MPS2/Common/GLCD_V2M-MPS2.c:151:3
	ldr	r6, [r1]
	bics	r6, r3
	str	r6, [r1]
.Ltmp359:
	@DEBUG_VALUE: spi_tran:byte <- 114
	.loc	2 127 21                        @ C:/Users/dakum/AppData/Local/Arm/Packs/Keil/V2M-MPS2_IOTKit_BSP/1.5.1/Boards/ARM/V2M-MPS2/Common/GLCD_V2M-MPS2.c:127:21
	str	r7, [r0]
.Ltmp360:
.LBB0_197:                              @ =>This Inner Loop Header: Depth=1
	@DEBUG_VALUE: spi_tran:byte <- 114
	@DEBUG_VALUE: wr_dat:dat <- 80
	@DEBUG_VALUE: wr_reg:reg <- 71
	@DEBUG_VALUE: wr_reg:val <- 80
	.loc	2 128 27                        @ C:/Users/dakum/AppData/Local/Arm/Packs/Keil/V2M-MPS2_IOTKit_BSP/1.5.1/Boards/ARM/V2M-MPS2/Common/GLCD_V2M-MPS2.c:128:27
	ldr	r6, [r0, #4]
	.loc	2 128 3 is_stmt 0               @ C:/Users/dakum/AppData/Local/Arm/Packs/Keil/V2M-MPS2_IOTKit_BSP/1.5.1/Boards/ARM/V2M-MPS2/Common/GLCD_V2M-MPS2.c:128:3
	lsls	r6, r6, #29
	bpl	.LBB0_197
.Ltmp361:
@ %bb.198:
	@DEBUG_VALUE: spi_tran:byte <- 114
	@DEBUG_VALUE: wr_dat:dat <- 80
	@DEBUG_VALUE: wr_reg:reg <- 71
	@DEBUG_VALUE: wr_reg:val <- 80
	.loc	2 0 3                           @ C:/Users/dakum/AppData/Local/Arm/Packs/Keil/V2M-MPS2_IOTKit_BSP/1.5.1/Boards/ARM/V2M-MPS2/Common/GLCD_V2M-MPS2.c:0:3
	str	r7, [sp, #64]                   @ 4-byte Spill
	.loc	2 129 35 is_stmt 1              @ C:/Users/dakum/AppData/Local/Arm/Packs/Keil/V2M-MPS2_IOTKit_BSP/1.5.1/Boards/ARM/V2M-MPS2/Common/GLCD_V2M-MPS2.c:129:35
	ldr	r6, [r0]
.Ltmp362:
	@DEBUG_VALUE: spi_tran:byte <- 0
	.loc	2 127 21                        @ C:/Users/dakum/AppData/Local/Arm/Packs/Keil/V2M-MPS2_IOTKit_BSP/1.5.1/Boards/ARM/V2M-MPS2/Common/GLCD_V2M-MPS2.c:127:21
	str	r2, [r0]
.Ltmp363:
.LBB0_199:                              @ =>This Inner Loop Header: Depth=1
	@DEBUG_VALUE: spi_tran:byte <- 0
	@DEBUG_VALUE: wr_dat:dat <- 80
	@DEBUG_VALUE: wr_reg:reg <- 71
	@DEBUG_VALUE: wr_reg:val <- 80
	.loc	2 128 27                        @ C:/Users/dakum/AppData/Local/Arm/Packs/Keil/V2M-MPS2_IOTKit_BSP/1.5.1/Boards/ARM/V2M-MPS2/Common/GLCD_V2M-MPS2.c:128:27
	ldr	r6, [r0, #4]
	.loc	2 128 3 is_stmt 0               @ C:/Users/dakum/AppData/Local/Arm/Packs/Keil/V2M-MPS2_IOTKit_BSP/1.5.1/Boards/ARM/V2M-MPS2/Common/GLCD_V2M-MPS2.c:128:3
	lsls	r6, r6, #29
	bpl	.LBB0_199
.Ltmp364:
@ %bb.200:
	@DEBUG_VALUE: spi_tran:byte <- 0
	@DEBUG_VALUE: wr_dat:dat <- 80
	@DEBUG_VALUE: wr_reg:reg <- 71
	@DEBUG_VALUE: wr_reg:val <- 80
	.loc	2 0 3                           @ C:/Users/dakum/AppData/Local/Arm/Packs/Keil/V2M-MPS2_IOTKit_BSP/1.5.1/Boards/ARM/V2M-MPS2/Common/GLCD_V2M-MPS2.c:0:3
	str	r4, [sp, #60]                   @ 4-byte Spill
	.loc	2 129 35 is_stmt 1              @ C:/Users/dakum/AppData/Local/Arm/Packs/Keil/V2M-MPS2_IOTKit_BSP/1.5.1/Boards/ARM/V2M-MPS2/Common/GLCD_V2M-MPS2.c:129:35
	ldr	r6, [r0]
	movs	r6, #80
.Ltmp365:
	@DEBUG_VALUE: spi_tran:byte <- [DW_OP_stack_value] 80
	.loc	2 127 21                        @ C:/Users/dakum/AppData/Local/Arm/Packs/Keil/V2M-MPS2_IOTKit_BSP/1.5.1/Boards/ARM/V2M-MPS2/Common/GLCD_V2M-MPS2.c:127:21
	str	r6, [r0]
.Ltmp366:
.LBB0_201:                              @ =>This Inner Loop Header: Depth=1
	@DEBUG_VALUE: spi_tran:byte <- [DW_OP_stack_value] 80
	@DEBUG_VALUE: wr_dat:dat <- 80
	@DEBUG_VALUE: wr_reg:reg <- 71
	@DEBUG_VALUE: wr_reg:val <- 80
	.loc	2 128 27                        @ C:/Users/dakum/AppData/Local/Arm/Packs/Keil/V2M-MPS2_IOTKit_BSP/1.5.1/Boards/ARM/V2M-MPS2/Common/GLCD_V2M-MPS2.c:128:27
	ldr	r7, [r0, #4]
	.loc	2 128 3 is_stmt 0               @ C:/Users/dakum/AppData/Local/Arm/Packs/Keil/V2M-MPS2_IOTKit_BSP/1.5.1/Boards/ARM/V2M-MPS2/Common/GLCD_V2M-MPS2.c:128:3
	lsls	r7, r7, #29
	bpl	.LBB0_201
.Ltmp367:
@ %bb.202:
	@DEBUG_VALUE: spi_tran:byte <- [DW_OP_stack_value] 80
	@DEBUG_VALUE: wr_dat:dat <- 80
	@DEBUG_VALUE: wr_reg:reg <- 71
	@DEBUG_VALUE: wr_reg:val <- 80
	.loc	2 129 35 is_stmt 1              @ C:/Users/dakum/AppData/Local/Arm/Packs/Keil/V2M-MPS2_IOTKit_BSP/1.5.1/Boards/ARM/V2M-MPS2/Common/GLCD_V2M-MPS2.c:129:35
	ldr	r7, [r0]
.Ltmp368:
	.loc	2 155 3                         @ C:/Users/dakum/AppData/Local/Arm/Packs/Keil/V2M-MPS2_IOTKit_BSP/1.5.1/Boards/ARM/V2M-MPS2/Common/GLCD_V2M-MPS2.c:155:3
	ldr	r7, [r1]
	orrs	r7, r3
	str	r7, [r1]
.Ltmp369:
	@DEBUG_VALUE: wr_cmd:cmd <- 72
	@DEBUG_VALUE: wr_reg:val <- 2
	@DEBUG_VALUE: wr_reg:reg <- 72
	.loc	2 138 3                         @ C:/Users/dakum/AppData/Local/Arm/Packs/Keil/V2M-MPS2_IOTKit_BSP/1.5.1/Boards/ARM/V2M-MPS2/Common/GLCD_V2M-MPS2.c:138:3
	ldr	r7, [r1]
	bics	r7, r3
	str	r7, [r1]
.Ltmp370:
	.loc	2 127 21                        @ C:/Users/dakum/AppData/Local/Arm/Packs/Keil/V2M-MPS2_IOTKit_BSP/1.5.1/Boards/ARM/V2M-MPS2/Common/GLCD_V2M-MPS2.c:127:21
	ldr	r4, [sp, #60]                   @ 4-byte Reload
.Ltmp371:
	@DEBUG_VALUE: spi_tran:byte <- 112
	str	r4, [r0]
.Ltmp372:
.LBB0_203:                              @ =>This Inner Loop Header: Depth=1
	@DEBUG_VALUE: spi_tran:byte <- 112
	@DEBUG_VALUE: wr_reg:reg <- 72
	@DEBUG_VALUE: wr_reg:val <- 2
	@DEBUG_VALUE: wr_cmd:cmd <- 72
	.loc	2 128 27                        @ C:/Users/dakum/AppData/Local/Arm/Packs/Keil/V2M-MPS2_IOTKit_BSP/1.5.1/Boards/ARM/V2M-MPS2/Common/GLCD_V2M-MPS2.c:128:27
	ldr	r7, [r0, #4]
	.loc	2 128 3 is_stmt 0               @ C:/Users/dakum/AppData/Local/Arm/Packs/Keil/V2M-MPS2_IOTKit_BSP/1.5.1/Boards/ARM/V2M-MPS2/Common/GLCD_V2M-MPS2.c:128:3
	lsls	r7, r7, #29
	bpl	.LBB0_203
.Ltmp373:
@ %bb.204:
	@DEBUG_VALUE: spi_tran:byte <- 112
	@DEBUG_VALUE: wr_reg:reg <- 72
	@DEBUG_VALUE: wr_reg:val <- 2
	@DEBUG_VALUE: wr_cmd:cmd <- 72
	.loc	2 129 35 is_stmt 1              @ C:/Users/dakum/AppData/Local/Arm/Packs/Keil/V2M-MPS2_IOTKit_BSP/1.5.1/Boards/ARM/V2M-MPS2/Common/GLCD_V2M-MPS2.c:129:35
	ldr	r7, [r0]
.Ltmp374:
	@DEBUG_VALUE: spi_tran:byte <- 0
	.loc	2 127 21                        @ C:/Users/dakum/AppData/Local/Arm/Packs/Keil/V2M-MPS2_IOTKit_BSP/1.5.1/Boards/ARM/V2M-MPS2/Common/GLCD_V2M-MPS2.c:127:21
	str	r2, [r0]
.Ltmp375:
.LBB0_205:                              @ =>This Inner Loop Header: Depth=1
	@DEBUG_VALUE: spi_tran:byte <- 0
	@DEBUG_VALUE: wr_reg:reg <- 72
	@DEBUG_VALUE: wr_reg:val <- 2
	@DEBUG_VALUE: wr_cmd:cmd <- 72
	.loc	2 128 27                        @ C:/Users/dakum/AppData/Local/Arm/Packs/Keil/V2M-MPS2_IOTKit_BSP/1.5.1/Boards/ARM/V2M-MPS2/Common/GLCD_V2M-MPS2.c:128:27
	ldr	r7, [r0, #4]
	.loc	2 128 3 is_stmt 0               @ C:/Users/dakum/AppData/Local/Arm/Packs/Keil/V2M-MPS2_IOTKit_BSP/1.5.1/Boards/ARM/V2M-MPS2/Common/GLCD_V2M-MPS2.c:128:3
	lsls	r7, r7, #29
	bpl	.LBB0_205
.Ltmp376:
@ %bb.206:
	@DEBUG_VALUE: spi_tran:byte <- 0
	@DEBUG_VALUE: wr_reg:reg <- 72
	@DEBUG_VALUE: wr_reg:val <- 2
	@DEBUG_VALUE: wr_cmd:cmd <- 72
	.loc	2 129 35 is_stmt 1              @ C:/Users/dakum/AppData/Local/Arm/Packs/Keil/V2M-MPS2_IOTKit_BSP/1.5.1/Boards/ARM/V2M-MPS2/Common/GLCD_V2M-MPS2.c:129:35
	ldr	r7, [r0]
	movs	r7, #72
.Ltmp377:
	@DEBUG_VALUE: spi_tran:byte <- 72
	.loc	2 127 21                        @ C:/Users/dakum/AppData/Local/Arm/Packs/Keil/V2M-MPS2_IOTKit_BSP/1.5.1/Boards/ARM/V2M-MPS2/Common/GLCD_V2M-MPS2.c:127:21
	str	r7, [r0]
.Ltmp378:
.LBB0_207:                              @ =>This Inner Loop Header: Depth=1
	@DEBUG_VALUE: spi_tran:byte <- 72
	@DEBUG_VALUE: wr_reg:reg <- 72
	@DEBUG_VALUE: wr_reg:val <- 2
	@DEBUG_VALUE: wr_cmd:cmd <- 72
	.loc	2 128 27                        @ C:/Users/dakum/AppData/Local/Arm/Packs/Keil/V2M-MPS2_IOTKit_BSP/1.5.1/Boards/ARM/V2M-MPS2/Common/GLCD_V2M-MPS2.c:128:27
	ldr	r7, [r0, #4]
	.loc	2 128 3 is_stmt 0               @ C:/Users/dakum/AppData/Local/Arm/Packs/Keil/V2M-MPS2_IOTKit_BSP/1.5.1/Boards/ARM/V2M-MPS2/Common/GLCD_V2M-MPS2.c:128:3
	lsls	r7, r7, #29
	bpl	.LBB0_207
.Ltmp379:
@ %bb.208:
	@DEBUG_VALUE: spi_tran:byte <- 72
	@DEBUG_VALUE: wr_reg:reg <- 72
	@DEBUG_VALUE: wr_reg:val <- 2
	@DEBUG_VALUE: wr_cmd:cmd <- 72
	.loc	2 129 35 is_stmt 1              @ C:/Users/dakum/AppData/Local/Arm/Packs/Keil/V2M-MPS2_IOTKit_BSP/1.5.1/Boards/ARM/V2M-MPS2/Common/GLCD_V2M-MPS2.c:129:35
	ldr	r7, [r0]
.Ltmp380:
	.loc	2 142 3                         @ C:/Users/dakum/AppData/Local/Arm/Packs/Keil/V2M-MPS2_IOTKit_BSP/1.5.1/Boards/ARM/V2M-MPS2/Common/GLCD_V2M-MPS2.c:142:3
	ldr	r7, [r1]
	orrs	r7, r3
	str	r7, [r1]
.Ltmp381:
	@DEBUG_VALUE: wr_dat:dat <- 2
	.loc	2 151 3                         @ C:/Users/dakum/AppData/Local/Arm/Packs/Keil/V2M-MPS2_IOTKit_BSP/1.5.1/Boards/ARM/V2M-MPS2/Common/GLCD_V2M-MPS2.c:151:3
	ldr	r7, [r1]
	bics	r7, r3
	str	r7, [r1]
.Ltmp382:
	.loc	2 127 21                        @ C:/Users/dakum/AppData/Local/Arm/Packs/Keil/V2M-MPS2_IOTKit_BSP/1.5.1/Boards/ARM/V2M-MPS2/Common/GLCD_V2M-MPS2.c:127:21
	ldr	r4, [sp, #64]                   @ 4-byte Reload
.Ltmp383:
	@DEBUG_VALUE: spi_tran:byte <- 114
	str	r4, [r0]
.Ltmp384:
.LBB0_209:                              @ =>This Inner Loop Header: Depth=1
	@DEBUG_VALUE: spi_tran:byte <- 114
	@DEBUG_VALUE: wr_dat:dat <- 2
	@DEBUG_VALUE: wr_reg:reg <- 72
	@DEBUG_VALUE: wr_reg:val <- 2
	.loc	2 128 27                        @ C:/Users/dakum/AppData/Local/Arm/Packs/Keil/V2M-MPS2_IOTKit_BSP/1.5.1/Boards/ARM/V2M-MPS2/Common/GLCD_V2M-MPS2.c:128:27
	ldr	r7, [r0, #4]
	.loc	2 128 3 is_stmt 0               @ C:/Users/dakum/AppData/Local/Arm/Packs/Keil/V2M-MPS2_IOTKit_BSP/1.5.1/Boards/ARM/V2M-MPS2/Common/GLCD_V2M-MPS2.c:128:3
	lsls	r7, r7, #29
	bpl	.LBB0_209
.Ltmp385:
@ %bb.210:
	@DEBUG_VALUE: spi_tran:byte <- 114
	@DEBUG_VALUE: wr_dat:dat <- 2
	@DEBUG_VALUE: wr_reg:reg <- 72
	@DEBUG_VALUE: wr_reg:val <- 2
	.loc	2 129 35 is_stmt 1              @ C:/Users/dakum/AppData/Local/Arm/Packs/Keil/V2M-MPS2_IOTKit_BSP/1.5.1/Boards/ARM/V2M-MPS2/Common/GLCD_V2M-MPS2.c:129:35
	ldr	r7, [r0]
.Ltmp386:
	@DEBUG_VALUE: spi_tran:byte <- 0
	.loc	2 127 21                        @ C:/Users/dakum/AppData/Local/Arm/Packs/Keil/V2M-MPS2_IOTKit_BSP/1.5.1/Boards/ARM/V2M-MPS2/Common/GLCD_V2M-MPS2.c:127:21
	str	r2, [r0]
.Ltmp387:
.LBB0_211:                              @ =>This Inner Loop Header: Depth=1
	@DEBUG_VALUE: spi_tran:byte <- 0
	@DEBUG_VALUE: wr_dat:dat <- 2
	@DEBUG_VALUE: wr_reg:reg <- 72
	@DEBUG_VALUE: wr_reg:val <- 2
	.loc	2 128 27                        @ C:/Users/dakum/AppData/Local/Arm/Packs/Keil/V2M-MPS2_IOTKit_BSP/1.5.1/Boards/ARM/V2M-MPS2/Common/GLCD_V2M-MPS2.c:128:27
	ldr	r7, [r0, #4]
	.loc	2 128 3 is_stmt 0               @ C:/Users/dakum/AppData/Local/Arm/Packs/Keil/V2M-MPS2_IOTKit_BSP/1.5.1/Boards/ARM/V2M-MPS2/Common/GLCD_V2M-MPS2.c:128:3
	lsls	r7, r7, #29
	bpl	.LBB0_211
.Ltmp388:
@ %bb.212:
	@DEBUG_VALUE: spi_tran:byte <- 0
	@DEBUG_VALUE: wr_dat:dat <- 2
	@DEBUG_VALUE: wr_reg:reg <- 72
	@DEBUG_VALUE: wr_reg:val <- 2
	.loc	2 129 35 is_stmt 1              @ C:/Users/dakum/AppData/Local/Arm/Packs/Keil/V2M-MPS2_IOTKit_BSP/1.5.1/Boards/ARM/V2M-MPS2/Common/GLCD_V2M-MPS2.c:129:35
	ldr	r7, [r0]
.Ltmp389:
	.loc	2 127 21                        @ C:/Users/dakum/AppData/Local/Arm/Packs/Keil/V2M-MPS2_IOTKit_BSP/1.5.1/Boards/ARM/V2M-MPS2/Common/GLCD_V2M-MPS2.c:127:21
	ldr	r4, [sp, #52]                   @ 4-byte Reload
.Ltmp390:
	@DEBUG_VALUE: spi_tran:byte <- [DW_OP_stack_value] 2
	str	r4, [r0]
.Ltmp391:
.LBB0_213:                              @ =>This Inner Loop Header: Depth=1
	@DEBUG_VALUE: spi_tran:byte <- [DW_OP_stack_value] 2
	@DEBUG_VALUE: wr_dat:dat <- 2
	@DEBUG_VALUE: wr_reg:reg <- 72
	@DEBUG_VALUE: wr_reg:val <- 2
	.loc	2 128 27                        @ C:/Users/dakum/AppData/Local/Arm/Packs/Keil/V2M-MPS2_IOTKit_BSP/1.5.1/Boards/ARM/V2M-MPS2/Common/GLCD_V2M-MPS2.c:128:27
	ldr	r7, [r0, #4]
	.loc	2 128 3 is_stmt 0               @ C:/Users/dakum/AppData/Local/Arm/Packs/Keil/V2M-MPS2_IOTKit_BSP/1.5.1/Boards/ARM/V2M-MPS2/Common/GLCD_V2M-MPS2.c:128:3
	lsls	r7, r7, #29
	bpl	.LBB0_213
.Ltmp392:
@ %bb.214:
	@DEBUG_VALUE: spi_tran:byte <- [DW_OP_stack_value] 2
	@DEBUG_VALUE: wr_dat:dat <- 2
	@DEBUG_VALUE: wr_reg:reg <- 72
	@DEBUG_VALUE: wr_reg:val <- 2
	.loc	2 129 35 is_stmt 1              @ C:/Users/dakum/AppData/Local/Arm/Packs/Keil/V2M-MPS2_IOTKit_BSP/1.5.1/Boards/ARM/V2M-MPS2/Common/GLCD_V2M-MPS2.c:129:35
	ldr	r7, [r0]
.Ltmp393:
	.loc	2 155 3                         @ C:/Users/dakum/AppData/Local/Arm/Packs/Keil/V2M-MPS2_IOTKit_BSP/1.5.1/Boards/ARM/V2M-MPS2/Common/GLCD_V2M-MPS2.c:155:3
	ldr	r7, [r1]
	orrs	r7, r3
	str	r7, [r1]
.Ltmp394:
	@DEBUG_VALUE: wr_cmd:cmd <- 73
	@DEBUG_VALUE: wr_reg:val <- 19
	@DEBUG_VALUE: wr_reg:reg <- 73
	.loc	2 138 3                         @ C:/Users/dakum/AppData/Local/Arm/Packs/Keil/V2M-MPS2_IOTKit_BSP/1.5.1/Boards/ARM/V2M-MPS2/Common/GLCD_V2M-MPS2.c:138:3
	ldr	r7, [r1]
	bics	r7, r3
	str	r7, [r1]
.Ltmp395:
	.loc	2 127 21                        @ C:/Users/dakum/AppData/Local/Arm/Packs/Keil/V2M-MPS2_IOTKit_BSP/1.5.1/Boards/ARM/V2M-MPS2/Common/GLCD_V2M-MPS2.c:127:21
	ldr	r4, [sp, #60]                   @ 4-byte Reload
.Ltmp396:
	@DEBUG_VALUE: spi_tran:byte <- 112
	str	r4, [r0]
.Ltmp397:
.LBB0_215:                              @ =>This Inner Loop Header: Depth=1
	@DEBUG_VALUE: spi_tran:byte <- 112
	@DEBUG_VALUE: wr_reg:reg <- 73
	@DEBUG_VALUE: wr_reg:val <- 19
	@DEBUG_VALUE: wr_cmd:cmd <- 73
	.loc	2 128 27                        @ C:/Users/dakum/AppData/Local/Arm/Packs/Keil/V2M-MPS2_IOTKit_BSP/1.5.1/Boards/ARM/V2M-MPS2/Common/GLCD_V2M-MPS2.c:128:27
	ldr	r7, [r0, #4]
	.loc	2 128 3 is_stmt 0               @ C:/Users/dakum/AppData/Local/Arm/Packs/Keil/V2M-MPS2_IOTKit_BSP/1.5.1/Boards/ARM/V2M-MPS2/Common/GLCD_V2M-MPS2.c:128:3
	lsls	r7, r7, #29
	bpl	.LBB0_215
.Ltmp398:
@ %bb.216:
	@DEBUG_VALUE: spi_tran:byte <- 112
	@DEBUG_VALUE: wr_reg:reg <- 73
	@DEBUG_VALUE: wr_reg:val <- 19
	@DEBUG_VALUE: wr_cmd:cmd <- 73
	.loc	2 129 35 is_stmt 1              @ C:/Users/dakum/AppData/Local/Arm/Packs/Keil/V2M-MPS2_IOTKit_BSP/1.5.1/Boards/ARM/V2M-MPS2/Common/GLCD_V2M-MPS2.c:129:35
	ldr	r7, [r0]
.Ltmp399:
	@DEBUG_VALUE: spi_tran:byte <- 0
	.loc	2 127 21                        @ C:/Users/dakum/AppData/Local/Arm/Packs/Keil/V2M-MPS2_IOTKit_BSP/1.5.1/Boards/ARM/V2M-MPS2/Common/GLCD_V2M-MPS2.c:127:21
	str	r2, [r0]
.Ltmp400:
.LBB0_217:                              @ =>This Inner Loop Header: Depth=1
	@DEBUG_VALUE: spi_tran:byte <- 0
	@DEBUG_VALUE: wr_reg:reg <- 73
	@DEBUG_VALUE: wr_reg:val <- 19
	@DEBUG_VALUE: wr_cmd:cmd <- 73
	.loc	2 128 27                        @ C:/Users/dakum/AppData/Local/Arm/Packs/Keil/V2M-MPS2_IOTKit_BSP/1.5.1/Boards/ARM/V2M-MPS2/Common/GLCD_V2M-MPS2.c:128:27
	ldr	r7, [r0, #4]
	.loc	2 128 3 is_stmt 0               @ C:/Users/dakum/AppData/Local/Arm/Packs/Keil/V2M-MPS2_IOTKit_BSP/1.5.1/Boards/ARM/V2M-MPS2/Common/GLCD_V2M-MPS2.c:128:3
	lsls	r7, r7, #29
	bpl	.LBB0_217
.Ltmp401:
@ %bb.218:
	@DEBUG_VALUE: spi_tran:byte <- 0
	@DEBUG_VALUE: wr_reg:reg <- 73
	@DEBUG_VALUE: wr_reg:val <- 19
	@DEBUG_VALUE: wr_cmd:cmd <- 73
	.loc	2 129 35 is_stmt 1              @ C:/Users/dakum/AppData/Local/Arm/Packs/Keil/V2M-MPS2_IOTKit_BSP/1.5.1/Boards/ARM/V2M-MPS2/Common/GLCD_V2M-MPS2.c:129:35
	ldr	r7, [r0]
	movs	r7, #73
.Ltmp402:
	@DEBUG_VALUE: spi_tran:byte <- 73
	.loc	2 127 21                        @ C:/Users/dakum/AppData/Local/Arm/Packs/Keil/V2M-MPS2_IOTKit_BSP/1.5.1/Boards/ARM/V2M-MPS2/Common/GLCD_V2M-MPS2.c:127:21
	str	r7, [r0]
.Ltmp403:
.LBB0_219:                              @ =>This Inner Loop Header: Depth=1
	@DEBUG_VALUE: spi_tran:byte <- 73
	@DEBUG_VALUE: wr_reg:reg <- 73
	@DEBUG_VALUE: wr_reg:val <- 19
	@DEBUG_VALUE: wr_cmd:cmd <- 73
	.loc	2 128 27                        @ C:/Users/dakum/AppData/Local/Arm/Packs/Keil/V2M-MPS2_IOTKit_BSP/1.5.1/Boards/ARM/V2M-MPS2/Common/GLCD_V2M-MPS2.c:128:27
	ldr	r7, [r0, #4]
	.loc	2 128 3 is_stmt 0               @ C:/Users/dakum/AppData/Local/Arm/Packs/Keil/V2M-MPS2_IOTKit_BSP/1.5.1/Boards/ARM/V2M-MPS2/Common/GLCD_V2M-MPS2.c:128:3
	lsls	r7, r7, #29
	bpl	.LBB0_219
.Ltmp404:
@ %bb.220:
	@DEBUG_VALUE: spi_tran:byte <- 73
	@DEBUG_VALUE: wr_reg:reg <- 73
	@DEBUG_VALUE: wr_reg:val <- 19
	@DEBUG_VALUE: wr_cmd:cmd <- 73
	.loc	2 129 35 is_stmt 1              @ C:/Users/dakum/AppData/Local/Arm/Packs/Keil/V2M-MPS2_IOTKit_BSP/1.5.1/Boards/ARM/V2M-MPS2/Common/GLCD_V2M-MPS2.c:129:35
	ldr	r7, [r0]
.Ltmp405:
	.loc	2 142 3                         @ C:/Users/dakum/AppData/Local/Arm/Packs/Keil/V2M-MPS2_IOTKit_BSP/1.5.1/Boards/ARM/V2M-MPS2/Common/GLCD_V2M-MPS2.c:142:3
	ldr	r7, [r1]
	orrs	r7, r3
	str	r7, [r1]
.Ltmp406:
	@DEBUG_VALUE: wr_dat:dat <- 19
	.loc	2 151 3                         @ C:/Users/dakum/AppData/Local/Arm/Packs/Keil/V2M-MPS2_IOTKit_BSP/1.5.1/Boards/ARM/V2M-MPS2/Common/GLCD_V2M-MPS2.c:151:3
	ldr	r7, [r1]
	bics	r7, r3
	str	r7, [r1]
.Ltmp407:
	.loc	2 127 21                        @ C:/Users/dakum/AppData/Local/Arm/Packs/Keil/V2M-MPS2_IOTKit_BSP/1.5.1/Boards/ARM/V2M-MPS2/Common/GLCD_V2M-MPS2.c:127:21
	ldr	r4, [sp, #64]                   @ 4-byte Reload
.Ltmp408:
	@DEBUG_VALUE: spi_tran:byte <- 114
	str	r4, [r0]
.Ltmp409:
.LBB0_221:                              @ =>This Inner Loop Header: Depth=1
	@DEBUG_VALUE: spi_tran:byte <- 114
	@DEBUG_VALUE: wr_dat:dat <- 19
	@DEBUG_VALUE: wr_reg:reg <- 73
	@DEBUG_VALUE: wr_reg:val <- 19
	.loc	2 128 27                        @ C:/Users/dakum/AppData/Local/Arm/Packs/Keil/V2M-MPS2_IOTKit_BSP/1.5.1/Boards/ARM/V2M-MPS2/Common/GLCD_V2M-MPS2.c:128:27
	ldr	r7, [r0, #4]
	.loc	2 128 3 is_stmt 0               @ C:/Users/dakum/AppData/Local/Arm/Packs/Keil/V2M-MPS2_IOTKit_BSP/1.5.1/Boards/ARM/V2M-MPS2/Common/GLCD_V2M-MPS2.c:128:3
	lsls	r7, r7, #29
	bpl	.LBB0_221
.Ltmp410:
@ %bb.222:
	@DEBUG_VALUE: spi_tran:byte <- 114
	@DEBUG_VALUE: wr_dat:dat <- 19
	@DEBUG_VALUE: wr_reg:reg <- 73
	@DEBUG_VALUE: wr_reg:val <- 19
	.loc	2 129 35 is_stmt 1              @ C:/Users/dakum/AppData/Local/Arm/Packs/Keil/V2M-MPS2_IOTKit_BSP/1.5.1/Boards/ARM/V2M-MPS2/Common/GLCD_V2M-MPS2.c:129:35
	ldr	r7, [r0]
.Ltmp411:
	@DEBUG_VALUE: spi_tran:byte <- 0
	.loc	2 127 21                        @ C:/Users/dakum/AppData/Local/Arm/Packs/Keil/V2M-MPS2_IOTKit_BSP/1.5.1/Boards/ARM/V2M-MPS2/Common/GLCD_V2M-MPS2.c:127:21
	str	r2, [r0]
.Ltmp412:
.LBB0_223:                              @ =>This Inner Loop Header: Depth=1
	@DEBUG_VALUE: spi_tran:byte <- 0
	@DEBUG_VALUE: wr_dat:dat <- 19
	@DEBUG_VALUE: wr_reg:reg <- 73
	@DEBUG_VALUE: wr_reg:val <- 19
	.loc	2 128 27                        @ C:/Users/dakum/AppData/Local/Arm/Packs/Keil/V2M-MPS2_IOTKit_BSP/1.5.1/Boards/ARM/V2M-MPS2/Common/GLCD_V2M-MPS2.c:128:27
	ldr	r7, [r0, #4]
	.loc	2 128 3 is_stmt 0               @ C:/Users/dakum/AppData/Local/Arm/Packs/Keil/V2M-MPS2_IOTKit_BSP/1.5.1/Boards/ARM/V2M-MPS2/Common/GLCD_V2M-MPS2.c:128:3
	lsls	r7, r7, #29
	bpl	.LBB0_223
.Ltmp413:
@ %bb.224:
	@DEBUG_VALUE: spi_tran:byte <- 0
	@DEBUG_VALUE: wr_dat:dat <- 19
	@DEBUG_VALUE: wr_reg:reg <- 73
	@DEBUG_VALUE: wr_reg:val <- 19
	.loc	2 129 35 is_stmt 1              @ C:/Users/dakum/AppData/Local/Arm/Packs/Keil/V2M-MPS2_IOTKit_BSP/1.5.1/Boards/ARM/V2M-MPS2/Common/GLCD_V2M-MPS2.c:129:35
	ldr	r7, [r0]
	movs	r4, #19
	str	r4, [sp, #28]                   @ 4-byte Spill
.Ltmp414:
	@DEBUG_VALUE: spi_tran:byte <- [DW_OP_stack_value] 19
	.loc	2 127 21                        @ C:/Users/dakum/AppData/Local/Arm/Packs/Keil/V2M-MPS2_IOTKit_BSP/1.5.1/Boards/ARM/V2M-MPS2/Common/GLCD_V2M-MPS2.c:127:21
	str	r4, [r0]
.Ltmp415:
.LBB0_225:                              @ =>This Inner Loop Header: Depth=1
	@DEBUG_VALUE: spi_tran:byte <- [DW_OP_stack_value] 19
	@DEBUG_VALUE: wr_dat:dat <- 19
	@DEBUG_VALUE: wr_reg:reg <- 73
	@DEBUG_VALUE: wr_reg:val <- 19
	.loc	2 128 27                        @ C:/Users/dakum/AppData/Local/Arm/Packs/Keil/V2M-MPS2_IOTKit_BSP/1.5.1/Boards/ARM/V2M-MPS2/Common/GLCD_V2M-MPS2.c:128:27
	ldr	r7, [r0, #4]
	.loc	2 128 3 is_stmt 0               @ C:/Users/dakum/AppData/Local/Arm/Packs/Keil/V2M-MPS2_IOTKit_BSP/1.5.1/Boards/ARM/V2M-MPS2/Common/GLCD_V2M-MPS2.c:128:3
	lsls	r7, r7, #29
	bpl	.LBB0_225
.Ltmp416:
@ %bb.226:
	@DEBUG_VALUE: spi_tran:byte <- [DW_OP_stack_value] 19
	@DEBUG_VALUE: wr_dat:dat <- 19
	@DEBUG_VALUE: wr_reg:reg <- 73
	@DEBUG_VALUE: wr_reg:val <- 19
	.loc	2 129 35 is_stmt 1              @ C:/Users/dakum/AppData/Local/Arm/Packs/Keil/V2M-MPS2_IOTKit_BSP/1.5.1/Boards/ARM/V2M-MPS2/Common/GLCD_V2M-MPS2.c:129:35
	ldr	r7, [r0]
.Ltmp417:
	.loc	2 155 3                         @ C:/Users/dakum/AppData/Local/Arm/Packs/Keil/V2M-MPS2_IOTKit_BSP/1.5.1/Boards/ARM/V2M-MPS2/Common/GLCD_V2M-MPS2.c:155:3
	ldr	r7, [r1]
	orrs	r7, r3
	str	r7, [r1]
.Ltmp418:
	@DEBUG_VALUE: wr_cmd:cmd <- 74
	@DEBUG_VALUE: wr_reg:val <- 25
	@DEBUG_VALUE: wr_reg:reg <- 74
	.loc	2 138 3                         @ C:/Users/dakum/AppData/Local/Arm/Packs/Keil/V2M-MPS2_IOTKit_BSP/1.5.1/Boards/ARM/V2M-MPS2/Common/GLCD_V2M-MPS2.c:138:3
	ldr	r7, [r1]
	bics	r7, r3
	str	r7, [r1]
.Ltmp419:
	.loc	2 127 21                        @ C:/Users/dakum/AppData/Local/Arm/Packs/Keil/V2M-MPS2_IOTKit_BSP/1.5.1/Boards/ARM/V2M-MPS2/Common/GLCD_V2M-MPS2.c:127:21
	ldr	r4, [sp, #60]                   @ 4-byte Reload
.Ltmp420:
	@DEBUG_VALUE: spi_tran:byte <- 112
	str	r4, [r0]
.Ltmp421:
.LBB0_227:                              @ =>This Inner Loop Header: Depth=1
	@DEBUG_VALUE: spi_tran:byte <- 112
	@DEBUG_VALUE: wr_reg:reg <- 74
	@DEBUG_VALUE: wr_reg:val <- 25
	@DEBUG_VALUE: wr_cmd:cmd <- 74
	.loc	2 128 27                        @ C:/Users/dakum/AppData/Local/Arm/Packs/Keil/V2M-MPS2_IOTKit_BSP/1.5.1/Boards/ARM/V2M-MPS2/Common/GLCD_V2M-MPS2.c:128:27
	ldr	r7, [r0, #4]
	.loc	2 128 3 is_stmt 0               @ C:/Users/dakum/AppData/Local/Arm/Packs/Keil/V2M-MPS2_IOTKit_BSP/1.5.1/Boards/ARM/V2M-MPS2/Common/GLCD_V2M-MPS2.c:128:3
	lsls	r7, r7, #29
	bpl	.LBB0_227
.Ltmp422:
@ %bb.228:
	@DEBUG_VALUE: spi_tran:byte <- 112
	@DEBUG_VALUE: wr_reg:reg <- 74
	@DEBUG_VALUE: wr_reg:val <- 25
	@DEBUG_VALUE: wr_cmd:cmd <- 74
	.loc	2 129 35 is_stmt 1              @ C:/Users/dakum/AppData/Local/Arm/Packs/Keil/V2M-MPS2_IOTKit_BSP/1.5.1/Boards/ARM/V2M-MPS2/Common/GLCD_V2M-MPS2.c:129:35
	ldr	r7, [r0]
.Ltmp423:
	@DEBUG_VALUE: spi_tran:byte <- 0
	.loc	2 127 21                        @ C:/Users/dakum/AppData/Local/Arm/Packs/Keil/V2M-MPS2_IOTKit_BSP/1.5.1/Boards/ARM/V2M-MPS2/Common/GLCD_V2M-MPS2.c:127:21
	str	r2, [r0]
.Ltmp424:
.LBB0_229:                              @ =>This Inner Loop Header: Depth=1
	@DEBUG_VALUE: spi_tran:byte <- 0
	@DEBUG_VALUE: wr_reg:reg <- 74
	@DEBUG_VALUE: wr_reg:val <- 25
	@DEBUG_VALUE: wr_cmd:cmd <- 74
	.loc	2 128 27                        @ C:/Users/dakum/AppData/Local/Arm/Packs/Keil/V2M-MPS2_IOTKit_BSP/1.5.1/Boards/ARM/V2M-MPS2/Common/GLCD_V2M-MPS2.c:128:27
	ldr	r7, [r0, #4]
	.loc	2 128 3 is_stmt 0               @ C:/Users/dakum/AppData/Local/Arm/Packs/Keil/V2M-MPS2_IOTKit_BSP/1.5.1/Boards/ARM/V2M-MPS2/Common/GLCD_V2M-MPS2.c:128:3
	lsls	r7, r7, #29
	bpl	.LBB0_229
.Ltmp425:
@ %bb.230:
	@DEBUG_VALUE: spi_tran:byte <- 0
	@DEBUG_VALUE: wr_reg:reg <- 74
	@DEBUG_VALUE: wr_reg:val <- 25
	@DEBUG_VALUE: wr_cmd:cmd <- 74
	.loc	2 129 35 is_stmt 1              @ C:/Users/dakum/AppData/Local/Arm/Packs/Keil/V2M-MPS2_IOTKit_BSP/1.5.1/Boards/ARM/V2M-MPS2/Common/GLCD_V2M-MPS2.c:129:35
	ldr	r7, [r0]
	movs	r7, #74
.Ltmp426:
	@DEBUG_VALUE: spi_tran:byte <- 74
	.loc	2 127 21                        @ C:/Users/dakum/AppData/Local/Arm/Packs/Keil/V2M-MPS2_IOTKit_BSP/1.5.1/Boards/ARM/V2M-MPS2/Common/GLCD_V2M-MPS2.c:127:21
	str	r7, [r0]
.Ltmp427:
.LBB0_231:                              @ =>This Inner Loop Header: Depth=1
	@DEBUG_VALUE: spi_tran:byte <- 74
	@DEBUG_VALUE: wr_reg:reg <- 74
	@DEBUG_VALUE: wr_reg:val <- 25
	@DEBUG_VALUE: wr_cmd:cmd <- 74
	.loc	2 128 27                        @ C:/Users/dakum/AppData/Local/Arm/Packs/Keil/V2M-MPS2_IOTKit_BSP/1.5.1/Boards/ARM/V2M-MPS2/Common/GLCD_V2M-MPS2.c:128:27
	ldr	r7, [r0, #4]
	.loc	2 128 3 is_stmt 0               @ C:/Users/dakum/AppData/Local/Arm/Packs/Keil/V2M-MPS2_IOTKit_BSP/1.5.1/Boards/ARM/V2M-MPS2/Common/GLCD_V2M-MPS2.c:128:3
	lsls	r7, r7, #29
	bpl	.LBB0_231
.Ltmp428:
@ %bb.232:
	@DEBUG_VALUE: spi_tran:byte <- 74
	@DEBUG_VALUE: wr_reg:reg <- 74
	@DEBUG_VALUE: wr_reg:val <- 25
	@DEBUG_VALUE: wr_cmd:cmd <- 74
	.loc	2 129 35 is_stmt 1              @ C:/Users/dakum/AppData/Local/Arm/Packs/Keil/V2M-MPS2_IOTKit_BSP/1.5.1/Boards/ARM/V2M-MPS2/Common/GLCD_V2M-MPS2.c:129:35
	ldr	r7, [r0]
.Ltmp429:
	.loc	2 142 3                         @ C:/Users/dakum/AppData/Local/Arm/Packs/Keil/V2M-MPS2_IOTKit_BSP/1.5.1/Boards/ARM/V2M-MPS2/Common/GLCD_V2M-MPS2.c:142:3
	ldr	r7, [r1]
	orrs	r7, r3
	str	r7, [r1]
.Ltmp430:
	@DEBUG_VALUE: wr_dat:dat <- 25
	.loc	2 151 3                         @ C:/Users/dakum/AppData/Local/Arm/Packs/Keil/V2M-MPS2_IOTKit_BSP/1.5.1/Boards/ARM/V2M-MPS2/Common/GLCD_V2M-MPS2.c:151:3
	ldr	r7, [r1]
	bics	r7, r3
	str	r7, [r1]
.Ltmp431:
	.loc	2 127 21                        @ C:/Users/dakum/AppData/Local/Arm/Packs/Keil/V2M-MPS2_IOTKit_BSP/1.5.1/Boards/ARM/V2M-MPS2/Common/GLCD_V2M-MPS2.c:127:21
	ldr	r4, [sp, #64]                   @ 4-byte Reload
.Ltmp432:
	@DEBUG_VALUE: spi_tran:byte <- 114
	str	r4, [r0]
.Ltmp433:
.LBB0_233:                              @ =>This Inner Loop Header: Depth=1
	@DEBUG_VALUE: spi_tran:byte <- 114
	@DEBUG_VALUE: wr_dat:dat <- 25
	@DEBUG_VALUE: wr_reg:reg <- 74
	@DEBUG_VALUE: wr_reg:val <- 25
	.loc	2 128 27                        @ C:/Users/dakum/AppData/Local/Arm/Packs/Keil/V2M-MPS2_IOTKit_BSP/1.5.1/Boards/ARM/V2M-MPS2/Common/GLCD_V2M-MPS2.c:128:27
	ldr	r7, [r0, #4]
	.loc	2 128 3 is_stmt 0               @ C:/Users/dakum/AppData/Local/Arm/Packs/Keil/V2M-MPS2_IOTKit_BSP/1.5.1/Boards/ARM/V2M-MPS2/Common/GLCD_V2M-MPS2.c:128:3
	lsls	r7, r7, #29
	bpl	.LBB0_233
.Ltmp434:
@ %bb.234:
	@DEBUG_VALUE: spi_tran:byte <- 114
	@DEBUG_VALUE: wr_dat:dat <- 25
	@DEBUG_VALUE: wr_reg:reg <- 74
	@DEBUG_VALUE: wr_reg:val <- 25
	.loc	2 129 35 is_stmt 1              @ C:/Users/dakum/AppData/Local/Arm/Packs/Keil/V2M-MPS2_IOTKit_BSP/1.5.1/Boards/ARM/V2M-MPS2/Common/GLCD_V2M-MPS2.c:129:35
	ldr	r7, [r0]
.Ltmp435:
	@DEBUG_VALUE: spi_tran:byte <- 0
	.loc	2 127 21                        @ C:/Users/dakum/AppData/Local/Arm/Packs/Keil/V2M-MPS2_IOTKit_BSP/1.5.1/Boards/ARM/V2M-MPS2/Common/GLCD_V2M-MPS2.c:127:21
	str	r2, [r0]
.Ltmp436:
.LBB0_235:                              @ =>This Inner Loop Header: Depth=1
	@DEBUG_VALUE: spi_tran:byte <- 0
	@DEBUG_VALUE: wr_dat:dat <- 25
	@DEBUG_VALUE: wr_reg:reg <- 74
	@DEBUG_VALUE: wr_reg:val <- 25
	.loc	2 128 27                        @ C:/Users/dakum/AppData/Local/Arm/Packs/Keil/V2M-MPS2_IOTKit_BSP/1.5.1/Boards/ARM/V2M-MPS2/Common/GLCD_V2M-MPS2.c:128:27
	ldr	r7, [r0, #4]
	.loc	2 128 3 is_stmt 0               @ C:/Users/dakum/AppData/Local/Arm/Packs/Keil/V2M-MPS2_IOTKit_BSP/1.5.1/Boards/ARM/V2M-MPS2/Common/GLCD_V2M-MPS2.c:128:3
	lsls	r7, r7, #29
	bpl	.LBB0_235
.Ltmp437:
@ %bb.236:
	@DEBUG_VALUE: spi_tran:byte <- 0
	@DEBUG_VALUE: wr_dat:dat <- 25
	@DEBUG_VALUE: wr_reg:reg <- 74
	@DEBUG_VALUE: wr_reg:val <- 25
	.loc	2 129 35 is_stmt 1              @ C:/Users/dakum/AppData/Local/Arm/Packs/Keil/V2M-MPS2_IOTKit_BSP/1.5.1/Boards/ARM/V2M-MPS2/Common/GLCD_V2M-MPS2.c:129:35
	ldr	r7, [r0]
	movs	r4, #25
	str	r4, [sp, #48]                   @ 4-byte Spill
.Ltmp438:
	@DEBUG_VALUE: spi_tran:byte <- [DW_OP_stack_value] 25
	.loc	2 127 21                        @ C:/Users/dakum/AppData/Local/Arm/Packs/Keil/V2M-MPS2_IOTKit_BSP/1.5.1/Boards/ARM/V2M-MPS2/Common/GLCD_V2M-MPS2.c:127:21
	str	r4, [r0]
.Ltmp439:
.LBB0_237:                              @ =>This Inner Loop Header: Depth=1
	@DEBUG_VALUE: spi_tran:byte <- [DW_OP_stack_value] 25
	@DEBUG_VALUE: wr_dat:dat <- 25
	@DEBUG_VALUE: wr_reg:reg <- 74
	@DEBUG_VALUE: wr_reg:val <- 25
	.loc	2 128 27                        @ C:/Users/dakum/AppData/Local/Arm/Packs/Keil/V2M-MPS2_IOTKit_BSP/1.5.1/Boards/ARM/V2M-MPS2/Common/GLCD_V2M-MPS2.c:128:27
	ldr	r7, [r0, #4]
	.loc	2 128 3 is_stmt 0               @ C:/Users/dakum/AppData/Local/Arm/Packs/Keil/V2M-MPS2_IOTKit_BSP/1.5.1/Boards/ARM/V2M-MPS2/Common/GLCD_V2M-MPS2.c:128:3
	lsls	r7, r7, #29
	bpl	.LBB0_237
.Ltmp440:
@ %bb.238:
	@DEBUG_VALUE: spi_tran:byte <- [DW_OP_stack_value] 25
	@DEBUG_VALUE: wr_dat:dat <- 25
	@DEBUG_VALUE: wr_reg:reg <- 74
	@DEBUG_VALUE: wr_reg:val <- 25
	.loc	2 129 35 is_stmt 1              @ C:/Users/dakum/AppData/Local/Arm/Packs/Keil/V2M-MPS2_IOTKit_BSP/1.5.1/Boards/ARM/V2M-MPS2/Common/GLCD_V2M-MPS2.c:129:35
	ldr	r7, [r0]
.Ltmp441:
	.loc	2 155 3                         @ C:/Users/dakum/AppData/Local/Arm/Packs/Keil/V2M-MPS2_IOTKit_BSP/1.5.1/Boards/ARM/V2M-MPS2/Common/GLCD_V2M-MPS2.c:155:3
	ldr	r7, [r1]
	orrs	r7, r3
	str	r7, [r1]
.Ltmp442:
	@DEBUG_VALUE: wr_cmd:cmd <- 75
	@DEBUG_VALUE: wr_reg:val <- 25
	@DEBUG_VALUE: wr_reg:reg <- 75
	.loc	2 138 3                         @ C:/Users/dakum/AppData/Local/Arm/Packs/Keil/V2M-MPS2_IOTKit_BSP/1.5.1/Boards/ARM/V2M-MPS2/Common/GLCD_V2M-MPS2.c:138:3
	ldr	r7, [r1]
	bics	r7, r3
	str	r7, [r1]
.Ltmp443:
	.loc	2 127 21                        @ C:/Users/dakum/AppData/Local/Arm/Packs/Keil/V2M-MPS2_IOTKit_BSP/1.5.1/Boards/ARM/V2M-MPS2/Common/GLCD_V2M-MPS2.c:127:21
	ldr	r4, [sp, #60]                   @ 4-byte Reload
.Ltmp444:
	@DEBUG_VALUE: spi_tran:byte <- 112
	str	r4, [r0]
.Ltmp445:
.LBB0_239:                              @ =>This Inner Loop Header: Depth=1
	@DEBUG_VALUE: spi_tran:byte <- 112
	@DEBUG_VALUE: wr_reg:reg <- 75
	@DEBUG_VALUE: wr_reg:val <- 25
	@DEBUG_VALUE: wr_cmd:cmd <- 75
	.loc	2 128 27                        @ C:/Users/dakum/AppData/Local/Arm/Packs/Keil/V2M-MPS2_IOTKit_BSP/1.5.1/Boards/ARM/V2M-MPS2/Common/GLCD_V2M-MPS2.c:128:27
	ldr	r7, [r0, #4]
	.loc	2 128 3 is_stmt 0               @ C:/Users/dakum/AppData/Local/Arm/Packs/Keil/V2M-MPS2_IOTKit_BSP/1.5.1/Boards/ARM/V2M-MPS2/Common/GLCD_V2M-MPS2.c:128:3
	lsls	r7, r7, #29
	bpl	.LBB0_239
.Ltmp446:
@ %bb.240:
	@DEBUG_VALUE: spi_tran:byte <- 112
	@DEBUG_VALUE: wr_reg:reg <- 75
	@DEBUG_VALUE: wr_reg:val <- 25
	@DEBUG_VALUE: wr_cmd:cmd <- 75
	.loc	2 129 35 is_stmt 1              @ C:/Users/dakum/AppData/Local/Arm/Packs/Keil/V2M-MPS2_IOTKit_BSP/1.5.1/Boards/ARM/V2M-MPS2/Common/GLCD_V2M-MPS2.c:129:35
	ldr	r7, [r0]
.Ltmp447:
	@DEBUG_VALUE: spi_tran:byte <- 0
	.loc	2 127 21                        @ C:/Users/dakum/AppData/Local/Arm/Packs/Keil/V2M-MPS2_IOTKit_BSP/1.5.1/Boards/ARM/V2M-MPS2/Common/GLCD_V2M-MPS2.c:127:21
	str	r2, [r0]
.Ltmp448:
.LBB0_241:                              @ =>This Inner Loop Header: Depth=1
	@DEBUG_VALUE: spi_tran:byte <- 0
	@DEBUG_VALUE: wr_reg:reg <- 75
	@DEBUG_VALUE: wr_reg:val <- 25
	@DEBUG_VALUE: wr_cmd:cmd <- 75
	.loc	2 128 27                        @ C:/Users/dakum/AppData/Local/Arm/Packs/Keil/V2M-MPS2_IOTKit_BSP/1.5.1/Boards/ARM/V2M-MPS2/Common/GLCD_V2M-MPS2.c:128:27
	ldr	r7, [r0, #4]
	.loc	2 128 3 is_stmt 0               @ C:/Users/dakum/AppData/Local/Arm/Packs/Keil/V2M-MPS2_IOTKit_BSP/1.5.1/Boards/ARM/V2M-MPS2/Common/GLCD_V2M-MPS2.c:128:3
	lsls	r7, r7, #29
	bpl	.LBB0_241
.Ltmp449:
@ %bb.242:
	@DEBUG_VALUE: spi_tran:byte <- 0
	@DEBUG_VALUE: wr_reg:reg <- 75
	@DEBUG_VALUE: wr_reg:val <- 25
	@DEBUG_VALUE: wr_cmd:cmd <- 75
	.loc	2 129 35 is_stmt 1              @ C:/Users/dakum/AppData/Local/Arm/Packs/Keil/V2M-MPS2_IOTKit_BSP/1.5.1/Boards/ARM/V2M-MPS2/Common/GLCD_V2M-MPS2.c:129:35
	ldr	r7, [r0]
	movs	r7, #75
.Ltmp450:
	@DEBUG_VALUE: spi_tran:byte <- 75
	.loc	2 127 21                        @ C:/Users/dakum/AppData/Local/Arm/Packs/Keil/V2M-MPS2_IOTKit_BSP/1.5.1/Boards/ARM/V2M-MPS2/Common/GLCD_V2M-MPS2.c:127:21
	str	r7, [r0]
.Ltmp451:
.LBB0_243:                              @ =>This Inner Loop Header: Depth=1
	@DEBUG_VALUE: spi_tran:byte <- 75
	@DEBUG_VALUE: wr_reg:reg <- 75
	@DEBUG_VALUE: wr_reg:val <- 25
	@DEBUG_VALUE: wr_cmd:cmd <- 75
	.loc	2 128 27                        @ C:/Users/dakum/AppData/Local/Arm/Packs/Keil/V2M-MPS2_IOTKit_BSP/1.5.1/Boards/ARM/V2M-MPS2/Common/GLCD_V2M-MPS2.c:128:27
	ldr	r7, [r0, #4]
	.loc	2 128 3 is_stmt 0               @ C:/Users/dakum/AppData/Local/Arm/Packs/Keil/V2M-MPS2_IOTKit_BSP/1.5.1/Boards/ARM/V2M-MPS2/Common/GLCD_V2M-MPS2.c:128:3
	lsls	r7, r7, #29
	bpl	.LBB0_243
.Ltmp452:
@ %bb.244:
	@DEBUG_VALUE: spi_tran:byte <- 75
	@DEBUG_VALUE: wr_reg:reg <- 75
	@DEBUG_VALUE: wr_reg:val <- 25
	@DEBUG_VALUE: wr_cmd:cmd <- 75
	.loc	2 129 35 is_stmt 1              @ C:/Users/dakum/AppData/Local/Arm/Packs/Keil/V2M-MPS2_IOTKit_BSP/1.5.1/Boards/ARM/V2M-MPS2/Common/GLCD_V2M-MPS2.c:129:35
	ldr	r7, [r0]
.Ltmp453:
	.loc	2 142 3                         @ C:/Users/dakum/AppData/Local/Arm/Packs/Keil/V2M-MPS2_IOTKit_BSP/1.5.1/Boards/ARM/V2M-MPS2/Common/GLCD_V2M-MPS2.c:142:3
	ldr	r7, [r1]
	orrs	r7, r3
	str	r7, [r1]
.Ltmp454:
	@DEBUG_VALUE: wr_dat:dat <- 25
	.loc	2 151 3                         @ C:/Users/dakum/AppData/Local/Arm/Packs/Keil/V2M-MPS2_IOTKit_BSP/1.5.1/Boards/ARM/V2M-MPS2/Common/GLCD_V2M-MPS2.c:151:3
	ldr	r7, [r1]
	bics	r7, r3
	str	r7, [r1]
.Ltmp455:
	.loc	2 127 21                        @ C:/Users/dakum/AppData/Local/Arm/Packs/Keil/V2M-MPS2_IOTKit_BSP/1.5.1/Boards/ARM/V2M-MPS2/Common/GLCD_V2M-MPS2.c:127:21
	ldr	r4, [sp, #64]                   @ 4-byte Reload
.Ltmp456:
	@DEBUG_VALUE: spi_tran:byte <- 114
	str	r4, [r0]
.Ltmp457:
.LBB0_245:                              @ =>This Inner Loop Header: Depth=1
	@DEBUG_VALUE: spi_tran:byte <- 114
	@DEBUG_VALUE: wr_dat:dat <- 25
	@DEBUG_VALUE: wr_reg:reg <- 75
	@DEBUG_VALUE: wr_reg:val <- 25
	.loc	2 128 27                        @ C:/Users/dakum/AppData/Local/Arm/Packs/Keil/V2M-MPS2_IOTKit_BSP/1.5.1/Boards/ARM/V2M-MPS2/Common/GLCD_V2M-MPS2.c:128:27
	ldr	r7, [r0, #4]
	.loc	2 128 3 is_stmt 0               @ C:/Users/dakum/AppData/Local/Arm/Packs/Keil/V2M-MPS2_IOTKit_BSP/1.5.1/Boards/ARM/V2M-MPS2/Common/GLCD_V2M-MPS2.c:128:3
	lsls	r7, r7, #29
	bpl	.LBB0_245
.Ltmp458:
@ %bb.246:
	@DEBUG_VALUE: spi_tran:byte <- 114
	@DEBUG_VALUE: wr_dat:dat <- 25
	@DEBUG_VALUE: wr_reg:reg <- 75
	@DEBUG_VALUE: wr_reg:val <- 25
	.loc	2 129 35 is_stmt 1              @ C:/Users/dakum/AppData/Local/Arm/Packs/Keil/V2M-MPS2_IOTKit_BSP/1.5.1/Boards/ARM/V2M-MPS2/Common/GLCD_V2M-MPS2.c:129:35
	ldr	r7, [r0]
.Ltmp459:
	@DEBUG_VALUE: spi_tran:byte <- 0
	.loc	2 127 21                        @ C:/Users/dakum/AppData/Local/Arm/Packs/Keil/V2M-MPS2_IOTKit_BSP/1.5.1/Boards/ARM/V2M-MPS2/Common/GLCD_V2M-MPS2.c:127:21
	str	r2, [r0]
.Ltmp460:
.LBB0_247:                              @ =>This Inner Loop Header: Depth=1
	@DEBUG_VALUE: spi_tran:byte <- 0
	@DEBUG_VALUE: wr_dat:dat <- 25
	@DEBUG_VALUE: wr_reg:reg <- 75
	@DEBUG_VALUE: wr_reg:val <- 25
	.loc	2 128 27                        @ C:/Users/dakum/AppData/Local/Arm/Packs/Keil/V2M-MPS2_IOTKit_BSP/1.5.1/Boards/ARM/V2M-MPS2/Common/GLCD_V2M-MPS2.c:128:27
	ldr	r7, [r0, #4]
	.loc	2 128 3 is_stmt 0               @ C:/Users/dakum/AppData/Local/Arm/Packs/Keil/V2M-MPS2_IOTKit_BSP/1.5.1/Boards/ARM/V2M-MPS2/Common/GLCD_V2M-MPS2.c:128:3
	lsls	r7, r7, #29
	bpl	.LBB0_247
.Ltmp461:
@ %bb.248:
	@DEBUG_VALUE: spi_tran:byte <- 0
	@DEBUG_VALUE: wr_dat:dat <- 25
	@DEBUG_VALUE: wr_reg:reg <- 75
	@DEBUG_VALUE: wr_reg:val <- 25
	.loc	2 129 35 is_stmt 1              @ C:/Users/dakum/AppData/Local/Arm/Packs/Keil/V2M-MPS2_IOTKit_BSP/1.5.1/Boards/ARM/V2M-MPS2/Common/GLCD_V2M-MPS2.c:129:35
	ldr	r7, [r0]
.Ltmp462:
	.loc	2 127 21                        @ C:/Users/dakum/AppData/Local/Arm/Packs/Keil/V2M-MPS2_IOTKit_BSP/1.5.1/Boards/ARM/V2M-MPS2/Common/GLCD_V2M-MPS2.c:127:21
	ldr	r4, [sp, #48]                   @ 4-byte Reload
.Ltmp463:
	@DEBUG_VALUE: spi_tran:byte <- [DW_OP_stack_value] 25
	str	r4, [r0]
.Ltmp464:
.LBB0_249:                              @ =>This Inner Loop Header: Depth=1
	@DEBUG_VALUE: spi_tran:byte <- [DW_OP_stack_value] 25
	@DEBUG_VALUE: wr_dat:dat <- 25
	@DEBUG_VALUE: wr_reg:reg <- 75
	@DEBUG_VALUE: wr_reg:val <- 25
	.loc	2 128 27                        @ C:/Users/dakum/AppData/Local/Arm/Packs/Keil/V2M-MPS2_IOTKit_BSP/1.5.1/Boards/ARM/V2M-MPS2/Common/GLCD_V2M-MPS2.c:128:27
	ldr	r7, [r0, #4]
	.loc	2 128 3 is_stmt 0               @ C:/Users/dakum/AppData/Local/Arm/Packs/Keil/V2M-MPS2_IOTKit_BSP/1.5.1/Boards/ARM/V2M-MPS2/Common/GLCD_V2M-MPS2.c:128:3
	lsls	r7, r7, #29
	bpl	.LBB0_249
.Ltmp465:
@ %bb.250:
	@DEBUG_VALUE: spi_tran:byte <- [DW_OP_stack_value] 25
	@DEBUG_VALUE: wr_dat:dat <- 25
	@DEBUG_VALUE: wr_reg:reg <- 75
	@DEBUG_VALUE: wr_reg:val <- 25
	.loc	2 129 35 is_stmt 1              @ C:/Users/dakum/AppData/Local/Arm/Packs/Keil/V2M-MPS2_IOTKit_BSP/1.5.1/Boards/ARM/V2M-MPS2/Common/GLCD_V2M-MPS2.c:129:35
	ldr	r7, [r0]
.Ltmp466:
	.loc	2 155 3                         @ C:/Users/dakum/AppData/Local/Arm/Packs/Keil/V2M-MPS2_IOTKit_BSP/1.5.1/Boards/ARM/V2M-MPS2/Common/GLCD_V2M-MPS2.c:155:3
	ldr	r7, [r1]
	orrs	r7, r3
	str	r7, [r1]
.Ltmp467:
	@DEBUG_VALUE: wr_cmd:cmd <- 76
	@DEBUG_VALUE: wr_reg:val <- 22
	@DEBUG_VALUE: wr_reg:reg <- 76
	.loc	2 138 3                         @ C:/Users/dakum/AppData/Local/Arm/Packs/Keil/V2M-MPS2_IOTKit_BSP/1.5.1/Boards/ARM/V2M-MPS2/Common/GLCD_V2M-MPS2.c:138:3
	ldr	r7, [r1]
	bics	r7, r3
	str	r7, [r1]
.Ltmp468:
	.loc	2 127 21                        @ C:/Users/dakum/AppData/Local/Arm/Packs/Keil/V2M-MPS2_IOTKit_BSP/1.5.1/Boards/ARM/V2M-MPS2/Common/GLCD_V2M-MPS2.c:127:21
	ldr	r4, [sp, #60]                   @ 4-byte Reload
.Ltmp469:
	@DEBUG_VALUE: spi_tran:byte <- 112
	str	r4, [r0]
.Ltmp470:
.LBB0_251:                              @ =>This Inner Loop Header: Depth=1
	@DEBUG_VALUE: spi_tran:byte <- 112
	@DEBUG_VALUE: wr_reg:reg <- 76
	@DEBUG_VALUE: wr_reg:val <- 22
	@DEBUG_VALUE: wr_cmd:cmd <- 76
	.loc	2 128 27                        @ C:/Users/dakum/AppData/Local/Arm/Packs/Keil/V2M-MPS2_IOTKit_BSP/1.5.1/Boards/ARM/V2M-MPS2/Common/GLCD_V2M-MPS2.c:128:27
	ldr	r7, [r0, #4]
	.loc	2 128 3 is_stmt 0               @ C:/Users/dakum/AppData/Local/Arm/Packs/Keil/V2M-MPS2_IOTKit_BSP/1.5.1/Boards/ARM/V2M-MPS2/Common/GLCD_V2M-MPS2.c:128:3
	lsls	r7, r7, #29
	bpl	.LBB0_251
.Ltmp471:
@ %bb.252:
	@DEBUG_VALUE: spi_tran:byte <- 112
	@DEBUG_VALUE: wr_reg:reg <- 76
	@DEBUG_VALUE: wr_reg:val <- 22
	@DEBUG_VALUE: wr_cmd:cmd <- 76
	.loc	2 129 35 is_stmt 1              @ C:/Users/dakum/AppData/Local/Arm/Packs/Keil/V2M-MPS2_IOTKit_BSP/1.5.1/Boards/ARM/V2M-MPS2/Common/GLCD_V2M-MPS2.c:129:35
	ldr	r7, [r0]
.Ltmp472:
	@DEBUG_VALUE: spi_tran:byte <- 0
	.loc	2 127 21                        @ C:/Users/dakum/AppData/Local/Arm/Packs/Keil/V2M-MPS2_IOTKit_BSP/1.5.1/Boards/ARM/V2M-MPS2/Common/GLCD_V2M-MPS2.c:127:21
	str	r2, [r0]
.Ltmp473:
.LBB0_253:                              @ =>This Inner Loop Header: Depth=1
	@DEBUG_VALUE: spi_tran:byte <- 0
	@DEBUG_VALUE: wr_reg:reg <- 76
	@DEBUG_VALUE: wr_reg:val <- 22
	@DEBUG_VALUE: wr_cmd:cmd <- 76
	.loc	2 128 27                        @ C:/Users/dakum/AppData/Local/Arm/Packs/Keil/V2M-MPS2_IOTKit_BSP/1.5.1/Boards/ARM/V2M-MPS2/Common/GLCD_V2M-MPS2.c:128:27
	ldr	r7, [r0, #4]
	.loc	2 128 3 is_stmt 0               @ C:/Users/dakum/AppData/Local/Arm/Packs/Keil/V2M-MPS2_IOTKit_BSP/1.5.1/Boards/ARM/V2M-MPS2/Common/GLCD_V2M-MPS2.c:128:3
	lsls	r7, r7, #29
	bpl	.LBB0_253
.Ltmp474:
@ %bb.254:
	@DEBUG_VALUE: spi_tran:byte <- 0
	@DEBUG_VALUE: wr_reg:reg <- 76
	@DEBUG_VALUE: wr_reg:val <- 22
	@DEBUG_VALUE: wr_cmd:cmd <- 76
	.loc	2 129 35 is_stmt 1              @ C:/Users/dakum/AppData/Local/Arm/Packs/Keil/V2M-MPS2_IOTKit_BSP/1.5.1/Boards/ARM/V2M-MPS2/Common/GLCD_V2M-MPS2.c:129:35
	ldr	r7, [r0]
	movs	r7, #76
.Ltmp475:
	@DEBUG_VALUE: spi_tran:byte <- 76
	.loc	2 127 21                        @ C:/Users/dakum/AppData/Local/Arm/Packs/Keil/V2M-MPS2_IOTKit_BSP/1.5.1/Boards/ARM/V2M-MPS2/Common/GLCD_V2M-MPS2.c:127:21
	str	r7, [r0]
.Ltmp476:
.LBB0_255:                              @ =>This Inner Loop Header: Depth=1
	@DEBUG_VALUE: spi_tran:byte <- 76
	@DEBUG_VALUE: wr_reg:reg <- 76
	@DEBUG_VALUE: wr_reg:val <- 22
	@DEBUG_VALUE: wr_cmd:cmd <- 76
	.loc	2 128 27                        @ C:/Users/dakum/AppData/Local/Arm/Packs/Keil/V2M-MPS2_IOTKit_BSP/1.5.1/Boards/ARM/V2M-MPS2/Common/GLCD_V2M-MPS2.c:128:27
	ldr	r7, [r0, #4]
	.loc	2 128 3 is_stmt 0               @ C:/Users/dakum/AppData/Local/Arm/Packs/Keil/V2M-MPS2_IOTKit_BSP/1.5.1/Boards/ARM/V2M-MPS2/Common/GLCD_V2M-MPS2.c:128:3
	lsls	r7, r7, #29
	bpl	.LBB0_255
.Ltmp477:
@ %bb.256:
	@DEBUG_VALUE: spi_tran:byte <- 76
	@DEBUG_VALUE: wr_reg:reg <- 76
	@DEBUG_VALUE: wr_reg:val <- 22
	@DEBUG_VALUE: wr_cmd:cmd <- 76
	.loc	2 129 35 is_stmt 1              @ C:/Users/dakum/AppData/Local/Arm/Packs/Keil/V2M-MPS2_IOTKit_BSP/1.5.1/Boards/ARM/V2M-MPS2/Common/GLCD_V2M-MPS2.c:129:35
	ldr	r7, [r0]
.Ltmp478:
	.loc	2 142 3                         @ C:/Users/dakum/AppData/Local/Arm/Packs/Keil/V2M-MPS2_IOTKit_BSP/1.5.1/Boards/ARM/V2M-MPS2/Common/GLCD_V2M-MPS2.c:142:3
	ldr	r7, [r1]
	orrs	r7, r3
	str	r7, [r1]
.Ltmp479:
	@DEBUG_VALUE: wr_dat:dat <- 22
	.loc	2 151 3                         @ C:/Users/dakum/AppData/Local/Arm/Packs/Keil/V2M-MPS2_IOTKit_BSP/1.5.1/Boards/ARM/V2M-MPS2/Common/GLCD_V2M-MPS2.c:151:3
	ldr	r7, [r1]
	bics	r7, r3
	str	r7, [r1]
.Ltmp480:
	.loc	2 127 21                        @ C:/Users/dakum/AppData/Local/Arm/Packs/Keil/V2M-MPS2_IOTKit_BSP/1.5.1/Boards/ARM/V2M-MPS2/Common/GLCD_V2M-MPS2.c:127:21
	ldr	r4, [sp, #64]                   @ 4-byte Reload
.Ltmp481:
	@DEBUG_VALUE: spi_tran:byte <- 114
	str	r4, [r0]
.Ltmp482:
.LBB0_257:                              @ =>This Inner Loop Header: Depth=1
	@DEBUG_VALUE: spi_tran:byte <- 114
	@DEBUG_VALUE: wr_dat:dat <- 22
	@DEBUG_VALUE: wr_reg:reg <- 76
	@DEBUG_VALUE: wr_reg:val <- 22
	.loc	2 128 27                        @ C:/Users/dakum/AppData/Local/Arm/Packs/Keil/V2M-MPS2_IOTKit_BSP/1.5.1/Boards/ARM/V2M-MPS2/Common/GLCD_V2M-MPS2.c:128:27
	ldr	r7, [r0, #4]
	.loc	2 128 3 is_stmt 0               @ C:/Users/dakum/AppData/Local/Arm/Packs/Keil/V2M-MPS2_IOTKit_BSP/1.5.1/Boards/ARM/V2M-MPS2/Common/GLCD_V2M-MPS2.c:128:3
	lsls	r7, r7, #29
	bpl	.LBB0_257
.Ltmp483:
@ %bb.258:
	@DEBUG_VALUE: spi_tran:byte <- 114
	@DEBUG_VALUE: wr_dat:dat <- 22
	@DEBUG_VALUE: wr_reg:reg <- 76
	@DEBUG_VALUE: wr_reg:val <- 22
	.loc	2 129 35 is_stmt 1              @ C:/Users/dakum/AppData/Local/Arm/Packs/Keil/V2M-MPS2_IOTKit_BSP/1.5.1/Boards/ARM/V2M-MPS2/Common/GLCD_V2M-MPS2.c:129:35
	ldr	r7, [r0]
.Ltmp484:
	@DEBUG_VALUE: spi_tran:byte <- 0
	.loc	2 127 21                        @ C:/Users/dakum/AppData/Local/Arm/Packs/Keil/V2M-MPS2_IOTKit_BSP/1.5.1/Boards/ARM/V2M-MPS2/Common/GLCD_V2M-MPS2.c:127:21
	str	r2, [r0]
.Ltmp485:
.LBB0_259:                              @ =>This Inner Loop Header: Depth=1
	@DEBUG_VALUE: spi_tran:byte <- 0
	@DEBUG_VALUE: wr_dat:dat <- 22
	@DEBUG_VALUE: wr_reg:reg <- 76
	@DEBUG_VALUE: wr_reg:val <- 22
	.loc	2 128 27                        @ C:/Users/dakum/AppData/Local/Arm/Packs/Keil/V2M-MPS2_IOTKit_BSP/1.5.1/Boards/ARM/V2M-MPS2/Common/GLCD_V2M-MPS2.c:128:27
	ldr	r7, [r0, #4]
	.loc	2 128 3 is_stmt 0               @ C:/Users/dakum/AppData/Local/Arm/Packs/Keil/V2M-MPS2_IOTKit_BSP/1.5.1/Boards/ARM/V2M-MPS2/Common/GLCD_V2M-MPS2.c:128:3
	lsls	r7, r7, #29
	bpl	.LBB0_259
.Ltmp486:
@ %bb.260:
	@DEBUG_VALUE: spi_tran:byte <- 0
	@DEBUG_VALUE: wr_dat:dat <- 22
	@DEBUG_VALUE: wr_reg:reg <- 76
	@DEBUG_VALUE: wr_reg:val <- 22
	.loc	2 129 35 is_stmt 1              @ C:/Users/dakum/AppData/Local/Arm/Packs/Keil/V2M-MPS2_IOTKit_BSP/1.5.1/Boards/ARM/V2M-MPS2/Common/GLCD_V2M-MPS2.c:129:35
	ldr	r7, [r0]
	movs	r4, #22
	str	r4, [sp, #24]                   @ 4-byte Spill
.Ltmp487:
	@DEBUG_VALUE: spi_tran:byte <- [DW_OP_stack_value] 22
	.loc	2 127 21                        @ C:/Users/dakum/AppData/Local/Arm/Packs/Keil/V2M-MPS2_IOTKit_BSP/1.5.1/Boards/ARM/V2M-MPS2/Common/GLCD_V2M-MPS2.c:127:21
	str	r4, [r0]
.Ltmp488:
.LBB0_261:                              @ =>This Inner Loop Header: Depth=1
	@DEBUG_VALUE: spi_tran:byte <- [DW_OP_stack_value] 22
	@DEBUG_VALUE: wr_dat:dat <- 22
	@DEBUG_VALUE: wr_reg:reg <- 76
	@DEBUG_VALUE: wr_reg:val <- 22
	.loc	2 128 27                        @ C:/Users/dakum/AppData/Local/Arm/Packs/Keil/V2M-MPS2_IOTKit_BSP/1.5.1/Boards/ARM/V2M-MPS2/Common/GLCD_V2M-MPS2.c:128:27
	ldr	r7, [r0, #4]
	.loc	2 128 3 is_stmt 0               @ C:/Users/dakum/AppData/Local/Arm/Packs/Keil/V2M-MPS2_IOTKit_BSP/1.5.1/Boards/ARM/V2M-MPS2/Common/GLCD_V2M-MPS2.c:128:3
	lsls	r7, r7, #29
	bpl	.LBB0_261
.Ltmp489:
@ %bb.262:
	@DEBUG_VALUE: spi_tran:byte <- [DW_OP_stack_value] 22
	@DEBUG_VALUE: wr_dat:dat <- 22
	@DEBUG_VALUE: wr_reg:reg <- 76
	@DEBUG_VALUE: wr_reg:val <- 22
	.loc	2 129 35 is_stmt 1              @ C:/Users/dakum/AppData/Local/Arm/Packs/Keil/V2M-MPS2_IOTKit_BSP/1.5.1/Boards/ARM/V2M-MPS2/Common/GLCD_V2M-MPS2.c:129:35
	ldr	r7, [r0]
.Ltmp490:
	.loc	2 155 3                         @ C:/Users/dakum/AppData/Local/Arm/Packs/Keil/V2M-MPS2_IOTKit_BSP/1.5.1/Boards/ARM/V2M-MPS2/Common/GLCD_V2M-MPS2.c:155:3
	ldr	r7, [r1]
	orrs	r7, r3
	str	r7, [r1]
.Ltmp491:
	@DEBUG_VALUE: wr_cmd:cmd <- 80
	@DEBUG_VALUE: wr_reg:val <- 27
	@DEBUG_VALUE: wr_reg:reg <- 80
	.loc	2 138 3                         @ C:/Users/dakum/AppData/Local/Arm/Packs/Keil/V2M-MPS2_IOTKit_BSP/1.5.1/Boards/ARM/V2M-MPS2/Common/GLCD_V2M-MPS2.c:138:3
	ldr	r7, [r1]
	bics	r7, r3
	str	r7, [r1]
.Ltmp492:
	.loc	2 127 21                        @ C:/Users/dakum/AppData/Local/Arm/Packs/Keil/V2M-MPS2_IOTKit_BSP/1.5.1/Boards/ARM/V2M-MPS2/Common/GLCD_V2M-MPS2.c:127:21
	ldr	r4, [sp, #60]                   @ 4-byte Reload
.Ltmp493:
	@DEBUG_VALUE: spi_tran:byte <- 112
	str	r4, [r0]
.Ltmp494:
.LBB0_263:                              @ =>This Inner Loop Header: Depth=1
	@DEBUG_VALUE: spi_tran:byte <- 112
	@DEBUG_VALUE: wr_reg:reg <- 80
	@DEBUG_VALUE: wr_reg:val <- 27
	@DEBUG_VALUE: wr_cmd:cmd <- 80
	.loc	2 128 27                        @ C:/Users/dakum/AppData/Local/Arm/Packs/Keil/V2M-MPS2_IOTKit_BSP/1.5.1/Boards/ARM/V2M-MPS2/Common/GLCD_V2M-MPS2.c:128:27
	ldr	r7, [r0, #4]
	.loc	2 128 3 is_stmt 0               @ C:/Users/dakum/AppData/Local/Arm/Packs/Keil/V2M-MPS2_IOTKit_BSP/1.5.1/Boards/ARM/V2M-MPS2/Common/GLCD_V2M-MPS2.c:128:3
	lsls	r7, r7, #29
	bpl	.LBB0_263
.Ltmp495:
@ %bb.264:
	@DEBUG_VALUE: spi_tran:byte <- 112
	@DEBUG_VALUE: wr_reg:reg <- 80
	@DEBUG_VALUE: wr_reg:val <- 27
	@DEBUG_VALUE: wr_cmd:cmd <- 80
	.loc	2 129 35 is_stmt 1              @ C:/Users/dakum/AppData/Local/Arm/Packs/Keil/V2M-MPS2_IOTKit_BSP/1.5.1/Boards/ARM/V2M-MPS2/Common/GLCD_V2M-MPS2.c:129:35
	ldr	r7, [r0]
.Ltmp496:
	@DEBUG_VALUE: spi_tran:byte <- 0
	.loc	2 127 21                        @ C:/Users/dakum/AppData/Local/Arm/Packs/Keil/V2M-MPS2_IOTKit_BSP/1.5.1/Boards/ARM/V2M-MPS2/Common/GLCD_V2M-MPS2.c:127:21
	str	r2, [r0]
.Ltmp497:
.LBB0_265:                              @ =>This Inner Loop Header: Depth=1
	@DEBUG_VALUE: spi_tran:byte <- 0
	@DEBUG_VALUE: wr_reg:reg <- 80
	@DEBUG_VALUE: wr_reg:val <- 27
	@DEBUG_VALUE: wr_cmd:cmd <- 80
	.loc	2 128 27                        @ C:/Users/dakum/AppData/Local/Arm/Packs/Keil/V2M-MPS2_IOTKit_BSP/1.5.1/Boards/ARM/V2M-MPS2/Common/GLCD_V2M-MPS2.c:128:27
	ldr	r7, [r0, #4]
	.loc	2 128 3 is_stmt 0               @ C:/Users/dakum/AppData/Local/Arm/Packs/Keil/V2M-MPS2_IOTKit_BSP/1.5.1/Boards/ARM/V2M-MPS2/Common/GLCD_V2M-MPS2.c:128:3
	lsls	r7, r7, #29
	bpl	.LBB0_265
.Ltmp498:
@ %bb.266:
	@DEBUG_VALUE: spi_tran:byte <- 0
	@DEBUG_VALUE: wr_reg:reg <- 80
	@DEBUG_VALUE: wr_reg:val <- 27
	@DEBUG_VALUE: wr_cmd:cmd <- 80
	.loc	2 129 35 is_stmt 1              @ C:/Users/dakum/AppData/Local/Arm/Packs/Keil/V2M-MPS2_IOTKit_BSP/1.5.1/Boards/ARM/V2M-MPS2/Common/GLCD_V2M-MPS2.c:129:35
	ldr	r7, [r0]
.Ltmp499:
	@DEBUG_VALUE: spi_tran:byte <- 80
	.loc	2 127 21                        @ C:/Users/dakum/AppData/Local/Arm/Packs/Keil/V2M-MPS2_IOTKit_BSP/1.5.1/Boards/ARM/V2M-MPS2/Common/GLCD_V2M-MPS2.c:127:21
	str	r6, [r0]
.Ltmp500:
.LBB0_267:                              @ =>This Inner Loop Header: Depth=1
	@DEBUG_VALUE: spi_tran:byte <- 80
	@DEBUG_VALUE: wr_reg:reg <- 80
	@DEBUG_VALUE: wr_reg:val <- 27
	@DEBUG_VALUE: wr_cmd:cmd <- 80
	.loc	2 128 27                        @ C:/Users/dakum/AppData/Local/Arm/Packs/Keil/V2M-MPS2_IOTKit_BSP/1.5.1/Boards/ARM/V2M-MPS2/Common/GLCD_V2M-MPS2.c:128:27
	ldr	r6, [r0, #4]
	.loc	2 128 3 is_stmt 0               @ C:/Users/dakum/AppData/Local/Arm/Packs/Keil/V2M-MPS2_IOTKit_BSP/1.5.1/Boards/ARM/V2M-MPS2/Common/GLCD_V2M-MPS2.c:128:3
	lsls	r6, r6, #29
	bpl	.LBB0_267
.Ltmp501:
@ %bb.268:
	@DEBUG_VALUE: spi_tran:byte <- 80
	@DEBUG_VALUE: wr_reg:reg <- 80
	@DEBUG_VALUE: wr_reg:val <- 27
	@DEBUG_VALUE: wr_cmd:cmd <- 80
	.loc	2 129 35 is_stmt 1              @ C:/Users/dakum/AppData/Local/Arm/Packs/Keil/V2M-MPS2_IOTKit_BSP/1.5.1/Boards/ARM/V2M-MPS2/Common/GLCD_V2M-MPS2.c:129:35
	ldr	r6, [r0]
.Ltmp502:
	.loc	2 142 3                         @ C:/Users/dakum/AppData/Local/Arm/Packs/Keil/V2M-MPS2_IOTKit_BSP/1.5.1/Boards/ARM/V2M-MPS2/Common/GLCD_V2M-MPS2.c:142:3
	ldr	r6, [r1]
	orrs	r6, r3
	str	r6, [r1]
.Ltmp503:
	@DEBUG_VALUE: wr_dat:dat <- 27
	.loc	2 151 3                         @ C:/Users/dakum/AppData/Local/Arm/Packs/Keil/V2M-MPS2_IOTKit_BSP/1.5.1/Boards/ARM/V2M-MPS2/Common/GLCD_V2M-MPS2.c:151:3
	ldr	r6, [r1]
	bics	r6, r3
	str	r6, [r1]
	ldr	r7, [sp, #64]                   @ 4-byte Reload
.Ltmp504:
	@DEBUG_VALUE: spi_tran:byte <- 114
	.loc	2 127 21                        @ C:/Users/dakum/AppData/Local/Arm/Packs/Keil/V2M-MPS2_IOTKit_BSP/1.5.1/Boards/ARM/V2M-MPS2/Common/GLCD_V2M-MPS2.c:127:21
	str	r7, [r0]
	ldr	r4, [sp, #60]                   @ 4-byte Reload
.Ltmp505:
.LBB0_269:                              @ =>This Inner Loop Header: Depth=1
	@DEBUG_VALUE: spi_tran:byte <- 114
	@DEBUG_VALUE: wr_dat:dat <- 27
	@DEBUG_VALUE: wr_reg:reg <- 80
	@DEBUG_VALUE: wr_reg:val <- 27
	.loc	2 128 27                        @ C:/Users/dakum/AppData/Local/Arm/Packs/Keil/V2M-MPS2_IOTKit_BSP/1.5.1/Boards/ARM/V2M-MPS2/Common/GLCD_V2M-MPS2.c:128:27
	ldr	r6, [r0, #4]
	.loc	2 128 3 is_stmt 0               @ C:/Users/dakum/AppData/Local/Arm/Packs/Keil/V2M-MPS2_IOTKit_BSP/1.5.1/Boards/ARM/V2M-MPS2/Common/GLCD_V2M-MPS2.c:128:3
	lsls	r6, r6, #29
	bpl	.LBB0_269
.Ltmp506:
@ %bb.270:
	@DEBUG_VALUE: spi_tran:byte <- 114
	@DEBUG_VALUE: wr_dat:dat <- 27
	@DEBUG_VALUE: wr_reg:reg <- 80
	@DEBUG_VALUE: wr_reg:val <- 27
	.loc	2 129 35 is_stmt 1              @ C:/Users/dakum/AppData/Local/Arm/Packs/Keil/V2M-MPS2_IOTKit_BSP/1.5.1/Boards/ARM/V2M-MPS2/Common/GLCD_V2M-MPS2.c:129:35
	ldr	r6, [r0]
.Ltmp507:
	@DEBUG_VALUE: spi_tran:byte <- 0
	.loc	2 127 21                        @ C:/Users/dakum/AppData/Local/Arm/Packs/Keil/V2M-MPS2_IOTKit_BSP/1.5.1/Boards/ARM/V2M-MPS2/Common/GLCD_V2M-MPS2.c:127:21
	str	r2, [r0]
.Ltmp508:
.LBB0_271:                              @ =>This Inner Loop Header: Depth=1
	@DEBUG_VALUE: spi_tran:byte <- 0
	@DEBUG_VALUE: wr_dat:dat <- 27
	@DEBUG_VALUE: wr_reg:reg <- 80
	@DEBUG_VALUE: wr_reg:val <- 27
	.loc	2 128 27                        @ C:/Users/dakum/AppData/Local/Arm/Packs/Keil/V2M-MPS2_IOTKit_BSP/1.5.1/Boards/ARM/V2M-MPS2/Common/GLCD_V2M-MPS2.c:128:27
	ldr	r6, [r0, #4]
	.loc	2 128 3 is_stmt 0               @ C:/Users/dakum/AppData/Local/Arm/Packs/Keil/V2M-MPS2_IOTKit_BSP/1.5.1/Boards/ARM/V2M-MPS2/Common/GLCD_V2M-MPS2.c:128:3
	lsls	r6, r6, #29
	bpl	.LBB0_271
.Ltmp509:
@ %bb.272:
	@DEBUG_VALUE: spi_tran:byte <- 0
	@DEBUG_VALUE: wr_dat:dat <- 27
	@DEBUG_VALUE: wr_reg:reg <- 80
	@DEBUG_VALUE: wr_reg:val <- 27
	.loc	2 129 35 is_stmt 1              @ C:/Users/dakum/AppData/Local/Arm/Packs/Keil/V2M-MPS2_IOTKit_BSP/1.5.1/Boards/ARM/V2M-MPS2/Common/GLCD_V2M-MPS2.c:129:35
	ldr	r6, [r0]
	movs	r6, #27
	str	r6, [sp, #44]                   @ 4-byte Spill
.Ltmp510:
	@DEBUG_VALUE: spi_tran:byte <- [DW_OP_stack_value] 27
	.loc	2 127 21                        @ C:/Users/dakum/AppData/Local/Arm/Packs/Keil/V2M-MPS2_IOTKit_BSP/1.5.1/Boards/ARM/V2M-MPS2/Common/GLCD_V2M-MPS2.c:127:21
	str	r6, [r0]
.Ltmp511:
.LBB0_273:                              @ =>This Inner Loop Header: Depth=1
	@DEBUG_VALUE: spi_tran:byte <- [DW_OP_stack_value] 27
	@DEBUG_VALUE: wr_dat:dat <- 27
	@DEBUG_VALUE: wr_reg:reg <- 80
	@DEBUG_VALUE: wr_reg:val <- 27
	.loc	2 128 27                        @ C:/Users/dakum/AppData/Local/Arm/Packs/Keil/V2M-MPS2_IOTKit_BSP/1.5.1/Boards/ARM/V2M-MPS2/Common/GLCD_V2M-MPS2.c:128:27
	ldr	r6, [r0, #4]
	.loc	2 128 3 is_stmt 0               @ C:/Users/dakum/AppData/Local/Arm/Packs/Keil/V2M-MPS2_IOTKit_BSP/1.5.1/Boards/ARM/V2M-MPS2/Common/GLCD_V2M-MPS2.c:128:3
	lsls	r6, r6, #29
	bpl	.LBB0_273
.Ltmp512:
@ %bb.274:
	@DEBUG_VALUE: spi_tran:byte <- [DW_OP_stack_value] 27
	@DEBUG_VALUE: wr_dat:dat <- 27
	@DEBUG_VALUE: wr_reg:reg <- 80
	@DEBUG_VALUE: wr_reg:val <- 27
	.loc	2 129 35 is_stmt 1              @ C:/Users/dakum/AppData/Local/Arm/Packs/Keil/V2M-MPS2_IOTKit_BSP/1.5.1/Boards/ARM/V2M-MPS2/Common/GLCD_V2M-MPS2.c:129:35
	ldr	r6, [r0]
.Ltmp513:
	.loc	2 155 3                         @ C:/Users/dakum/AppData/Local/Arm/Packs/Keil/V2M-MPS2_IOTKit_BSP/1.5.1/Boards/ARM/V2M-MPS2/Common/GLCD_V2M-MPS2.c:155:3
	ldr	r6, [r1]
	orrs	r6, r3
	str	r6, [r1]
.Ltmp514:
	@DEBUG_VALUE: wr_cmd:cmd <- 81
	@DEBUG_VALUE: wr_reg:val <- 49
	@DEBUG_VALUE: wr_reg:reg <- 81
	.loc	2 138 3                         @ C:/Users/dakum/AppData/Local/Arm/Packs/Keil/V2M-MPS2_IOTKit_BSP/1.5.1/Boards/ARM/V2M-MPS2/Common/GLCD_V2M-MPS2.c:138:3
	ldr	r6, [r1]
	bics	r6, r3
	str	r6, [r1]
.Ltmp515:
	@DEBUG_VALUE: spi_tran:byte <- 112
	.loc	2 127 21                        @ C:/Users/dakum/AppData/Local/Arm/Packs/Keil/V2M-MPS2_IOTKit_BSP/1.5.1/Boards/ARM/V2M-MPS2/Common/GLCD_V2M-MPS2.c:127:21
	str	r4, [r0]
.Ltmp516:
.LBB0_275:                              @ =>This Inner Loop Header: Depth=1
	@DEBUG_VALUE: spi_tran:byte <- 112
	@DEBUG_VALUE: wr_reg:reg <- 81
	@DEBUG_VALUE: wr_reg:val <- 49
	@DEBUG_VALUE: wr_cmd:cmd <- 81
	.loc	2 128 27                        @ C:/Users/dakum/AppData/Local/Arm/Packs/Keil/V2M-MPS2_IOTKit_BSP/1.5.1/Boards/ARM/V2M-MPS2/Common/GLCD_V2M-MPS2.c:128:27
	ldr	r6, [r0, #4]
	.loc	2 128 3 is_stmt 0               @ C:/Users/dakum/AppData/Local/Arm/Packs/Keil/V2M-MPS2_IOTKit_BSP/1.5.1/Boards/ARM/V2M-MPS2/Common/GLCD_V2M-MPS2.c:128:3
	lsls	r6, r6, #29
	bpl	.LBB0_275
.Ltmp517:
@ %bb.276:
	@DEBUG_VALUE: spi_tran:byte <- 112
	@DEBUG_VALUE: wr_reg:reg <- 81
	@DEBUG_VALUE: wr_reg:val <- 49
	@DEBUG_VALUE: wr_cmd:cmd <- 81
	.loc	2 129 35 is_stmt 1              @ C:/Users/dakum/AppData/Local/Arm/Packs/Keil/V2M-MPS2_IOTKit_BSP/1.5.1/Boards/ARM/V2M-MPS2/Common/GLCD_V2M-MPS2.c:129:35
	ldr	r6, [r0]
.Ltmp518:
	@DEBUG_VALUE: spi_tran:byte <- 0
	.loc	2 127 21                        @ C:/Users/dakum/AppData/Local/Arm/Packs/Keil/V2M-MPS2_IOTKit_BSP/1.5.1/Boards/ARM/V2M-MPS2/Common/GLCD_V2M-MPS2.c:127:21
	str	r2, [r0]
.Ltmp519:
.LBB0_277:                              @ =>This Inner Loop Header: Depth=1
	@DEBUG_VALUE: spi_tran:byte <- 0
	@DEBUG_VALUE: wr_reg:reg <- 81
	@DEBUG_VALUE: wr_reg:val <- 49
	@DEBUG_VALUE: wr_cmd:cmd <- 81
	.loc	2 128 27                        @ C:/Users/dakum/AppData/Local/Arm/Packs/Keil/V2M-MPS2_IOTKit_BSP/1.5.1/Boards/ARM/V2M-MPS2/Common/GLCD_V2M-MPS2.c:128:27
	ldr	r6, [r0, #4]
	.loc	2 128 3 is_stmt 0               @ C:/Users/dakum/AppData/Local/Arm/Packs/Keil/V2M-MPS2_IOTKit_BSP/1.5.1/Boards/ARM/V2M-MPS2/Common/GLCD_V2M-MPS2.c:128:3
	lsls	r6, r6, #29
	bpl	.LBB0_277
.Ltmp520:
@ %bb.278:
	@DEBUG_VALUE: spi_tran:byte <- 0
	@DEBUG_VALUE: wr_reg:reg <- 81
	@DEBUG_VALUE: wr_reg:val <- 49
	@DEBUG_VALUE: wr_cmd:cmd <- 81
	.loc	2 129 35 is_stmt 1              @ C:/Users/dakum/AppData/Local/Arm/Packs/Keil/V2M-MPS2_IOTKit_BSP/1.5.1/Boards/ARM/V2M-MPS2/Common/GLCD_V2M-MPS2.c:129:35
	ldr	r6, [r0]
	movs	r6, #81
.Ltmp521:
	@DEBUG_VALUE: spi_tran:byte <- 81
	.loc	2 127 21                        @ C:/Users/dakum/AppData/Local/Arm/Packs/Keil/V2M-MPS2_IOTKit_BSP/1.5.1/Boards/ARM/V2M-MPS2/Common/GLCD_V2M-MPS2.c:127:21
	str	r6, [r0]
.Ltmp522:
.LBB0_279:                              @ =>This Inner Loop Header: Depth=1
	@DEBUG_VALUE: spi_tran:byte <- 81
	@DEBUG_VALUE: wr_reg:reg <- 81
	@DEBUG_VALUE: wr_reg:val <- 49
	@DEBUG_VALUE: wr_cmd:cmd <- 81
	.loc	2 128 27                        @ C:/Users/dakum/AppData/Local/Arm/Packs/Keil/V2M-MPS2_IOTKit_BSP/1.5.1/Boards/ARM/V2M-MPS2/Common/GLCD_V2M-MPS2.c:128:27
	ldr	r6, [r0, #4]
	.loc	2 128 3 is_stmt 0               @ C:/Users/dakum/AppData/Local/Arm/Packs/Keil/V2M-MPS2_IOTKit_BSP/1.5.1/Boards/ARM/V2M-MPS2/Common/GLCD_V2M-MPS2.c:128:3
	lsls	r6, r6, #29
	bpl	.LBB0_279
.Ltmp523:
@ %bb.280:
	@DEBUG_VALUE: spi_tran:byte <- 81
	@DEBUG_VALUE: wr_reg:reg <- 81
	@DEBUG_VALUE: wr_reg:val <- 49
	@DEBUG_VALUE: wr_cmd:cmd <- 81
	.loc	2 129 35 is_stmt 1              @ C:/Users/dakum/AppData/Local/Arm/Packs/Keil/V2M-MPS2_IOTKit_BSP/1.5.1/Boards/ARM/V2M-MPS2/Common/GLCD_V2M-MPS2.c:129:35
	ldr	r6, [r0]
.Ltmp524:
	.loc	2 142 3                         @ C:/Users/dakum/AppData/Local/Arm/Packs/Keil/V2M-MPS2_IOTKit_BSP/1.5.1/Boards/ARM/V2M-MPS2/Common/GLCD_V2M-MPS2.c:142:3
	ldr	r6, [r1]
	orrs	r6, r3
	str	r6, [r1]
.Ltmp525:
	@DEBUG_VALUE: wr_dat:dat <- 49
	.loc	2 151 3                         @ C:/Users/dakum/AppData/Local/Arm/Packs/Keil/V2M-MPS2_IOTKit_BSP/1.5.1/Boards/ARM/V2M-MPS2/Common/GLCD_V2M-MPS2.c:151:3
	ldr	r6, [r1]
	bics	r6, r3
	str	r6, [r1]
.Ltmp526:
	@DEBUG_VALUE: spi_tran:byte <- 114
	.loc	2 127 21                        @ C:/Users/dakum/AppData/Local/Arm/Packs/Keil/V2M-MPS2_IOTKit_BSP/1.5.1/Boards/ARM/V2M-MPS2/Common/GLCD_V2M-MPS2.c:127:21
	str	r7, [r0]
.Ltmp527:
.LBB0_281:                              @ =>This Inner Loop Header: Depth=1
	@DEBUG_VALUE: spi_tran:byte <- 114
	@DEBUG_VALUE: wr_dat:dat <- 49
	@DEBUG_VALUE: wr_reg:reg <- 81
	@DEBUG_VALUE: wr_reg:val <- 49
	.loc	2 128 27                        @ C:/Users/dakum/AppData/Local/Arm/Packs/Keil/V2M-MPS2_IOTKit_BSP/1.5.1/Boards/ARM/V2M-MPS2/Common/GLCD_V2M-MPS2.c:128:27
	ldr	r6, [r0, #4]
	.loc	2 128 3 is_stmt 0               @ C:/Users/dakum/AppData/Local/Arm/Packs/Keil/V2M-MPS2_IOTKit_BSP/1.5.1/Boards/ARM/V2M-MPS2/Common/GLCD_V2M-MPS2.c:128:3
	lsls	r6, r6, #29
	bpl	.LBB0_281
.Ltmp528:
@ %bb.282:
	@DEBUG_VALUE: spi_tran:byte <- 114
	@DEBUG_VALUE: wr_dat:dat <- 49
	@DEBUG_VALUE: wr_reg:reg <- 81
	@DEBUG_VALUE: wr_reg:val <- 49
	.loc	2 129 35 is_stmt 1              @ C:/Users/dakum/AppData/Local/Arm/Packs/Keil/V2M-MPS2_IOTKit_BSP/1.5.1/Boards/ARM/V2M-MPS2/Common/GLCD_V2M-MPS2.c:129:35
	ldr	r6, [r0]
.Ltmp529:
	@DEBUG_VALUE: spi_tran:byte <- 0
	.loc	2 127 21                        @ C:/Users/dakum/AppData/Local/Arm/Packs/Keil/V2M-MPS2_IOTKit_BSP/1.5.1/Boards/ARM/V2M-MPS2/Common/GLCD_V2M-MPS2.c:127:21
	str	r2, [r0]
.Ltmp530:
.LBB0_283:                              @ =>This Inner Loop Header: Depth=1
	@DEBUG_VALUE: spi_tran:byte <- 0
	@DEBUG_VALUE: wr_dat:dat <- 49
	@DEBUG_VALUE: wr_reg:reg <- 81
	@DEBUG_VALUE: wr_reg:val <- 49
	.loc	2 128 27                        @ C:/Users/dakum/AppData/Local/Arm/Packs/Keil/V2M-MPS2_IOTKit_BSP/1.5.1/Boards/ARM/V2M-MPS2/Common/GLCD_V2M-MPS2.c:128:27
	ldr	r6, [r0, #4]
	.loc	2 128 3 is_stmt 0               @ C:/Users/dakum/AppData/Local/Arm/Packs/Keil/V2M-MPS2_IOTKit_BSP/1.5.1/Boards/ARM/V2M-MPS2/Common/GLCD_V2M-MPS2.c:128:3
	lsls	r6, r6, #29
	bpl	.LBB0_283
.Ltmp531:
@ %bb.284:
	@DEBUG_VALUE: spi_tran:byte <- 0
	@DEBUG_VALUE: wr_dat:dat <- 49
	@DEBUG_VALUE: wr_reg:reg <- 81
	@DEBUG_VALUE: wr_reg:val <- 49
	.loc	2 129 35 is_stmt 1              @ C:/Users/dakum/AppData/Local/Arm/Packs/Keil/V2M-MPS2_IOTKit_BSP/1.5.1/Boards/ARM/V2M-MPS2/Common/GLCD_V2M-MPS2.c:129:35
	ldr	r6, [r0]
	movs	r6, #49
	str	r6, [sp, #12]                   @ 4-byte Spill
.Ltmp532:
	@DEBUG_VALUE: spi_tran:byte <- [DW_OP_stack_value] 49
	.loc	2 127 21                        @ C:/Users/dakum/AppData/Local/Arm/Packs/Keil/V2M-MPS2_IOTKit_BSP/1.5.1/Boards/ARM/V2M-MPS2/Common/GLCD_V2M-MPS2.c:127:21
	str	r6, [r0]
.Ltmp533:
.LBB0_285:                              @ =>This Inner Loop Header: Depth=1
	@DEBUG_VALUE: spi_tran:byte <- [DW_OP_stack_value] 49
	@DEBUG_VALUE: wr_dat:dat <- 49
	@DEBUG_VALUE: wr_reg:reg <- 81
	@DEBUG_VALUE: wr_reg:val <- 49
	.loc	2 128 27                        @ C:/Users/dakum/AppData/Local/Arm/Packs/Keil/V2M-MPS2_IOTKit_BSP/1.5.1/Boards/ARM/V2M-MPS2/Common/GLCD_V2M-MPS2.c:128:27
	ldr	r6, [r0, #4]
	.loc	2 128 3 is_stmt 0               @ C:/Users/dakum/AppData/Local/Arm/Packs/Keil/V2M-MPS2_IOTKit_BSP/1.5.1/Boards/ARM/V2M-MPS2/Common/GLCD_V2M-MPS2.c:128:3
	lsls	r6, r6, #29
	bpl	.LBB0_285
.Ltmp534:
@ %bb.286:
	@DEBUG_VALUE: spi_tran:byte <- [DW_OP_stack_value] 49
	@DEBUG_VALUE: wr_dat:dat <- 49
	@DEBUG_VALUE: wr_reg:reg <- 81
	@DEBUG_VALUE: wr_reg:val <- 49
	.loc	2 129 35 is_stmt 1              @ C:/Users/dakum/AppData/Local/Arm/Packs/Keil/V2M-MPS2_IOTKit_BSP/1.5.1/Boards/ARM/V2M-MPS2/Common/GLCD_V2M-MPS2.c:129:35
	ldr	r6, [r0]
.Ltmp535:
	.loc	2 155 3                         @ C:/Users/dakum/AppData/Local/Arm/Packs/Keil/V2M-MPS2_IOTKit_BSP/1.5.1/Boards/ARM/V2M-MPS2/Common/GLCD_V2M-MPS2.c:155:3
	ldr	r6, [r1]
	orrs	r6, r3
	str	r6, [r1]
.Ltmp536:
	@DEBUG_VALUE: wr_cmd:cmd <- 82
	@DEBUG_VALUE: wr_reg:val <- 47
	@DEBUG_VALUE: wr_reg:reg <- 82
	.loc	2 138 3                         @ C:/Users/dakum/AppData/Local/Arm/Packs/Keil/V2M-MPS2_IOTKit_BSP/1.5.1/Boards/ARM/V2M-MPS2/Common/GLCD_V2M-MPS2.c:138:3
	ldr	r6, [r1]
	bics	r6, r3
	str	r6, [r1]
.Ltmp537:
	@DEBUG_VALUE: spi_tran:byte <- 112
	.loc	2 127 21                        @ C:/Users/dakum/AppData/Local/Arm/Packs/Keil/V2M-MPS2_IOTKit_BSP/1.5.1/Boards/ARM/V2M-MPS2/Common/GLCD_V2M-MPS2.c:127:21
	str	r4, [r0]
.Ltmp538:
.LBB0_287:                              @ =>This Inner Loop Header: Depth=1
	@DEBUG_VALUE: spi_tran:byte <- 112
	@DEBUG_VALUE: wr_reg:reg <- 82
	@DEBUG_VALUE: wr_reg:val <- 47
	@DEBUG_VALUE: wr_cmd:cmd <- 82
	.loc	2 128 27                        @ C:/Users/dakum/AppData/Local/Arm/Packs/Keil/V2M-MPS2_IOTKit_BSP/1.5.1/Boards/ARM/V2M-MPS2/Common/GLCD_V2M-MPS2.c:128:27
	ldr	r6, [r0, #4]
	.loc	2 128 3 is_stmt 0               @ C:/Users/dakum/AppData/Local/Arm/Packs/Keil/V2M-MPS2_IOTKit_BSP/1.5.1/Boards/ARM/V2M-MPS2/Common/GLCD_V2M-MPS2.c:128:3
	lsls	r6, r6, #29
	bpl	.LBB0_287
.Ltmp539:
@ %bb.288:
	@DEBUG_VALUE: spi_tran:byte <- 112
	@DEBUG_VALUE: wr_reg:reg <- 82
	@DEBUG_VALUE: wr_reg:val <- 47
	@DEBUG_VALUE: wr_cmd:cmd <- 82
	.loc	2 129 35 is_stmt 1              @ C:/Users/dakum/AppData/Local/Arm/Packs/Keil/V2M-MPS2_IOTKit_BSP/1.5.1/Boards/ARM/V2M-MPS2/Common/GLCD_V2M-MPS2.c:129:35
	ldr	r6, [r0]
.Ltmp540:
	@DEBUG_VALUE: spi_tran:byte <- 0
	.loc	2 127 21                        @ C:/Users/dakum/AppData/Local/Arm/Packs/Keil/V2M-MPS2_IOTKit_BSP/1.5.1/Boards/ARM/V2M-MPS2/Common/GLCD_V2M-MPS2.c:127:21
	str	r2, [r0]
.Ltmp541:
.LBB0_289:                              @ =>This Inner Loop Header: Depth=1
	@DEBUG_VALUE: spi_tran:byte <- 0
	@DEBUG_VALUE: wr_reg:reg <- 82
	@DEBUG_VALUE: wr_reg:val <- 47
	@DEBUG_VALUE: wr_cmd:cmd <- 82
	.loc	2 128 27                        @ C:/Users/dakum/AppData/Local/Arm/Packs/Keil/V2M-MPS2_IOTKit_BSP/1.5.1/Boards/ARM/V2M-MPS2/Common/GLCD_V2M-MPS2.c:128:27
	ldr	r6, [r0, #4]
	.loc	2 128 3 is_stmt 0               @ C:/Users/dakum/AppData/Local/Arm/Packs/Keil/V2M-MPS2_IOTKit_BSP/1.5.1/Boards/ARM/V2M-MPS2/Common/GLCD_V2M-MPS2.c:128:3
	lsls	r6, r6, #29
	bpl	.LBB0_289
.Ltmp542:
@ %bb.290:
	@DEBUG_VALUE: spi_tran:byte <- 0
	@DEBUG_VALUE: wr_reg:reg <- 82
	@DEBUG_VALUE: wr_reg:val <- 47
	@DEBUG_VALUE: wr_cmd:cmd <- 82
	.loc	2 129 35 is_stmt 1              @ C:/Users/dakum/AppData/Local/Arm/Packs/Keil/V2M-MPS2_IOTKit_BSP/1.5.1/Boards/ARM/V2M-MPS2/Common/GLCD_V2M-MPS2.c:129:35
	ldr	r6, [r0]
	movs	r6, #82
.Ltmp543:
	@DEBUG_VALUE: spi_tran:byte <- 82
	.loc	2 127 21                        @ C:/Users/dakum/AppData/Local/Arm/Packs/Keil/V2M-MPS2_IOTKit_BSP/1.5.1/Boards/ARM/V2M-MPS2/Common/GLCD_V2M-MPS2.c:127:21
	str	r6, [r0]
.Ltmp544:
.LBB0_291:                              @ =>This Inner Loop Header: Depth=1
	@DEBUG_VALUE: spi_tran:byte <- 82
	@DEBUG_VALUE: wr_reg:reg <- 82
	@DEBUG_VALUE: wr_reg:val <- 47
	@DEBUG_VALUE: wr_cmd:cmd <- 82
	.loc	2 128 27                        @ C:/Users/dakum/AppData/Local/Arm/Packs/Keil/V2M-MPS2_IOTKit_BSP/1.5.1/Boards/ARM/V2M-MPS2/Common/GLCD_V2M-MPS2.c:128:27
	ldr	r6, [r0, #4]
	.loc	2 128 3 is_stmt 0               @ C:/Users/dakum/AppData/Local/Arm/Packs/Keil/V2M-MPS2_IOTKit_BSP/1.5.1/Boards/ARM/V2M-MPS2/Common/GLCD_V2M-MPS2.c:128:3
	lsls	r6, r6, #29
	bpl	.LBB0_291
.Ltmp545:
@ %bb.292:
	@DEBUG_VALUE: spi_tran:byte <- 82
	@DEBUG_VALUE: wr_reg:reg <- 82
	@DEBUG_VALUE: wr_reg:val <- 47
	@DEBUG_VALUE: wr_cmd:cmd <- 82
	.loc	2 129 35 is_stmt 1              @ C:/Users/dakum/AppData/Local/Arm/Packs/Keil/V2M-MPS2_IOTKit_BSP/1.5.1/Boards/ARM/V2M-MPS2/Common/GLCD_V2M-MPS2.c:129:35
	ldr	r6, [r0]
.Ltmp546:
	.loc	2 142 3                         @ C:/Users/dakum/AppData/Local/Arm/Packs/Keil/V2M-MPS2_IOTKit_BSP/1.5.1/Boards/ARM/V2M-MPS2/Common/GLCD_V2M-MPS2.c:142:3
	ldr	r6, [r1]
	orrs	r6, r3
	str	r6, [r1]
.Ltmp547:
	@DEBUG_VALUE: wr_dat:dat <- 47
	.loc	2 151 3                         @ C:/Users/dakum/AppData/Local/Arm/Packs/Keil/V2M-MPS2_IOTKit_BSP/1.5.1/Boards/ARM/V2M-MPS2/Common/GLCD_V2M-MPS2.c:151:3
	ldr	r6, [r1]
	bics	r6, r3
	str	r6, [r1]
.Ltmp548:
	@DEBUG_VALUE: spi_tran:byte <- 114
	.loc	2 127 21                        @ C:/Users/dakum/AppData/Local/Arm/Packs/Keil/V2M-MPS2_IOTKit_BSP/1.5.1/Boards/ARM/V2M-MPS2/Common/GLCD_V2M-MPS2.c:127:21
	str	r7, [r0]
.Ltmp549:
.LBB0_293:                              @ =>This Inner Loop Header: Depth=1
	@DEBUG_VALUE: spi_tran:byte <- 114
	@DEBUG_VALUE: wr_dat:dat <- 47
	@DEBUG_VALUE: wr_reg:reg <- 82
	@DEBUG_VALUE: wr_reg:val <- 47
	.loc	2 128 27                        @ C:/Users/dakum/AppData/Local/Arm/Packs/Keil/V2M-MPS2_IOTKit_BSP/1.5.1/Boards/ARM/V2M-MPS2/Common/GLCD_V2M-MPS2.c:128:27
	ldr	r6, [r0, #4]
	.loc	2 128 3 is_stmt 0               @ C:/Users/dakum/AppData/Local/Arm/Packs/Keil/V2M-MPS2_IOTKit_BSP/1.5.1/Boards/ARM/V2M-MPS2/Common/GLCD_V2M-MPS2.c:128:3
	lsls	r6, r6, #29
	bpl	.LBB0_293
.Ltmp550:
@ %bb.294:
	@DEBUG_VALUE: spi_tran:byte <- 114
	@DEBUG_VALUE: wr_dat:dat <- 47
	@DEBUG_VALUE: wr_reg:reg <- 82
	@DEBUG_VALUE: wr_reg:val <- 47
	.loc	2 129 35 is_stmt 1              @ C:/Users/dakum/AppData/Local/Arm/Packs/Keil/V2M-MPS2_IOTKit_BSP/1.5.1/Boards/ARM/V2M-MPS2/Common/GLCD_V2M-MPS2.c:129:35
	ldr	r6, [r0]
.Ltmp551:
	@DEBUG_VALUE: spi_tran:byte <- 0
	.loc	2 127 21                        @ C:/Users/dakum/AppData/Local/Arm/Packs/Keil/V2M-MPS2_IOTKit_BSP/1.5.1/Boards/ARM/V2M-MPS2/Common/GLCD_V2M-MPS2.c:127:21
	str	r2, [r0]
.Ltmp552:
.LBB0_295:                              @ =>This Inner Loop Header: Depth=1
	@DEBUG_VALUE: spi_tran:byte <- 0
	@DEBUG_VALUE: wr_dat:dat <- 47
	@DEBUG_VALUE: wr_reg:reg <- 82
	@DEBUG_VALUE: wr_reg:val <- 47
	.loc	2 128 27                        @ C:/Users/dakum/AppData/Local/Arm/Packs/Keil/V2M-MPS2_IOTKit_BSP/1.5.1/Boards/ARM/V2M-MPS2/Common/GLCD_V2M-MPS2.c:128:27
	ldr	r6, [r0, #4]
	.loc	2 128 3 is_stmt 0               @ C:/Users/dakum/AppData/Local/Arm/Packs/Keil/V2M-MPS2_IOTKit_BSP/1.5.1/Boards/ARM/V2M-MPS2/Common/GLCD_V2M-MPS2.c:128:3
	lsls	r6, r6, #29
	bpl	.LBB0_295
.Ltmp553:
@ %bb.296:
	@DEBUG_VALUE: spi_tran:byte <- 0
	@DEBUG_VALUE: wr_dat:dat <- 47
	@DEBUG_VALUE: wr_reg:reg <- 82
	@DEBUG_VALUE: wr_reg:val <- 47
	.loc	2 129 35 is_stmt 1              @ C:/Users/dakum/AppData/Local/Arm/Packs/Keil/V2M-MPS2_IOTKit_BSP/1.5.1/Boards/ARM/V2M-MPS2/Common/GLCD_V2M-MPS2.c:129:35
	ldr	r6, [r0]
	movs	r6, #47
	str	r6, [sp, #52]                   @ 4-byte Spill
.Ltmp554:
	@DEBUG_VALUE: spi_tran:byte <- [DW_OP_stack_value] 47
	.loc	2 127 21                        @ C:/Users/dakum/AppData/Local/Arm/Packs/Keil/V2M-MPS2_IOTKit_BSP/1.5.1/Boards/ARM/V2M-MPS2/Common/GLCD_V2M-MPS2.c:127:21
	str	r6, [r0]
.Ltmp555:
.LBB0_297:                              @ =>This Inner Loop Header: Depth=1
	@DEBUG_VALUE: spi_tran:byte <- [DW_OP_stack_value] 47
	@DEBUG_VALUE: wr_dat:dat <- 47
	@DEBUG_VALUE: wr_reg:reg <- 82
	@DEBUG_VALUE: wr_reg:val <- 47
	.loc	2 128 27                        @ C:/Users/dakum/AppData/Local/Arm/Packs/Keil/V2M-MPS2_IOTKit_BSP/1.5.1/Boards/ARM/V2M-MPS2/Common/GLCD_V2M-MPS2.c:128:27
	ldr	r6, [r0, #4]
	.loc	2 128 3 is_stmt 0               @ C:/Users/dakum/AppData/Local/Arm/Packs/Keil/V2M-MPS2_IOTKit_BSP/1.5.1/Boards/ARM/V2M-MPS2/Common/GLCD_V2M-MPS2.c:128:3
	lsls	r6, r6, #29
	bpl	.LBB0_297
.Ltmp556:
@ %bb.298:
	@DEBUG_VALUE: spi_tran:byte <- [DW_OP_stack_value] 47
	@DEBUG_VALUE: wr_dat:dat <- 47
	@DEBUG_VALUE: wr_reg:reg <- 82
	@DEBUG_VALUE: wr_reg:val <- 47
	.loc	2 129 35 is_stmt 1              @ C:/Users/dakum/AppData/Local/Arm/Packs/Keil/V2M-MPS2_IOTKit_BSP/1.5.1/Boards/ARM/V2M-MPS2/Common/GLCD_V2M-MPS2.c:129:35
	ldr	r6, [r0]
.Ltmp557:
	.loc	2 155 3                         @ C:/Users/dakum/AppData/Local/Arm/Packs/Keil/V2M-MPS2_IOTKit_BSP/1.5.1/Boards/ARM/V2M-MPS2/Common/GLCD_V2M-MPS2.c:155:3
	ldr	r6, [r1]
	orrs	r6, r3
	str	r6, [r1]
.Ltmp558:
	@DEBUG_VALUE: wr_cmd:cmd <- 83
	@DEBUG_VALUE: wr_reg:val <- 63
	@DEBUG_VALUE: wr_reg:reg <- 83
	.loc	2 138 3                         @ C:/Users/dakum/AppData/Local/Arm/Packs/Keil/V2M-MPS2_IOTKit_BSP/1.5.1/Boards/ARM/V2M-MPS2/Common/GLCD_V2M-MPS2.c:138:3
	ldr	r6, [r1]
	bics	r6, r3
	str	r6, [r1]
.Ltmp559:
	@DEBUG_VALUE: spi_tran:byte <- 112
	.loc	2 127 21                        @ C:/Users/dakum/AppData/Local/Arm/Packs/Keil/V2M-MPS2_IOTKit_BSP/1.5.1/Boards/ARM/V2M-MPS2/Common/GLCD_V2M-MPS2.c:127:21
	str	r4, [r0]
.Ltmp560:
.LBB0_299:                              @ =>This Inner Loop Header: Depth=1
	@DEBUG_VALUE: spi_tran:byte <- 112
	@DEBUG_VALUE: wr_reg:reg <- 83
	@DEBUG_VALUE: wr_reg:val <- 63
	@DEBUG_VALUE: wr_cmd:cmd <- 83
	.loc	2 128 27                        @ C:/Users/dakum/AppData/Local/Arm/Packs/Keil/V2M-MPS2_IOTKit_BSP/1.5.1/Boards/ARM/V2M-MPS2/Common/GLCD_V2M-MPS2.c:128:27
	ldr	r6, [r0, #4]
	.loc	2 128 3 is_stmt 0               @ C:/Users/dakum/AppData/Local/Arm/Packs/Keil/V2M-MPS2_IOTKit_BSP/1.5.1/Boards/ARM/V2M-MPS2/Common/GLCD_V2M-MPS2.c:128:3
	lsls	r6, r6, #29
	bpl	.LBB0_299
.Ltmp561:
@ %bb.300:
	@DEBUG_VALUE: spi_tran:byte <- 112
	@DEBUG_VALUE: wr_reg:reg <- 83
	@DEBUG_VALUE: wr_reg:val <- 63
	@DEBUG_VALUE: wr_cmd:cmd <- 83
	.loc	2 129 35 is_stmt 1              @ C:/Users/dakum/AppData/Local/Arm/Packs/Keil/V2M-MPS2_IOTKit_BSP/1.5.1/Boards/ARM/V2M-MPS2/Common/GLCD_V2M-MPS2.c:129:35
	ldr	r6, [r0]
.Ltmp562:
	@DEBUG_VALUE: spi_tran:byte <- 0
	.loc	2 127 21                        @ C:/Users/dakum/AppData/Local/Arm/Packs/Keil/V2M-MPS2_IOTKit_BSP/1.5.1/Boards/ARM/V2M-MPS2/Common/GLCD_V2M-MPS2.c:127:21
	str	r2, [r0]
.Ltmp563:
.LBB0_301:                              @ =>This Inner Loop Header: Depth=1
	@DEBUG_VALUE: spi_tran:byte <- 0
	@DEBUG_VALUE: wr_reg:reg <- 83
	@DEBUG_VALUE: wr_reg:val <- 63
	@DEBUG_VALUE: wr_cmd:cmd <- 83
	.loc	2 128 27                        @ C:/Users/dakum/AppData/Local/Arm/Packs/Keil/V2M-MPS2_IOTKit_BSP/1.5.1/Boards/ARM/V2M-MPS2/Common/GLCD_V2M-MPS2.c:128:27
	ldr	r6, [r0, #4]
	.loc	2 128 3 is_stmt 0               @ C:/Users/dakum/AppData/Local/Arm/Packs/Keil/V2M-MPS2_IOTKit_BSP/1.5.1/Boards/ARM/V2M-MPS2/Common/GLCD_V2M-MPS2.c:128:3
	lsls	r6, r6, #29
	bpl	.LBB0_301
.Ltmp564:
@ %bb.302:
	@DEBUG_VALUE: spi_tran:byte <- 0
	@DEBUG_VALUE: wr_reg:reg <- 83
	@DEBUG_VALUE: wr_reg:val <- 63
	@DEBUG_VALUE: wr_cmd:cmd <- 83
	.loc	2 129 35 is_stmt 1              @ C:/Users/dakum/AppData/Local/Arm/Packs/Keil/V2M-MPS2_IOTKit_BSP/1.5.1/Boards/ARM/V2M-MPS2/Common/GLCD_V2M-MPS2.c:129:35
	ldr	r6, [r0]
	movs	r6, #83
.Ltmp565:
	@DEBUG_VALUE: spi_tran:byte <- 83
	.loc	2 127 21                        @ C:/Users/dakum/AppData/Local/Arm/Packs/Keil/V2M-MPS2_IOTKit_BSP/1.5.1/Boards/ARM/V2M-MPS2/Common/GLCD_V2M-MPS2.c:127:21
	str	r6, [r0]
.Ltmp566:
.LBB0_303:                              @ =>This Inner Loop Header: Depth=1
	@DEBUG_VALUE: spi_tran:byte <- 83
	@DEBUG_VALUE: wr_reg:reg <- 83
	@DEBUG_VALUE: wr_reg:val <- 63
	@DEBUG_VALUE: wr_cmd:cmd <- 83
	.loc	2 128 27                        @ C:/Users/dakum/AppData/Local/Arm/Packs/Keil/V2M-MPS2_IOTKit_BSP/1.5.1/Boards/ARM/V2M-MPS2/Common/GLCD_V2M-MPS2.c:128:27
	ldr	r6, [r0, #4]
	.loc	2 128 3 is_stmt 0               @ C:/Users/dakum/AppData/Local/Arm/Packs/Keil/V2M-MPS2_IOTKit_BSP/1.5.1/Boards/ARM/V2M-MPS2/Common/GLCD_V2M-MPS2.c:128:3
	lsls	r6, r6, #29
	bpl	.LBB0_303
.Ltmp567:
@ %bb.304:
	@DEBUG_VALUE: spi_tran:byte <- 83
	@DEBUG_VALUE: wr_reg:reg <- 83
	@DEBUG_VALUE: wr_reg:val <- 63
	@DEBUG_VALUE: wr_cmd:cmd <- 83
	.loc	2 129 35 is_stmt 1              @ C:/Users/dakum/AppData/Local/Arm/Packs/Keil/V2M-MPS2_IOTKit_BSP/1.5.1/Boards/ARM/V2M-MPS2/Common/GLCD_V2M-MPS2.c:129:35
	ldr	r6, [r0]
.Ltmp568:
	.loc	2 142 3                         @ C:/Users/dakum/AppData/Local/Arm/Packs/Keil/V2M-MPS2_IOTKit_BSP/1.5.1/Boards/ARM/V2M-MPS2/Common/GLCD_V2M-MPS2.c:142:3
	ldr	r6, [r1]
	orrs	r6, r3
	str	r6, [r1]
.Ltmp569:
	@DEBUG_VALUE: wr_dat:dat <- 63
	.loc	2 151 3                         @ C:/Users/dakum/AppData/Local/Arm/Packs/Keil/V2M-MPS2_IOTKit_BSP/1.5.1/Boards/ARM/V2M-MPS2/Common/GLCD_V2M-MPS2.c:151:3
	ldr	r6, [r1]
	bics	r6, r3
	str	r6, [r1]
.Ltmp570:
	@DEBUG_VALUE: spi_tran:byte <- 114
	.loc	2 127 21                        @ C:/Users/dakum/AppData/Local/Arm/Packs/Keil/V2M-MPS2_IOTKit_BSP/1.5.1/Boards/ARM/V2M-MPS2/Common/GLCD_V2M-MPS2.c:127:21
	str	r7, [r0]
.Ltmp571:
.LBB0_305:                              @ =>This Inner Loop Header: Depth=1
	@DEBUG_VALUE: spi_tran:byte <- 114
	@DEBUG_VALUE: wr_dat:dat <- 63
	@DEBUG_VALUE: wr_reg:reg <- 83
	@DEBUG_VALUE: wr_reg:val <- 63
	.loc	2 128 27                        @ C:/Users/dakum/AppData/Local/Arm/Packs/Keil/V2M-MPS2_IOTKit_BSP/1.5.1/Boards/ARM/V2M-MPS2/Common/GLCD_V2M-MPS2.c:128:27
	ldr	r6, [r0, #4]
	.loc	2 128 3 is_stmt 0               @ C:/Users/dakum/AppData/Local/Arm/Packs/Keil/V2M-MPS2_IOTKit_BSP/1.5.1/Boards/ARM/V2M-MPS2/Common/GLCD_V2M-MPS2.c:128:3
	lsls	r6, r6, #29
	bpl	.LBB0_305
.Ltmp572:
@ %bb.306:
	@DEBUG_VALUE: spi_tran:byte <- 114
	@DEBUG_VALUE: wr_dat:dat <- 63
	@DEBUG_VALUE: wr_reg:reg <- 83
	@DEBUG_VALUE: wr_reg:val <- 63
	.loc	2 129 35 is_stmt 1              @ C:/Users/dakum/AppData/Local/Arm/Packs/Keil/V2M-MPS2_IOTKit_BSP/1.5.1/Boards/ARM/V2M-MPS2/Common/GLCD_V2M-MPS2.c:129:35
	ldr	r6, [r0]
.Ltmp573:
	@DEBUG_VALUE: spi_tran:byte <- 0
	.loc	2 127 21                        @ C:/Users/dakum/AppData/Local/Arm/Packs/Keil/V2M-MPS2_IOTKit_BSP/1.5.1/Boards/ARM/V2M-MPS2/Common/GLCD_V2M-MPS2.c:127:21
	str	r2, [r0]
.Ltmp574:
.LBB0_307:                              @ =>This Inner Loop Header: Depth=1
	@DEBUG_VALUE: spi_tran:byte <- 0
	@DEBUG_VALUE: wr_dat:dat <- 63
	@DEBUG_VALUE: wr_reg:reg <- 83
	@DEBUG_VALUE: wr_reg:val <- 63
	.loc	2 128 27                        @ C:/Users/dakum/AppData/Local/Arm/Packs/Keil/V2M-MPS2_IOTKit_BSP/1.5.1/Boards/ARM/V2M-MPS2/Common/GLCD_V2M-MPS2.c:128:27
	ldr	r6, [r0, #4]
	.loc	2 128 3 is_stmt 0               @ C:/Users/dakum/AppData/Local/Arm/Packs/Keil/V2M-MPS2_IOTKit_BSP/1.5.1/Boards/ARM/V2M-MPS2/Common/GLCD_V2M-MPS2.c:128:3
	lsls	r6, r6, #29
	bpl	.LBB0_307
.Ltmp575:
@ %bb.308:
	@DEBUG_VALUE: spi_tran:byte <- 0
	@DEBUG_VALUE: wr_dat:dat <- 63
	@DEBUG_VALUE: wr_reg:reg <- 83
	@DEBUG_VALUE: wr_reg:val <- 63
	.loc	2 129 35 is_stmt 1              @ C:/Users/dakum/AppData/Local/Arm/Packs/Keil/V2M-MPS2_IOTKit_BSP/1.5.1/Boards/ARM/V2M-MPS2/Common/GLCD_V2M-MPS2.c:129:35
	ldr	r6, [r0]
	movs	r6, #63
.Ltmp576:
	@DEBUG_VALUE: spi_tran:byte <- [DW_OP_stack_value] 63
	.loc	2 127 21                        @ C:/Users/dakum/AppData/Local/Arm/Packs/Keil/V2M-MPS2_IOTKit_BSP/1.5.1/Boards/ARM/V2M-MPS2/Common/GLCD_V2M-MPS2.c:127:21
	str	r6, [r0]
.Ltmp577:
.LBB0_309:                              @ =>This Inner Loop Header: Depth=1
	@DEBUG_VALUE: spi_tran:byte <- [DW_OP_stack_value] 63
	@DEBUG_VALUE: wr_dat:dat <- 63
	@DEBUG_VALUE: wr_reg:reg <- 83
	@DEBUG_VALUE: wr_reg:val <- 63
	.loc	2 128 27                        @ C:/Users/dakum/AppData/Local/Arm/Packs/Keil/V2M-MPS2_IOTKit_BSP/1.5.1/Boards/ARM/V2M-MPS2/Common/GLCD_V2M-MPS2.c:128:27
	ldr	r7, [r0, #4]
	.loc	2 128 3 is_stmt 0               @ C:/Users/dakum/AppData/Local/Arm/Packs/Keil/V2M-MPS2_IOTKit_BSP/1.5.1/Boards/ARM/V2M-MPS2/Common/GLCD_V2M-MPS2.c:128:3
	lsls	r7, r7, #29
	bpl	.LBB0_309
.Ltmp578:
@ %bb.310:
	@DEBUG_VALUE: spi_tran:byte <- [DW_OP_stack_value] 63
	@DEBUG_VALUE: wr_dat:dat <- 63
	@DEBUG_VALUE: wr_reg:reg <- 83
	@DEBUG_VALUE: wr_reg:val <- 63
	.loc	2 129 35 is_stmt 1              @ C:/Users/dakum/AppData/Local/Arm/Packs/Keil/V2M-MPS2_IOTKit_BSP/1.5.1/Boards/ARM/V2M-MPS2/Common/GLCD_V2M-MPS2.c:129:35
	ldr	r7, [r0]
.Ltmp579:
	.loc	2 155 3                         @ C:/Users/dakum/AppData/Local/Arm/Packs/Keil/V2M-MPS2_IOTKit_BSP/1.5.1/Boards/ARM/V2M-MPS2/Common/GLCD_V2M-MPS2.c:155:3
	ldr	r7, [r1]
	orrs	r7, r3
	str	r7, [r1]
.Ltmp580:
	@DEBUG_VALUE: wr_cmd:cmd <- 84
	@DEBUG_VALUE: wr_reg:val <- 63
	@DEBUG_VALUE: wr_reg:reg <- 84
	.loc	2 138 3                         @ C:/Users/dakum/AppData/Local/Arm/Packs/Keil/V2M-MPS2_IOTKit_BSP/1.5.1/Boards/ARM/V2M-MPS2/Common/GLCD_V2M-MPS2.c:138:3
	ldr	r7, [r1]
	bics	r7, r3
	str	r7, [r1]
.Ltmp581:
	.loc	2 127 21                        @ C:/Users/dakum/AppData/Local/Arm/Packs/Keil/V2M-MPS2_IOTKit_BSP/1.5.1/Boards/ARM/V2M-MPS2/Common/GLCD_V2M-MPS2.c:127:21
	ldr	r4, [sp, #60]                   @ 4-byte Reload
.Ltmp582:
	@DEBUG_VALUE: spi_tran:byte <- 112
	str	r4, [r0]
.Ltmp583:
.LBB0_311:                              @ =>This Inner Loop Header: Depth=1
	@DEBUG_VALUE: spi_tran:byte <- 112
	@DEBUG_VALUE: wr_reg:reg <- 84
	@DEBUG_VALUE: wr_reg:val <- 63
	@DEBUG_VALUE: wr_cmd:cmd <- 84
	.loc	2 128 27                        @ C:/Users/dakum/AppData/Local/Arm/Packs/Keil/V2M-MPS2_IOTKit_BSP/1.5.1/Boards/ARM/V2M-MPS2/Common/GLCD_V2M-MPS2.c:128:27
	ldr	r7, [r0, #4]
	.loc	2 128 3 is_stmt 0               @ C:/Users/dakum/AppData/Local/Arm/Packs/Keil/V2M-MPS2_IOTKit_BSP/1.5.1/Boards/ARM/V2M-MPS2/Common/GLCD_V2M-MPS2.c:128:3
	lsls	r7, r7, #29
	bpl	.LBB0_311
.Ltmp584:
@ %bb.312:
	@DEBUG_VALUE: spi_tran:byte <- 112
	@DEBUG_VALUE: wr_reg:reg <- 84
	@DEBUG_VALUE: wr_reg:val <- 63
	@DEBUG_VALUE: wr_cmd:cmd <- 84
	.loc	2 129 35 is_stmt 1              @ C:/Users/dakum/AppData/Local/Arm/Packs/Keil/V2M-MPS2_IOTKit_BSP/1.5.1/Boards/ARM/V2M-MPS2/Common/GLCD_V2M-MPS2.c:129:35
	ldr	r7, [r0]
.Ltmp585:
	@DEBUG_VALUE: spi_tran:byte <- 0
	.loc	2 127 21                        @ C:/Users/dakum/AppData/Local/Arm/Packs/Keil/V2M-MPS2_IOTKit_BSP/1.5.1/Boards/ARM/V2M-MPS2/Common/GLCD_V2M-MPS2.c:127:21
	str	r2, [r0]
.Ltmp586:
.LBB0_313:                              @ =>This Inner Loop Header: Depth=1
	@DEBUG_VALUE: spi_tran:byte <- 0
	@DEBUG_VALUE: wr_reg:reg <- 84
	@DEBUG_VALUE: wr_reg:val <- 63
	@DEBUG_VALUE: wr_cmd:cmd <- 84
	.loc	2 128 27                        @ C:/Users/dakum/AppData/Local/Arm/Packs/Keil/V2M-MPS2_IOTKit_BSP/1.5.1/Boards/ARM/V2M-MPS2/Common/GLCD_V2M-MPS2.c:128:27
	ldr	r7, [r0, #4]
	.loc	2 128 3 is_stmt 0               @ C:/Users/dakum/AppData/Local/Arm/Packs/Keil/V2M-MPS2_IOTKit_BSP/1.5.1/Boards/ARM/V2M-MPS2/Common/GLCD_V2M-MPS2.c:128:3
	lsls	r7, r7, #29
	bpl	.LBB0_313
.Ltmp587:
@ %bb.314:
	@DEBUG_VALUE: spi_tran:byte <- 0
	@DEBUG_VALUE: wr_reg:reg <- 84
	@DEBUG_VALUE: wr_reg:val <- 63
	@DEBUG_VALUE: wr_cmd:cmd <- 84
	.loc	2 129 35 is_stmt 1              @ C:/Users/dakum/AppData/Local/Arm/Packs/Keil/V2M-MPS2_IOTKit_BSP/1.5.1/Boards/ARM/V2M-MPS2/Common/GLCD_V2M-MPS2.c:129:35
	ldr	r7, [r0]
	movs	r7, #84
.Ltmp588:
	@DEBUG_VALUE: spi_tran:byte <- 84
	.loc	2 127 21                        @ C:/Users/dakum/AppData/Local/Arm/Packs/Keil/V2M-MPS2_IOTKit_BSP/1.5.1/Boards/ARM/V2M-MPS2/Common/GLCD_V2M-MPS2.c:127:21
	str	r7, [r0]
.Ltmp589:
.LBB0_315:                              @ =>This Inner Loop Header: Depth=1
	@DEBUG_VALUE: spi_tran:byte <- 84
	@DEBUG_VALUE: wr_reg:reg <- 84
	@DEBUG_VALUE: wr_reg:val <- 63
	@DEBUG_VALUE: wr_cmd:cmd <- 84
	.loc	2 128 27                        @ C:/Users/dakum/AppData/Local/Arm/Packs/Keil/V2M-MPS2_IOTKit_BSP/1.5.1/Boards/ARM/V2M-MPS2/Common/GLCD_V2M-MPS2.c:128:27
	ldr	r7, [r0, #4]
	.loc	2 128 3 is_stmt 0               @ C:/Users/dakum/AppData/Local/Arm/Packs/Keil/V2M-MPS2_IOTKit_BSP/1.5.1/Boards/ARM/V2M-MPS2/Common/GLCD_V2M-MPS2.c:128:3
	lsls	r7, r7, #29
	bpl	.LBB0_315
.Ltmp590:
@ %bb.316:
	@DEBUG_VALUE: spi_tran:byte <- 84
	@DEBUG_VALUE: wr_reg:reg <- 84
	@DEBUG_VALUE: wr_reg:val <- 63
	@DEBUG_VALUE: wr_cmd:cmd <- 84
	.loc	2 129 35 is_stmt 1              @ C:/Users/dakum/AppData/Local/Arm/Packs/Keil/V2M-MPS2_IOTKit_BSP/1.5.1/Boards/ARM/V2M-MPS2/Common/GLCD_V2M-MPS2.c:129:35
	ldr	r7, [r0]
.Ltmp591:
	.loc	2 142 3                         @ C:/Users/dakum/AppData/Local/Arm/Packs/Keil/V2M-MPS2_IOTKit_BSP/1.5.1/Boards/ARM/V2M-MPS2/Common/GLCD_V2M-MPS2.c:142:3
	ldr	r7, [r1]
	orrs	r7, r3
	str	r7, [r1]
.Ltmp592:
	@DEBUG_VALUE: wr_dat:dat <- 63
	.loc	2 151 3                         @ C:/Users/dakum/AppData/Local/Arm/Packs/Keil/V2M-MPS2_IOTKit_BSP/1.5.1/Boards/ARM/V2M-MPS2/Common/GLCD_V2M-MPS2.c:151:3
	ldr	r7, [r1]
	bics	r7, r3
	str	r7, [r1]
.Ltmp593:
	.loc	2 127 21                        @ C:/Users/dakum/AppData/Local/Arm/Packs/Keil/V2M-MPS2_IOTKit_BSP/1.5.1/Boards/ARM/V2M-MPS2/Common/GLCD_V2M-MPS2.c:127:21
	ldr	r4, [sp, #64]                   @ 4-byte Reload
.Ltmp594:
	@DEBUG_VALUE: spi_tran:byte <- 114
	str	r4, [r0]
.Ltmp595:
.LBB0_317:                              @ =>This Inner Loop Header: Depth=1
	@DEBUG_VALUE: spi_tran:byte <- 114
	@DEBUG_VALUE: wr_dat:dat <- 63
	@DEBUG_VALUE: wr_reg:reg <- 84
	@DEBUG_VALUE: wr_reg:val <- 63
	.loc	2 128 27                        @ C:/Users/dakum/AppData/Local/Arm/Packs/Keil/V2M-MPS2_IOTKit_BSP/1.5.1/Boards/ARM/V2M-MPS2/Common/GLCD_V2M-MPS2.c:128:27
	ldr	r7, [r0, #4]
	.loc	2 128 3 is_stmt 0               @ C:/Users/dakum/AppData/Local/Arm/Packs/Keil/V2M-MPS2_IOTKit_BSP/1.5.1/Boards/ARM/V2M-MPS2/Common/GLCD_V2M-MPS2.c:128:3
	lsls	r7, r7, #29
	bpl	.LBB0_317
.Ltmp596:
@ %bb.318:
	@DEBUG_VALUE: spi_tran:byte <- 114
	@DEBUG_VALUE: wr_dat:dat <- 63
	@DEBUG_VALUE: wr_reg:reg <- 84
	@DEBUG_VALUE: wr_reg:val <- 63
	.loc	2 129 35 is_stmt 1              @ C:/Users/dakum/AppData/Local/Arm/Packs/Keil/V2M-MPS2_IOTKit_BSP/1.5.1/Boards/ARM/V2M-MPS2/Common/GLCD_V2M-MPS2.c:129:35
	ldr	r7, [r0]
.Ltmp597:
	@DEBUG_VALUE: spi_tran:byte <- 0
	.loc	2 127 21                        @ C:/Users/dakum/AppData/Local/Arm/Packs/Keil/V2M-MPS2_IOTKit_BSP/1.5.1/Boards/ARM/V2M-MPS2/Common/GLCD_V2M-MPS2.c:127:21
	str	r2, [r0]
.Ltmp598:
.LBB0_319:                              @ =>This Inner Loop Header: Depth=1
	@DEBUG_VALUE: spi_tran:byte <- 0
	@DEBUG_VALUE: wr_dat:dat <- 63
	@DEBUG_VALUE: wr_reg:reg <- 84
	@DEBUG_VALUE: wr_reg:val <- 63
	.loc	2 128 27                        @ C:/Users/dakum/AppData/Local/Arm/Packs/Keil/V2M-MPS2_IOTKit_BSP/1.5.1/Boards/ARM/V2M-MPS2/Common/GLCD_V2M-MPS2.c:128:27
	ldr	r7, [r0, #4]
	.loc	2 128 3 is_stmt 0               @ C:/Users/dakum/AppData/Local/Arm/Packs/Keil/V2M-MPS2_IOTKit_BSP/1.5.1/Boards/ARM/V2M-MPS2/Common/GLCD_V2M-MPS2.c:128:3
	lsls	r7, r7, #29
	bpl	.LBB0_319
.Ltmp599:
@ %bb.320:
	@DEBUG_VALUE: spi_tran:byte <- 0
	@DEBUG_VALUE: wr_dat:dat <- 63
	@DEBUG_VALUE: wr_reg:reg <- 84
	@DEBUG_VALUE: wr_reg:val <- 63
	.loc	2 129 35 is_stmt 1              @ C:/Users/dakum/AppData/Local/Arm/Packs/Keil/V2M-MPS2_IOTKit_BSP/1.5.1/Boards/ARM/V2M-MPS2/Common/GLCD_V2M-MPS2.c:129:35
	ldr	r7, [r0]
.Ltmp600:
	@DEBUG_VALUE: spi_tran:byte <- [DW_OP_stack_value] 63
	.loc	2 127 21                        @ C:/Users/dakum/AppData/Local/Arm/Packs/Keil/V2M-MPS2_IOTKit_BSP/1.5.1/Boards/ARM/V2M-MPS2/Common/GLCD_V2M-MPS2.c:127:21
	str	r6, [r0]
.Ltmp601:
.LBB0_321:                              @ =>This Inner Loop Header: Depth=1
	@DEBUG_VALUE: spi_tran:byte <- [DW_OP_stack_value] 63
	@DEBUG_VALUE: wr_dat:dat <- 63
	@DEBUG_VALUE: wr_reg:reg <- 84
	@DEBUG_VALUE: wr_reg:val <- 63
	.loc	2 128 27                        @ C:/Users/dakum/AppData/Local/Arm/Packs/Keil/V2M-MPS2_IOTKit_BSP/1.5.1/Boards/ARM/V2M-MPS2/Common/GLCD_V2M-MPS2.c:128:27
	ldr	r6, [r0, #4]
	.loc	2 128 3 is_stmt 0               @ C:/Users/dakum/AppData/Local/Arm/Packs/Keil/V2M-MPS2_IOTKit_BSP/1.5.1/Boards/ARM/V2M-MPS2/Common/GLCD_V2M-MPS2.c:128:3
	lsls	r6, r6, #29
	bpl	.LBB0_321
.Ltmp602:
@ %bb.322:
	@DEBUG_VALUE: spi_tran:byte <- [DW_OP_stack_value] 63
	@DEBUG_VALUE: wr_dat:dat <- 63
	@DEBUG_VALUE: wr_reg:reg <- 84
	@DEBUG_VALUE: wr_reg:val <- 63
	.loc	2 129 35 is_stmt 1              @ C:/Users/dakum/AppData/Local/Arm/Packs/Keil/V2M-MPS2_IOTKit_BSP/1.5.1/Boards/ARM/V2M-MPS2/Common/GLCD_V2M-MPS2.c:129:35
	ldr	r6, [r0]
.Ltmp603:
	.loc	2 155 3                         @ C:/Users/dakum/AppData/Local/Arm/Packs/Keil/V2M-MPS2_IOTKit_BSP/1.5.1/Boards/ARM/V2M-MPS2/Common/GLCD_V2M-MPS2.c:155:3
	ldr	r6, [r1]
	orrs	r6, r3
	str	r6, [r1]
.Ltmp604:
	@DEBUG_VALUE: wr_cmd:cmd <- 85
	@DEBUG_VALUE: wr_reg:val <- 62
	@DEBUG_VALUE: wr_reg:reg <- 85
	.loc	2 138 3                         @ C:/Users/dakum/AppData/Local/Arm/Packs/Keil/V2M-MPS2_IOTKit_BSP/1.5.1/Boards/ARM/V2M-MPS2/Common/GLCD_V2M-MPS2.c:138:3
	ldr	r6, [r1]
	bics	r6, r3
	str	r6, [r1]
	ldr	r4, [sp, #60]                   @ 4-byte Reload
.Ltmp605:
	@DEBUG_VALUE: spi_tran:byte <- 112
	.loc	2 127 21                        @ C:/Users/dakum/AppData/Local/Arm/Packs/Keil/V2M-MPS2_IOTKit_BSP/1.5.1/Boards/ARM/V2M-MPS2/Common/GLCD_V2M-MPS2.c:127:21
	str	r4, [r0]
	ldr	r7, [sp, #64]                   @ 4-byte Reload
.Ltmp606:
.LBB0_323:                              @ =>This Inner Loop Header: Depth=1
	@DEBUG_VALUE: spi_tran:byte <- 112
	@DEBUG_VALUE: wr_reg:reg <- 85
	@DEBUG_VALUE: wr_reg:val <- 62
	@DEBUG_VALUE: wr_cmd:cmd <- 85
	.loc	2 128 27                        @ C:/Users/dakum/AppData/Local/Arm/Packs/Keil/V2M-MPS2_IOTKit_BSP/1.5.1/Boards/ARM/V2M-MPS2/Common/GLCD_V2M-MPS2.c:128:27
	ldr	r6, [r0, #4]
	.loc	2 128 3 is_stmt 0               @ C:/Users/dakum/AppData/Local/Arm/Packs/Keil/V2M-MPS2_IOTKit_BSP/1.5.1/Boards/ARM/V2M-MPS2/Common/GLCD_V2M-MPS2.c:128:3
	lsls	r6, r6, #29
	bpl	.LBB0_323
.Ltmp607:
@ %bb.324:
	@DEBUG_VALUE: spi_tran:byte <- 112
	@DEBUG_VALUE: wr_reg:reg <- 85
	@DEBUG_VALUE: wr_reg:val <- 62
	@DEBUG_VALUE: wr_cmd:cmd <- 85
	.loc	2 129 35 is_stmt 1              @ C:/Users/dakum/AppData/Local/Arm/Packs/Keil/V2M-MPS2_IOTKit_BSP/1.5.1/Boards/ARM/V2M-MPS2/Common/GLCD_V2M-MPS2.c:129:35
	ldr	r6, [r0]
.Ltmp608:
	@DEBUG_VALUE: spi_tran:byte <- 0
	.loc	2 127 21                        @ C:/Users/dakum/AppData/Local/Arm/Packs/Keil/V2M-MPS2_IOTKit_BSP/1.5.1/Boards/ARM/V2M-MPS2/Common/GLCD_V2M-MPS2.c:127:21
	str	r2, [r0]
.Ltmp609:
.LBB0_325:                              @ =>This Inner Loop Header: Depth=1
	@DEBUG_VALUE: spi_tran:byte <- 0
	@DEBUG_VALUE: wr_reg:reg <- 85
	@DEBUG_VALUE: wr_reg:val <- 62
	@DEBUG_VALUE: wr_cmd:cmd <- 85
	.loc	2 128 27                        @ C:/Users/dakum/AppData/Local/Arm/Packs/Keil/V2M-MPS2_IOTKit_BSP/1.5.1/Boards/ARM/V2M-MPS2/Common/GLCD_V2M-MPS2.c:128:27
	ldr	r6, [r0, #4]
	.loc	2 128 3 is_stmt 0               @ C:/Users/dakum/AppData/Local/Arm/Packs/Keil/V2M-MPS2_IOTKit_BSP/1.5.1/Boards/ARM/V2M-MPS2/Common/GLCD_V2M-MPS2.c:128:3
	lsls	r6, r6, #29
	bpl	.LBB0_325
.Ltmp610:
@ %bb.326:
	@DEBUG_VALUE: spi_tran:byte <- 0
	@DEBUG_VALUE: wr_reg:reg <- 85
	@DEBUG_VALUE: wr_reg:val <- 62
	@DEBUG_VALUE: wr_cmd:cmd <- 85
	.loc	2 129 35 is_stmt 1              @ C:/Users/dakum/AppData/Local/Arm/Packs/Keil/V2M-MPS2_IOTKit_BSP/1.5.1/Boards/ARM/V2M-MPS2/Common/GLCD_V2M-MPS2.c:129:35
	ldr	r6, [r0]
	movs	r6, #85
	str	r6, [sp, #4]                    @ 4-byte Spill
.Ltmp611:
	@DEBUG_VALUE: spi_tran:byte <- 85
	.loc	2 127 21                        @ C:/Users/dakum/AppData/Local/Arm/Packs/Keil/V2M-MPS2_IOTKit_BSP/1.5.1/Boards/ARM/V2M-MPS2/Common/GLCD_V2M-MPS2.c:127:21
	str	r6, [r0]
.Ltmp612:
.LBB0_327:                              @ =>This Inner Loop Header: Depth=1
	@DEBUG_VALUE: spi_tran:byte <- 85
	@DEBUG_VALUE: wr_reg:reg <- 85
	@DEBUG_VALUE: wr_reg:val <- 62
	@DEBUG_VALUE: wr_cmd:cmd <- 85
	.loc	2 128 27                        @ C:/Users/dakum/AppData/Local/Arm/Packs/Keil/V2M-MPS2_IOTKit_BSP/1.5.1/Boards/ARM/V2M-MPS2/Common/GLCD_V2M-MPS2.c:128:27
	ldr	r6, [r0, #4]
	.loc	2 128 3 is_stmt 0               @ C:/Users/dakum/AppData/Local/Arm/Packs/Keil/V2M-MPS2_IOTKit_BSP/1.5.1/Boards/ARM/V2M-MPS2/Common/GLCD_V2M-MPS2.c:128:3
	lsls	r6, r6, #29
	bpl	.LBB0_327
.Ltmp613:
@ %bb.328:
	@DEBUG_VALUE: spi_tran:byte <- 85
	@DEBUG_VALUE: wr_reg:reg <- 85
	@DEBUG_VALUE: wr_reg:val <- 62
	@DEBUG_VALUE: wr_cmd:cmd <- 85
	.loc	2 129 35 is_stmt 1              @ C:/Users/dakum/AppData/Local/Arm/Packs/Keil/V2M-MPS2_IOTKit_BSP/1.5.1/Boards/ARM/V2M-MPS2/Common/GLCD_V2M-MPS2.c:129:35
	ldr	r6, [r0]
.Ltmp614:
	.loc	2 142 3                         @ C:/Users/dakum/AppData/Local/Arm/Packs/Keil/V2M-MPS2_IOTKit_BSP/1.5.1/Boards/ARM/V2M-MPS2/Common/GLCD_V2M-MPS2.c:142:3
	ldr	r6, [r1]
	orrs	r6, r3
	str	r6, [r1]
.Ltmp615:
	@DEBUG_VALUE: wr_dat:dat <- 62
	.loc	2 151 3                         @ C:/Users/dakum/AppData/Local/Arm/Packs/Keil/V2M-MPS2_IOTKit_BSP/1.5.1/Boards/ARM/V2M-MPS2/Common/GLCD_V2M-MPS2.c:151:3
	ldr	r6, [r1]
	bics	r6, r3
	str	r6, [r1]
.Ltmp616:
	@DEBUG_VALUE: spi_tran:byte <- 114
	.loc	2 127 21                        @ C:/Users/dakum/AppData/Local/Arm/Packs/Keil/V2M-MPS2_IOTKit_BSP/1.5.1/Boards/ARM/V2M-MPS2/Common/GLCD_V2M-MPS2.c:127:21
	str	r7, [r0]
.Ltmp617:
.LBB0_329:                              @ =>This Inner Loop Header: Depth=1
	@DEBUG_VALUE: spi_tran:byte <- 114
	@DEBUG_VALUE: wr_dat:dat <- 62
	@DEBUG_VALUE: wr_reg:reg <- 85
	@DEBUG_VALUE: wr_reg:val <- 62
	.loc	2 128 27                        @ C:/Users/dakum/AppData/Local/Arm/Packs/Keil/V2M-MPS2_IOTKit_BSP/1.5.1/Boards/ARM/V2M-MPS2/Common/GLCD_V2M-MPS2.c:128:27
	ldr	r6, [r0, #4]
	.loc	2 128 3 is_stmt 0               @ C:/Users/dakum/AppData/Local/Arm/Packs/Keil/V2M-MPS2_IOTKit_BSP/1.5.1/Boards/ARM/V2M-MPS2/Common/GLCD_V2M-MPS2.c:128:3
	lsls	r6, r6, #29
	bpl	.LBB0_329
.Ltmp618:
@ %bb.330:
	@DEBUG_VALUE: spi_tran:byte <- 114
	@DEBUG_VALUE: wr_dat:dat <- 62
	@DEBUG_VALUE: wr_reg:reg <- 85
	@DEBUG_VALUE: wr_reg:val <- 62
	.loc	2 129 35 is_stmt 1              @ C:/Users/dakum/AppData/Local/Arm/Packs/Keil/V2M-MPS2_IOTKit_BSP/1.5.1/Boards/ARM/V2M-MPS2/Common/GLCD_V2M-MPS2.c:129:35
	ldr	r6, [r0]
.Ltmp619:
	@DEBUG_VALUE: spi_tran:byte <- 0
	.loc	2 127 21                        @ C:/Users/dakum/AppData/Local/Arm/Packs/Keil/V2M-MPS2_IOTKit_BSP/1.5.1/Boards/ARM/V2M-MPS2/Common/GLCD_V2M-MPS2.c:127:21
	str	r2, [r0]
.Ltmp620:
.LBB0_331:                              @ =>This Inner Loop Header: Depth=1
	@DEBUG_VALUE: spi_tran:byte <- 0
	@DEBUG_VALUE: wr_dat:dat <- 62
	@DEBUG_VALUE: wr_reg:reg <- 85
	@DEBUG_VALUE: wr_reg:val <- 62
	.loc	2 128 27                        @ C:/Users/dakum/AppData/Local/Arm/Packs/Keil/V2M-MPS2_IOTKit_BSP/1.5.1/Boards/ARM/V2M-MPS2/Common/GLCD_V2M-MPS2.c:128:27
	ldr	r6, [r0, #4]
	.loc	2 128 3 is_stmt 0               @ C:/Users/dakum/AppData/Local/Arm/Packs/Keil/V2M-MPS2_IOTKit_BSP/1.5.1/Boards/ARM/V2M-MPS2/Common/GLCD_V2M-MPS2.c:128:3
	lsls	r6, r6, #29
	bpl	.LBB0_331
.Ltmp621:
@ %bb.332:
	@DEBUG_VALUE: spi_tran:byte <- 0
	@DEBUG_VALUE: wr_dat:dat <- 62
	@DEBUG_VALUE: wr_reg:reg <- 85
	@DEBUG_VALUE: wr_reg:val <- 62
	.loc	2 129 35 is_stmt 1              @ C:/Users/dakum/AppData/Local/Arm/Packs/Keil/V2M-MPS2_IOTKit_BSP/1.5.1/Boards/ARM/V2M-MPS2/Common/GLCD_V2M-MPS2.c:129:35
	ldr	r6, [r0]
	movs	r6, #62
.Ltmp622:
	@DEBUG_VALUE: spi_tran:byte <- [DW_OP_stack_value] 62
	.loc	2 127 21                        @ C:/Users/dakum/AppData/Local/Arm/Packs/Keil/V2M-MPS2_IOTKit_BSP/1.5.1/Boards/ARM/V2M-MPS2/Common/GLCD_V2M-MPS2.c:127:21
	str	r6, [r0]
.Ltmp623:
.LBB0_333:                              @ =>This Inner Loop Header: Depth=1
	@DEBUG_VALUE: spi_tran:byte <- [DW_OP_stack_value] 62
	@DEBUG_VALUE: wr_dat:dat <- 62
	@DEBUG_VALUE: wr_reg:reg <- 85
	@DEBUG_VALUE: wr_reg:val <- 62
	.loc	2 128 27                        @ C:/Users/dakum/AppData/Local/Arm/Packs/Keil/V2M-MPS2_IOTKit_BSP/1.5.1/Boards/ARM/V2M-MPS2/Common/GLCD_V2M-MPS2.c:128:27
	ldr	r6, [r0, #4]
	.loc	2 128 3 is_stmt 0               @ C:/Users/dakum/AppData/Local/Arm/Packs/Keil/V2M-MPS2_IOTKit_BSP/1.5.1/Boards/ARM/V2M-MPS2/Common/GLCD_V2M-MPS2.c:128:3
	lsls	r6, r6, #29
	bpl	.LBB0_333
.Ltmp624:
@ %bb.334:
	@DEBUG_VALUE: spi_tran:byte <- [DW_OP_stack_value] 62
	@DEBUG_VALUE: wr_dat:dat <- 62
	@DEBUG_VALUE: wr_reg:reg <- 85
	@DEBUG_VALUE: wr_reg:val <- 62
	.loc	2 129 35 is_stmt 1              @ C:/Users/dakum/AppData/Local/Arm/Packs/Keil/V2M-MPS2_IOTKit_BSP/1.5.1/Boards/ARM/V2M-MPS2/Common/GLCD_V2M-MPS2.c:129:35
	ldr	r6, [r0]
.Ltmp625:
	.loc	2 155 3                         @ C:/Users/dakum/AppData/Local/Arm/Packs/Keil/V2M-MPS2_IOTKit_BSP/1.5.1/Boards/ARM/V2M-MPS2/Common/GLCD_V2M-MPS2.c:155:3
	ldr	r6, [r1]
	orrs	r6, r3
	str	r6, [r1]
.Ltmp626:
	@DEBUG_VALUE: wr_cmd:cmd <- 86
	@DEBUG_VALUE: wr_reg:val <- 47
	@DEBUG_VALUE: wr_reg:reg <- 86
	.loc	2 138 3                         @ C:/Users/dakum/AppData/Local/Arm/Packs/Keil/V2M-MPS2_IOTKit_BSP/1.5.1/Boards/ARM/V2M-MPS2/Common/GLCD_V2M-MPS2.c:138:3
	ldr	r6, [r1]
	bics	r6, r3
	str	r6, [r1]
.Ltmp627:
	@DEBUG_VALUE: spi_tran:byte <- 112
	.loc	2 127 21                        @ C:/Users/dakum/AppData/Local/Arm/Packs/Keil/V2M-MPS2_IOTKit_BSP/1.5.1/Boards/ARM/V2M-MPS2/Common/GLCD_V2M-MPS2.c:127:21
	str	r4, [r0]
.Ltmp628:
.LBB0_335:                              @ =>This Inner Loop Header: Depth=1
	@DEBUG_VALUE: spi_tran:byte <- 112
	@DEBUG_VALUE: wr_reg:reg <- 86
	@DEBUG_VALUE: wr_reg:val <- 47
	@DEBUG_VALUE: wr_cmd:cmd <- 86
	.loc	2 128 27                        @ C:/Users/dakum/AppData/Local/Arm/Packs/Keil/V2M-MPS2_IOTKit_BSP/1.5.1/Boards/ARM/V2M-MPS2/Common/GLCD_V2M-MPS2.c:128:27
	ldr	r6, [r0, #4]
	.loc	2 128 3 is_stmt 0               @ C:/Users/dakum/AppData/Local/Arm/Packs/Keil/V2M-MPS2_IOTKit_BSP/1.5.1/Boards/ARM/V2M-MPS2/Common/GLCD_V2M-MPS2.c:128:3
	lsls	r6, r6, #29
	bpl	.LBB0_335
.Ltmp629:
@ %bb.336:
	@DEBUG_VALUE: spi_tran:byte <- 112
	@DEBUG_VALUE: wr_reg:reg <- 86
	@DEBUG_VALUE: wr_reg:val <- 47
	@DEBUG_VALUE: wr_cmd:cmd <- 86
	.loc	2 129 35 is_stmt 1              @ C:/Users/dakum/AppData/Local/Arm/Packs/Keil/V2M-MPS2_IOTKit_BSP/1.5.1/Boards/ARM/V2M-MPS2/Common/GLCD_V2M-MPS2.c:129:35
	ldr	r6, [r0]
.Ltmp630:
	@DEBUG_VALUE: spi_tran:byte <- 0
	.loc	2 127 21                        @ C:/Users/dakum/AppData/Local/Arm/Packs/Keil/V2M-MPS2_IOTKit_BSP/1.5.1/Boards/ARM/V2M-MPS2/Common/GLCD_V2M-MPS2.c:127:21
	str	r2, [r0]
.Ltmp631:
.LBB0_337:                              @ =>This Inner Loop Header: Depth=1
	@DEBUG_VALUE: spi_tran:byte <- 0
	@DEBUG_VALUE: wr_reg:reg <- 86
	@DEBUG_VALUE: wr_reg:val <- 47
	@DEBUG_VALUE: wr_cmd:cmd <- 86
	.loc	2 128 27                        @ C:/Users/dakum/AppData/Local/Arm/Packs/Keil/V2M-MPS2_IOTKit_BSP/1.5.1/Boards/ARM/V2M-MPS2/Common/GLCD_V2M-MPS2.c:128:27
	ldr	r6, [r0, #4]
	.loc	2 128 3 is_stmt 0               @ C:/Users/dakum/AppData/Local/Arm/Packs/Keil/V2M-MPS2_IOTKit_BSP/1.5.1/Boards/ARM/V2M-MPS2/Common/GLCD_V2M-MPS2.c:128:3
	lsls	r6, r6, #29
	bpl	.LBB0_337
.Ltmp632:
@ %bb.338:
	@DEBUG_VALUE: spi_tran:byte <- 0
	@DEBUG_VALUE: wr_reg:reg <- 86
	@DEBUG_VALUE: wr_reg:val <- 47
	@DEBUG_VALUE: wr_cmd:cmd <- 86
	.loc	2 129 35 is_stmt 1              @ C:/Users/dakum/AppData/Local/Arm/Packs/Keil/V2M-MPS2_IOTKit_BSP/1.5.1/Boards/ARM/V2M-MPS2/Common/GLCD_V2M-MPS2.c:129:35
	ldr	r6, [r0]
	movs	r6, #86
.Ltmp633:
	@DEBUG_VALUE: spi_tran:byte <- 86
	.loc	2 127 21                        @ C:/Users/dakum/AppData/Local/Arm/Packs/Keil/V2M-MPS2_IOTKit_BSP/1.5.1/Boards/ARM/V2M-MPS2/Common/GLCD_V2M-MPS2.c:127:21
	str	r6, [r0]
.Ltmp634:
.LBB0_339:                              @ =>This Inner Loop Header: Depth=1
	@DEBUG_VALUE: spi_tran:byte <- 86
	@DEBUG_VALUE: wr_reg:reg <- 86
	@DEBUG_VALUE: wr_reg:val <- 47
	@DEBUG_VALUE: wr_cmd:cmd <- 86
	.loc	2 128 27                        @ C:/Users/dakum/AppData/Local/Arm/Packs/Keil/V2M-MPS2_IOTKit_BSP/1.5.1/Boards/ARM/V2M-MPS2/Common/GLCD_V2M-MPS2.c:128:27
	ldr	r6, [r0, #4]
	.loc	2 128 3 is_stmt 0               @ C:/Users/dakum/AppData/Local/Arm/Packs/Keil/V2M-MPS2_IOTKit_BSP/1.5.1/Boards/ARM/V2M-MPS2/Common/GLCD_V2M-MPS2.c:128:3
	lsls	r6, r6, #29
	bpl	.LBB0_339
.Ltmp635:
@ %bb.340:
	@DEBUG_VALUE: spi_tran:byte <- 86
	@DEBUG_VALUE: wr_reg:reg <- 86
	@DEBUG_VALUE: wr_reg:val <- 47
	@DEBUG_VALUE: wr_cmd:cmd <- 86
	.loc	2 129 35 is_stmt 1              @ C:/Users/dakum/AppData/Local/Arm/Packs/Keil/V2M-MPS2_IOTKit_BSP/1.5.1/Boards/ARM/V2M-MPS2/Common/GLCD_V2M-MPS2.c:129:35
	ldr	r6, [r0]
.Ltmp636:
	.loc	2 142 3                         @ C:/Users/dakum/AppData/Local/Arm/Packs/Keil/V2M-MPS2_IOTKit_BSP/1.5.1/Boards/ARM/V2M-MPS2/Common/GLCD_V2M-MPS2.c:142:3
	ldr	r6, [r1]
	orrs	r6, r3
	str	r6, [r1]
.Ltmp637:
	@DEBUG_VALUE: wr_dat:dat <- 47
	.loc	2 151 3                         @ C:/Users/dakum/AppData/Local/Arm/Packs/Keil/V2M-MPS2_IOTKit_BSP/1.5.1/Boards/ARM/V2M-MPS2/Common/GLCD_V2M-MPS2.c:151:3
	ldr	r6, [r1]
	bics	r6, r3
	str	r6, [r1]
.Ltmp638:
	@DEBUG_VALUE: spi_tran:byte <- 114
	.loc	2 127 21                        @ C:/Users/dakum/AppData/Local/Arm/Packs/Keil/V2M-MPS2_IOTKit_BSP/1.5.1/Boards/ARM/V2M-MPS2/Common/GLCD_V2M-MPS2.c:127:21
	str	r7, [r0]
.Ltmp639:
.LBB0_341:                              @ =>This Inner Loop Header: Depth=1
	@DEBUG_VALUE: spi_tran:byte <- 114
	@DEBUG_VALUE: wr_dat:dat <- 47
	@DEBUG_VALUE: wr_reg:reg <- 86
	@DEBUG_VALUE: wr_reg:val <- 47
	.loc	2 128 27                        @ C:/Users/dakum/AppData/Local/Arm/Packs/Keil/V2M-MPS2_IOTKit_BSP/1.5.1/Boards/ARM/V2M-MPS2/Common/GLCD_V2M-MPS2.c:128:27
	ldr	r6, [r0, #4]
	.loc	2 128 3 is_stmt 0               @ C:/Users/dakum/AppData/Local/Arm/Packs/Keil/V2M-MPS2_IOTKit_BSP/1.5.1/Boards/ARM/V2M-MPS2/Common/GLCD_V2M-MPS2.c:128:3
	lsls	r6, r6, #29
	bpl	.LBB0_341
.Ltmp640:
@ %bb.342:
	@DEBUG_VALUE: spi_tran:byte <- 114
	@DEBUG_VALUE: wr_dat:dat <- 47
	@DEBUG_VALUE: wr_reg:reg <- 86
	@DEBUG_VALUE: wr_reg:val <- 47
	.loc	2 129 35 is_stmt 1              @ C:/Users/dakum/AppData/Local/Arm/Packs/Keil/V2M-MPS2_IOTKit_BSP/1.5.1/Boards/ARM/V2M-MPS2/Common/GLCD_V2M-MPS2.c:129:35
	ldr	r6, [r0]
.Ltmp641:
	@DEBUG_VALUE: spi_tran:byte <- 0
	.loc	2 127 21                        @ C:/Users/dakum/AppData/Local/Arm/Packs/Keil/V2M-MPS2_IOTKit_BSP/1.5.1/Boards/ARM/V2M-MPS2/Common/GLCD_V2M-MPS2.c:127:21
	str	r2, [r0]
.Ltmp642:
.LBB0_343:                              @ =>This Inner Loop Header: Depth=1
	@DEBUG_VALUE: spi_tran:byte <- 0
	@DEBUG_VALUE: wr_dat:dat <- 47
	@DEBUG_VALUE: wr_reg:reg <- 86
	@DEBUG_VALUE: wr_reg:val <- 47
	.loc	2 128 27                        @ C:/Users/dakum/AppData/Local/Arm/Packs/Keil/V2M-MPS2_IOTKit_BSP/1.5.1/Boards/ARM/V2M-MPS2/Common/GLCD_V2M-MPS2.c:128:27
	ldr	r6, [r0, #4]
	.loc	2 128 3 is_stmt 0               @ C:/Users/dakum/AppData/Local/Arm/Packs/Keil/V2M-MPS2_IOTKit_BSP/1.5.1/Boards/ARM/V2M-MPS2/Common/GLCD_V2M-MPS2.c:128:3
	lsls	r6, r6, #29
	bpl	.LBB0_343
.Ltmp643:
@ %bb.344:
	@DEBUG_VALUE: spi_tran:byte <- 0
	@DEBUG_VALUE: wr_dat:dat <- 47
	@DEBUG_VALUE: wr_reg:reg <- 86
	@DEBUG_VALUE: wr_reg:val <- 47
	.loc	2 129 35 is_stmt 1              @ C:/Users/dakum/AppData/Local/Arm/Packs/Keil/V2M-MPS2_IOTKit_BSP/1.5.1/Boards/ARM/V2M-MPS2/Common/GLCD_V2M-MPS2.c:129:35
	ldr	r6, [r0]
.Ltmp644:
	.loc	2 127 21                        @ C:/Users/dakum/AppData/Local/Arm/Packs/Keil/V2M-MPS2_IOTKit_BSP/1.5.1/Boards/ARM/V2M-MPS2/Common/GLCD_V2M-MPS2.c:127:21
	ldr	r6, [sp, #52]                   @ 4-byte Reload
.Ltmp645:
	@DEBUG_VALUE: spi_tran:byte <- [DW_OP_stack_value] 47
	str	r6, [r0]
.Ltmp646:
.LBB0_345:                              @ =>This Inner Loop Header: Depth=1
	@DEBUG_VALUE: spi_tran:byte <- [DW_OP_stack_value] 47
	@DEBUG_VALUE: wr_dat:dat <- 47
	@DEBUG_VALUE: wr_reg:reg <- 86
	@DEBUG_VALUE: wr_reg:val <- 47
	.loc	2 128 27                        @ C:/Users/dakum/AppData/Local/Arm/Packs/Keil/V2M-MPS2_IOTKit_BSP/1.5.1/Boards/ARM/V2M-MPS2/Common/GLCD_V2M-MPS2.c:128:27
	ldr	r6, [r0, #4]
	.loc	2 128 3 is_stmt 0               @ C:/Users/dakum/AppData/Local/Arm/Packs/Keil/V2M-MPS2_IOTKit_BSP/1.5.1/Boards/ARM/V2M-MPS2/Common/GLCD_V2M-MPS2.c:128:3
	lsls	r6, r6, #29
	bpl	.LBB0_345
.Ltmp647:
@ %bb.346:
	@DEBUG_VALUE: spi_tran:byte <- [DW_OP_stack_value] 47
	@DEBUG_VALUE: wr_dat:dat <- 47
	@DEBUG_VALUE: wr_reg:reg <- 86
	@DEBUG_VALUE: wr_reg:val <- 47
	.loc	2 129 35 is_stmt 1              @ C:/Users/dakum/AppData/Local/Arm/Packs/Keil/V2M-MPS2_IOTKit_BSP/1.5.1/Boards/ARM/V2M-MPS2/Common/GLCD_V2M-MPS2.c:129:35
	ldr	r6, [r0]
.Ltmp648:
	.loc	2 155 3                         @ C:/Users/dakum/AppData/Local/Arm/Packs/Keil/V2M-MPS2_IOTKit_BSP/1.5.1/Boards/ARM/V2M-MPS2/Common/GLCD_V2M-MPS2.c:155:3
	ldr	r6, [r1]
	orrs	r6, r3
	str	r6, [r1]
.Ltmp649:
	@DEBUG_VALUE: wr_cmd:cmd <- 87
	@DEBUG_VALUE: wr_reg:val <- 123
	@DEBUG_VALUE: wr_reg:reg <- 87
	.loc	2 138 3                         @ C:/Users/dakum/AppData/Local/Arm/Packs/Keil/V2M-MPS2_IOTKit_BSP/1.5.1/Boards/ARM/V2M-MPS2/Common/GLCD_V2M-MPS2.c:138:3
	ldr	r6, [r1]
	bics	r6, r3
	str	r6, [r1]
.Ltmp650:
	@DEBUG_VALUE: spi_tran:byte <- 112
	.loc	2 127 21                        @ C:/Users/dakum/AppData/Local/Arm/Packs/Keil/V2M-MPS2_IOTKit_BSP/1.5.1/Boards/ARM/V2M-MPS2/Common/GLCD_V2M-MPS2.c:127:21
	str	r4, [r0]
.Ltmp651:
.LBB0_347:                              @ =>This Inner Loop Header: Depth=1
	@DEBUG_VALUE: spi_tran:byte <- 112
	@DEBUG_VALUE: wr_reg:reg <- 87
	@DEBUG_VALUE: wr_reg:val <- 123
	@DEBUG_VALUE: wr_cmd:cmd <- 87
	.loc	2 128 27                        @ C:/Users/dakum/AppData/Local/Arm/Packs/Keil/V2M-MPS2_IOTKit_BSP/1.5.1/Boards/ARM/V2M-MPS2/Common/GLCD_V2M-MPS2.c:128:27
	ldr	r6, [r0, #4]
	.loc	2 128 3 is_stmt 0               @ C:/Users/dakum/AppData/Local/Arm/Packs/Keil/V2M-MPS2_IOTKit_BSP/1.5.1/Boards/ARM/V2M-MPS2/Common/GLCD_V2M-MPS2.c:128:3
	lsls	r6, r6, #29
	bpl	.LBB0_347
.Ltmp652:
@ %bb.348:
	@DEBUG_VALUE: spi_tran:byte <- 112
	@DEBUG_VALUE: wr_reg:reg <- 87
	@DEBUG_VALUE: wr_reg:val <- 123
	@DEBUG_VALUE: wr_cmd:cmd <- 87
	.loc	2 129 35 is_stmt 1              @ C:/Users/dakum/AppData/Local/Arm/Packs/Keil/V2M-MPS2_IOTKit_BSP/1.5.1/Boards/ARM/V2M-MPS2/Common/GLCD_V2M-MPS2.c:129:35
	ldr	r6, [r0]
.Ltmp653:
	@DEBUG_VALUE: spi_tran:byte <- 0
	.loc	2 127 21                        @ C:/Users/dakum/AppData/Local/Arm/Packs/Keil/V2M-MPS2_IOTKit_BSP/1.5.1/Boards/ARM/V2M-MPS2/Common/GLCD_V2M-MPS2.c:127:21
	str	r2, [r0]
.Ltmp654:
.LBB0_349:                              @ =>This Inner Loop Header: Depth=1
	@DEBUG_VALUE: spi_tran:byte <- 0
	@DEBUG_VALUE: wr_reg:reg <- 87
	@DEBUG_VALUE: wr_reg:val <- 123
	@DEBUG_VALUE: wr_cmd:cmd <- 87
	.loc	2 128 27                        @ C:/Users/dakum/AppData/Local/Arm/Packs/Keil/V2M-MPS2_IOTKit_BSP/1.5.1/Boards/ARM/V2M-MPS2/Common/GLCD_V2M-MPS2.c:128:27
	ldr	r6, [r0, #4]
	.loc	2 128 3 is_stmt 0               @ C:/Users/dakum/AppData/Local/Arm/Packs/Keil/V2M-MPS2_IOTKit_BSP/1.5.1/Boards/ARM/V2M-MPS2/Common/GLCD_V2M-MPS2.c:128:3
	lsls	r6, r6, #29
	bpl	.LBB0_349
.Ltmp655:
@ %bb.350:
	@DEBUG_VALUE: spi_tran:byte <- 0
	@DEBUG_VALUE: wr_reg:reg <- 87
	@DEBUG_VALUE: wr_reg:val <- 123
	@DEBUG_VALUE: wr_cmd:cmd <- 87
	.loc	2 129 35 is_stmt 1              @ C:/Users/dakum/AppData/Local/Arm/Packs/Keil/V2M-MPS2_IOTKit_BSP/1.5.1/Boards/ARM/V2M-MPS2/Common/GLCD_V2M-MPS2.c:129:35
	ldr	r6, [r0]
	movs	r6, #87
	str	r6, [sp]                        @ 4-byte Spill
.Ltmp656:
	@DEBUG_VALUE: spi_tran:byte <- 87
	.loc	2 127 21                        @ C:/Users/dakum/AppData/Local/Arm/Packs/Keil/V2M-MPS2_IOTKit_BSP/1.5.1/Boards/ARM/V2M-MPS2/Common/GLCD_V2M-MPS2.c:127:21
	str	r6, [r0]
.Ltmp657:
.LBB0_351:                              @ =>This Inner Loop Header: Depth=1
	@DEBUG_VALUE: spi_tran:byte <- 87
	@DEBUG_VALUE: wr_reg:reg <- 87
	@DEBUG_VALUE: wr_reg:val <- 123
	@DEBUG_VALUE: wr_cmd:cmd <- 87
	.loc	2 128 27                        @ C:/Users/dakum/AppData/Local/Arm/Packs/Keil/V2M-MPS2_IOTKit_BSP/1.5.1/Boards/ARM/V2M-MPS2/Common/GLCD_V2M-MPS2.c:128:27
	ldr	r6, [r0, #4]
	.loc	2 128 3 is_stmt 0               @ C:/Users/dakum/AppData/Local/Arm/Packs/Keil/V2M-MPS2_IOTKit_BSP/1.5.1/Boards/ARM/V2M-MPS2/Common/GLCD_V2M-MPS2.c:128:3
	lsls	r6, r6, #29
	bpl	.LBB0_351
.Ltmp658:
@ %bb.352:
	@DEBUG_VALUE: spi_tran:byte <- 87
	@DEBUG_VALUE: wr_reg:reg <- 87
	@DEBUG_VALUE: wr_reg:val <- 123
	@DEBUG_VALUE: wr_cmd:cmd <- 87
	.loc	2 129 35 is_stmt 1              @ C:/Users/dakum/AppData/Local/Arm/Packs/Keil/V2M-MPS2_IOTKit_BSP/1.5.1/Boards/ARM/V2M-MPS2/Common/GLCD_V2M-MPS2.c:129:35
	ldr	r6, [r0]
.Ltmp659:
	.loc	2 142 3                         @ C:/Users/dakum/AppData/Local/Arm/Packs/Keil/V2M-MPS2_IOTKit_BSP/1.5.1/Boards/ARM/V2M-MPS2/Common/GLCD_V2M-MPS2.c:142:3
	ldr	r6, [r1]
	orrs	r6, r3
	str	r6, [r1]
.Ltmp660:
	@DEBUG_VALUE: wr_dat:dat <- 123
	.loc	2 151 3                         @ C:/Users/dakum/AppData/Local/Arm/Packs/Keil/V2M-MPS2_IOTKit_BSP/1.5.1/Boards/ARM/V2M-MPS2/Common/GLCD_V2M-MPS2.c:151:3
	ldr	r6, [r1]
	bics	r6, r3
	str	r6, [r1]
.Ltmp661:
	@DEBUG_VALUE: spi_tran:byte <- 114
	.loc	2 127 21                        @ C:/Users/dakum/AppData/Local/Arm/Packs/Keil/V2M-MPS2_IOTKit_BSP/1.5.1/Boards/ARM/V2M-MPS2/Common/GLCD_V2M-MPS2.c:127:21
	str	r7, [r0]
.Ltmp662:
.LBB0_353:                              @ =>This Inner Loop Header: Depth=1
	@DEBUG_VALUE: spi_tran:byte <- 114
	@DEBUG_VALUE: wr_dat:dat <- 123
	@DEBUG_VALUE: wr_reg:reg <- 87
	@DEBUG_VALUE: wr_reg:val <- 123
	.loc	2 128 27                        @ C:/Users/dakum/AppData/Local/Arm/Packs/Keil/V2M-MPS2_IOTKit_BSP/1.5.1/Boards/ARM/V2M-MPS2/Common/GLCD_V2M-MPS2.c:128:27
	ldr	r6, [r0, #4]
	.loc	2 128 3 is_stmt 0               @ C:/Users/dakum/AppData/Local/Arm/Packs/Keil/V2M-MPS2_IOTKit_BSP/1.5.1/Boards/ARM/V2M-MPS2/Common/GLCD_V2M-MPS2.c:128:3
	lsls	r6, r6, #29
	bpl	.LBB0_353
.Ltmp663:
@ %bb.354:
	@DEBUG_VALUE: spi_tran:byte <- 114
	@DEBUG_VALUE: wr_dat:dat <- 123
	@DEBUG_VALUE: wr_reg:reg <- 87
	@DEBUG_VALUE: wr_reg:val <- 123
	.loc	2 129 35 is_stmt 1              @ C:/Users/dakum/AppData/Local/Arm/Packs/Keil/V2M-MPS2_IOTKit_BSP/1.5.1/Boards/ARM/V2M-MPS2/Common/GLCD_V2M-MPS2.c:129:35
	ldr	r6, [r0]
.Ltmp664:
	@DEBUG_VALUE: spi_tran:byte <- 0
	.loc	2 127 21                        @ C:/Users/dakum/AppData/Local/Arm/Packs/Keil/V2M-MPS2_IOTKit_BSP/1.5.1/Boards/ARM/V2M-MPS2/Common/GLCD_V2M-MPS2.c:127:21
	str	r2, [r0]
.Ltmp665:
.LBB0_355:                              @ =>This Inner Loop Header: Depth=1
	@DEBUG_VALUE: spi_tran:byte <- 0
	@DEBUG_VALUE: wr_dat:dat <- 123
	@DEBUG_VALUE: wr_reg:reg <- 87
	@DEBUG_VALUE: wr_reg:val <- 123
	.loc	2 128 27                        @ C:/Users/dakum/AppData/Local/Arm/Packs/Keil/V2M-MPS2_IOTKit_BSP/1.5.1/Boards/ARM/V2M-MPS2/Common/GLCD_V2M-MPS2.c:128:27
	ldr	r6, [r0, #4]
	.loc	2 128 3 is_stmt 0               @ C:/Users/dakum/AppData/Local/Arm/Packs/Keil/V2M-MPS2_IOTKit_BSP/1.5.1/Boards/ARM/V2M-MPS2/Common/GLCD_V2M-MPS2.c:128:3
	lsls	r6, r6, #29
	bpl	.LBB0_355
.Ltmp666:
@ %bb.356:
	@DEBUG_VALUE: spi_tran:byte <- 0
	@DEBUG_VALUE: wr_dat:dat <- 123
	@DEBUG_VALUE: wr_reg:reg <- 87
	@DEBUG_VALUE: wr_reg:val <- 123
	.loc	2 129 35 is_stmt 1              @ C:/Users/dakum/AppData/Local/Arm/Packs/Keil/V2M-MPS2_IOTKit_BSP/1.5.1/Boards/ARM/V2M-MPS2/Common/GLCD_V2M-MPS2.c:129:35
	ldr	r6, [r0]
	movs	r6, #123
.Ltmp667:
	@DEBUG_VALUE: spi_tran:byte <- [DW_OP_stack_value] 123
	.loc	2 127 21                        @ C:/Users/dakum/AppData/Local/Arm/Packs/Keil/V2M-MPS2_IOTKit_BSP/1.5.1/Boards/ARM/V2M-MPS2/Common/GLCD_V2M-MPS2.c:127:21
	str	r6, [r0]
.Ltmp668:
.LBB0_357:                              @ =>This Inner Loop Header: Depth=1
	@DEBUG_VALUE: spi_tran:byte <- [DW_OP_stack_value] 123
	@DEBUG_VALUE: wr_dat:dat <- 123
	@DEBUG_VALUE: wr_reg:reg <- 87
	@DEBUG_VALUE: wr_reg:val <- 123
	.loc	2 128 27                        @ C:/Users/dakum/AppData/Local/Arm/Packs/Keil/V2M-MPS2_IOTKit_BSP/1.5.1/Boards/ARM/V2M-MPS2/Common/GLCD_V2M-MPS2.c:128:27
	ldr	r6, [r0, #4]
	.loc	2 128 3 is_stmt 0               @ C:/Users/dakum/AppData/Local/Arm/Packs/Keil/V2M-MPS2_IOTKit_BSP/1.5.1/Boards/ARM/V2M-MPS2/Common/GLCD_V2M-MPS2.c:128:3
	lsls	r6, r6, #29
	bpl	.LBB0_357
.Ltmp669:
@ %bb.358:
	@DEBUG_VALUE: spi_tran:byte <- [DW_OP_stack_value] 123
	@DEBUG_VALUE: wr_dat:dat <- 123
	@DEBUG_VALUE: wr_reg:reg <- 87
	@DEBUG_VALUE: wr_reg:val <- 123
	.loc	2 129 35 is_stmt 1              @ C:/Users/dakum/AppData/Local/Arm/Packs/Keil/V2M-MPS2_IOTKit_BSP/1.5.1/Boards/ARM/V2M-MPS2/Common/GLCD_V2M-MPS2.c:129:35
	ldr	r6, [r0]
.Ltmp670:
	.loc	2 155 3                         @ C:/Users/dakum/AppData/Local/Arm/Packs/Keil/V2M-MPS2_IOTKit_BSP/1.5.1/Boards/ARM/V2M-MPS2/Common/GLCD_V2M-MPS2.c:155:3
	ldr	r6, [r1]
	orrs	r6, r3
	str	r6, [r1]
.Ltmp671:
	@DEBUG_VALUE: wr_cmd:cmd <- 88
	@DEBUG_VALUE: wr_reg:val <- 9
	@DEBUG_VALUE: wr_reg:reg <- 88
	.loc	2 138 3                         @ C:/Users/dakum/AppData/Local/Arm/Packs/Keil/V2M-MPS2_IOTKit_BSP/1.5.1/Boards/ARM/V2M-MPS2/Common/GLCD_V2M-MPS2.c:138:3
	ldr	r6, [r1]
	bics	r6, r3
	str	r6, [r1]
.Ltmp672:
	@DEBUG_VALUE: spi_tran:byte <- 112
	.loc	2 127 21                        @ C:/Users/dakum/AppData/Local/Arm/Packs/Keil/V2M-MPS2_IOTKit_BSP/1.5.1/Boards/ARM/V2M-MPS2/Common/GLCD_V2M-MPS2.c:127:21
	str	r4, [r0]
.Ltmp673:
.LBB0_359:                              @ =>This Inner Loop Header: Depth=1
	@DEBUG_VALUE: spi_tran:byte <- 112
	@DEBUG_VALUE: wr_reg:reg <- 88
	@DEBUG_VALUE: wr_reg:val <- 9
	@DEBUG_VALUE: wr_cmd:cmd <- 88
	.loc	2 128 27                        @ C:/Users/dakum/AppData/Local/Arm/Packs/Keil/V2M-MPS2_IOTKit_BSP/1.5.1/Boards/ARM/V2M-MPS2/Common/GLCD_V2M-MPS2.c:128:27
	ldr	r6, [r0, #4]
	.loc	2 128 3 is_stmt 0               @ C:/Users/dakum/AppData/Local/Arm/Packs/Keil/V2M-MPS2_IOTKit_BSP/1.5.1/Boards/ARM/V2M-MPS2/Common/GLCD_V2M-MPS2.c:128:3
	lsls	r6, r6, #29
	bpl	.LBB0_359
.Ltmp674:
@ %bb.360:
	@DEBUG_VALUE: spi_tran:byte <- 112
	@DEBUG_VALUE: wr_reg:reg <- 88
	@DEBUG_VALUE: wr_reg:val <- 9
	@DEBUG_VALUE: wr_cmd:cmd <- 88
	.loc	2 129 35 is_stmt 1              @ C:/Users/dakum/AppData/Local/Arm/Packs/Keil/V2M-MPS2_IOTKit_BSP/1.5.1/Boards/ARM/V2M-MPS2/Common/GLCD_V2M-MPS2.c:129:35
	ldr	r6, [r0]
.Ltmp675:
	@DEBUG_VALUE: spi_tran:byte <- 0
	.loc	2 127 21                        @ C:/Users/dakum/AppData/Local/Arm/Packs/Keil/V2M-MPS2_IOTKit_BSP/1.5.1/Boards/ARM/V2M-MPS2/Common/GLCD_V2M-MPS2.c:127:21
	str	r2, [r0]
.Ltmp676:
.LBB0_361:                              @ =>This Inner Loop Header: Depth=1
	@DEBUG_VALUE: spi_tran:byte <- 0
	@DEBUG_VALUE: wr_reg:reg <- 88
	@DEBUG_VALUE: wr_reg:val <- 9
	@DEBUG_VALUE: wr_cmd:cmd <- 88
	.loc	2 128 27                        @ C:/Users/dakum/AppData/Local/Arm/Packs/Keil/V2M-MPS2_IOTKit_BSP/1.5.1/Boards/ARM/V2M-MPS2/Common/GLCD_V2M-MPS2.c:128:27
	ldr	r6, [r0, #4]
	.loc	2 128 3 is_stmt 0               @ C:/Users/dakum/AppData/Local/Arm/Packs/Keil/V2M-MPS2_IOTKit_BSP/1.5.1/Boards/ARM/V2M-MPS2/Common/GLCD_V2M-MPS2.c:128:3
	lsls	r6, r6, #29
	bpl	.LBB0_361
.Ltmp677:
@ %bb.362:
	@DEBUG_VALUE: spi_tran:byte <- 0
	@DEBUG_VALUE: wr_reg:reg <- 88
	@DEBUG_VALUE: wr_reg:val <- 9
	@DEBUG_VALUE: wr_cmd:cmd <- 88
	.loc	2 129 35 is_stmt 1              @ C:/Users/dakum/AppData/Local/Arm/Packs/Keil/V2M-MPS2_IOTKit_BSP/1.5.1/Boards/ARM/V2M-MPS2/Common/GLCD_V2M-MPS2.c:129:35
	ldr	r6, [r0]
	movs	r6, #88
.Ltmp678:
	@DEBUG_VALUE: spi_tran:byte <- 88
	.loc	2 127 21                        @ C:/Users/dakum/AppData/Local/Arm/Packs/Keil/V2M-MPS2_IOTKit_BSP/1.5.1/Boards/ARM/V2M-MPS2/Common/GLCD_V2M-MPS2.c:127:21
	str	r6, [r0]
.Ltmp679:
.LBB0_363:                              @ =>This Inner Loop Header: Depth=1
	@DEBUG_VALUE: spi_tran:byte <- 88
	@DEBUG_VALUE: wr_reg:reg <- 88
	@DEBUG_VALUE: wr_reg:val <- 9
	@DEBUG_VALUE: wr_cmd:cmd <- 88
	.loc	2 128 27                        @ C:/Users/dakum/AppData/Local/Arm/Packs/Keil/V2M-MPS2_IOTKit_BSP/1.5.1/Boards/ARM/V2M-MPS2/Common/GLCD_V2M-MPS2.c:128:27
	ldr	r6, [r0, #4]
	.loc	2 128 3 is_stmt 0               @ C:/Users/dakum/AppData/Local/Arm/Packs/Keil/V2M-MPS2_IOTKit_BSP/1.5.1/Boards/ARM/V2M-MPS2/Common/GLCD_V2M-MPS2.c:128:3
	lsls	r6, r6, #29
	bpl	.LBB0_363
.Ltmp680:
@ %bb.364:
	@DEBUG_VALUE: spi_tran:byte <- 88
	@DEBUG_VALUE: wr_reg:reg <- 88
	@DEBUG_VALUE: wr_reg:val <- 9
	@DEBUG_VALUE: wr_cmd:cmd <- 88
	.loc	2 129 35 is_stmt 1              @ C:/Users/dakum/AppData/Local/Arm/Packs/Keil/V2M-MPS2_IOTKit_BSP/1.5.1/Boards/ARM/V2M-MPS2/Common/GLCD_V2M-MPS2.c:129:35
	ldr	r6, [r0]
.Ltmp681:
	.loc	2 142 3                         @ C:/Users/dakum/AppData/Local/Arm/Packs/Keil/V2M-MPS2_IOTKit_BSP/1.5.1/Boards/ARM/V2M-MPS2/Common/GLCD_V2M-MPS2.c:142:3
	ldr	r6, [r1]
	orrs	r6, r3
	str	r6, [r1]
.Ltmp682:
	@DEBUG_VALUE: wr_dat:dat <- 9
	.loc	2 151 3                         @ C:/Users/dakum/AppData/Local/Arm/Packs/Keil/V2M-MPS2_IOTKit_BSP/1.5.1/Boards/ARM/V2M-MPS2/Common/GLCD_V2M-MPS2.c:151:3
	ldr	r6, [r1]
	bics	r6, r3
	str	r6, [r1]
.Ltmp683:
	@DEBUG_VALUE: spi_tran:byte <- 114
	.loc	2 127 21                        @ C:/Users/dakum/AppData/Local/Arm/Packs/Keil/V2M-MPS2_IOTKit_BSP/1.5.1/Boards/ARM/V2M-MPS2/Common/GLCD_V2M-MPS2.c:127:21
	str	r7, [r0]
.Ltmp684:
.LBB0_365:                              @ =>This Inner Loop Header: Depth=1
	@DEBUG_VALUE: spi_tran:byte <- 114
	@DEBUG_VALUE: wr_dat:dat <- 9
	@DEBUG_VALUE: wr_reg:reg <- 88
	@DEBUG_VALUE: wr_reg:val <- 9
	.loc	2 128 27                        @ C:/Users/dakum/AppData/Local/Arm/Packs/Keil/V2M-MPS2_IOTKit_BSP/1.5.1/Boards/ARM/V2M-MPS2/Common/GLCD_V2M-MPS2.c:128:27
	ldr	r6, [r0, #4]
	.loc	2 128 3 is_stmt 0               @ C:/Users/dakum/AppData/Local/Arm/Packs/Keil/V2M-MPS2_IOTKit_BSP/1.5.1/Boards/ARM/V2M-MPS2/Common/GLCD_V2M-MPS2.c:128:3
	lsls	r6, r6, #29
	bpl	.LBB0_365
.Ltmp685:
@ %bb.366:
	@DEBUG_VALUE: spi_tran:byte <- 114
	@DEBUG_VALUE: wr_dat:dat <- 9
	@DEBUG_VALUE: wr_reg:reg <- 88
	@DEBUG_VALUE: wr_reg:val <- 9
	.loc	2 129 35 is_stmt 1              @ C:/Users/dakum/AppData/Local/Arm/Packs/Keil/V2M-MPS2_IOTKit_BSP/1.5.1/Boards/ARM/V2M-MPS2/Common/GLCD_V2M-MPS2.c:129:35
	ldr	r6, [r0]
.Ltmp686:
	@DEBUG_VALUE: spi_tran:byte <- 0
	.loc	2 127 21                        @ C:/Users/dakum/AppData/Local/Arm/Packs/Keil/V2M-MPS2_IOTKit_BSP/1.5.1/Boards/ARM/V2M-MPS2/Common/GLCD_V2M-MPS2.c:127:21
	str	r2, [r0]
.Ltmp687:
.LBB0_367:                              @ =>This Inner Loop Header: Depth=1
	@DEBUG_VALUE: spi_tran:byte <- 0
	@DEBUG_VALUE: wr_dat:dat <- 9
	@DEBUG_VALUE: wr_reg:reg <- 88
	@DEBUG_VALUE: wr_reg:val <- 9
	.loc	2 128 27                        @ C:/Users/dakum/AppData/Local/Arm/Packs/Keil/V2M-MPS2_IOTKit_BSP/1.5.1/Boards/ARM/V2M-MPS2/Common/GLCD_V2M-MPS2.c:128:27
	ldr	r6, [r0, #4]
	.loc	2 128 3 is_stmt 0               @ C:/Users/dakum/AppData/Local/Arm/Packs/Keil/V2M-MPS2_IOTKit_BSP/1.5.1/Boards/ARM/V2M-MPS2/Common/GLCD_V2M-MPS2.c:128:3
	lsls	r6, r6, #29
	bpl	.LBB0_367
.Ltmp688:
@ %bb.368:
	@DEBUG_VALUE: spi_tran:byte <- 0
	@DEBUG_VALUE: wr_dat:dat <- 9
	@DEBUG_VALUE: wr_reg:reg <- 88
	@DEBUG_VALUE: wr_reg:val <- 9
	.loc	2 129 35 is_stmt 1              @ C:/Users/dakum/AppData/Local/Arm/Packs/Keil/V2M-MPS2_IOTKit_BSP/1.5.1/Boards/ARM/V2M-MPS2/Common/GLCD_V2M-MPS2.c:129:35
	ldr	r6, [r0]
.Ltmp689:
	.loc	2 127 21                        @ C:/Users/dakum/AppData/Local/Arm/Packs/Keil/V2M-MPS2_IOTKit_BSP/1.5.1/Boards/ARM/V2M-MPS2/Common/GLCD_V2M-MPS2.c:127:21
	ldr	r6, [sp, #20]                   @ 4-byte Reload
.Ltmp690:
	@DEBUG_VALUE: spi_tran:byte <- [DW_OP_stack_value] 9
	str	r6, [r0]
.Ltmp691:
.LBB0_369:                              @ =>This Inner Loop Header: Depth=1
	@DEBUG_VALUE: spi_tran:byte <- [DW_OP_stack_value] 9
	@DEBUG_VALUE: wr_dat:dat <- 9
	@DEBUG_VALUE: wr_reg:reg <- 88
	@DEBUG_VALUE: wr_reg:val <- 9
	.loc	2 128 27                        @ C:/Users/dakum/AppData/Local/Arm/Packs/Keil/V2M-MPS2_IOTKit_BSP/1.5.1/Boards/ARM/V2M-MPS2/Common/GLCD_V2M-MPS2.c:128:27
	ldr	r6, [r0, #4]
	.loc	2 128 3 is_stmt 0               @ C:/Users/dakum/AppData/Local/Arm/Packs/Keil/V2M-MPS2_IOTKit_BSP/1.5.1/Boards/ARM/V2M-MPS2/Common/GLCD_V2M-MPS2.c:128:3
	lsls	r6, r6, #29
	bpl	.LBB0_369
.Ltmp692:
@ %bb.370:
	@DEBUG_VALUE: spi_tran:byte <- [DW_OP_stack_value] 9
	@DEBUG_VALUE: wr_dat:dat <- 9
	@DEBUG_VALUE: wr_reg:reg <- 88
	@DEBUG_VALUE: wr_reg:val <- 9
	.loc	2 129 35 is_stmt 1              @ C:/Users/dakum/AppData/Local/Arm/Packs/Keil/V2M-MPS2_IOTKit_BSP/1.5.1/Boards/ARM/V2M-MPS2/Common/GLCD_V2M-MPS2.c:129:35
	ldr	r6, [r0]
.Ltmp693:
	.loc	2 155 3                         @ C:/Users/dakum/AppData/Local/Arm/Packs/Keil/V2M-MPS2_IOTKit_BSP/1.5.1/Boards/ARM/V2M-MPS2/Common/GLCD_V2M-MPS2.c:155:3
	ldr	r6, [r1]
	orrs	r6, r3
	str	r6, [r1]
.Ltmp694:
	@DEBUG_VALUE: wr_cmd:cmd <- 89
	@DEBUG_VALUE: wr_reg:val <- 6
	@DEBUG_VALUE: wr_reg:reg <- 89
	.loc	2 138 3                         @ C:/Users/dakum/AppData/Local/Arm/Packs/Keil/V2M-MPS2_IOTKit_BSP/1.5.1/Boards/ARM/V2M-MPS2/Common/GLCD_V2M-MPS2.c:138:3
	ldr	r6, [r1]
	bics	r6, r3
	str	r6, [r1]
.Ltmp695:
	@DEBUG_VALUE: spi_tran:byte <- 112
	.loc	2 127 21                        @ C:/Users/dakum/AppData/Local/Arm/Packs/Keil/V2M-MPS2_IOTKit_BSP/1.5.1/Boards/ARM/V2M-MPS2/Common/GLCD_V2M-MPS2.c:127:21
	str	r4, [r0]
.Ltmp696:
.LBB0_371:                              @ =>This Inner Loop Header: Depth=1
	@DEBUG_VALUE: spi_tran:byte <- 112
	@DEBUG_VALUE: wr_reg:reg <- 89
	@DEBUG_VALUE: wr_reg:val <- 6
	@DEBUG_VALUE: wr_cmd:cmd <- 89
	.loc	2 128 27                        @ C:/Users/dakum/AppData/Local/Arm/Packs/Keil/V2M-MPS2_IOTKit_BSP/1.5.1/Boards/ARM/V2M-MPS2/Common/GLCD_V2M-MPS2.c:128:27
	ldr	r6, [r0, #4]
	.loc	2 128 3 is_stmt 0               @ C:/Users/dakum/AppData/Local/Arm/Packs/Keil/V2M-MPS2_IOTKit_BSP/1.5.1/Boards/ARM/V2M-MPS2/Common/GLCD_V2M-MPS2.c:128:3
	lsls	r6, r6, #29
	bpl	.LBB0_371
.Ltmp697:
@ %bb.372:
	@DEBUG_VALUE: spi_tran:byte <- 112
	@DEBUG_VALUE: wr_reg:reg <- 89
	@DEBUG_VALUE: wr_reg:val <- 6
	@DEBUG_VALUE: wr_cmd:cmd <- 89
	.loc	2 129 35 is_stmt 1              @ C:/Users/dakum/AppData/Local/Arm/Packs/Keil/V2M-MPS2_IOTKit_BSP/1.5.1/Boards/ARM/V2M-MPS2/Common/GLCD_V2M-MPS2.c:129:35
	ldr	r6, [r0]
.Ltmp698:
	@DEBUG_VALUE: spi_tran:byte <- 0
	.loc	2 127 21                        @ C:/Users/dakum/AppData/Local/Arm/Packs/Keil/V2M-MPS2_IOTKit_BSP/1.5.1/Boards/ARM/V2M-MPS2/Common/GLCD_V2M-MPS2.c:127:21
	str	r2, [r0]
.Ltmp699:
.LBB0_373:                              @ =>This Inner Loop Header: Depth=1
	@DEBUG_VALUE: spi_tran:byte <- 0
	@DEBUG_VALUE: wr_reg:reg <- 89
	@DEBUG_VALUE: wr_reg:val <- 6
	@DEBUG_VALUE: wr_cmd:cmd <- 89
	.loc	2 128 27                        @ C:/Users/dakum/AppData/Local/Arm/Packs/Keil/V2M-MPS2_IOTKit_BSP/1.5.1/Boards/ARM/V2M-MPS2/Common/GLCD_V2M-MPS2.c:128:27
	ldr	r6, [r0, #4]
	.loc	2 128 3 is_stmt 0               @ C:/Users/dakum/AppData/Local/Arm/Packs/Keil/V2M-MPS2_IOTKit_BSP/1.5.1/Boards/ARM/V2M-MPS2/Common/GLCD_V2M-MPS2.c:128:3
	lsls	r6, r6, #29
	bpl	.LBB0_373
.Ltmp700:
@ %bb.374:
	@DEBUG_VALUE: spi_tran:byte <- 0
	@DEBUG_VALUE: wr_reg:reg <- 89
	@DEBUG_VALUE: wr_reg:val <- 6
	@DEBUG_VALUE: wr_cmd:cmd <- 89
	.loc	2 129 35 is_stmt 1              @ C:/Users/dakum/AppData/Local/Arm/Packs/Keil/V2M-MPS2_IOTKit_BSP/1.5.1/Boards/ARM/V2M-MPS2/Common/GLCD_V2M-MPS2.c:129:35
	ldr	r6, [r0]
	movs	r6, #89
.Ltmp701:
	@DEBUG_VALUE: spi_tran:byte <- 89
	.loc	2 127 21                        @ C:/Users/dakum/AppData/Local/Arm/Packs/Keil/V2M-MPS2_IOTKit_BSP/1.5.1/Boards/ARM/V2M-MPS2/Common/GLCD_V2M-MPS2.c:127:21
	str	r6, [r0]
.Ltmp702:
.LBB0_375:                              @ =>This Inner Loop Header: Depth=1
	@DEBUG_VALUE: spi_tran:byte <- 89
	@DEBUG_VALUE: wr_reg:reg <- 89
	@DEBUG_VALUE: wr_reg:val <- 6
	@DEBUG_VALUE: wr_cmd:cmd <- 89
