	.text
	.syntax unified
	.eabi_attribute	67, "2.09"	@ Tag_conformance
	.cpu	cortex-m23
	.eabi_attribute	6, 16	@ Tag_CPU_arch
	.eabi_attribute	7, 77	@ Tag_CPU_arch_profile
	.eabi_attribute	8, 0	@ Tag_ARM_ISA_use
	.eabi_attribute	9, 3	@ Tag_THUMB_ISA_use
	.eabi_attribute	34, 0	@ Tag_CPU_unaligned_access
	.eabi_attribute	17, 1	@ Tag_ABI_PCS_GOT_use
	.eabi_attribute	20, 2	@ Tag_ABI_FP_denormal
	.eabi_attribute	21, 0	@ Tag_ABI_FP_exceptions
	.eabi_attribute	23, 1	@ Tag_ABI_FP_number_model
	.eabi_attribute	24, 1	@ Tag_ABI_align_needed
	.eabi_attribute	25, 1	@ Tag_ABI_align_preserved
	.eabi_attribute	38, 1	@ Tag_ABI_FP_16bit_format
	.eabi_attribute	18, 2	@ Tag_ABI_PCS_wchar_t
	.eabi_attribute	26, 1	@ Tag_ABI_enum_size
	.eabi_attribute	14, 0	@ Tag_ABI_PCS_R9_use
	.file	"main_s.c"
	.file	1 "C:\\" "Keil_v5\\ARM\\ARMCLANG\\Bin\\..\\include\\stdint.h"
	.file	2 "C:\\Users\\dakum\\OneDrive\\Desktop\\projects\\code-CFA-with-pac\\Evaluation\\TrustZoneV8m\\Boards\\ARM\\V2M-MPS2\\IOTKit_CM23\\IOTKit_CM23_S_NS\\IOTKit_CM23_s" "main_s.c"
	.file	3 "C:/Users/dakum/AppData/Local/Arm/Packs/Keil/V2M-MPS2_IOTKit_BSP/1.5.1/Device/IOTKit_CM23/Include" "IOTKit_CM23.h"
	.file	4 "C:/Users/dakum/AppData/Local/Arm/Packs/ARM/CMSIS/6.0.0/CMSIS/Core/Include" "core_cm23.h"
	.section	.text.Secure_LED_On,"ax",%progbits
	.hidden	Secure_LED_On                   @ -- Begin function Secure_LED_On
	.globl	Secure_LED_On
	.p2align	1
	.type	Secure_LED_On,%function
	.code	16                              @ @Secure_LED_On
	.thumb_func
	.globl	__acle_se_Secure_LED_On
	.type	__acle_se_Secure_LED_On,%function
__acle_se_Secure_LED_On:
Secure_LED_On:
.Lfunc_begin0:
	.loc	2 41 0                          @ main_s.c:41:0
	.fnstart
	.cfi_sections .debug_frame
	.cfi_startproc
@ %bb.0:
	@DEBUG_VALUE: Secure_LED_On:num <- $r0
	.save	{r7, lr}
	push	{r7, lr}
	.cfi_def_cfa_offset 8
	.cfi_offset lr, -4
	.cfi_offset r7, -8
.Ltmp0:
	.loc	2 42 10 prologue_end            @ main_s.c:42:10
	bl	LED_On
.Ltmp1:
	@DEBUG_VALUE: Secure_LED_On:num <- [DW_OP_LLVM_entry_value 1] $r0
	.loc	2 42 3 is_stmt 0                @ main_s.c:42:3
	pop	{r7}
	pop	{r1}
	mov	lr, r1
	mov	r1, lr
	mov	r2, lr
	mov	r3, lr
	mov	r12, lr
	msr	apsr, lr
	bxns	lr
.Ltmp2:
.Lfunc_end0:
	.size	Secure_LED_On, .Lfunc_end0-Secure_LED_On
	.cfi_endproc
	.cantunwind
	.fnend
                                        @ -- End function
	.section	.text.Secure_LED_Off,"ax",%progbits
	.hidden	Secure_LED_Off                  @ -- Begin function Secure_LED_Off
	.globl	Secure_LED_Off
	.p2align	1
	.type	Secure_LED_Off,%function
	.code	16                              @ @Secure_LED_Off
	.thumb_func
	.globl	__acle_se_Secure_LED_Off
	.type	__acle_se_Secure_LED_Off,%function
__acle_se_Secure_LED_Off:
Secure_LED_Off:
.Lfunc_begin1:
	.loc	2 47 0 is_stmt 1                @ main_s.c:47:0
	.fnstart
	.cfi_startproc
@ %bb.0:
	@DEBUG_VALUE: Secure_LED_Off:num <- $r0
	.save	{r7, lr}
	push	{r7, lr}
	.cfi_def_cfa_offset 8
	.cfi_offset lr, -4
	.cfi_offset r7, -8
.Ltmp3:
	.loc	2 48 10 prologue_end            @ main_s.c:48:10
	bl	LED_Off
.Ltmp4:
	@DEBUG_VALUE: Secure_LED_Off:num <- [DW_OP_LLVM_entry_value 1] $r0
	.loc	2 48 3 is_stmt 0                @ main_s.c:48:3
	pop	{r7}
	pop	{r1}
	mov	lr, r1
	mov	r1, lr
	mov	r2, lr
	mov	r3, lr
	mov	r12, lr
	msr	apsr, lr
	bxns	lr
.Ltmp5:
.Lfunc_end1:
	.size	Secure_LED_Off, .Lfunc_end1-Secure_LED_Off
	.cfi_endproc
	.cantunwind
	.fnend
                                        @ -- End function
	.section	.text.Secure_printf,"ax",%progbits
	.hidden	Secure_printf                   @ -- Begin function Secure_printf
	.globl	Secure_printf
	.p2align	2
	.type	Secure_printf,%function
	.code	16                              @ @Secure_printf
	.thumb_func
	.globl	__acle_se_Secure_printf
	.type	__acle_se_Secure_printf,%function
__acle_se_Secure_printf:
Secure_printf:
.Lfunc_begin2:
	.loc	2 53 0 is_stmt 1                @ main_s.c:53:0
	.fnstart
	.cfi_startproc
@ %bb.0:
	@DEBUG_VALUE: Secure_printf:pString <- $r0
	.save	{r7, lr}
	push	{r7, lr}
	.cfi_def_cfa_offset 8
	.cfi_offset lr, -4
	.cfi_offset r7, -8
	mov	r1, r0
.Ltmp6:
	@DEBUG_VALUE: Secure_printf:pString <- $r1
	.loc	2 54 3 prologue_end             @ main_s.c:54:3
	ldr	r0, __arm_cp.2_0
	bl	__2printf
.Ltmp7:
	.loc	2 55 1                          @ main_s.c:55:1
	pop	{r7}
	pop	{r0}
	mov	lr, r0
	mov	r0, lr
	mov	r1, lr
	mov	r2, lr
	mov	r3, lr
	mov	r12, lr
	msr	apsr, lr
	bxns	lr
.Ltmp8:
	.p2align	2
@ %bb.1:
	.loc	2 0 1 is_stmt 0                 @ main_s.c:0:1
__arm_cp.2_0:
	.long	.L.str
.Lcpi_end0:
	.size	__arm_cp.2_0, .Lcpi_end0-__arm_cp.2_0
.Lfunc_end2:
	.size	Secure_printf, .Lfunc_end2-Secure_printf
	.cfi_endproc
	.cantunwind
	.fnend
                                        @ -- End function
	.section	.text.Secure_LED_On_callback,"ax",%progbits
	.hidden	Secure_LED_On_callback          @ -- Begin function Secure_LED_On_callback
	.globl	Secure_LED_On_callback
	.p2align	2
	.type	Secure_LED_On_callback,%function
	.code	16                              @ @Secure_LED_On_callback
	.thumb_func
	.globl	__acle_se_Secure_LED_On_callback
	.type	__acle_se_Secure_LED_On_callback,%function
__acle_se_Secure_LED_On_callback:
Secure_LED_On_callback:
.Lfunc_begin3:
	.loc	2 63 0 is_stmt 1                @ main_s.c:63:0
	.fnstart
	.cfi_startproc
@ %bb.0:
	@DEBUG_VALUE: Secure_LED_On_callback:callback <- $r0
	.loc	2 64 22 prologue_end            @ main_s.c:64:22
	ldr	r1, __arm_cp.3_0
	str	r0, [r1]
	movs	r0, #0
.Ltmp9:
	@DEBUG_VALUE: Secure_LED_On_callback:callback <- [DW_OP_LLVM_entry_value 1] $r0
	.loc	2 65 3                          @ main_s.c:65:3
	mov	r1, lr
	mov	r2, lr
	mov	r3, lr
	mov	r12, lr
	msr	apsr, lr
	bxns	lr
.Ltmp10:
	.p2align	2
@ %bb.1:
	.loc	2 0 3 is_stmt 0                 @ main_s.c:0:3
__arm_cp.3_0:
	.long	pfNonSecure_LED_On
.Lcpi_end1:
	.size	__arm_cp.3_0, .Lcpi_end1-__arm_cp.3_0
.Lfunc_end3:
	.size	Secure_LED_On_callback, .Lfunc_end3-Secure_LED_On_callback
	.cfi_endproc
	.cantunwind
	.fnend
                                        @ -- End function
	.section	.text.Secure_LED_Off_callback,"ax",%progbits
	.hidden	Secure_LED_Off_callback         @ -- Begin function Secure_LED_Off_callback
	.globl	Secure_LED_Off_callback
	.p2align	2
	.type	Secure_LED_Off_callback,%function
	.code	16                              @ @Secure_LED_Off_callback
	.thumb_func
	.globl	__acle_se_Secure_LED_Off_callback
	.type	__acle_se_Secure_LED_Off_callback,%function
__acle_se_Secure_LED_Off_callback:
Secure_LED_Off_callback:
.Lfunc_begin4:
	.loc	2 70 0 is_stmt 1                @ main_s.c:70:0
	.fnstart
	.cfi_startproc
@ %bb.0:
	@DEBUG_VALUE: Secure_LED_Off_callback:callback <- $r0
	.loc	2 71 23 prologue_end            @ main_s.c:71:23
	ldr	r1, __arm_cp.4_0
	str	r0, [r1]
	movs	r0, #0
.Ltmp11:
	@DEBUG_VALUE: Secure_LED_Off_callback:callback <- [DW_OP_LLVM_entry_value 1] $r0
	.loc	2 72 3                          @ main_s.c:72:3
	mov	r1, lr
	mov	r2, lr
	mov	r3, lr
	mov	r12, lr
	msr	apsr, lr
	bxns	lr
.Ltmp12:
	.p2align	2
@ %bb.1:
	.loc	2 0 3 is_stmt 0                 @ main_s.c:0:3
__arm_cp.4_0:
	.long	pfNonSecure_LED_Off
.Lcpi_end2:
	.size	__arm_cp.4_0, .Lcpi_end2-__arm_cp.4_0
.Lfunc_end4:
	.size	Secure_LED_Off_callback, .Lfunc_end4-Secure_LED_Off_callback
	.cfi_endproc
	.cantunwind
	.fnend
                                        @ -- End function
	.section	.text.SysTick_Handler,"ax",%progbits
	.hidden	SysTick_Handler                 @ -- Begin function SysTick_Handler
	.globl	SysTick_Handler
	.p2align	2
	.type	SysTick_Handler,%function
	.code	16                              @ @SysTick_Handler
	.thumb_func
SysTick_Handler:
.Lfunc_begin5:
	.loc	2 80 0 is_stmt 1                @ main_s.c:80:0
	.fnstart
	.cfi_startproc
@ %bb.0:
	.save	{r4, r5, r7, lr}
	push	{r4, r5, r7, lr}
	.cfi_def_cfa_offset 16
	.cfi_offset lr, -4
	.cfi_offset r7, -8
	.cfi_offset r5, -12
	.cfi_offset r4, -16
.Ltmp13:
	.loc	2 84 16 prologue_end            @ main_s.c:84:16
	ldr	r0, __arm_cp.5_0
	ldr	r2, [r0]
	adds	r1, r2, #1
	str	r1, [r0]
	.loc	2 84 3 is_stmt 0                @ main_s.c:84:3
	cmp	r2, #29
	ble	.LBB5_6
@ %bb.1:
	cmp	r2, #30
	beq	.LBB5_9
@ %bb.2:
	cmp	r2, #50
	beq	.LBB5_11
@ %bb.3:
	cmp	r2, #99
	bne	.LBB5_14
@ %bb.4:
	.loc	2 0 3                           @ main_s.c:0:3
	movs	r4, #0
.Ltmp14:
	.loc	2 104 13 is_stmt 1              @ main_s.c:104:13
	str	r4, [r0]
.Ltmp15:
	.loc	2 105 23                        @ main_s.c:105:23
	ldr	r5, __arm_cp.5_1
	ldr	r0, [r5]
	adds	r1, r0, #1
	str	r1, [r5]
.Ltmp16:
	.loc	2 105 11 is_stmt 0              @ main_s.c:105:11
	cmp	r0, #3
	bne	.LBB5_10
@ %bb.5:
.Ltmp17:
	.loc	2 107 9 is_stmt 1               @ main_s.c:107:9
	ldr	r0, __arm_cp.5_2
	ldr	r1, __arm_cp.5_3
	bl	__2printf
.Ltmp18:
	.loc	2 108 22                        @ main_s.c:108:22
	str	r4, [r5]
.Ltmp19:
	.loc	2 116 1                         @ main_s.c:116:1
	pop	{r4, r5, r7, pc}
.LBB5_6:
	.loc	2 84 3                          @ main_s.c:84:3
	cmp	r2, #10
	beq	.LBB5_13
@ %bb.7:
	cmp	r2, #20
	bne	.LBB5_14
@ %bb.8:
	.loc	2 0 3 is_stmt 0                 @ main_s.c:0:3
	movs	r0, #0
.Ltmp20:
	.loc	2 89 7 is_stmt 1                @ main_s.c:89:7
	bl	LED_Off
.Ltmp21:
	.loc	2 116 1                         @ main_s.c:116:1
	pop	{r4, r5, r7, pc}
.LBB5_9:
.Ltmp22:
	.loc	2 92 11                         @ main_s.c:92:11
	ldr	r0, __arm_cp.5_5
	ldr	r1, [r0]
.Ltmp23:
	.loc	2 92 11 is_stmt 0               @ main_s.c:92:11
	cbnz	r1, .LBB5_12
.Ltmp24:
.LBB5_10:
	.loc	2 116 1 is_stmt 1               @ main_s.c:116:1
	pop	{r4, r5, r7, pc}
.LBB5_11:
.Ltmp25:
	.loc	2 98 11                         @ main_s.c:98:11
	ldr	r0, __arm_cp.5_4
	ldr	r1, [r0]
.Ltmp26:
	.loc	2 98 11 is_stmt 0               @ main_s.c:98:11
	cmp	r1, #0
	beq	.LBB5_10
.LBB5_12:
	.loc	2 0 11                          @ main_s.c:0:11
	movs	r0, #1
	push	{r4, r5, r6, r7}
	mov	r7, r11
	mov	r6, r10
	mov	r5, r9
	mov	r4, r8
	push	{r4, r5, r6, r7}
	mov	r2, #1
	bics	r1, r2
	mov	r2, r1
	mov	r3, r1
	mov	r4, r1
	mov	r5, r1
	mov	r6, r1
	mov	r7, r1
	mov	r8, r1
	mov	r9, r1
	mov	r10, r1
	mov	r11, r1
	mov	r12, r1
	msr	apsr, r1
	blxns	r1
.Ltmp27:
	pop	{r4, r5, r6, r7}
	mov	r8, r4
	mov	r9, r5
	mov	r10, r6
	mov	r11, r7
	pop	{r4, r5, r6, r7}
.Ltmp28:
	.loc	2 116 1 is_stmt 1               @ main_s.c:116:1
	pop	{r4, r5, r7, pc}
.LBB5_13:
	.loc	2 0 1 is_stmt 0                 @ main_s.c:0:1
	movs	r0, #0
.Ltmp29:
	.loc	2 86 7 is_stmt 1                @ main_s.c:86:7
	bl	LED_On
.Ltmp30:
	.loc	2 116 1                         @ main_s.c:116:1
	pop	{r4, r5, r7, pc}
.LBB5_14:
.Ltmp31:
	.loc	2 112 11                        @ main_s.c:112:11
	cmp	r1, #100
	blo	.LBB5_10
@ %bb.15:
	.loc	2 0 11 is_stmt 0                @ main_s.c:0:11
	movs	r1, #0
.Ltmp32:
	.loc	2 113 15 is_stmt 1              @ main_s.c:113:15
	str	r1, [r0]
.Ltmp33:
	.loc	2 116 1                         @ main_s.c:116:1
	pop	{r4, r5, r7, pc}
.Ltmp34:
	.p2align	2
@ %bb.16:
	.loc	2 0 1 is_stmt 0                 @ main_s.c:0:1
__arm_cp.5_0:
	.long	SysTick_Handler.ticks
.Lcpi_end3:
	.size	__arm_cp.5_0, .Lcpi_end3-__arm_cp.5_0
__arm_cp.5_1:
	.long	SysTick_Handler.ticks_printf
.Lcpi_end4:
	.size	__arm_cp.5_1, .Lcpi_end4-__arm_cp.5_1
__arm_cp.5_2:
	.long	.L.str
.Lcpi_end5:
	.size	__arm_cp.5_2, .Lcpi_end5-__arm_cp.5_2
__arm_cp.5_3:
	.long	text
.Lcpi_end6:
	.size	__arm_cp.5_3, .Lcpi_end6-__arm_cp.5_3
__arm_cp.5_4:
	.long	pfNonSecure_LED_Off
.Lcpi_end7:
	.size	__arm_cp.5_4, .Lcpi_end7-__arm_cp.5_4
__arm_cp.5_5:
	.long	pfNonSecure_LED_On
.Lcpi_end8:
	.size	__arm_cp.5_5, .Lcpi_end8-__arm_cp.5_5
.Lfunc_end5:
	.size	SysTick_Handler, .Lfunc_end5-SysTick_Handler
	.cfi_endproc
	.cantunwind
	.fnend
                                        @ -- End function
	.section	.text.main,"ax",%progbits
	.hidden	main                            @ -- Begin function main
	.globl	main
	.p2align	2
	.type	main,%function
	.code	16                              @ @main
	.thumb_func
main:
.Lfunc_begin6:
	.loc	2 124 0 is_stmt 1               @ main_s.c:124:0
	.fnstart
	.cfi_startproc
@ %bb.0:
	.save	{r4, r5, r6, lr}
	push	{r4, r5, r6, lr}
	.cfi_def_cfa_offset 16
	.cfi_offset lr, -4
	.cfi_offset r6, -8
	.cfi_offset r5, -12
	.cfi_offset r4, -16
	movs	r0, #1
	lsls	r0, r0, #21
.Ltmp35:
	@DEBUG_VALUE: main:NonSecure_StackPointer <- undef
	@DEBUG_VALUE: main:NonSecure_ResetHandler <- undef
	.loc	2 125 64 prologue_end           @ main_s.c:125:64
	ldm	r0!, {r1, r6}
.Ltmp36:
	.file	5 "C:/Users/dakum/AppData/Local/Arm/Packs/ARM/CMSIS/6.0.0/CMSIS/Core/Include/./m-profile" "cmsis_armclang_m.h"
	.loc	5 874 3                         @ C:/Users/dakum/AppData/Local/Arm/Packs/ARM/CMSIS/6.0.0/CMSIS/Core/Include/./m-profile/cmsis_armclang_m.h:874:3
	@APP
	mrs	r0, msp
	@NO_APP
.Ltmp37:
	@DEBUG_VALUE: __get_MSP:result <- $r0
	.loc	5 820 3                         @ C:/Users/dakum/AppData/Local/Arm/Packs/ARM/CMSIS/6.0.0/CMSIS/Core/Include/./m-profile/cmsis_armclang_m.h:820:3
	@APP
	mrs	r0, psp
	@NO_APP
.Ltmp38:
	@DEBUG_VALUE: __TZ_set_MSP_NS:topOfMainStack <- $r1
	@DEBUG_VALUE: __get_PSP:result <- $r0
	.loc	5 914 3                         @ C:/Users/dakum/AppData/Local/Arm/Packs/ARM/CMSIS/6.0.0/CMSIS/Core/Include/./m-profile/cmsis_armclang_m.h:914:3
	@APP
	msr	msp_ns, r1
	@NO_APP
.Ltmp39:
	.loc	5 889 3                         @ C:/Users/dakum/AppData/Local/Arm/Packs/ARM/CMSIS/6.0.0/CMSIS/Core/Include/./m-profile/cmsis_armclang_m.h:889:3
	@APP
	mrs	r0, msp_ns
	@NO_APP
.Ltmp40:
	@DEBUG_VALUE: __TZ_get_MSP_NS:result <- $r0
	.loc	5 0 3 is_stmt 0                 @ C:/Users/dakum/AppData/Local/Arm/Packs/ARM/CMSIS/6.0.0/CMSIS/Core/Include/./m-profile/cmsis_armclang_m.h:0:3
	movs	r0, #17
.Ltmp41:
	lsls	r0, r0, #25
.Ltmp42:
	@DEBUG_VALUE: __TZ_set_PSP_NS:topOfProcStack <- 570425344
	.loc	5 860 3 is_stmt 1               @ C:/Users/dakum/AppData/Local/Arm/Packs/ARM/CMSIS/6.0.0/CMSIS/Core/Include/./m-profile/cmsis_armclang_m.h:860:3
	@APP
	msr	psp_ns, r0
	@NO_APP
.Ltmp43:
	.loc	5 835 3                         @ C:/Users/dakum/AppData/Local/Arm/Packs/ARM/CMSIS/6.0.0/CMSIS/Core/Include/./m-profile/cmsis_armclang_m.h:835:3
	@APP
	mrs	r0, psp_ns
	@NO_APP
.Ltmp44:
	@DEBUG_VALUE: __TZ_get_PSP_NS:result <- $r0
	.loc	2 136 3                         @ main_s.c:136:3
	bl	SystemCoreClockUpdate
.Ltmp45:
	.loc	2 138 3                         @ main_s.c:138:3
	bl	stdout_init
.Ltmp46:
	.loc	2 139 3                         @ main_s.c:139:3
	bl	LED_Initialize
.Ltmp47:
	.loc	2 140 3                         @ main_s.c:140:3
	bl	GLCD_Initialize
.Ltmp48:
	.loc	2 143 3                         @ main_s.c:143:3
	ldr	r0, __arm_cp.6_0
	bl	GLCD_SetFont
.Ltmp49:
	.loc	2 0 3 is_stmt 0                 @ main_s.c:0:3
	ldr	r5, __arm_cp.6_1
	.loc	2 144 3 is_stmt 1               @ main_s.c:144:3
	mov	r0, r5
	bl	GLCD_SetBackgroundColor
.Ltmp50:
	.loc	2 145 3                         @ main_s.c:145:3
	bl	GLCD_ClearScreen
.Ltmp51:
	.loc	2 0 3 is_stmt 0                 @ main_s.c:0:3
	movs	r0, #31
	.loc	2 146 3 is_stmt 1               @ main_s.c:146:3
	bl	GLCD_SetBackgroundColor
.Ltmp52:
	.loc	2 147 3                         @ main_s.c:147:3
	movw	r0, #63488
	bl	GLCD_SetForegroundColor
.Ltmp53:
	.loc	2 0 3 is_stmt 0                 @ main_s.c:0:3
	movs	r4, #0
	.loc	2 148 3 is_stmt 1               @ main_s.c:148:3
	adr	r2, .LCPI6_2
	mov	r0, r4
	mov	r1, r4
	bl	GLCD_DrawString
.Ltmp54:
	.loc	2 0 3 is_stmt 0                 @ main_s.c:0:3
	movs	r1, #24
	.loc	2 149 3 is_stmt 1               @ main_s.c:149:3
	adr	r2, .LCPI6_3
	mov	r0, r4
	bl	GLCD_DrawString
.Ltmp55:
	.loc	2 0 3 is_stmt 0                 @ main_s.c:0:3
	movs	r1, #48
	.loc	2 150 3 is_stmt 1               @ main_s.c:150:3
	adr	r2, .LCPI6_4
	mov	r0, r4
	bl	GLCD_DrawString
.Ltmp56:
	.loc	2 152 3                         @ main_s.c:152:3
	mov	r0, r5
	bl	GLCD_SetBackgroundColor
.Ltmp57:
	.loc	2 153 3                         @ main_s.c:153:3
	mov	r0, r4
	bl	GLCD_SetForegroundColor
.Ltmp58:
	.loc	2 0 3 is_stmt 0                 @ main_s.c:0:3
	movw	r0, #3360
	.loc	2 154 3 is_stmt 1               @ main_s.c:154:3
	adds	r2, r0, #1
	ldr	r5, __arm_cp.6_5
	.loc	2 154 17 is_stmt 0              @ main_s.c:154:17
	mov	r1, r5
	subs	r1, #32
	ldr	r1, [r1]
	.loc	2 154 29                        @ main_s.c:154:29
	lsls	r1, r1, #16
	lsrs	r1, r1, #20
	.loc	2 154 3                         @ main_s.c:154:3
	cmp	r1, r2
	beq	.LBB6_2
.Ltmp59:
@ %bb.1:
	.loc	2 0 3                           @ main_s.c:0:3
	adr	r2, .LCPI6_7
	.loc	2 154 3                         @ main_s.c:154:3
	cmp	r1, r0
	beq	.LBB6_3
	b	.LBB6_4
.LBB6_2:
	.loc	2 0 3                           @ main_s.c:0:3
	adr	r2, .LCPI6_6
	.loc	2 154 3                         @ main_s.c:154:3
	cmp	r1, r0
	bne	.LBB6_4
.LBB6_3:
	.loc	2 0 3                           @ main_s.c:0:3
	adr	r2, .LCPI6_8
.LBB6_4:
	movs	r1, #96
.Ltmp60:
	mov	r0, r4
	bl	GLCD_DrawString
.Ltmp61:
	@DEBUG_VALUE: main:NonSecure_ResetHandler <- $r6
	.loc	2 166 18 is_stmt 1              @ main_s.c:166:18
	ldr	r0, __arm_cp.6_9
	ldr	r0, [r0]
	movs	r1, #100
	.loc	2 166 34 is_stmt 0              @ main_s.c:166:34
	udiv	r0, r0, r1
.Ltmp62:
	@DEBUG_VALUE: SysTick_Config:ticks <- $r0
	.loc	4 2087 14 is_stmt 1             @ C:/Users/dakum/AppData/Local/Arm/Packs/ARM/CMSIS/6.0.0/CMSIS/Core/Include\core_cm23.h:2087:14
	subs	r0, r0, #1
.Ltmp63:
	.loc	4 2087 7 is_stmt 0              @ C:/Users/dakum/AppData/Local/Arm/Packs/ARM/CMSIS/6.0.0/CMSIS/Core/Include\core_cm23.h:2087:7
	lsrs	r1, r0, #24
	bne	.LBB6_6
.Ltmp64:
@ %bb.5:
	@DEBUG_VALUE: main:NonSecure_ResetHandler <- $r6
	.loc	4 0 7                           @ C:/Users/dakum/AppData/Local/Arm/Packs/ARM/CMSIS/6.0.0/CMSIS/Core/Include\core_cm23.h:0:7
	ldr	r1, __arm_cp.6_10
	ldr	r2, __arm_cp.6_11
	.loc	4 2092 18 is_stmt 1             @ C:/Users/dakum/AppData/Local/Arm/Packs/ARM/CMSIS/6.0.0/CMSIS/Core/Include\core_cm23.h:2092:18
	str	r0, [r2, #4]
.Ltmp65:
	@DEBUG_VALUE: __NVIC_SetPriority:priority <- 3
	@DEBUG_VALUE: __NVIC_SetPriority:IRQn <- -1
	.loc	4 1577 45                       @ C:/Users/dakum/AppData/Local/Arm/Packs/ARM/CMSIS/6.0.0/CMSIS/Core/Include\core_cm23.h:1577:45
	ldr	r0, [r5]
	.loc	4 1577 71 is_stmt 0             @ C:/Users/dakum/AppData/Local/Arm/Packs/ARM/CMSIS/6.0.0/CMSIS/Core/Include\core_cm23.h:1577:71
	ands	r0, r1
	movs	r1, #3
	lsls	r1, r1, #30
	.loc	4 1577 104                      @ C:/Users/dakum/AppData/Local/Arm/Packs/ARM/CMSIS/6.0.0/CMSIS/Core/Include\core_cm23.h:1577:104
	adds	r0, r0, r1
	.loc	4 1577 31                       @ C:/Users/dakum/AppData/Local/Arm/Packs/ARM/CMSIS/6.0.0/CMSIS/Core/Include\core_cm23.h:1577:31
	str	r0, [r5]
.Ltmp66:
	.loc	4 2094 18 is_stmt 1             @ C:/Users/dakum/AppData/Local/Arm/Packs/ARM/CMSIS/6.0.0/CMSIS/Core/Include\core_cm23.h:2094:18
	str	r4, [r2, #8]
	movs	r0, #7
	.loc	4 2095 18                       @ C:/Users/dakum/AppData/Local/Arm/Packs/ARM/CMSIS/6.0.0/CMSIS/Core/Include\core_cm23.h:2095:18
	str	r0, [r2]
.Ltmp67:
.LBB6_6:
	@DEBUG_VALUE: main:NonSecure_ResetHandler <- $r6
	@DEBUG_VALUE: main:NonSecure_ResetHandler <- $r6
	.loc	2 168 3                         @ main_s.c:168:3
	push	{r4, r5, r6, r7}
	mov	r7, r11
	mov	r5, r10
	mov	r4, r9
	push	{r4, r5, r7}
	mov	r4, r8
	push	{r4}
	mov	r0, #1
	bics	r6, r0
.Ltmp68:
	mov	r0, r6
	mov	r1, r6
	mov	r2, r6
	mov	r3, r6
	mov	r4, r6
	mov	r5, r6
	mov	r7, r6
	mov	r8, r6
	mov	r9, r6
	mov	r10, r6
	mov	r11, r6
	mov	r12, r6
	msr	apsr, r6
	blxns	r6
.Ltmp69:
	pop	{r4, r5, r6, r7}
	mov	r8, r4
	mov	r9, r5
	mov	r10, r6
	mov	r11, r7
	pop	{r4, r5, r6, r7}
	movs	r0, #0
	.loc	2 169 1                         @ main_s.c:169:1
	pop	{r4, r5, r6, pc}
.Ltmp70:
	.p2align	2
@ %bb.7:
	.loc	2 0 1 is_stmt 0                 @ main_s.c:0:1
__arm_cp.6_0:
	.long	GLCD_Font_16x24
.Lcpi_end9:
	.size	__arm_cp.6_0, .Lcpi_end9-__arm_cp.6_0
__arm_cp.6_1:
	.long	65535                           @ 0xffff
.Lcpi_end10:
	.size	__arm_cp.6_1, .Lcpi_end10-__arm_cp.6_1
.LCPI6_2:
.L.str.1:
	.asciz	"   V2M-MPS2+ Demo   \000\000\000"
.LCPI6_3:
.L.str.2:
	.asciz	" Secure/Non-Secure  \000\000\000"
.LCPI6_4:
.L.str.3:
	.asciz	"   www.keil.com     \000\000\000"
__arm_cp.6_5:
	.long	3758157088                      @ 0xe000ed20
.Lcpi_end11:
	.size	__arm_cp.6_5, .Lcpi_end11-__arm_cp.6_5
.LCPI6_6:
.L.str.5:
	.asciz	"  Cortex-M33        \000\000\000"
.LCPI6_7:
.L.str.6:
	.asciz	"  unknown Cortex-M  \000\000\000"
.LCPI6_8:
.L.str.4:
	.asciz	"  Cortex-M23        \000\000\000"
__arm_cp.6_9:
	.long	SystemCoreClock
.Lcpi_end12:
	.size	__arm_cp.6_9, .Lcpi_end12-__arm_cp.6_9
__arm_cp.6_10:
	.long	16777215                        @ 0xffffff
.Lcpi_end13:
	.size	__arm_cp.6_10, .Lcpi_end13-__arm_cp.6_10
__arm_cp.6_11:
	.long	3758153744                      @ 0xe000e010
.Lcpi_end14:
	.size	__arm_cp.6_11, .Lcpi_end14-__arm_cp.6_11
.Lfunc_end6:
	.size	main, .Lfunc_end6-main
	.cfi_endproc
	.cantunwind
	.fnend
                                        @ -- End function
	.hidden	pfNonSecure_LED_On              @ @pfNonSecure_LED_On
	.type	pfNonSecure_LED_On,%object
	.section	.bss.pfNonSecure_LED_On,"aw",%nobits
	.globl	pfNonSecure_LED_On
	.p2align	2
pfNonSecure_LED_On:
	.long	0
	.size	pfNonSecure_LED_On, 4

	.hidden	pfNonSecure_LED_Off             @ @pfNonSecure_LED_Off
	.type	pfNonSecure_LED_Off,%object
	.section	.bss.pfNonSecure_LED_Off,"aw",%nobits
	.globl	pfNonSecure_LED_Off
	.p2align	2
pfNonSecure_LED_Off:
	.long	0
	.size	pfNonSecure_LED_Off, 4

	.type	.L.str,%object                  @ @.str
	.section	.rodata.str1.1,"aMS",%progbits,1
.L.str:
	.asciz	"%s"
	.size	.L.str, 3

	.type	SysTick_Handler.ticks,%object   @ @SysTick_Handler.ticks
	.section	.bss.SysTick_Handler.ticks,"aw",%nobits
	.p2align	2
SysTick_Handler.ticks:
	.long	0                               @ 0x0
	.size	SysTick_Handler.ticks, 4

	.type	SysTick_Handler.ticks_printf,%object @ @SysTick_Handler.ticks_printf
	.section	.bss.SysTick_Handler.ticks_printf,"aw",%nobits
	.p2align	2
SysTick_Handler.ticks_printf:
	.long	0                               @ 0x0
	.size	SysTick_Handler.ticks_printf, 4

	.type	text,%object                    @ @text
	.section	.data.text,"aw",%progbits
text:
	.asciz	"Hello World (secure)\r\n"
	.size	text, 23

	.type	__ARM_use_no_argv,%object       @ @__ARM_use_no_argv
	.section	.ARM.use_no_argv,"awR",%progbits,unique,1
	.globl	__ARM_use_no_argv
	.p2align	2
__ARM_use_no_argv:
	.long	1                               @ 0x1
	.size	__ARM_use_no_argv, 4

	.hidden	_printf_percent
	.hidden	_printf_s
	.hidden	_printf_str
	.section	".note.GNU-stack","",%progbits
	.eabi_attribute	30, 1	@ Tag_ABI_optimization_goals
	.ARM_attribute	16, 1	@ Tag_AV_eba