	.text
	.syntax unified
	.eabi_attribute	67, "2.09"	@ Tag_conformance
	.cpu	cortex-m23
	.eabi_attribute	6, 16	@ Tag_CPU_arch
	.eabi_attribute	7, 77	@ Tag_CPU_arch_profile
	.eabi_attribute	8, 0	@ Tag_ARM_ISA_use
	.eabi_attribute	9, 3	@ Tag_THUMB_ISA_use
	.eabi_attribute	34, 0	@ Tag_CPU_unaligned_access
	.eabi_attribute	17, 1	@ Tag_ABI_PCS_GOT_use
	.eabi_attribute	20, 2	@ Tag_ABI_FP_denormal
	.eabi_attribute	21, 0	@ Tag_ABI_FP_exceptions
	.eabi_attribute	23, 1	@ Tag_ABI_FP_number_model
	.eabi_attribute	24, 1	@ Tag_ABI_align_needed
	.eabi_attribute	25, 1	@ Tag_ABI_align_preserved
	.eabi_attribute	38, 1	@ Tag_ABI_FP_16bit_format
	.eabi_attribute	18, 2	@ Tag_ABI_PCS_wchar_t
	.eabi_attribute	26, 1	@ Tag_ABI_enum_size
	.eabi_attribute	14, 0	@ Tag_ABI_PCS_R9_use
	.file	"stdout_USART.c"
	.file	1 "C:/Users/dakum/AppData/Local/Arm/Packs/ARM/CMSIS/6.0.0/CMSIS/Driver/Include" "Driver_Common.h"
	.file	2 "C:\\" "Keil_v5\\ARM\\ARMCLANG\\Bin\\..\\include\\stdint.h"
	.section	.text.stdout_init,"ax",%progbits
	.hidden	stdout_init                     @ -- Begin function stdout_init
	.globl	stdout_init
	.p2align	2
	.type	stdout_init,%function
	.code	16                              @ @stdout_init
	.thumb_func
stdout_init:
.Lfunc_begin0:
	.file	3 "C:\\Users\\dakum\\OneDrive\\Desktop\\projects\\code-CFA-with-pac\\Evaluation\\TrustZoneV8m\\Boards\\ARM\\V2M-MPS2\\IOTKit_CM23\\IOTKit_CM23_S_NS\\IOTKit_CM23_s" "stdout_USART.c"
	.loc	3 63 0                          @ stdout_USART.c:63:0
	.fnstart
	.cfi_sections .debug_frame
	.cfi_startproc
@ %bb.0:
	.save	{r4, r5, r6, lr}
	push	{r4, r5, r6, lr}
	.cfi_def_cfa_offset 16
	.cfi_offset lr, -4
	.cfi_offset r6, -8
	.cfi_offset r5, -12
	.cfi_offset r4, -16
.Ltmp0:
	.loc	3 66 22 prologue_end            @ stdout_USART.c:66:22
	ldr	r6, __arm_cp.0_0
	ldr	r1, [r6, #8]
	movs	r5, #0
	.loc	3 66 12 is_stmt 0               @ stdout_USART.c:66:12
	mov	r0, r5
	blx	r1
.Ltmp1:
	@DEBUG_VALUE: stdout_init:status <- $r0
	.loc	3 0 12                          @ stdout_USART.c:0:12
	mvns	r4, r5
	.loc	3 67 7 is_stmt 1                @ stdout_USART.c:67:7
	cbz	r0, .LBB0_2
.Ltmp2:
.LBB0_1:
	@DEBUG_VALUE: stdout_init:status <- $r0
	.loc	3 84 1                          @ stdout_USART.c:84:1
	mov	r0, r4
.Ltmp3:
	pop	{r4, r5, r6, pc}
.LBB0_2:
.Ltmp4:
	@DEBUG_VALUE: stdout_init:status <- $r0
	.loc	3 69 22                         @ stdout_USART.c:69:22
	ldr	r1, [r6, #16]
	movs	r0, #2
.Ltmp5:
	.loc	3 69 12 is_stmt 0               @ stdout_USART.c:69:12
	blx	r1
.Ltmp6:
	@DEBUG_VALUE: stdout_init:status <- $r0
	.loc	3 70 7 is_stmt 1                @ stdout_USART.c:70:7
	cmp	r0, #0
	bne	.LBB0_1
.Ltmp7:
@ %bb.3:
	@DEBUG_VALUE: stdout_init:status <- $r0
	.loc	3 0 7 is_stmt 0                 @ stdout_USART.c:0:7
	movs	r0, #225
.Ltmp8:
	lsls	r1, r0, #9
	.loc	3 72 22 is_stmt 1               @ stdout_USART.c:72:22
	ldr	r6, [r6, #40]
	movs	r0, #1
	.loc	3 72 12 is_stmt 0               @ stdout_USART.c:72:12
	blx	r6
.Ltmp9:
	@DEBUG_VALUE: stdout_init:status <- $r0
	.loc	3 78 7 is_stmt 1                @ stdout_USART.c:78:7
	cmp	r0, #0
	bne	.LBB0_1
.Ltmp10:
@ %bb.4:
	@DEBUG_VALUE: stdout_init:status <- $r0
	.loc	3 0 7 is_stmt 0                 @ stdout_USART.c:0:7
	movs	r0, #21
.Ltmp11:
	movs	r1, #1
	.loc	3 80 12 is_stmt 1               @ stdout_USART.c:80:12
	blx	r6
.Ltmp12:
	@DEBUG_VALUE: stdout_init:status <- $r0
	.loc	3 0 0 is_stmt 0                 @ stdout_USART.c:0:0
	cbnz	r0, .LBB0_6
.Ltmp13:
@ %bb.5:
	@DEBUG_VALUE: stdout_init:status <- $r0
	mov	r4, r0
.Ltmp14:
	@DEBUG_VALUE: stdout_init:status <- $r4
	.loc	3 84 1 is_stmt 1                @ stdout_USART.c:84:1
	mov	r0, r4
	pop	{r4, r5, r6, pc}
.Ltmp15:
.LBB0_6:
	@DEBUG_VALUE: stdout_init:status <- $r0
	.loc	3 0 1 is_stmt 0                 @ stdout_USART.c:0:1
	mvns	r0, r5
.Ltmp16:
	.loc	3 84 1                          @ stdout_USART.c:84:1
	pop	{r4, r5, r6, pc}
.Ltmp17:
	.p2align	2
@ %bb.7:
	.loc	3 0 1                           @ stdout_USART.c:0:1
__arm_cp.0_0:
	.long	Driver_USART0
.Lcpi_end0:
	.size	__arm_cp.0_0, .Lcpi_end0-__arm_cp.0_0
.Lfunc_end0:
	.size	stdout_init, .Lfunc_end0-stdout_init
	.cfi_endproc
	.cantunwind
	.fnend
                                        @ -- End function
	.section	.text.stdout_putchar,"ax",%progbits
	.hidden	stdout_putchar                  @ -- Begin function stdout_putchar
	.globl	stdout_putchar
	.p2align	2
	.type	stdout_putchar,%function
	.code	16                              @ @stdout_putchar
	.thumb_func
stdout_putchar:
.Lfunc_begin1:
	.loc	3 94 0 is_stmt 1                @ stdout_USART.c:94:0
	.fnstart
	.cfi_startproc
@ %bb.0:
	@DEBUG_VALUE: stdout_putchar:ch <- $r0
	.save	{r4, r5, r7, lr}
	push	{r4, r5, r7, lr}
	.cfi_def_cfa_offset 16
	.cfi_offset lr, -4
	.cfi_offset r7, -8
	.cfi_offset r5, -12
	.cfi_offset r4, -16
	.pad	#8
	sub	sp, #8
	.cfi_def_cfa_offset 24
	mov	r4, r0
.Ltmp18:
	@DEBUG_VALUE: stdout_putchar:ch <- $r4
	add	r0, sp, #4
.Ltmp19:
	.loc	3 97 10 prologue_end            @ stdout_USART.c:97:10
	strb	r4, [r0]
.Ltmp20:
	.loc	3 98 17                         @ stdout_USART.c:98:17
	ldr	r5, __arm_cp.1_0
	ldr	r2, [r5, #20]
	movs	r1, #1
	.loc	3 98 7 is_stmt 0                @ stdout_USART.c:98:7
	blx	r2
.Ltmp21:
	.loc	3 98 7                          @ stdout_USART.c:98:7
	cbz	r0, .LBB1_2
.Ltmp22:
@ %bb.1:
	@DEBUG_VALUE: stdout_putchar:ch <- $r4
	.loc	3 0 7                           @ stdout_USART.c:0:7
	movs	r0, #0
	mvns	r4, r0
.Ltmp23:
	@DEBUG_VALUE: stdout_putchar:ch <- [DW_OP_LLVM_entry_value 1] $r0
	b	.LBB1_4
.Ltmp24:
.LBB1_2:
	@DEBUG_VALUE: stdout_putchar:ch <- $r4
	ldr	r5, [r5, #32]
.Ltmp25:
.LBB1_3:                                @ =>This Inner Loop Header: Depth=1
	@DEBUG_VALUE: stdout_putchar:ch <- $r4
	.loc	3 101 10 is_stmt 1              @ stdout_USART.c:101:10
	blx	r5
.Ltmp26:
	.loc	3 101 3 is_stmt 0               @ stdout_USART.c:101:3
	cmp	r0, #1
	bne	.LBB1_3
.Ltmp27:
.LBB1_4:
	.loc	3 103 1 is_stmt 1               @ stdout_USART.c:103:1
	mov	r0, r4
	add	sp, #8
	pop	{r4, r5, r7, pc}
.Ltmp28:
	.p2align	2
@ %bb.5:
	.loc	3 0 1 is_stmt 0                 @ stdout_USART.c:0:1
__arm_cp.1_0:
	.long	Driver_USART0
.Lcpi_end1:
	.size	__arm_cp.1_0, .Lcpi_end1-__arm_cp.1_0
.Lfunc_end1:
	.size	stdout_putchar, .Lfunc_end1-stdout_putchar
	.cfi_endproc
	.cantunwind
	.fnend
                                        @ -- End function
	.section	".note.GNU-stack","",%progbits
	.eabi_attribute	30, 1	@ Tag_ABI_optimization_goals
	.ARM_attribute	16, 1	@ Tag_AV_eba