	.text
	.syntax unified
	.eabi_attribute	67, "2.09"	@ Tag_conformance
	.cpu	cortex-m23
	.eabi_attribute	6, 16	@ Tag_CPU_arch
	.eabi_attribute	7, 77	@ Tag_CPU_arch_profile
	.eabi_attribute	8, 0	@ Tag_ARM_ISA_use
	.eabi_attribute	9, 3	@ Tag_THUMB_ISA_use
	.eabi_attribute	34, 0	@ Tag_CPU_unaligned_access
	.eabi_attribute	17, 1	@ Tag_ABI_PCS_GOT_use
	.eabi_attribute	20, 2	@ Tag_ABI_FP_denormal
	.eabi_attribute	21, 0	@ Tag_ABI_FP_exceptions
	.eabi_attribute	23, 1	@ Tag_ABI_FP_number_model
	.eabi_attribute	24, 1	@ Tag_ABI_align_needed
	.eabi_attribute	25, 1	@ Tag_ABI_align_preserved
	.eabi_attribute	38, 1	@ Tag_ABI_FP_16bit_format
	.eabi_attribute	18, 2	@ Tag_ABI_PCS_wchar_t
	.eabi_attribute	26, 1	@ Tag_ABI_enum_size
	.eabi_attribute	14, 0	@ Tag_ABI_PCS_R9_use
	.file	"system_IOTKit_CM23.c"
	.file	1 "C:\\" "Keil_v5\\ARM\\ARMCLANG\\Bin\\..\\include\\stdint.h"
	.file	2 "C:\\Users\\dakum\\OneDrive\\Desktop\\projects\\code-CFA-with-pac\\Evaluation\\TrustZoneV8m\\Boards\\ARM\\V2M-MPS2\\IOTKit_CM23\\IOTKit_CM23_S_NS\\IOTKit_CM23_s" "RTE/Device/IOTKit_CM23/system_IOTKit_CM23.c"
	.file	3 "C:/Users/dakum/AppData/Local/Arm/Packs/ARM/CMSIS/6.0.0/CMSIS/Core/Include" "core_cm23.h"
	.file	4 "C:/Users/dakum/AppData/Local/Arm/Packs/Keil/V2M-MPS2_IOTKit_BSP/1.5.1/Device/IOTKit_CM23/Include" "IOTKit_CM23.h"
	.section	.text.SystemCoreClockUpdate,"ax",%progbits
	.hidden	SystemCoreClockUpdate           @ -- Begin function SystemCoreClockUpdate
	.globl	SystemCoreClockUpdate
	.p2align	2
	.type	SystemCoreClockUpdate,%function
	.code	16                              @ @SystemCoreClockUpdate
	.thumb_func
SystemCoreClockUpdate:
.Lfunc_begin0:
	.loc	2 63 0                          @ RTE/Device/IOTKit_CM23/system_IOTKit_CM23.c:63:0
	.fnstart
	.cfi_sections .debug_frame
	.cfi_startproc
@ %bb.0:
	.loc	2 64 19 prologue_end            @ RTE/Device/IOTKit_CM23/system_IOTKit_CM23.c:64:19
	ldr	r0, __arm_cp.0_0
	ldr	r1, __arm_cp.0_1
	str	r1, [r0]
	.loc	2 65 1                          @ RTE/Device/IOTKit_CM23/system_IOTKit_CM23.c:65:1
	bx	lr
.Ltmp0:
	.p2align	2
@ %bb.1:
	.loc	2 0 1 is_stmt 0                 @ RTE/Device/IOTKit_CM23/system_IOTKit_CM23.c:0:1
__arm_cp.0_0:
	.long	SystemCoreClock
.Lcpi_end0:
	.size	__arm_cp.0_0, .Lcpi_end0-__arm_cp.0_0
__arm_cp.0_1:
	.long	25000000                        @ 0x17d7840
.Lcpi_end1:
	.size	__arm_cp.0_1, .Lcpi_end1-__arm_cp.0_1
.Lfunc_end0:
	.size	SystemCoreClockUpdate, .Lfunc_end0-SystemCoreClockUpdate
	.cfi_endproc
	.cantunwind
	.fnend
                                        @ -- End function
	.section	.text.SystemInit,"ax",%progbits
	.hidden	SystemInit                      @ -- Begin function SystemInit
	.globl	SystemInit
	.p2align	2
	.type	SystemInit,%function
	.code	16                              @ @SystemInit
	.thumb_func
SystemInit:
.Lfunc_begin1:
	.loc	2 71 0 is_stmt 1                @ RTE/Device/IOTKit_CM23/system_IOTKit_CM23.c:71:0
	.fnstart
	.cfi_startproc
@ %bb.0:
	.save	{r4, r5, r7, lr}
	push	{r4, r5, r7, lr}
	.cfi_def_cfa_offset 16
	.cfi_offset lr, -4
	.cfi_offset r7, -8
	.cfi_offset r5, -12
	.cfi_offset r4, -16
	ldr	r0, __arm_cp.1_0
.Ltmp1:
	.loc	2 77 13 prologue_end            @ RTE/Device/IOTKit_CM23/system_IOTKit_CM23.c:77:13
	subs	r1, r0, #4
	ldr	r2, __arm_cp.1_1
	str	r2, [r1]
	ldr	r1, __arm_cp.1_2
	.loc	2 95 29                         @ RTE/Device/IOTKit_CM23/system_IOTKit_CM23.c:95:29
	ldr	r2, [r1]
	ldr	r3, __arm_cp.1_3
	ands	r2, r3
	str	r2, [r1]
	movs	r2, #0
	.loc	2 96 30                         @ RTE/Device/IOTKit_CM23/system_IOTKit_CM23.c:96:30
	str	r2, [r1, #24]
	ldr	r4, __arm_cp.1_4
	.loc	2 97 30                         @ RTE/Device/IOTKit_CM23/system_IOTKit_CM23.c:97:30
	str	r4, [r1, #28]
	ldr	r4, __arm_cp.1_5
	.loc	2 106 26                        @ RTE/Device/IOTKit_CM23/system_IOTKit_CM23.c:106:26
	ldr	r1, [r4]
	ands	r1, r3
	str	r1, [r4]
	movs	r1, #1
	.loc	2 107 29                        @ RTE/Device/IOTKit_CM23/system_IOTKit_CM23.c:107:29
	str	r1, [r4, #24]
	mvns	r3, r2
	.loc	2 108 29                        @ RTE/Device/IOTKit_CM23/system_IOTKit_CM23.c:108:29
	str	r3, [r4, #28]
	ldr	r3, __arm_cp.1_6
	.loc	2 113 22                        @ RTE/Device/IOTKit_CM23/system_IOTKit_CM23.c:113:22
	ldr	r4, [r3]
	orrs	r4, r1
	str	r4, [r3]
	.loc	2 119 31                        @ RTE/Device/IOTKit_CM23/system_IOTKit_CM23.c:119:31
	ldr	r4, [r3, #116]
	movs	r5, #5
	orrs	r5, r4
	str	r5, [r3, #116]
	.loc	2 122 31                        @ RTE/Device/IOTKit_CM23/system_IOTKit_CM23.c:122:31
	ldr	r4, [r3, #112]
	movs	r5, #34
	orrs	r5, r4
	str	r5, [r3, #112]
	ldr	r3, __arm_cp.1_7
.Ltmp2:
	.file	5 "C:\\Users\\dakum\\OneDrive\\Desktop\\projects\\code-CFA-with-pac\\Evaluation\\TrustZoneV8m\\Boards\\ARM\\V2M-MPS2\\IOTKit_CM23\\IOTKit_CM23_S_NS\\IOTKit_CM23_s" "./RTE/Device/IOTKit_CM23/partition_IOTKit_CM23.h"
	.loc	5 512 5                         @ ./RTE/Device/IOTKit_CM23/partition_IOTKit_CM23.h:512:5
	str	r2, [r3]
	lsls	r2, r1, #28
	str	r2, [r3, #4]
	ldr	r2, __arm_cp.1_8
	str	r2, [r3, #8]
	.loc	5 516 5                         @ ./RTE/Device/IOTKit_CM23/partition_IOTKit_CM23.h:516:5
	str	r1, [r3]
	lsls	r2, r1, #21
	str	r2, [r3, #4]
	ldr	r2, __arm_cp.1_9
	str	r2, [r3, #8]
	movs	r2, #2
	.loc	5 520 5                         @ ./RTE/Device/IOTKit_CM23/partition_IOTKit_CM23.h:520:5
	str	r2, [r3]
	ldr	r2, __arm_cp.1_10
	str	r2, [r3, #4]
	ldr	r2, __arm_cp.1_11
	str	r2, [r3, #8]
	movs	r2, #3
	.loc	5 524 5                         @ ./RTE/Device/IOTKit_CM23/partition_IOTKit_CM23.h:524:5
	str	r2, [r3]
	lsls	r2, r1, #30
	str	r2, [r3, #4]
	ldr	r2, __arm_cp.1_12
	str	r2, [r3, #8]
	.loc	5 549 15                        @ ./RTE/Device/IOTKit_CM23/partition_IOTKit_CM23.h:549:15
	subs	r3, #8
	str	r1, [r3]
	.loc	5 554 24                        @ ./RTE/Device/IOTKit_CM23/partition_IOTKit_CM23.h:554:24
	ldr	r1, [r0, #4]
	movs	r2, #8
	.loc	5 554 63 is_stmt 0              @ ./RTE/Device/IOTKit_CM23/partition_IOTKit_CM23.h:554:63
	orrs	r2, r1
	.loc	5 554 16                        @ ./RTE/Device/IOTKit_CM23/partition_IOTKit_CM23.h:554:16
	str	r2, [r0, #4]
	.loc	5 557 24 is_stmt 1              @ ./RTE/Device/IOTKit_CM23/partition_IOTKit_CM23.h:557:24
	ldr	r1, [r0]
	ldr	r2, __arm_cp.1_13
	.loc	5 557 30 is_stmt 0              @ ./RTE/Device/IOTKit_CM23/partition_IOTKit_CM23.h:557:30
	ands	r2, r1
	ldr	r1, __arm_cp.1_14
	.loc	5 560 110 is_stmt 1             @ ./RTE/Device/IOTKit_CM23/partition_IOTKit_CM23.h:560:110
	adds	r1, r2, r1
	.loc	5 557 16                        @ ./RTE/Device/IOTKit_CM23/partition_IOTKit_CM23.h:557:16
	str	r1, [r0]
.Ltmp3:
	.loc	2 131 19                        @ RTE/Device/IOTKit_CM23/system_IOTKit_CM23.c:131:19
	ldr	r0, __arm_cp.1_15
	ldr	r1, __arm_cp.1_16
	str	r1, [r0]
	.loc	2 132 1                         @ RTE/Device/IOTKit_CM23/system_IOTKit_CM23.c:132:1
	pop	{r4, r5, r7, pc}
.Ltmp4:
	.p2align	2
@ %bb.1:
	.loc	2 0 1 is_stmt 0                 @ RTE/Device/IOTKit_CM23/system_IOTKit_CM23.c:0:1
__arm_cp.1_0:
	.long	3758157068                      @ 0xe000ed0c
.Lcpi_end2:
	.size	__arm_cp.1_0, .Lcpi_end2-__arm_cp.1_0
__arm_cp.1_1:
	.long	__Vectors
.Lcpi_end3:
	.size	__arm_cp.1_1, .Lcpi_end3-__arm_cp.1_1
__arm_cp.1_2:
	.long	1476423680                      @ 0x58007000
.Lcpi_end4:
	.size	__arm_cp.1_2, .Lcpi_end4-__arm_cp.1_2
__arm_cp.1_3:
	.long	4294967039                      @ 0xfffffeff
.Lcpi_end5:
	.size	__arm_cp.1_3, .Lcpi_end5-__arm_cp.1_3
__arm_cp.1_4:
	.long	4294901760                      @ 0xffff0000
.Lcpi_end6:
	.size	__arm_cp.1_4, .Lcpi_end6-__arm_cp.1_4
__arm_cp.1_5:
	.long	1476431872                      @ 0x58009000
.Lcpi_end7:
	.size	__arm_cp.1_5, .Lcpi_end7-__arm_cp.1_5
__arm_cp.1_6:
	.long	1342701588                      @ 0x50080014
.Lcpi_end8:
	.size	__arm_cp.1_6, .Lcpi_end8-__arm_cp.1_6
__arm_cp.1_7:
	.long	3758157272                      @ 0xe000edd8
.Lcpi_end9:
	.size	__arm_cp.1_7, .Lcpi_end9-__arm_cp.1_7
__arm_cp.1_8:
	.long	270532579                       @ 0x101fffe3
.Lcpi_end10:
	.size	__arm_cp.1_8, .Lcpi_end10-__arm_cp.1_8
__arm_cp.1_9:
	.long	4194273                         @ 0x3fffe1
.Lcpi_end11:
	.size	__arm_cp.1_9, .Lcpi_end11-__arm_cp.1_9
__arm_cp.1_10:
	.long	673185792                       @ 0x28200000
.Lcpi_end12:
	.size	__arm_cp.1_10, .Lcpi_end12-__arm_cp.1_10
__arm_cp.1_11:
	.long	675282913                       @ 0x283fffe1
.Lcpi_end13:
	.size	__arm_cp.1_11, .Lcpi_end13-__arm_cp.1_11
__arm_cp.1_12:
	.long	1077936097                      @ 0x403fffe1
.Lcpi_end14:
	.size	__arm_cp.1_12, .Lcpi_end14-__arm_cp.1_12
__arm_cp.1_13:
	.long	40951                           @ 0x9ff7
.Lcpi_end15:
	.size	__arm_cp.1_13, .Lcpi_end15-__arm_cp.1_13
__arm_cp.1_14:
	.long	100286464                       @ 0x5fa4000
.Lcpi_end16:
	.size	__arm_cp.1_14, .Lcpi_end16-__arm_cp.1_14
__arm_cp.1_15:
	.long	SystemCoreClock
.Lcpi_end17:
	.size	__arm_cp.1_15, .Lcpi_end17-__arm_cp.1_15
__arm_cp.1_16:
	.long	25000000                        @ 0x17d7840
.Lcpi_end18:
	.size	__arm_cp.1_16, .Lcpi_end18-__arm_cp.1_16
.Lfunc_end1:
	.size	SystemInit, .Lfunc_end1-SystemInit
	.cfi_endproc
	.cantunwind
	.fnend
                                        @ -- End function
	.hidden	SystemCoreClock                 @ @SystemCoreClock
	.type	SystemCoreClock,%object
	.section	.data.SystemCoreClock,"aw",%progbits
	.globl	SystemCoreClock
	.p2align	2
SystemCoreClock:
	.long	25000000                        @ 0x17d7840
	.size	SystemCoreClock, 4

	.section	".note.GNU-stack","",%progbits
	.eabi_attribute	30, 1	@ Tag_ABI_optimization_goals
	.ARM_attribute	16, 1	@ Tag_AV_eba