	.text
	.syntax unified
	.eabi_attribute	67, "2.09"	@ Tag_conformance
	.cpu	cortex-m23
	.eabi_attribute	6, 16	@ Tag_CPU_arch
	.eabi_attribute	7, 77	@ Tag_CPU_arch_profile
	.eabi_attribute	8, 0	@ Tag_ARM_ISA_use
	.eabi_attribute	9, 3	@ Tag_THUMB_ISA_use
	.eabi_attribute	34, 0	@ Tag_CPU_unaligned_access
	.eabi_attribute	17, 1	@ Tag_ABI_PCS_GOT_use
	.eabi_attribute	20, 2	@ Tag_ABI_FP_denormal
	.eabi_attribute	21, 0	@ Tag_ABI_FP_exceptions
	.eabi_attribute	23, 1	@ Tag_ABI_FP_number_model
	.eabi_attribute	24, 1	@ Tag_ABI_align_needed
	.eabi_attribute	25, 1	@ Tag_ABI_align_preserved
	.eabi_attribute	38, 1	@ Tag_ABI_FP_16bit_format
	.eabi_attribute	18, 2	@ Tag_ABI_PCS_wchar_t
	.eabi_attribute	26, 1	@ Tag_ABI_enum_size
	.eabi_attribute	14, 0	@ Tag_ABI_PCS_R9_use
	.file	"USART_V2M-MPS2.c"
	.file	1 "C:\\" "Keil_v5\\ARM\\ARMCLANG\\Bin\\..\\include\\stdint.h"
	.file	2 "C:/Users/dakum/AppData/Local/Arm/Packs/ARM/CMSIS/6.0.0/CMSIS/Driver/Include" "Driver_Common.h"
	.file	3 "C:/Users/dakum/AppData/Local/Arm/Packs/ARM/CMSIS/6.0.0/CMSIS/Driver/Include" "Driver_USART.h"
	.file	4 "C:/Users/dakum/AppData/Local/Arm/Packs/Keil/V2M-MPS2_IOTKit_BSP/1.5.1/CMSIS/Driver" "USART_V2M-MPS2.c"
	.file	5 "C:/Users/dakum/AppData/Local/Arm/Packs/Keil/V2M-MPS2_IOTKit_BSP/1.5.1/CMSIS/Driver" "USART_V2M-MPS2.h"
	.file	6 "C:/Users/dakum/AppData/Local/Arm/Packs/Keil/V2M-MPS2_IOTKit_BSP/1.5.1/Device/IOTKit_CM23/Include" "IOTKit_CM23.h"
	.file	7 "C:/Users/dakum/AppData/Local/Arm/Packs/ARM/CMSIS/6.0.0/CMSIS/Core/Include" "core_cm23.h"
	.section	.text.UART0RX_Handler,"ax",%progbits
	.hidden	UART0RX_Handler                 @ -- Begin function UART0RX_Handler
	.globl	UART0RX_Handler
	.p2align	2
	.type	UART0RX_Handler,%function
	.code	16                              @ @UART0RX_Handler
	.thumb_func
UART0RX_Handler:
.Lfunc_begin0:
	.loc	4 791 0                         @ C:/Users/dakum/AppData/Local/Arm/Packs/Keil/V2M-MPS2_IOTKit_BSP/1.5.1/CMSIS/Driver/USART_V2M-MPS2.c:791:0
	.fnstart
	.cfi_sections .debug_frame
	.cfi_startproc
@ %bb.0:
	.save	{r4, r5, r7, lr}
	push	{r4, r5, r7, lr}
	.cfi_def_cfa_offset 16
	.cfi_offset lr, -4
	.cfi_offset r7, -8
	.cfi_offset r5, -12
	.cfi_offset r4, -16
	ldr	r4, __arm_cp.0_0
.Ltmp0:
	.loc	4 719 24 prologue_end           @ C:/Users/dakum/AppData/Local/Arm/Packs/Keil/V2M-MPS2_IOTKit_BSP/1.5.1/CMSIS/Driver/USART_V2M-MPS2.c:719:24
	ldr	r5, [r4, #4]
.Ltmp1:
	@DEBUG_VALUE: USARTRX_IRQHandler:status <- $r5
	.loc	4 720 20                        @ C:/Users/dakum/AppData/Local/Arm/Packs/Keil/V2M-MPS2_IOTKit_BSP/1.5.1/CMSIS/Driver/USART_V2M-MPS2.c:720:20
	ldr	r0, __arm_cp.0_1
	ldr	r1, [r0, #8]
.Ltmp2:
	.loc	4 720 7 is_stmt 0               @ C:/Users/dakum/AppData/Local/Arm/Packs/Keil/V2M-MPS2_IOTKit_BSP/1.5.1/CMSIS/Driver/USART_V2M-MPS2.c:720:7
	cbz	r1, .LBB0_2
.Ltmp3:
@ %bb.1:
	@DEBUG_VALUE: USARTRX_IRQHandler:status <- $r5
	.loc	4 721 44 is_stmt 1              @ C:/Users/dakum/AppData/Local/Arm/Packs/Keil/V2M-MPS2_IOTKit_BSP/1.5.1/CMSIS/Driver/USART_V2M-MPS2.c:721:44
	ldr	r2, [r0, #16]
	adds	r3, r2, #1
	str	r3, [r0, #16]
	.loc	4 721 71 is_stmt 0              @ C:/Users/dakum/AppData/Local/Arm/Packs/Keil/V2M-MPS2_IOTKit_BSP/1.5.1/CMSIS/Driver/USART_V2M-MPS2.c:721:71
	mov	r3, r4
	subs	r3, #8
	ldr	r3, [r3]
	.loc	4 721 48                        @ C:/Users/dakum/AppData/Local/Arm/Packs/Keil/V2M-MPS2_IOTKit_BSP/1.5.1/CMSIS/Driver/USART_V2M-MPS2.c:721:48
	strb	r3, [r1, r2]
.Ltmp4:
.LBB0_2:
	@DEBUG_VALUE: USARTRX_IRQHandler:status <- $r5
	.loc	4 723 43 is_stmt 1              @ C:/Users/dakum/AppData/Local/Arm/Packs/Keil/V2M-MPS2_IOTKit_BSP/1.5.1/CMSIS/Driver/USART_V2M-MPS2.c:723:43
	ldr	r1, [r0]
	.loc	4 723 20 is_stmt 0              @ C:/Users/dakum/AppData/Local/Arm/Packs/Keil/V2M-MPS2_IOTKit_BSP/1.5.1/CMSIS/Driver/USART_V2M-MPS2.c:723:20
	ldr	r2, [r0, #16]
.Ltmp5:
	.loc	4 723 7                         @ C:/Users/dakum/AppData/Local/Arm/Packs/Keil/V2M-MPS2_IOTKit_BSP/1.5.1/CMSIS/Driver/USART_V2M-MPS2.c:723:7
	cmp	r2, r1
	blo	.LBB0_5
.Ltmp6:
@ %bb.3:
	@DEBUG_VALUE: USARTRX_IRQHandler:status <- $r5
	.loc	4 726 33 is_stmt 1              @ C:/Users/dakum/AppData/Local/Arm/Packs/Keil/V2M-MPS2_IOTKit_BSP/1.5.1/CMSIS/Driver/USART_V2M-MPS2.c:726:33
	ldr	r1, __arm_cp.0_2
	movs	r2, #0
	strb	r2, [r1]
	.loc	4 725 25                        @ C:/Users/dakum/AppData/Local/Arm/Packs/Keil/V2M-MPS2_IOTKit_BSP/1.5.1/CMSIS/Driver/USART_V2M-MPS2.c:725:25
	str	r2, [r0]
	.loc	4 729 22                        @ C:/Users/dakum/AppData/Local/Arm/Packs/Keil/V2M-MPS2_IOTKit_BSP/1.5.1/CMSIS/Driver/USART_V2M-MPS2.c:729:22
	ldr	r0, [r4]
	movs	r1, #8
	bics	r0, r1
	str	r0, [r4]
.Ltmp7:
	.loc	4 732 22                        @ C:/Users/dakum/AppData/Local/Arm/Packs/Keil/V2M-MPS2_IOTKit_BSP/1.5.1/CMSIS/Driver/USART_V2M-MPS2.c:732:22
	ldr	r0, __arm_cp.0_3
	ldr	r1, [r0]
.Ltmp8:
	.loc	4 732 9 is_stmt 0               @ C:/Users/dakum/AppData/Local/Arm/Packs/Keil/V2M-MPS2_IOTKit_BSP/1.5.1/CMSIS/Driver/USART_V2M-MPS2.c:732:9
	cbz	r1, .LBB0_5
.Ltmp9:
@ %bb.4:
	@DEBUG_VALUE: USARTRX_IRQHandler:status <- $r5
	.loc	4 0 9                           @ C:/Users/dakum/AppData/Local/Arm/Packs/Keil/V2M-MPS2_IOTKit_BSP/1.5.1/CMSIS/Driver/USART_V2M-MPS2.c:0:9
	movs	r0, #2
.Ltmp10:
	.loc	4 733 7 is_stmt 1               @ C:/Users/dakum/AppData/Local/Arm/Packs/Keil/V2M-MPS2_IOTKit_BSP/1.5.1/CMSIS/Driver/USART_V2M-MPS2.c:733:7
	blx	r1
.Ltmp11:
.LBB0_5:
	@DEBUG_VALUE: USARTRX_IRQHandler:status <- $r5
	.loc	4 737 24                        @ C:/Users/dakum/AppData/Local/Arm/Packs/Keil/V2M-MPS2_IOTKit_BSP/1.5.1/CMSIS/Driver/USART_V2M-MPS2.c:737:24
	str	r5, [r4, #4]
.Ltmp12:
	.loc	4 791 158                       @ C:/Users/dakum/AppData/Local/Arm/Packs/Keil/V2M-MPS2_IOTKit_BSP/1.5.1/CMSIS/Driver/USART_V2M-MPS2.c:791:158
	pop	{r4, r5, r7, pc}
.Ltmp13:
	.p2align	2
@ %bb.6:
	.loc	4 0 158 is_stmt 0               @ C:/Users/dakum/AppData/Local/Arm/Packs/Keil/V2M-MPS2_IOTKit_BSP/1.5.1/CMSIS/Driver/USART_V2M-MPS2.c:0:158
__arm_cp.0_0:
	.long	1075838984                      @ 0x40200008
.Lcpi_end0:
	.size	__arm_cp.0_0, .Lcpi_end0-__arm_cp.0_0
__arm_cp.0_1:
	.long	USART0_TransferInfo
.Lcpi_end1:
	.size	__arm_cp.0_1, .Lcpi_end1-__arm_cp.0_1
__arm_cp.0_2:
	.long	USART0_Info.2
.Lcpi_end2:
	.size	__arm_cp.0_2, .Lcpi_end2-__arm_cp.0_2
__arm_cp.0_3:
	.long	USART0_Info.0
.Lcpi_end3:
	.size	__arm_cp.0_3, .Lcpi_end3-__arm_cp.0_3
.Lfunc_end0:
	.size	UART0RX_Handler, .Lfunc_end0-UART0RX_Handler
	.cfi_endproc
	.cantunwind
	.fnend
                                        @ -- End function
	.section	.text.UART0TX_Handler,"ax",%progbits
	.hidden	UART0TX_Handler                 @ -- Begin function UART0TX_Handler
	.globl	UART0TX_Handler
	.p2align	2
	.type	UART0TX_Handler,%function
	.code	16                              @ @UART0TX_Handler
	.thumb_func
UART0TX_Handler:
.Lfunc_begin1:
	.loc	4 792 0 is_stmt 1               @ C:/Users/dakum/AppData/Local/Arm/Packs/Keil/V2M-MPS2_IOTKit_BSP/1.5.1/CMSIS/Driver/USART_V2M-MPS2.c:792:0
	.fnstart
	.cfi_startproc
@ %bb.0:
	.save	{r4, r5, r7, lr}
	push	{r4, r5, r7, lr}
	.cfi_def_cfa_offset 16
	.cfi_offset lr, -4
	.cfi_offset r7, -8
	.cfi_offset r5, -12
	.cfi_offset r4, -16
	ldr	r4, __arm_cp.1_0
.Ltmp14:
	.loc	4 748 24 prologue_end           @ C:/Users/dakum/AppData/Local/Arm/Packs/Keil/V2M-MPS2_IOTKit_BSP/1.5.1/CMSIS/Driver/USART_V2M-MPS2.c:748:24
	ldr	r5, [r4, #4]
.Ltmp15:
	@DEBUG_VALUE: USARTTX_IRQHandler:status <- $r5
	.loc	4 749 20                        @ C:/Users/dakum/AppData/Local/Arm/Packs/Keil/V2M-MPS2_IOTKit_BSP/1.5.1/CMSIS/Driver/USART_V2M-MPS2.c:749:20
	ldr	r0, __arm_cp.1_1
	ldr	r1, [r0, #4]
.Ltmp16:
	.loc	4 749 7 is_stmt 0               @ C:/Users/dakum/AppData/Local/Arm/Packs/Keil/V2M-MPS2_IOTKit_BSP/1.5.1/CMSIS/Driver/USART_V2M-MPS2.c:749:7
	cbz	r1, .LBB1_5
.Ltmp17:
@ %bb.1:
	@DEBUG_VALUE: USARTTX_IRQHandler:status <- $r5
	.loc	4 751 24 is_stmt 1              @ C:/Users/dakum/AppData/Local/Arm/Packs/Keil/V2M-MPS2_IOTKit_BSP/1.5.1/CMSIS/Driver/USART_V2M-MPS2.c:751:24
	ldr	r2, [r0, #20]
	adds	r2, r2, #1
	str	r2, [r0, #20]
	.loc	4 753 9                         @ C:/Users/dakum/AppData/Local/Arm/Packs/Keil/V2M-MPS2_IOTKit_BSP/1.5.1/CMSIS/Driver/USART_V2M-MPS2.c:753:9
	cmp	r2, r1
	bhs	.LBB1_3
.Ltmp18:
@ %bb.2:
	@DEBUG_VALUE: USARTTX_IRQHandler:status <- $r5
	.loc	4 755 39                        @ C:/Users/dakum/AppData/Local/Arm/Packs/Keil/V2M-MPS2_IOTKit_BSP/1.5.1/CMSIS/Driver/USART_V2M-MPS2.c:755:39
	ldr	r0, [r0, #12]
	.loc	4 755 26 is_stmt 0              @ C:/Users/dakum/AppData/Local/Arm/Packs/Keil/V2M-MPS2_IOTKit_BSP/1.5.1/CMSIS/Driver/USART_V2M-MPS2.c:755:26
	ldrb	r0, [r0, r2]
	.loc	4 755 24                        @ C:/Users/dakum/AppData/Local/Arm/Packs/Keil/V2M-MPS2_IOTKit_BSP/1.5.1/CMSIS/Driver/USART_V2M-MPS2.c:755:24
	mov	r1, r4
	subs	r1, #8
	str	r0, [r1]
.Ltmp19:
	.loc	4 771 24 is_stmt 1              @ C:/Users/dakum/AppData/Local/Arm/Packs/Keil/V2M-MPS2_IOTKit_BSP/1.5.1/CMSIS/Driver/USART_V2M-MPS2.c:771:24
	str	r5, [r4, #4]
.Ltmp20:
	.loc	4 792 158                       @ C:/Users/dakum/AppData/Local/Arm/Packs/Keil/V2M-MPS2_IOTKit_BSP/1.5.1/CMSIS/Driver/USART_V2M-MPS2.c:792:158
	pop	{r4, r5, r7, pc}
.Ltmp21:
.LBB1_3:
	@DEBUG_VALUE: USARTTX_IRQHandler:status <- $r5
	.loc	4 759 35                        @ C:/Users/dakum/AppData/Local/Arm/Packs/Keil/V2M-MPS2_IOTKit_BSP/1.5.1/CMSIS/Driver/USART_V2M-MPS2.c:759:35
	ldr	r1, __arm_cp.1_2
	movs	r2, #0
	strb	r2, [r1]
	.loc	4 758 27                        @ C:/Users/dakum/AppData/Local/Arm/Packs/Keil/V2M-MPS2_IOTKit_BSP/1.5.1/CMSIS/Driver/USART_V2M-MPS2.c:758:27
	str	r2, [r0, #4]
	.loc	4 762 24                        @ C:/Users/dakum/AppData/Local/Arm/Packs/Keil/V2M-MPS2_IOTKit_BSP/1.5.1/CMSIS/Driver/USART_V2M-MPS2.c:762:24
	ldr	r0, [r4]
	movs	r1, #4
	bics	r0, r1
	str	r0, [r4]
.Ltmp22:
	.loc	4 765 24                        @ C:/Users/dakum/AppData/Local/Arm/Packs/Keil/V2M-MPS2_IOTKit_BSP/1.5.1/CMSIS/Driver/USART_V2M-MPS2.c:765:24
	ldr	r0, __arm_cp.1_3
	ldr	r1, [r0]
.Ltmp23:
	.loc	4 765 11 is_stmt 0              @ C:/Users/dakum/AppData/Local/Arm/Packs/Keil/V2M-MPS2_IOTKit_BSP/1.5.1/CMSIS/Driver/USART_V2M-MPS2.c:765:11
	cbz	r1, .LBB1_5
.Ltmp24:
@ %bb.4:
	@DEBUG_VALUE: USARTTX_IRQHandler:status <- $r5
	.loc	4 0 11                          @ C:/Users/dakum/AppData/Local/Arm/Packs/Keil/V2M-MPS2_IOTKit_BSP/1.5.1/CMSIS/Driver/USART_V2M-MPS2.c:0:11
	movs	r0, #1
.Ltmp25:
	.loc	4 766 9 is_stmt 1               @ C:/Users/dakum/AppData/Local/Arm/Packs/Keil/V2M-MPS2_IOTKit_BSP/1.5.1/CMSIS/Driver/USART_V2M-MPS2.c:766:9
	blx	r1
.Ltmp26:
.LBB1_5:
	@DEBUG_VALUE: USARTTX_IRQHandler:status <- $r5
	.loc	4 771 24                        @ C:/Users/dakum/AppData/Local/Arm/Packs/Keil/V2M-MPS2_IOTKit_BSP/1.5.1/CMSIS/Driver/USART_V2M-MPS2.c:771:24
	str	r5, [r4, #4]
.Ltmp27:
	.loc	4 792 158                       @ C:/Users/dakum/AppData/Local/Arm/Packs/Keil/V2M-MPS2_IOTKit_BSP/1.5.1/CMSIS/Driver/USART_V2M-MPS2.c:792:158
	pop	{r4, r5, r7, pc}
.Ltmp28:
	.p2align	2
@ %bb.6:
	.loc	4 0 158 is_stmt 0               @ C:/Users/dakum/AppData/Local/Arm/Packs/Keil/V2M-MPS2_IOTKit_BSP/1.5.1/CMSIS/Driver/USART_V2M-MPS2.c:0:158
__arm_cp.1_0:
	.long	1075838984                      @ 0x40200008
.Lcpi_end4:
	.size	__arm_cp.1_0, .Lcpi_end4-__arm_cp.1_0
__arm_cp.1_1:
	.long	USART0_TransferInfo
.Lcpi_end5:
	.size	__arm_cp.1_1, .Lcpi_end5-__arm_cp.1_1
__arm_cp.1_2:
	.long	USART0_Info.1
.Lcpi_end6:
	.size	__arm_cp.1_2, .Lcpi_end6-__arm_cp.1_2
__arm_cp.1_3:
	.long	USART0_Info.0
.Lcpi_end7:
	.size	__arm_cp.1_3, .Lcpi_end7-__arm_cp.1_3
.Lfunc_end1:
	.size	UART0TX_Handler, .Lfunc_end1-UART0TX_Handler
	.cfi_endproc
	.cantunwind
	.fnend
                                        @ -- End function
	.section	.text.USARTx_GetVersion,"ax",%progbits
	.p2align	2                               @ -- Begin function USARTx_GetVersion
	.type	USARTx_GetVersion,%function
	.code	16                              @ @USARTx_GetVersion
	.thumb_func
USARTx_GetVersion:
.Lfunc_begin2:
	.loc	4 295 0 is_stmt 1               @ C:/Users/dakum/AppData/Local/Arm/Packs/Keil/V2M-MPS2_IOTKit_BSP/1.5.1/CMSIS/Driver/USART_V2M-MPS2.c:295:0
	.fnstart
	.cfi_startproc
@ %bb.0:
	ldr	r0, __arm_cp.2_0
.Ltmp29:
	.loc	4 296 3 prologue_end            @ C:/Users/dakum/AppData/Local/Arm/Packs/Keil/V2M-MPS2_IOTKit_BSP/1.5.1/CMSIS/Driver/USART_V2M-MPS2.c:296:3
	bx	lr
.Ltmp30:
	.p2align	2
@ %bb.1:
	.loc	4 0 3 is_stmt 0                 @ C:/Users/dakum/AppData/Local/Arm/Packs/Keil/V2M-MPS2_IOTKit_BSP/1.5.1/CMSIS/Driver/USART_V2M-MPS2.c:0:3
__arm_cp.2_0:
	.long	16777732                        @ 0x1000204
.Lcpi_end8:
	.size	__arm_cp.2_0, .Lcpi_end8-__arm_cp.2_0
.Lfunc_end2:
	.size	USARTx_GetVersion, .Lfunc_end2-USARTx_GetVersion
	.cfi_endproc
	.cantunwind
	.fnend
                                        @ -- End function
	.section	.text.USART0_GetCapabilities,"ax",%progbits
	.p2align	2                               @ -- Begin function USART0_GetCapabilities
	.type	USART0_GetCapabilities,%function
	.code	16                              @ @USART0_GetCapabilities
	.thumb_func
USART0_GetCapabilities:
.Lfunc_begin3:
	.loc	4 778 0 is_stmt 1               @ C:/Users/dakum/AppData/Local/Arm/Packs/Keil/V2M-MPS2_IOTKit_BSP/1.5.1/CMSIS/Driver/USART_V2M-MPS2.c:778:0
	.fnstart
	.cfi_startproc
@ %bb.0:
	ldr	r0, __arm_cp.3_0
.Ltmp31:
	.loc	4 778 111 prologue_end          @ C:/Users/dakum/AppData/Local/Arm/Packs/Keil/V2M-MPS2_IOTKit_BSP/1.5.1/CMSIS/Driver/USART_V2M-MPS2.c:778:111
	bx	lr
.Ltmp32:
	.p2align	2
@ %bb.1:
	.loc	4 0 111 is_stmt 0               @ C:/Users/dakum/AppData/Local/Arm/Packs/Keil/V2M-MPS2_IOTKit_BSP/1.5.1/CMSIS/Driver/USART_V2M-MPS2.c:0:111
__arm_cp.3_0:
	.long	1537                            @ 0x601
.Lcpi_end9:
	.size	__arm_cp.3_0, .Lcpi_end9-__arm_cp.3_0
.Lfunc_end3:
	.size	USART0_GetCapabilities, .Lfunc_end3-USART0_GetCapabilities
	.cfi_endproc
	.cantunwind
	.fnend
                                        @ -- End function
	.section	.text.USART0_Initialize,"ax",%progbits
	.p2align	2                               @ -- Begin function USART0_Initialize
	.type	USART0_Initialize,%function
	.code	16                              @ @USART0_Initialize
	.thumb_func
USART0_Initialize:
.Lfunc_begin4:
	.loc	4 779 0 is_stmt 1               @ C:/Users/dakum/AppData/Local/Arm/Packs/Keil/V2M-MPS2_IOTKit_BSP/1.5.1/CMSIS/Driver/USART_V2M-MPS2.c:779:0
	.fnstart
	.cfi_startproc
@ %bb.0:
	@DEBUG_VALUE: USART0_Initialize:cb_event <- $r0
	@DEBUG_VALUE: USART_Initialize:cb_event <- $r0
	.save	{r4, lr}
	push	{r4, lr}
	.cfi_def_cfa_offset 8
	.cfi_offset lr, -4
	.cfi_offset r4, -8
.Ltmp33:
	.loc	4 320 20 prologue_end           @ C:/Users/dakum/AppData/Local/Arm/Packs/Keil/V2M-MPS2_IOTKit_BSP/1.5.1/CMSIS/Driver/USART_V2M-MPS2.c:320:20
	ldr	r1, __arm_cp.4_0
	ldrb	r2, [r1]
.Ltmp34:
	.loc	4 320 7 is_stmt 0               @ C:/Users/dakum/AppData/Local/Arm/Packs/Keil/V2M-MPS2_IOTKit_BSP/1.5.1/CMSIS/Driver/USART_V2M-MPS2.c:320:7
	lsls	r2, r2, #31
	bne	.LBB4_2
.Ltmp35:
@ %bb.1:
	@DEBUG_VALUE: USART_Initialize:cb_event <- $r0
	@DEBUG_VALUE: USART0_Initialize:cb_event <- $r0
	.loc	4 329 3 is_stmt 1               @ C:/Users/dakum/AppData/Local/Arm/Packs/Keil/V2M-MPS2_IOTKit_BSP/1.5.1/CMSIS/Driver/USART_V2M-MPS2.c:329:3
	ldr	r2, __arm_cp.4_1
	movs	r3, #0
	str	r3, [r2]
	str	r3, [r2, #4]
	str	r3, [r2, #8]
	str	r3, [r2, #12]
	str	r3, [r2, #16]
	str	r3, [r2, #20]
	ldr	r2, __arm_cp.4_2
	.loc	4 332 43                        @ C:/Users/dakum/AppData/Local/Arm/Packs/Keil/V2M-MPS2_IOTKit_BSP/1.5.1/CMSIS/Driver/USART_V2M-MPS2.c:332:43
	ldr	r3, [r2]
	movs	r4, #1
	orrs	r3, r4
	str	r3, [r2]
	.loc	4 326 25                        @ C:/Users/dakum/AppData/Local/Arm/Packs/Keil/V2M-MPS2_IOTKit_BSP/1.5.1/CMSIS/Driver/USART_V2M-MPS2.c:326:25
	ldr	r3, __arm_cp.4_3
	str	r0, [r3]
	.loc	4 335 22                        @ C:/Users/dakum/AppData/Local/Arm/Packs/Keil/V2M-MPS2_IOTKit_BSP/1.5.1/CMSIS/Driver/USART_V2M-MPS2.c:335:22
	strb	r4, [r1]
	.loc	4 333 43                        @ C:/Users/dakum/AppData/Local/Arm/Packs/Keil/V2M-MPS2_IOTKit_BSP/1.5.1/CMSIS/Driver/USART_V2M-MPS2.c:333:43
	ldr	r0, [r2]
.Ltmp36:
	@DEBUG_VALUE: USART0_Initialize:cb_event <- [DW_OP_LLVM_entry_value 1] $r0
	.loc	4 0 43 is_stmt 0                @ C:/Users/dakum/AppData/Local/Arm/Packs/Keil/V2M-MPS2_IOTKit_BSP/1.5.1/CMSIS/Driver/USART_V2M-MPS2.c:0:43
	movs	r1, #2
	.loc	4 333 43                        @ C:/Users/dakum/AppData/Local/Arm/Packs/Keil/V2M-MPS2_IOTKit_BSP/1.5.1/CMSIS/Driver/USART_V2M-MPS2.c:333:43
	orrs	r1, r0
	str	r1, [r2]
.Ltmp37:
.LBB4_2:
	.loc	4 0 43                          @ C:/Users/dakum/AppData/Local/Arm/Packs/Keil/V2M-MPS2_IOTKit_BSP/1.5.1/CMSIS/Driver/USART_V2M-MPS2.c:0:43
	movs	r0, #0
	.loc	4 779 111 is_stmt 1             @ C:/Users/dakum/AppData/Local/Arm/Packs/Keil/V2M-MPS2_IOTKit_BSP/1.5.1/CMSIS/Driver/USART_V2M-MPS2.c:779:111
	pop	{r4, pc}
.Ltmp38:
	.p2align	2
@ %bb.3:
	.loc	4 0 111 is_stmt 0               @ C:/Users/dakum/AppData/Local/Arm/Packs/Keil/V2M-MPS2_IOTKit_BSP/1.5.1/CMSIS/Driver/USART_V2M-MPS2.c:0:111
__arm_cp.4_0:
	.long	USART0_Info.4
.Lcpi_end10:
	.size	__arm_cp.4_0, .Lcpi_end10-__arm_cp.4_0
__arm_cp.4_1:
	.long	USART0_TransferInfo
.Lcpi_end11:
	.size	__arm_cp.4_1, .Lcpi_end11-__arm_cp.4_1
__arm_cp.4_2:
	.long	1074794520                      @ 0x40101018
.Lcpi_end12:
	.size	__arm_cp.4_2, .Lcpi_end12-__arm_cp.4_2
__arm_cp.4_3:
	.long	USART0_Info.0
.Lcpi_end13:
	.size	__arm_cp.4_3, .Lcpi_end13-__arm_cp.4_3
.Lfunc_end4:
	.size	USART0_Initialize, .Lfunc_end4-USART0_Initialize
	.cfi_endproc
	.cantunwind
	.fnend
                                        @ -- End function
	.section	.text.USART0_Uninitialize,"ax",%progbits
	.p2align	2                               @ -- Begin function USART0_Uninitialize
	.type	USART0_Uninitialize,%function
	.code	16                              @ @USART0_Uninitialize
	.thumb_func
USART0_Uninitialize:
.Lfunc_begin5:
	.loc	4 780 0 is_stmt 1               @ C:/Users/dakum/AppData/Local/Arm/Packs/Keil/V2M-MPS2_IOTKit_BSP/1.5.1/CMSIS/Driver/USART_V2M-MPS2.c:780:0
	.fnstart
	.cfi_startproc
@ %bb.0:
	ldr	r1, __arm_cp.5_0
.Ltmp39:
	.loc	4 349 43 prologue_end           @ C:/Users/dakum/AppData/Local/Arm/Packs/Keil/V2M-MPS2_IOTKit_BSP/1.5.1/CMSIS/Driver/USART_V2M-MPS2.c:349:43
	ldr	r0, [r1]
	movs	r2, #1
	bics	r0, r2
	str	r0, [r1]
	.loc	4 352 22                        @ C:/Users/dakum/AppData/Local/Arm/Packs/Keil/V2M-MPS2_IOTKit_BSP/1.5.1/CMSIS/Driver/USART_V2M-MPS2.c:352:22
	ldr	r2, __arm_cp.5_1
	movs	r0, #0
	strb	r0, [r2]
	.loc	4 350 43                        @ C:/Users/dakum/AppData/Local/Arm/Packs/Keil/V2M-MPS2_IOTKit_BSP/1.5.1/CMSIS/Driver/USART_V2M-MPS2.c:350:43
	ldr	r2, [r1]
	movs	r3, #2
	bics	r2, r3
	str	r2, [r1]
.Ltmp40:
	.loc	4 780 111                       @ C:/Users/dakum/AppData/Local/Arm/Packs/Keil/V2M-MPS2_IOTKit_BSP/1.5.1/CMSIS/Driver/USART_V2M-MPS2.c:780:111
	bx	lr
.Ltmp41:
	.p2align	2
@ %bb.1:
	.loc	4 0 111 is_stmt 0               @ C:/Users/dakum/AppData/Local/Arm/Packs/Keil/V2M-MPS2_IOTKit_BSP/1.5.1/CMSIS/Driver/USART_V2M-MPS2.c:0:111
__arm_cp.5_0:
	.long	1074794520                      @ 0x40101018
.Lcpi_end14:
	.size	__arm_cp.5_0, .Lcpi_end14-__arm_cp.5_0
__arm_cp.5_1:
	.long	USART0_Info.4
.Lcpi_end15:
	.size	__arm_cp.5_1, .Lcpi_end15-__arm_cp.5_1
.Lfunc_end5:
	.size	USART0_Uninitialize, .Lfunc_end5-USART0_Uninitialize
	.cfi_endproc
	.cantunwind
	.fnend
                                        @ -- End function
	.section	.text.USART0_PowerControl,"ax",%progbits
	.p2align	2                               @ -- Begin function USART0_PowerControl
	.type	USART0_PowerControl,%function
	.code	16                              @ @USART0_PowerControl
	.thumb_func
USART0_PowerControl:
.Lfunc_begin6:
	.loc	4 781 0 is_stmt 1               @ C:/Users/dakum/AppData/Local/Arm/Packs/Keil/V2M-MPS2_IOTKit_BSP/1.5.1/CMSIS/Driver/USART_V2M-MPS2.c:781:0
	.fnstart
	.cfi_startproc
@ %bb.0:
	@DEBUG_VALUE: USART0_PowerControl:state <- $r0
	.save	{r4, lr}
	push	{r4, lr}
	.cfi_def_cfa_offset 8
	.cfi_offset lr, -4
	.cfi_offset r4, -8
	mov	r1, r0
.Ltmp42:
	@DEBUG_VALUE: USART0_PowerControl:state <- $r1
	movs	r2, #3
	mvns	r0, r2
.Ltmp43:
	@DEBUG_VALUE: USART_PowerControl:state <- $r1
	.loc	4 367 3 prologue_end            @ C:/Users/dakum/AppData/Local/Arm/Packs/Keil/V2M-MPS2_IOTKit_BSP/1.5.1/CMSIS/Driver/USART_V2M-MPS2.c:367:3
	cmp	r1, #2
	beq	.LBB6_4
.Ltmp44:
@ %bb.1:
	@DEBUG_VALUE: USART_PowerControl:state <- $r1
	@DEBUG_VALUE: USART0_PowerControl:state <- $r1
	cmp	r1, #1
	beq	.LBB6_9
.Ltmp45:
@ %bb.2:
	@DEBUG_VALUE: USART_PowerControl:state <- $r1
	@DEBUG_VALUE: USART0_PowerControl:state <- $r1
	cbnz	r1, .LBB6_8
.Ltmp46:
@ %bb.3:
	@DEBUG_VALUE: USART_PowerControl:state <- $r1
	@DEBUG_VALUE: USART0_PowerControl:state <- $r1
	.loc	4 0 3 is_stmt 0                 @ C:/Users/dakum/AppData/Local/Arm/Packs/Keil/V2M-MPS2_IOTKit_BSP/1.5.1/CMSIS/Driver/USART_V2M-MPS2.c:0:3
	ldr	r0, __arm_cp.6_5
	movs	r1, #1
.Ltmp47:
	@DEBUG_VALUE: __NVIC_DisableIRQ:IRQn <- 32
	.loc	7 1413 43 is_stmt 1             @ C:/Users/dakum/AppData/Local/Arm/Packs/ARM/CMSIS/6.0.0/CMSIS/Core/Include\core_cm23.h:1413:43
	str	r1, [r0]
.Ltmp48:
	.loc	4 370 26                        @ C:/Users/dakum/AppData/Local/Arm/Packs/Keil/V2M-MPS2_IOTKit_BSP/1.5.1/CMSIS/Driver/USART_V2M-MPS2.c:370:26
	ldr	r2, __arm_cp.6_0
	ldrb	r3, [r2]
	movs	r4, #253
	ands	r4, r3
	strb	r4, [r2]
.Ltmp49:
	.loc	7 1414 5                        @ C:/Users/dakum/AppData/Local/Arm/Packs/ARM/CMSIS/6.0.0/CMSIS/Core/Include\core_cm23.h:1414:5
	dsb	sy
	@DEBUG_VALUE: __NVIC_DisableIRQ:IRQn <- 32
	.loc	7 1415 5                        @ C:/Users/dakum/AppData/Local/Arm/Packs/ARM/CMSIS/6.0.0/CMSIS/Core/Include\core_cm23.h:1415:5
	isb	sy
	ldr	r2, __arm_cp.6_3
.Ltmp50:
	@DEBUG_VALUE: __NVIC_ClearPendingIRQ:IRQn <- 32
	.loc	7 1466 43                       @ C:/Users/dakum/AppData/Local/Arm/Packs/ARM/CMSIS/6.0.0/CMSIS/Core/Include\core_cm23.h:1466:43
	str	r1, [r2]
	movs	r1, #2
.Ltmp51:
	@DEBUG_VALUE: __NVIC_DisableIRQ:IRQn <- 33
	.loc	7 1413 43                       @ C:/Users/dakum/AppData/Local/Arm/Packs/ARM/CMSIS/6.0.0/CMSIS/Core/Include\core_cm23.h:1413:43
	str	r1, [r0]
	.loc	7 1414 5                        @ C:/Users/dakum/AppData/Local/Arm/Packs/ARM/CMSIS/6.0.0/CMSIS/Core/Include\core_cm23.h:1414:5
	dsb	sy
	.loc	7 1415 5                        @ C:/Users/dakum/AppData/Local/Arm/Packs/ARM/CMSIS/6.0.0/CMSIS/Core/Include\core_cm23.h:1415:5
	isb	sy
.Ltmp52:
	@DEBUG_VALUE: __NVIC_ClearPendingIRQ:IRQn <- 33
	.loc	7 1466 43                       @ C:/Users/dakum/AppData/Local/Arm/Packs/ARM/CMSIS/6.0.0/CMSIS/Core/Include\core_cm23.h:1466:43
	str	r1, [r2]
	b	.LBB6_8
.Ltmp53:
.LBB6_4:
	@DEBUG_VALUE: USART_PowerControl:state <- $r1
	@DEBUG_VALUE: USART0_PowerControl:state <- $r1
	.loc	4 383 25                        @ C:/Users/dakum/AppData/Local/Arm/Packs/Keil/V2M-MPS2_IOTKit_BSP/1.5.1/CMSIS/Driver/USART_V2M-MPS2.c:383:25
	ldr	r1, __arm_cp.6_0
.Ltmp54:
	ldrb	r3, [r1]
.Ltmp55:
	.loc	4 383 11 is_stmt 0              @ C:/Users/dakum/AppData/Local/Arm/Packs/Keil/V2M-MPS2_IOTKit_BSP/1.5.1/CMSIS/Driver/USART_V2M-MPS2.c:383:11
	lsls	r4, r3, #31
	bne	.LBB6_6
.Ltmp56:
@ %bb.5:
	.loc	4 0 11                          @ C:/Users/dakum/AppData/Local/Arm/Packs/Keil/V2M-MPS2_IOTKit_BSP/1.5.1/CMSIS/Driver/USART_V2M-MPS2.c:0:11
	adds	r0, r0, #3
	.loc	4 781 111 is_stmt 1             @ C:/Users/dakum/AppData/Local/Arm/Packs/Keil/V2M-MPS2_IOTKit_BSP/1.5.1/CMSIS/Driver/USART_V2M-MPS2.c:781:111
	pop	{r4, pc}
.LBB6_6:
.Ltmp57:
	.loc	4 386 11                        @ C:/Users/dakum/AppData/Local/Arm/Packs/Keil/V2M-MPS2_IOTKit_BSP/1.5.1/CMSIS/Driver/USART_V2M-MPS2.c:386:11
	lsls	r0, r3, #30
	bmi	.LBB6_10
@ %bb.7:
	.loc	4 392 41                        @ C:/Users/dakum/AppData/Local/Arm/Packs/Keil/V2M-MPS2_IOTKit_BSP/1.5.1/CMSIS/Driver/USART_V2M-MPS2.c:392:41
	ldr	r0, __arm_cp.6_1
	movs	r3, #0
	strb	r3, [r0]
	.loc	4 391 41                        @ C:/Users/dakum/AppData/Local/Arm/Packs/Keil/V2M-MPS2_IOTKit_BSP/1.5.1/CMSIS/Driver/USART_V2M-MPS2.c:391:41
	ldr	r0, __arm_cp.6_2
	strb	r3, [r0]
	.loc	4 396 26                        @ C:/Users/dakum/AppData/Local/Arm/Packs/Keil/V2M-MPS2_IOTKit_BSP/1.5.1/CMSIS/Driver/USART_V2M-MPS2.c:396:26
	strb	r2, [r1]
	ldr	r0, __arm_cp.6_3
	movs	r1, #1
.Ltmp58:
	@DEBUG_VALUE: __NVIC_ClearPendingIRQ:IRQn <- 32
	.loc	7 1466 43                       @ C:/Users/dakum/AppData/Local/Arm/Packs/ARM/CMSIS/6.0.0/CMSIS/Core/Include\core_cm23.h:1466:43
	str	r1, [r0]
.Ltmp59:
	@DEBUG_VALUE: __NVIC_EnableIRQ:IRQn <- 32
	.loc	7 1375 5                        @ C:/Users/dakum/AppData/Local/Arm/Packs/ARM/CMSIS/6.0.0/CMSIS/Core/Include\core_cm23.h:1375:5
	@APP
	@NO_APP
	ldr	r2, __arm_cp.6_4
	.loc	7 1376 43                       @ C:/Users/dakum/AppData/Local/Arm/Packs/ARM/CMSIS/6.0.0/CMSIS/Core/Include\core_cm23.h:1376:43
	str	r1, [r2]
	.loc	7 1377 5                        @ C:/Users/dakum/AppData/Local/Arm/Packs/ARM/CMSIS/6.0.0/CMSIS/Core/Include\core_cm23.h:1377:5
	@APP
	@NO_APP
	movs	r1, #2
.Ltmp60:
	@DEBUG_VALUE: __NVIC_ClearPendingIRQ:IRQn <- 33
	.loc	7 1466 43                       @ C:/Users/dakum/AppData/Local/Arm/Packs/ARM/CMSIS/6.0.0/CMSIS/Core/Include\core_cm23.h:1466:43
	str	r1, [r0]
.Ltmp61:
	@DEBUG_VALUE: __NVIC_EnableIRQ:IRQn <- 33
	.loc	7 1375 5                        @ C:/Users/dakum/AppData/Local/Arm/Packs/ARM/CMSIS/6.0.0/CMSIS/Core/Include\core_cm23.h:1375:5
	@APP
	@NO_APP
	.loc	7 1376 43                       @ C:/Users/dakum/AppData/Local/Arm/Packs/ARM/CMSIS/6.0.0/CMSIS/Core/Include\core_cm23.h:1376:43
	str	r1, [r2]
	.loc	7 1377 5                        @ C:/Users/dakum/AppData/Local/Arm/Packs/ARM/CMSIS/6.0.0/CMSIS/Core/Include\core_cm23.h:1377:5
	@APP
	@NO_APP
.Ltmp62:
.LBB6_8:
	.loc	7 0 5 is_stmt 0                 @ C:/Users/dakum/AppData/Local/Arm/Packs/ARM/CMSIS/6.0.0/CMSIS/Core/Include\core_cm23.h:0:5
	movs	r0, #0
.LBB6_9:
	.loc	4 781 111 is_stmt 1             @ C:/Users/dakum/AppData/Local/Arm/Packs/Keil/V2M-MPS2_IOTKit_BSP/1.5.1/CMSIS/Driver/USART_V2M-MPS2.c:781:111
	pop	{r4, pc}
.LBB6_10:
	.loc	4 0 111 is_stmt 0               @ C:/Users/dakum/AppData/Local/Arm/Packs/Keil/V2M-MPS2_IOTKit_BSP/1.5.1/CMSIS/Driver/USART_V2M-MPS2.c:0:111
	movs	r0, #0
	.loc	4 781 111                       @ C:/Users/dakum/AppData/Local/Arm/Packs/Keil/V2M-MPS2_IOTKit_BSP/1.5.1/CMSIS/Driver/USART_V2M-MPS2.c:781:111
	pop	{r4, pc}
.Ltmp63:
	.p2align	2
@ %bb.11:
	.loc	4 0 111                         @ C:/Users/dakum/AppData/Local/Arm/Packs/Keil/V2M-MPS2_IOTKit_BSP/1.5.1/CMSIS/Driver/USART_V2M-MPS2.c:0:111
__arm_cp.6_0:
	.long	USART0_Info.4
.Lcpi_end16:
	.size	__arm_cp.6_0, .Lcpi_end16-__arm_cp.6_0
__arm_cp.6_1:
	.long	USART0_Info.2
.Lcpi_end17:
	.size	__arm_cp.6_1, .Lcpi_end17-__arm_cp.6_1
__arm_cp.6_2:
	.long	USART0_Info.1
.Lcpi_end18:
	.size	__arm_cp.6_2, .Lcpi_end18-__arm_cp.6_2
__arm_cp.6_3:
	.long	3758154372                      @ 0xe000e284
.Lcpi_end19:
	.size	__arm_cp.6_3, .Lcpi_end19-__arm_cp.6_3
__arm_cp.6_4:
	.long	3758153988                      @ 0xe000e104
.Lcpi_end20:
	.size	__arm_cp.6_4, .Lcpi_end20-__arm_cp.6_4
__arm_cp.6_5:
	.long	3758154116                      @ 0xe000e184
.Lcpi_end21:
	.size	__arm_cp.6_5, .Lcpi_end21-__arm_cp.6_5
.Lfunc_end6:
	.size	USART0_PowerControl, .Lfunc_end6-USART0_PowerControl
	.cfi_endproc
	.cantunwind
	.fnend
                                        @ -- End function
	.section	.text.USART0_Send,"ax",%progbits
	.p2align	2                               @ -- Begin function USART0_Send
	.type	USART0_Send,%function
	.code	16                              @ @USART0_Send
	.thumb_func
USART0_Send:
.Lfunc_begin7:
	.loc	4 782 0 is_stmt 1               @ C:/Users/dakum/AppData/Local/Arm/Packs/Keil/V2M-MPS2_IOTKit_BSP/1.5.1/CMSIS/Driver/USART_V2M-MPS2.c:782:0
	.fnstart
	.cfi_startproc
@ %bb.0:
	@DEBUG_VALUE: USART0_Send:data <- $r0
	@DEBUG_VALUE: USART0_Send:num <- $r1
	@DEBUG_VALUE: USART_Send:num <- undef
	.save	{r4, r5, r6, lr}
	push	{r4, r5, r6, lr}
	.cfi_def_cfa_offset 16
	.cfi_offset lr, -4
	.cfi_offset r6, -8
	.cfi_offset r5, -12
	.cfi_offset r4, -16
	movs	r3, #1
	mvns	r4, r3
.Ltmp64:
	@DEBUG_VALUE: USART_Send:data <- $r0
	.loc	4 0 0 is_stmt 0                 @ C:/Users/dakum/AppData/Local/Arm/Packs/Keil/V2M-MPS2_IOTKit_BSP/1.5.1/CMSIS/Driver/USART_V2M-MPS2.c:0:0
	subs	r2, r4, #3
.Ltmp65:
	.loc	4 424 22 prologue_end is_stmt 1 @ C:/Users/dakum/AppData/Local/Arm/Packs/Keil/V2M-MPS2_IOTKit_BSP/1.5.1/CMSIS/Driver/USART_V2M-MPS2.c:424:22
	cbz	r0, .LBB7_8
.Ltmp66:
@ %bb.1:
	@DEBUG_VALUE: USART_Send:data <- $r0
	@DEBUG_VALUE: USART0_Send:num <- $r1
	@DEBUG_VALUE: USART0_Send:data <- $r0
	cbz	r1, .LBB7_8
.Ltmp67:
@ %bb.2:
	@DEBUG_VALUE: USART_Send:data <- $r0
	@DEBUG_VALUE: USART0_Send:num <- $r1
	@DEBUG_VALUE: USART0_Send:data <- $r0
	.loc	4 429 21                        @ C:/Users/dakum/AppData/Local/Arm/Packs/Keil/V2M-MPS2_IOTKit_BSP/1.5.1/CMSIS/Driver/USART_V2M-MPS2.c:429:21
	ldr	r2, __arm_cp.7_0
	ldrb	r2, [r2]
.Ltmp68:
	.loc	4 429 7 is_stmt 0               @ C:/Users/dakum/AppData/Local/Arm/Packs/Keil/V2M-MPS2_IOTKit_BSP/1.5.1/CMSIS/Driver/USART_V2M-MPS2.c:429:7
	lsls	r2, r2, #29
	bmi	.LBB7_4
.Ltmp69:
@ %bb.3:
	@DEBUG_VALUE: USART0_Send:num <- $r1
	@DEBUG_VALUE: USART0_Send:data <- $r0
	.loc	4 0 7                           @ C:/Users/dakum/AppData/Local/Arm/Packs/Keil/V2M-MPS2_IOTKit_BSP/1.5.1/CMSIS/Driver/USART_V2M-MPS2.c:0:7
	adds	r0, r4, #1
.Ltmp70:
	@DEBUG_VALUE: USART0_Send:data <- [DW_OP_LLVM_entry_value 1] $r0
	.loc	4 782 111 is_stmt 1             @ C:/Users/dakum/AppData/Local/Arm/Packs/Keil/V2M-MPS2_IOTKit_BSP/1.5.1/CMSIS/Driver/USART_V2M-MPS2.c:782:111
	pop	{r4, r5, r6, pc}
.Ltmp71:
.LBB7_4:
	@DEBUG_VALUE: USART_Send:data <- $r0
	@DEBUG_VALUE: USART0_Send:num <- $r1
	@DEBUG_VALUE: USART0_Send:data <- $r0
	.loc	4 434 28                        @ C:/Users/dakum/AppData/Local/Arm/Packs/Keil/V2M-MPS2_IOTKit_BSP/1.5.1/CMSIS/Driver/USART_V2M-MPS2.c:434:28
	ldr	r6, __arm_cp.7_1
	ldrb	r2, [r6]
	.loc	4 434 43 is_stmt 0              @ C:/Users/dakum/AppData/Local/Arm/Packs/Keil/V2M-MPS2_IOTKit_BSP/1.5.1/CMSIS/Driver/USART_V2M-MPS2.c:434:43
	cbz	r2, .LBB7_6
.Ltmp72:
@ %bb.5:
	@DEBUG_VALUE: USART0_Send:num <- $r1
	@DEBUG_VALUE: USART0_Send:data <- $r0
	.loc	4 782 111 is_stmt 1             @ C:/Users/dakum/AppData/Local/Arm/Packs/Keil/V2M-MPS2_IOTKit_BSP/1.5.1/CMSIS/Driver/USART_V2M-MPS2.c:782:111
	mov	r0, r4
.Ltmp73:
	@DEBUG_VALUE: USART0_Send:data <- [DW_OP_LLVM_entry_value 1] $r0
	pop	{r4, r5, r6, pc}
.Ltmp74:
.LBB7_6:
	@DEBUG_VALUE: USART_Send:data <- $r0
	@DEBUG_VALUE: USART0_Send:num <- $r1
	@DEBUG_VALUE: USART0_Send:data <- $r0
	.loc	4 0 111 is_stmt 0               @ C:/Users/dakum/AppData/Local/Arm/Packs/Keil/V2M-MPS2_IOTKit_BSP/1.5.1/CMSIS/Driver/USART_V2M-MPS2.c:0:111
	ldr	r5, __arm_cp.7_2
.Ltmp75:
	.loc	4 435 20 is_stmt 1              @ C:/Users/dakum/AppData/Local/Arm/Packs/Keil/V2M-MPS2_IOTKit_BSP/1.5.1/CMSIS/Driver/USART_V2M-MPS2.c:435:20
	subs	r2, r5, #4
	ldr	r2, [r2]
.Ltmp76:
	.loc	4 434 7                         @ C:/Users/dakum/AppData/Local/Arm/Packs/Keil/V2M-MPS2_IOTKit_BSP/1.5.1/CMSIS/Driver/USART_V2M-MPS2.c:434:7
	lsls	r2, r2, #31
	mov	r2, r4
	bne	.LBB7_8
.Ltmp77:
@ %bb.7:
	@DEBUG_VALUE: USART_Send:data <- $r0
	@DEBUG_VALUE: USART0_Send:num <- $r1
	@DEBUG_VALUE: USART0_Send:data <- $r0
	.loc	4 441 31                        @ C:/Users/dakum/AppData/Local/Arm/Packs/Keil/V2M-MPS2_IOTKit_BSP/1.5.1/CMSIS/Driver/USART_V2M-MPS2.c:441:31
	strb	r3, [r6]
	.loc	4 444 23                        @ C:/Users/dakum/AppData/Local/Arm/Packs/Keil/V2M-MPS2_IOTKit_BSP/1.5.1/CMSIS/Driver/USART_V2M-MPS2.c:444:23
	ldr	r3, __arm_cp.7_3
	str	r0, [r3, #12]
	movs	r2, #0
	.loc	4 446 23                        @ C:/Users/dakum/AppData/Local/Arm/Packs/Keil/V2M-MPS2_IOTKit_BSP/1.5.1/CMSIS/Driver/USART_V2M-MPS2.c:446:23
	str	r2, [r3, #20]
	.loc	4 445 23                        @ C:/Users/dakum/AppData/Local/Arm/Packs/Keil/V2M-MPS2_IOTKit_BSP/1.5.1/CMSIS/Driver/USART_V2M-MPS2.c:445:23
	str	r1, [r3, #4]
	.loc	4 449 20                        @ C:/Users/dakum/AppData/Local/Arm/Packs/Keil/V2M-MPS2_IOTKit_BSP/1.5.1/CMSIS/Driver/USART_V2M-MPS2.c:449:20
	ldr	r1, [r5]
.Ltmp78:
	@DEBUG_VALUE: USART0_Send:num <- [DW_OP_LLVM_entry_value 1] $r1
	.loc	4 0 20 is_stmt 0                @ C:/Users/dakum/AppData/Local/Arm/Packs/Keil/V2M-MPS2_IOTKit_BSP/1.5.1/CMSIS/Driver/USART_V2M-MPS2.c:0:20
	movs	r3, #4
	.loc	4 449 20                        @ C:/Users/dakum/AppData/Local/Arm/Packs/Keil/V2M-MPS2_IOTKit_BSP/1.5.1/CMSIS/Driver/USART_V2M-MPS2.c:449:20
	orrs	r3, r1
	str	r3, [r5]
	.loc	4 452 20 is_stmt 1              @ C:/Users/dakum/AppData/Local/Arm/Packs/Keil/V2M-MPS2_IOTKit_BSP/1.5.1/CMSIS/Driver/USART_V2M-MPS2.c:452:20
	subs	r5, #8
	.loc	4 452 22 is_stmt 0              @ C:/Users/dakum/AppData/Local/Arm/Packs/Keil/V2M-MPS2_IOTKit_BSP/1.5.1/CMSIS/Driver/USART_V2M-MPS2.c:452:22
	ldrb	r0, [r0]
.Ltmp79:
	@DEBUG_VALUE: USART0_Send:data <- [DW_OP_LLVM_entry_value 1] $r0
	.loc	4 452 20                        @ C:/Users/dakum/AppData/Local/Arm/Packs/Keil/V2M-MPS2_IOTKit_BSP/1.5.1/CMSIS/Driver/USART_V2M-MPS2.c:452:20
	str	r0, [r5]
.Ltmp80:
.LBB7_8:
	.loc	4 782 111 is_stmt 1             @ C:/Users/dakum/AppData/Local/Arm/Packs/Keil/V2M-MPS2_IOTKit_BSP/1.5.1/CMSIS/Driver/USART_V2M-MPS2.c:782:111
	mov	r0, r2
	pop	{r4, r5, r6, pc}
.Ltmp81:
	.p2align	2
@ %bb.9:
	.loc	4 0 111 is_stmt 0               @ C:/Users/dakum/AppData/Local/Arm/Packs/Keil/V2M-MPS2_IOTKit_BSP/1.5.1/CMSIS/Driver/USART_V2M-MPS2.c:0:111
__arm_cp.7_0:
	.long	USART0_Info.4
.Lcpi_end22:
	.size	__arm_cp.7_0, .Lcpi_end22-__arm_cp.7_0
__arm_cp.7_1:
	.long	USART0_Info.1
.Lcpi_end23:
	.size	__arm_cp.7_1, .Lcpi_end23-__arm_cp.7_1
__arm_cp.7_2:
	.long	1075838984                      @ 0x40200008
.Lcpi_end24:
	.size	__arm_cp.7_2, .Lcpi_end24-__arm_cp.7_2
__arm_cp.7_3:
	.long	USART0_TransferInfo
.Lcpi_end25:
	.size	__arm_cp.7_3, .Lcpi_end25-__arm_cp.7_3
.Lfunc_end7:
	.size	USART0_Send, .Lfunc_end7-USART0_Send
	.cfi_endproc
	.cantunwind
	.fnend
                                        @ -- End function
	.section	.text.USART0_Receive,"ax",%progbits
	.p2align	2                               @ -- Begin function USART0_Receive
	.type	USART0_Receive,%function
	.code	16                              @ @USART0_Receive
	.thumb_func
USART0_Receive:
.Lfunc_begin8:
	.loc	4 783 0 is_stmt 1               @ C:/Users/dakum/AppData/Local/Arm/Packs/Keil/V2M-MPS2_IOTKit_BSP/1.5.1/CMSIS/Driver/USART_V2M-MPS2.c:783:0
	.fnstart
	.cfi_startproc
@ %bb.0:
	@DEBUG_VALUE: USART0_Receive:data <- $r0
	@DEBUG_VALUE: USART0_Receive:num <- $r1
	@DEBUG_VALUE: USART_Receive:num <- undef
	.save	{r4, r5, r6, lr}
	push	{r4, r5, r6, lr}
	.cfi_def_cfa_offset 16
	.cfi_offset lr, -4
	.cfi_offset r6, -8
	.cfi_offset r5, -12
	.cfi_offset r4, -16
	movs	r3, #1
	mvns	r4, r3
.Ltmp82:
	@DEBUG_VALUE: USART_Receive:data <- $r0
	.loc	4 0 0 is_stmt 0                 @ C:/Users/dakum/AppData/Local/Arm/Packs/Keil/V2M-MPS2_IOTKit_BSP/1.5.1/CMSIS/Driver/USART_V2M-MPS2.c:0:0
	subs	r2, r4, #3
.Ltmp83:
	.loc	4 471 22 prologue_end is_stmt 1 @ C:/Users/dakum/AppData/Local/Arm/Packs/Keil/V2M-MPS2_IOTKit_BSP/1.5.1/CMSIS/Driver/USART_V2M-MPS2.c:471:22
	cbz	r0, .LBB8_8
.Ltmp84:
@ %bb.1:
	@DEBUG_VALUE: USART_Receive:data <- $r0
	@DEBUG_VALUE: USART0_Receive:num <- $r1
	@DEBUG_VALUE: USART0_Receive:data <- $r0
	cbz	r1, .LBB8_8
.Ltmp85:
@ %bb.2:
	@DEBUG_VALUE: USART_Receive:data <- $r0
	@DEBUG_VALUE: USART0_Receive:num <- $r1
	@DEBUG_VALUE: USART0_Receive:data <- $r0
	.loc	4 476 21                        @ C:/Users/dakum/AppData/Local/Arm/Packs/Keil/V2M-MPS2_IOTKit_BSP/1.5.1/CMSIS/Driver/USART_V2M-MPS2.c:476:21
	ldr	r2, __arm_cp.8_0
	ldrb	r2, [r2]
.Ltmp86:
	.loc	4 476 7 is_stmt 0               @ C:/Users/dakum/AppData/Local/Arm/Packs/Keil/V2M-MPS2_IOTKit_BSP/1.5.1/CMSIS/Driver/USART_V2M-MPS2.c:476:7
	lsls	r2, r2, #29
	bmi	.LBB8_4
.Ltmp87:
@ %bb.3:
	@DEBUG_VALUE: USART0_Receive:num <- $r1
	@DEBUG_VALUE: USART0_Receive:data <- $r0
	.loc	4 0 7                           @ C:/Users/dakum/AppData/Local/Arm/Packs/Keil/V2M-MPS2_IOTKit_BSP/1.5.1/CMSIS/Driver/USART_V2M-MPS2.c:0:7
	adds	r0, r4, #1
.Ltmp88:
	@DEBUG_VALUE: USART0_Receive:data <- [DW_OP_LLVM_entry_value 1] $r0
	.loc	4 783 111 is_stmt 1             @ C:/Users/dakum/AppData/Local/Arm/Packs/Keil/V2M-MPS2_IOTKit_BSP/1.5.1/CMSIS/Driver/USART_V2M-MPS2.c:783:111
	pop	{r4, r5, r6, pc}
.Ltmp89:
.LBB8_4:
	@DEBUG_VALUE: USART_Receive:data <- $r0
	@DEBUG_VALUE: USART0_Receive:num <- $r1
	@DEBUG_VALUE: USART0_Receive:data <- $r0
	.loc	4 482 28                        @ C:/Users/dakum/AppData/Local/Arm/Packs/Keil/V2M-MPS2_IOTKit_BSP/1.5.1/CMSIS/Driver/USART_V2M-MPS2.c:482:28
	ldr	r6, __arm_cp.8_1
	ldrb	r2, [r6]
	.loc	4 482 43 is_stmt 0              @ C:/Users/dakum/AppData/Local/Arm/Packs/Keil/V2M-MPS2_IOTKit_BSP/1.5.1/CMSIS/Driver/USART_V2M-MPS2.c:482:43
	cbz	r2, .LBB8_6
.Ltmp90:
@ %bb.5:
	@DEBUG_VALUE: USART0_Receive:num <- $r1
	@DEBUG_VALUE: USART0_Receive:data <- $r0
	.loc	4 783 111 is_stmt 1             @ C:/Users/dakum/AppData/Local/Arm/Packs/Keil/V2M-MPS2_IOTKit_BSP/1.5.1/CMSIS/Driver/USART_V2M-MPS2.c:783:111
	mov	r0, r4
.Ltmp91:
	@DEBUG_VALUE: USART0_Receive:data <- [DW_OP_LLVM_entry_value 1] $r0
	pop	{r4, r5, r6, pc}
.Ltmp92:
.LBB8_6:
	@DEBUG_VALUE: USART_Receive:data <- $r0
	@DEBUG_VALUE: USART0_Receive:num <- $r1
	@DEBUG_VALUE: USART0_Receive:data <- $r0
	.loc	4 0 111 is_stmt 0               @ C:/Users/dakum/AppData/Local/Arm/Packs/Keil/V2M-MPS2_IOTKit_BSP/1.5.1/CMSIS/Driver/USART_V2M-MPS2.c:0:111
	ldr	r5, __arm_cp.8_2
.Ltmp93:
	.loc	4 483 20 is_stmt 1              @ C:/Users/dakum/AppData/Local/Arm/Packs/Keil/V2M-MPS2_IOTKit_BSP/1.5.1/CMSIS/Driver/USART_V2M-MPS2.c:483:20
	subs	r2, r5, #4
	ldr	r2, [r2]
.Ltmp94:
	.loc	4 482 7                         @ C:/Users/dakum/AppData/Local/Arm/Packs/Keil/V2M-MPS2_IOTKit_BSP/1.5.1/CMSIS/Driver/USART_V2M-MPS2.c:482:7
	lsls	r2, r2, #30
	mov	r2, r4
	bmi	.LBB8_8
.Ltmp95:
@ %bb.7:
	@DEBUG_VALUE: USART_Receive:data <- $r0
	@DEBUG_VALUE: USART0_Receive:num <- $r1
	@DEBUG_VALUE: USART0_Receive:data <- $r0
	.loc	4 498 31                        @ C:/Users/dakum/AppData/Local/Arm/Packs/Keil/V2M-MPS2_IOTKit_BSP/1.5.1/CMSIS/Driver/USART_V2M-MPS2.c:498:31
	strb	r3, [r6]
	.loc	4 488 23                        @ C:/Users/dakum/AppData/Local/Arm/Packs/Keil/V2M-MPS2_IOTKit_BSP/1.5.1/CMSIS/Driver/USART_V2M-MPS2.c:488:23
	ldr	r3, __arm_cp.8_3
	movs	r2, #0
	.loc	4 495 23                        @ C:/Users/dakum/AppData/Local/Arm/Packs/Keil/V2M-MPS2_IOTKit_BSP/1.5.1/CMSIS/Driver/USART_V2M-MPS2.c:495:23
	str	r2, [r3, #16]
	.loc	4 494 23                        @ C:/Users/dakum/AppData/Local/Arm/Packs/Keil/V2M-MPS2_IOTKit_BSP/1.5.1/CMSIS/Driver/USART_V2M-MPS2.c:494:23
	str	r0, [r3, #8]
	.loc	4 488 23                        @ C:/Users/dakum/AppData/Local/Arm/Packs/Keil/V2M-MPS2_IOTKit_BSP/1.5.1/CMSIS/Driver/USART_V2M-MPS2.c:488:23
	str	r1, [r3]
	.loc	4 501 20                        @ C:/Users/dakum/AppData/Local/Arm/Packs/Keil/V2M-MPS2_IOTKit_BSP/1.5.1/CMSIS/Driver/USART_V2M-MPS2.c:501:20
	ldr	r0, [r5]
.Ltmp96:
	@DEBUG_VALUE: USART0_Receive:data <- [DW_OP_LLVM_entry_value 1] $r0
	.loc	4 0 20 is_stmt 0                @ C:/Users/dakum/AppData/Local/Arm/Packs/Keil/V2M-MPS2_IOTKit_BSP/1.5.1/CMSIS/Driver/USART_V2M-MPS2.c:0:20
	movs	r1, #8
.Ltmp97:
	@DEBUG_VALUE: USART0_Receive:num <- [DW_OP_LLVM_entry_value 1] $r1
	.loc	4 501 20                        @ C:/Users/dakum/AppData/Local/Arm/Packs/Keil/V2M-MPS2_IOTKit_BSP/1.5.1/CMSIS/Driver/USART_V2M-MPS2.c:501:20
	orrs	r1, r0
	str	r1, [r5]
.Ltmp98:
.LBB8_8:
	.loc	4 783 111 is_stmt 1             @ C:/Users/dakum/AppData/Local/Arm/Packs/Keil/V2M-MPS2_IOTKit_BSP/1.5.1/CMSIS/Driver/USART_V2M-MPS2.c:783:111
	mov	r0, r2
	pop	{r4, r5, r6, pc}
.Ltmp99:
	.p2align	2
@ %bb.9:
	.loc	4 0 111 is_stmt 0               @ C:/Users/dakum/AppData/Local/Arm/Packs/Keil/V2M-MPS2_IOTKit_BSP/1.5.1/CMSIS/Driver/USART_V2M-MPS2.c:0:111
__arm_cp.8_0:
	.long	USART0_Info.4
.Lcpi_end26:
	.size	__arm_cp.8_0, .Lcpi_end26-__arm_cp.8_0
__arm_cp.8_1:
	.long	USART0_Info.2
.Lcpi_end27:
	.size	__arm_cp.8_1, .Lcpi_end27-__arm_cp.8_1
__arm_cp.8_2:
	.long	1075838984                      @ 0x40200008
.Lcpi_end28:
	.size	__arm_cp.8_2, .Lcpi_end28-__arm_cp.8_2
__arm_cp.8_3:
	.long	USART0_TransferInfo
.Lcpi_end29:
	.size	__arm_cp.8_3, .Lcpi_end29-__arm_cp.8_3
.Lfunc_end8:
	.size	USART0_Receive, .Lfunc_end8-USART0_Receive
	.cfi_endproc
	.cantunwind
	.fnend
                                        @ -- End function
	.section	.text.USART0_Transfer,"ax",%progbits
	.p2align	1                               @ -- Begin function USART0_Transfer
	.type	USART0_Transfer,%function
	.code	16                              @ @USART0_Transfer
	.thumb_func
USART0_Transfer:
.Lfunc_begin9:
	.loc	4 784 0 is_stmt 1               @ C:/Users/dakum/AppData/Local/Arm/Packs/Keil/V2M-MPS2_IOTKit_BSP/1.5.1/CMSIS/Driver/USART_V2M-MPS2.c:784:0
	.fnstart
	.cfi_startproc
@ %bb.0:
	@DEBUG_VALUE: USART0_Transfer:data_out <- $r0
	@DEBUG_VALUE: USART0_Transfer:data_in <- $r1
	@DEBUG_VALUE: USART0_Transfer:num <- $r2
	movs	r0, #3
.Ltmp100:
	@DEBUG_VALUE: USART0_Transfer:data_out <- [DW_OP_LLVM_entry_value 1] $r0
	mvns	r0, r0
.Ltmp101:
	.loc	4 784 111 prologue_end          @ C:/Users/dakum/AppData/Local/Arm/Packs/Keil/V2M-MPS2_IOTKit_BSP/1.5.1/CMSIS/Driver/USART_V2M-MPS2.c:784:111
	bx	lr
.Ltmp102:
.Lfunc_end9:
	.size	USART0_Transfer, .Lfunc_end9-USART0_Transfer
	.cfi_endproc
	.cantunwind
	.fnend
                                        @ -- End function
	.section	.text.USART0_GetTxCount,"ax",%progbits
	.p2align	2                               @ -- Begin function USART0_GetTxCount
	.type	USART0_GetTxCount,%function
	.code	16                              @ @USART0_GetTxCount
	.thumb_func
USART0_GetTxCount:
.Lfunc_begin10:
	.loc	4 785 0                         @ C:/Users/dakum/AppData/Local/Arm/Packs/Keil/V2M-MPS2_IOTKit_BSP/1.5.1/CMSIS/Driver/USART_V2M-MPS2.c:785:0
	.fnstart
	.cfi_startproc
@ %bb.0:
	.loc	4 539 23 prologue_end           @ C:/Users/dakum/AppData/Local/Arm/Packs/Keil/V2M-MPS2_IOTKit_BSP/1.5.1/CMSIS/Driver/USART_V2M-MPS2.c:539:23
	ldr	r0, __arm_cp.10_0
	ldr	r0, [r0, #20]
.Ltmp103:
	.loc	4 785 111                       @ C:/Users/dakum/AppData/Local/Arm/Packs/Keil/V2M-MPS2_IOTKit_BSP/1.5.1/CMSIS/Driver/USART_V2M-MPS2.c:785:111
	bx	lr
.Ltmp104:
	.p2align	2
@ %bb.1:
	.loc	4 0 111 is_stmt 0               @ C:/Users/dakum/AppData/Local/Arm/Packs/Keil/V2M-MPS2_IOTKit_BSP/1.5.1/CMSIS/Driver/USART_V2M-MPS2.c:0:111
__arm_cp.10_0:
	.long	USART0_TransferInfo
.Lcpi_end30:
	.size	__arm_cp.10_0, .Lcpi_end30-__arm_cp.10_0
.Lfunc_end10:
	.size	USART0_GetTxCount, .Lfunc_end10-USART0_GetTxCount
	.cfi_endproc
	.cantunwind
	.fnend
                                        @ -- End function
	.section	.text.USART0_GetRxCount,"ax",%progbits
	.p2align	2                               @ -- Begin function USART0_GetRxCount
	.type	USART0_GetRxCount,%function
	.code	16                              @ @USART0_GetRxCount
	.thumb_func
USART0_GetRxCount:
.Lfunc_begin11:
	.loc	4 786 0 is_stmt 1               @ C:/Users/dakum/AppData/Local/Arm/Packs/Keil/V2M-MPS2_IOTKit_BSP/1.5.1/CMSIS/Driver/USART_V2M-MPS2.c:786:0
	.fnstart
	.cfi_startproc
@ %bb.0:
	.loc	4 551 23 prologue_end           @ C:/Users/dakum/AppData/Local/Arm/Packs/Keil/V2M-MPS2_IOTKit_BSP/1.5.1/CMSIS/Driver/USART_V2M-MPS2.c:551:23
	ldr	r0, __arm_cp.11_0
	ldr	r0, [r0, #16]
.Ltmp105:
	.loc	4 786 111                       @ C:/Users/dakum/AppData/Local/Arm/Packs/Keil/V2M-MPS2_IOTKit_BSP/1.5.1/CMSIS/Driver/USART_V2M-MPS2.c:786:111
	bx	lr
.Ltmp106:
	.p2align	2
@ %bb.1:
	.loc	4 0 111 is_stmt 0               @ C:/Users/dakum/AppData/Local/Arm/Packs/Keil/V2M-MPS2_IOTKit_BSP/1.5.1/CMSIS/Driver/USART_V2M-MPS2.c:0:111
__arm_cp.11_0:
	.long	USART0_TransferInfo
.Lcpi_end31:
	.size	__arm_cp.11_0, .Lcpi_end31-__arm_cp.11_0
.Lfunc_end11:
	.size	USART0_GetRxCount, .Lfunc_end11-USART0_GetRxCount
	.cfi_endproc
	.cantunwind
	.fnend
                                        @ -- End function
	.section	.text.USART0_Control,"ax",%progbits
	.p2align	2                               @ -- Begin function USART0_Control
	.type	USART0_Control,%function
	.code	16                              @ @USART0_Control
	.thumb_func
USART0_Control:
.Lfunc_begin12:
	.loc	4 787 0 is_stmt 1               @ C:/Users/dakum/AppData/Local/Arm/Packs/Keil/V2M-MPS2_IOTKit_BSP/1.5.1/CMSIS/Driver/USART_V2M-MPS2.c:787:0
	.fnstart
	.cfi_startproc
@ %bb.0:
	@DEBUG_VALUE: USART0_Control:control <- $r0
	@DEBUG_VALUE: USART0_Control:arg <- $r1
	.save	{r4, r5, r6, r7, lr}
	push	{r4, r5, r6, r7, lr}
	.cfi_def_cfa_offset 20
	.cfi_offset lr, -4
	.cfi_offset r7, -8
	.cfi_offset r6, -12
	.cfi_offset r5, -16
	.cfi_offset r4, -20
	mov	r2, r0
.Ltmp107:
	@DEBUG_VALUE: USART_Control:arg <- undef
	@DEBUG_VALUE: USART_Control:control <- undef
	@DEBUG_VALUE: USART0_Control:control <- $r2
	movs	r0, #3
	mvns	r5, r0
.Ltmp108:
	.loc	4 569 21 prologue_end           @ C:/Users/dakum/AppData/Local/Arm/Packs/Keil/V2M-MPS2_IOTKit_BSP/1.5.1/CMSIS/Driver/USART_V2M-MPS2.c:569:21
	ldr	r3, __arm_cp.12_0
	ldrb	r4, [r3]
.Ltmp109:
	.loc	4 569 7 is_stmt 0               @ C:/Users/dakum/AppData/Local/Arm/Packs/Keil/V2M-MPS2_IOTKit_BSP/1.5.1/CMSIS/Driver/USART_V2M-MPS2.c:569:7
	lsls	r0, r4, #30
	bmi	.LBB12_2
.Ltmp110:
@ %bb.1:
	@DEBUG_VALUE: USART0_Control:control <- $r2
	@DEBUG_VALUE: USART0_Control:arg <- $r1
	.loc	4 0 7                           @ C:/Users/dakum/AppData/Local/Arm/Packs/Keil/V2M-MPS2_IOTKit_BSP/1.5.1/CMSIS/Driver/USART_V2M-MPS2.c:0:7
	adds	r0, r5, #3
	.loc	4 787 111 is_stmt 1             @ C:/Users/dakum/AppData/Local/Arm/Packs/Keil/V2M-MPS2_IOTKit_BSP/1.5.1/CMSIS/Driver/USART_V2M-MPS2.c:787:111
	pop	{r4, r5, r6, r7, pc}
.Ltmp111:
.LBB12_2:
	@DEBUG_VALUE: USART0_Control:control <- $r2
	@DEBUG_VALUE: USART0_Control:arg <- $r1
	.loc	4 574 19                        @ C:/Users/dakum/AppData/Local/Arm/Packs/Keil/V2M-MPS2_IOTKit_BSP/1.5.1/CMSIS/Driver/USART_V2M-MPS2.c:574:19
	uxtb	r7, r2
	.loc	4 574 3 is_stmt 0               @ C:/Users/dakum/AppData/Local/Arm/Packs/Keil/V2M-MPS2_IOTKit_BSP/1.5.1/CMSIS/Driver/USART_V2M-MPS2.c:574:3
	mov	r6, r7
	subs	r6, #21
	cmp	r6, #5
	bhi	.LBB12_6
.Ltmp112:
@ %bb.3:
	@DEBUG_VALUE: USART0_Control:control <- $r2
	@DEBUG_VALUE: USART0_Control:arg <- $r1
	.loc	4 0 3                           @ C:/Users/dakum/AppData/Local/Arm/Packs/Keil/V2M-MPS2_IOTKit_BSP/1.5.1/CMSIS/Driver/USART_V2M-MPS2.c:0:3
	lsls	r0, r6, #2
	adr	r2, .LJTI12_0
.Ltmp113:
	adds	r2, r2, r0
	mov	r0, r5
	mov	pc, r2
.Ltmp114:
@ %bb.4:
	.p2align	2
.LJTI12_0:
	b.w	.LBB12_12
	b.w	.LBB12_13
	b.w	.LBB12_5
	b.w	.LBB12_14
	b.w	.LBB12_15
	b.w	.LBB12_5
.LBB12_5:
.Ltmp115:
	@DEBUG_VALUE: USART0_Control:arg <- $r1
	.loc	4 787 111 is_stmt 1             @ C:/Users/dakum/AppData/Local/Arm/Packs/Keil/V2M-MPS2_IOTKit_BSP/1.5.1/CMSIS/Driver/USART_V2M-MPS2.c:787:111
	pop	{r4, r5, r6, r7, pc}
.Ltmp116:
.LBB12_6:
	@DEBUG_VALUE: USART0_Control:control <- $r2
	@DEBUG_VALUE: USART0_Control:arg <- $r1
	.loc	4 0 0 is_stmt 0                 @ C:/Users/dakum/AppData/Local/Arm/Packs/Keil/V2M-MPS2_IOTKit_BSP/1.5.1/CMSIS/Driver/USART_V2M-MPS2.c:0:0
	adds	r0, r5, #2
.Ltmp117:
	.loc	4 617 28 is_stmt 1              @ C:/Users/dakum/AppData/Local/Arm/Packs/Keil/V2M-MPS2_IOTKit_BSP/1.5.1/CMSIS/Driver/USART_V2M-MPS2.c:617:28
	ldr	r6, __arm_cp.12_3
	ldrb	r6, [r6]
	.loc	4 617 43 is_stmt 0              @ C:/Users/dakum/AppData/Local/Arm/Packs/Keil/V2M-MPS2_IOTKit_BSP/1.5.1/CMSIS/Driver/USART_V2M-MPS2.c:617:43
	cmp	r6, #0
	bne	.LBB12_5
.Ltmp118:
@ %bb.7:
	@DEBUG_VALUE: USART0_Control:control <- $r2
	@DEBUG_VALUE: USART0_Control:arg <- $r1
	.loc	4 0 43                          @ C:/Users/dakum/AppData/Local/Arm/Packs/Keil/V2M-MPS2_IOTKit_BSP/1.5.1/CMSIS/Driver/USART_V2M-MPS2.c:0:43
	ldr	r6, __arm_cp.12_2
	ldrb	r6, [r6]
	.loc	4 617 43                        @ C:/Users/dakum/AppData/Local/Arm/Packs/Keil/V2M-MPS2_IOTKit_BSP/1.5.1/CMSIS/Driver/USART_V2M-MPS2.c:617:43
	cmp	r6, #0
	bne	.LBB12_5
.Ltmp119:
@ %bb.8:
	@DEBUG_VALUE: USART0_Control:control <- $r2
	@DEBUG_VALUE: USART0_Control:arg <- $r1
	.loc	4 0 43                          @ C:/Users/dakum/AppData/Local/Arm/Packs/Keil/V2M-MPS2_IOTKit_BSP/1.5.1/CMSIS/Driver/USART_V2M-MPS2.c:0:43
	ldr	r6, __arm_cp.12_1
	.loc	4 619 20 is_stmt 1              @ C:/Users/dakum/AppData/Local/Arm/Packs/Keil/V2M-MPS2_IOTKit_BSP/1.5.1/CMSIS/Driver/USART_V2M-MPS2.c:619:20
	subs	r6, r6, #4
	ldr	r6, [r6]
.Ltmp120:
	.loc	4 617 7                         @ C:/Users/dakum/AppData/Local/Arm/Packs/Keil/V2M-MPS2_IOTKit_BSP/1.5.1/CMSIS/Driver/USART_V2M-MPS2.c:617:7
	lsls	r6, r6, #30
	bne	.LBB12_5
.Ltmp121:
@ %bb.9:
	@DEBUG_VALUE: USART0_Control:control <- $r2
	@DEBUG_VALUE: USART0_Control:arg <- $r1
	.loc	4 0 7 is_stmt 0                 @ C:/Users/dakum/AppData/Local/Arm/Packs/Keil/V2M-MPS2_IOTKit_BSP/1.5.1/CMSIS/Driver/USART_V2M-MPS2.c:0:7
	ldr	r6, __arm_cp.12_1
	.loc	4 623 3 is_stmt 1               @ C:/Users/dakum/AppData/Local/Arm/Packs/Keil/V2M-MPS2_IOTKit_BSP/1.5.1/CMSIS/Driver/USART_V2M-MPS2.c:623:3
	cmp	r7, #1
	bne	.LBB12_17
.Ltmp122:
@ %bb.10:
	@DEBUG_VALUE: USART0_Control:control <- $r2
	@DEBUG_VALUE: USART0_Control:arg <- $r1
	.loc	4 630 3                         @ C:/Users/dakum/AppData/Local/Arm/Packs/Keil/V2M-MPS2_IOTKit_BSP/1.5.1/CMSIS/Driver/USART_V2M-MPS2.c:630:3
	lsls	r0, r2, #21
	lsrs	r0, r0, #29
	beq	.LBB12_18
.Ltmp123:
@ %bb.11:
	@DEBUG_VALUE: USART0_Control:control <- $r2
	@DEBUG_VALUE: USART0_Control:arg <- $r1
	.loc	4 0 3 is_stmt 0                 @ C:/Users/dakum/AppData/Local/Arm/Packs/Keil/V2M-MPS2_IOTKit_BSP/1.5.1/CMSIS/Driver/USART_V2M-MPS2.c:0:3
	subs	r0, r5, #5
	.loc	4 787 111 is_stmt 1             @ C:/Users/dakum/AppData/Local/Arm/Packs/Keil/V2M-MPS2_IOTKit_BSP/1.5.1/CMSIS/Driver/USART_V2M-MPS2.c:787:111
	pop	{r4, r5, r6, r7, pc}
.Ltmp124:
.LBB12_12:
	@DEBUG_VALUE: USART0_Control:arg <- $r1
	.loc	4 0 111 is_stmt 0               @ C:/Users/dakum/AppData/Local/Arm/Packs/Keil/V2M-MPS2_IOTKit_BSP/1.5.1/CMSIS/Driver/USART_V2M-MPS2.c:0:111
	movs	r0, #8
.Ltmp125:
	.loc	4 602 26 is_stmt 1              @ C:/Users/dakum/AppData/Local/Arm/Packs/Keil/V2M-MPS2_IOTKit_BSP/1.5.1/CMSIS/Driver/USART_V2M-MPS2.c:602:26
	orrs	r4, r0
	strb	r4, [r3]
	movs	r0, #1
	.loc	4 604 33                        @ C:/Users/dakum/AppData/Local/Arm/Packs/Keil/V2M-MPS2_IOTKit_BSP/1.5.1/CMSIS/Driver/USART_V2M-MPS2.c:604:33
	ands	r1, r0
.Ltmp126:
	@DEBUG_VALUE: USART0_Control:arg <- [DW_OP_LLVM_entry_value 1] $r1
	.loc	4 0 33 is_stmt 0                @ C:/Users/dakum/AppData/Local/Arm/Packs/Keil/V2M-MPS2_IOTKit_BSP/1.5.1/CMSIS/Driver/USART_V2M-MPS2.c:0:33
	ldr	r0, __arm_cp.12_1
	.loc	4 604 24                        @ C:/Users/dakum/AppData/Local/Arm/Packs/Keil/V2M-MPS2_IOTKit_BSP/1.5.1/CMSIS/Driver/USART_V2M-MPS2.c:604:24
	ldr	r2, [r0]
	orrs	r2, r1
	str	r2, [r0]
	movs	r0, #0
.Ltmp127:
	.loc	4 787 111 is_stmt 1             @ C:/Users/dakum/AppData/Local/Arm/Packs/Keil/V2M-MPS2_IOTKit_BSP/1.5.1/CMSIS/Driver/USART_V2M-MPS2.c:787:111
	pop	{r4, r5, r6, r7, pc}
.Ltmp128:
.LBB12_13:
	@DEBUG_VALUE: USART0_Control:arg <- $r1
	.loc	4 0 111 is_stmt 0               @ C:/Users/dakum/AppData/Local/Arm/Packs/Keil/V2M-MPS2_IOTKit_BSP/1.5.1/CMSIS/Driver/USART_V2M-MPS2.c:0:111
	movs	r0, #16
.Ltmp129:
	.loc	4 609 26 is_stmt 1              @ C:/Users/dakum/AppData/Local/Arm/Packs/Keil/V2M-MPS2_IOTKit_BSP/1.5.1/CMSIS/Driver/USART_V2M-MPS2.c:609:26
	orrs	r4, r0
	strb	r4, [r3]
	ldr	r0, __arm_cp.12_1
	.loc	4 611 24                        @ C:/Users/dakum/AppData/Local/Arm/Packs/Keil/V2M-MPS2_IOTKit_BSP/1.5.1/CMSIS/Driver/USART_V2M-MPS2.c:611:24
	ldr	r2, [r0]
	.loc	4 611 39 is_stmt 0              @ C:/Users/dakum/AppData/Local/Arm/Packs/Keil/V2M-MPS2_IOTKit_BSP/1.5.1/CMSIS/Driver/USART_V2M-MPS2.c:611:39
	lsls	r1, r1, #31
.Ltmp130:
	@DEBUG_VALUE: USART0_Control:arg <- [DW_OP_LLVM_entry_value 1] $r1
	lsrs	r1, r1, #30
	.loc	4 611 24                        @ C:/Users/dakum/AppData/Local/Arm/Packs/Keil/V2M-MPS2_IOTKit_BSP/1.5.1/CMSIS/Driver/USART_V2M-MPS2.c:611:24
	orrs	r1, r2
	str	r1, [r0]
	movs	r0, #0
.Ltmp131:
	.loc	4 787 111 is_stmt 1             @ C:/Users/dakum/AppData/Local/Arm/Packs/Keil/V2M-MPS2_IOTKit_BSP/1.5.1/CMSIS/Driver/USART_V2M-MPS2.c:787:111
	pop	{r4, r5, r6, r7, pc}
.Ltmp132:
.LBB12_14:
	@DEBUG_VALUE: USART0_Control:arg <- $r1
	.loc	4 0 111 is_stmt 0               @ C:/Users/dakum/AppData/Local/Arm/Packs/Keil/V2M-MPS2_IOTKit_BSP/1.5.1/CMSIS/Driver/USART_V2M-MPS2.c:0:111
	ldr	r0, __arm_cp.12_1
.Ltmp133:
	.loc	4 582 24 is_stmt 1              @ C:/Users/dakum/AppData/Local/Arm/Packs/Keil/V2M-MPS2_IOTKit_BSP/1.5.1/CMSIS/Driver/USART_V2M-MPS2.c:582:24
	ldr	r1, [r0]
.Ltmp134:
	@DEBUG_VALUE: USART0_Control:arg <- [DW_OP_LLVM_entry_value 1] $r1
	.loc	4 0 24 is_stmt 0                @ C:/Users/dakum/AppData/Local/Arm/Packs/Keil/V2M-MPS2_IOTKit_BSP/1.5.1/CMSIS/Driver/USART_V2M-MPS2.c:0:24
	movs	r2, #4
	.loc	4 582 24                        @ C:/Users/dakum/AppData/Local/Arm/Packs/Keil/V2M-MPS2_IOTKit_BSP/1.5.1/CMSIS/Driver/USART_V2M-MPS2.c:582:24
	bics	r1, r2
	str	r1, [r0]
	.loc	4 584 35 is_stmt 1              @ C:/Users/dakum/AppData/Local/Arm/Packs/Keil/V2M-MPS2_IOTKit_BSP/1.5.1/CMSIS/Driver/USART_V2M-MPS2.c:584:35
	ldr	r1, __arm_cp.12_3
	b	.LBB12_16
.Ltmp135:
.LBB12_15:
	@DEBUG_VALUE: USART0_Control:arg <- $r1
	.loc	4 0 35 is_stmt 0                @ C:/Users/dakum/AppData/Local/Arm/Packs/Keil/V2M-MPS2_IOTKit_BSP/1.5.1/CMSIS/Driver/USART_V2M-MPS2.c:0:35
	ldr	r0, __arm_cp.12_1
	.loc	4 590 24 is_stmt 1              @ C:/Users/dakum/AppData/Local/Arm/Packs/Keil/V2M-MPS2_IOTKit_BSP/1.5.1/CMSIS/Driver/USART_V2M-MPS2.c:590:24
	ldr	r1, [r0]
.Ltmp136:
	@DEBUG_VALUE: USART0_Control:arg <- [DW_OP_LLVM_entry_value 1] $r1
	.loc	4 0 24 is_stmt 0                @ C:/Users/dakum/AppData/Local/Arm/Packs/Keil/V2M-MPS2_IOTKit_BSP/1.5.1/CMSIS/Driver/USART_V2M-MPS2.c:0:24
	movs	r2, #8
	.loc	4 590 24                        @ C:/Users/dakum/AppData/Local/Arm/Packs/Keil/V2M-MPS2_IOTKit_BSP/1.5.1/CMSIS/Driver/USART_V2M-MPS2.c:590:24
	bics	r1, r2
	str	r1, [r0]
	.loc	4 592 35 is_stmt 1              @ C:/Users/dakum/AppData/Local/Arm/Packs/Keil/V2M-MPS2_IOTKit_BSP/1.5.1/CMSIS/Driver/USART_V2M-MPS2.c:592:35
	ldr	r1, __arm_cp.12_2
.Ltmp137:
.LBB12_16:
	@DEBUG_VALUE: USART0_Control:arg <- [DW_OP_LLVM_entry_value 1] $r1
	.loc	4 0 35 is_stmt 0                @ C:/Users/dakum/AppData/Local/Arm/Packs/Keil/V2M-MPS2_IOTKit_BSP/1.5.1/CMSIS/Driver/USART_V2M-MPS2.c:0:35
	movs	r0, #0
	strb	r0, [r1]
.Ltmp138:
	.loc	4 787 111 is_stmt 1             @ C:/Users/dakum/AppData/Local/Arm/Packs/Keil/V2M-MPS2_IOTKit_BSP/1.5.1/CMSIS/Driver/USART_V2M-MPS2.c:787:111
	pop	{r4, r5, r6, r7, pc}
.Ltmp139:
.LBB12_17:
	@DEBUG_VALUE: USART0_Control:control <- $r2
	@DEBUG_VALUE: USART0_Control:arg <- $r1
	.loc	4 0 111 is_stmt 0               @ C:/Users/dakum/AppData/Local/Arm/Packs/Keil/V2M-MPS2_IOTKit_BSP/1.5.1/CMSIS/Driver/USART_V2M-MPS2.c:0:111
	mov	r0, r5
	.loc	4 787 111                       @ C:/Users/dakum/AppData/Local/Arm/Packs/Keil/V2M-MPS2_IOTKit_BSP/1.5.1/CMSIS/Driver/USART_V2M-MPS2.c:787:111
	pop	{r4, r5, r6, r7, pc}
.Ltmp140:
.LBB12_18:
	@DEBUG_VALUE: USART0_Control:control <- $r2
	@DEBUG_VALUE: USART0_Control:arg <- $r1
	.loc	4 636 3 is_stmt 1               @ C:/Users/dakum/AppData/Local/Arm/Packs/Keil/V2M-MPS2_IOTKit_BSP/1.5.1/CMSIS/Driver/USART_V2M-MPS2.c:636:3
	lsls	r0, r2, #18
	lsrs	r0, r0, #30
	beq	.LBB12_20
.Ltmp141:
@ %bb.19:
	@DEBUG_VALUE: USART0_Control:control <- $r2
	@DEBUG_VALUE: USART0_Control:arg <- $r1
	.loc	4 0 3 is_stmt 0                 @ C:/Users/dakum/AppData/Local/Arm/Packs/Keil/V2M-MPS2_IOTKit_BSP/1.5.1/CMSIS/Driver/USART_V2M-MPS2.c:0:3
	subs	r0, r5, #6
	.loc	4 787 111 is_stmt 1             @ C:/Users/dakum/AppData/Local/Arm/Packs/Keil/V2M-MPS2_IOTKit_BSP/1.5.1/CMSIS/Driver/USART_V2M-MPS2.c:787:111
	pop	{r4, r5, r6, r7, pc}
.Ltmp142:
.LBB12_20:
	@DEBUG_VALUE: USART0_Control:control <- $r2
	@DEBUG_VALUE: USART0_Control:arg <- $r1
	.loc	4 642 3                         @ C:/Users/dakum/AppData/Local/Arm/Packs/Keil/V2M-MPS2_IOTKit_BSP/1.5.1/CMSIS/Driver/USART_V2M-MPS2.c:642:3
	lsls	r0, r2, #16
	lsrs	r0, r0, #30
	beq	.LBB12_22
.Ltmp143:
@ %bb.21:
	@DEBUG_VALUE: USART0_Control:control <- $r2
	@DEBUG_VALUE: USART0_Control:arg <- $r1
	.loc	4 0 3 is_stmt 0                 @ C:/Users/dakum/AppData/Local/Arm/Packs/Keil/V2M-MPS2_IOTKit_BSP/1.5.1/CMSIS/Driver/USART_V2M-MPS2.c:0:3
	subs	r0, r5, #7
	.loc	4 787 111 is_stmt 1             @ C:/Users/dakum/AppData/Local/Arm/Packs/Keil/V2M-MPS2_IOTKit_BSP/1.5.1/CMSIS/Driver/USART_V2M-MPS2.c:787:111
	pop	{r4, r5, r6, r7, pc}
.Ltmp144:
.LBB12_22:
	@DEBUG_VALUE: USART0_Control:control <- $r2
	@DEBUG_VALUE: USART0_Control:arg <- $r1
	.loc	4 648 3                         @ C:/Users/dakum/AppData/Local/Arm/Packs/Keil/V2M-MPS2_IOTKit_BSP/1.5.1/CMSIS/Driver/USART_V2M-MPS2.c:648:3
	lsls	r0, r2, #14
	lsrs	r0, r0, #30
	beq	.LBB12_24
.Ltmp145:
@ %bb.23:
	@DEBUG_VALUE: USART0_Control:control <- $r2
	@DEBUG_VALUE: USART0_Control:arg <- $r1
	.loc	4 0 3 is_stmt 0                 @ C:/Users/dakum/AppData/Local/Arm/Packs/Keil/V2M-MPS2_IOTKit_BSP/1.5.1/CMSIS/Driver/USART_V2M-MPS2.c:0:3
	subs	r5, #8
	mov	r0, r5
	.loc	4 787 111 is_stmt 1             @ C:/Users/dakum/AppData/Local/Arm/Packs/Keil/V2M-MPS2_IOTKit_BSP/1.5.1/CMSIS/Driver/USART_V2M-MPS2.c:787:111
	pop	{r4, r5, r6, r7, pc}
.Ltmp146:
.LBB12_24:
	@DEBUG_VALUE: USART0_Control:control <- $r2
	@DEBUG_VALUE: USART0_Control:arg <- $r1
	.loc	4 654 8                         @ C:/Users/dakum/AppData/Local/Arm/Packs/Keil/V2M-MPS2_IOTKit_BSP/1.5.1/CMSIS/Driver/USART_V2M-MPS2.c:654:8
	ldr	r0, __arm_cp.12_4
	ldr	r0, [r0]
	.loc	4 654 23 is_stmt 0              @ C:/Users/dakum/AppData/Local/Arm/Packs/Keil/V2M-MPS2_IOTKit_BSP/1.5.1/CMSIS/Driver/USART_V2M-MPS2.c:654:23
	udiv	r0, r0, r1
.Ltmp147:
	.loc	4 654 7                         @ C:/Users/dakum/AppData/Local/Arm/Packs/Keil/V2M-MPS2_IOTKit_BSP/1.5.1/CMSIS/Driver/USART_V2M-MPS2.c:654:7
	cmp	r0, #16
	bhs	.LBB12_26
.Ltmp148:
@ %bb.25:
	@DEBUG_VALUE: USART0_Control:control <- $r2
	@DEBUG_VALUE: USART0_Control:arg <- $r1
	.loc	4 0 7                           @ C:/Users/dakum/AppData/Local/Arm/Packs/Keil/V2M-MPS2_IOTKit_BSP/1.5.1/CMSIS/Driver/USART_V2M-MPS2.c:0:7
	subs	r0, r5, #4
	.loc	4 787 111 is_stmt 1             @ C:/Users/dakum/AppData/Local/Arm/Packs/Keil/V2M-MPS2_IOTKit_BSP/1.5.1/CMSIS/Driver/USART_V2M-MPS2.c:787:111
	pop	{r4, r5, r6, r7, pc}
.Ltmp149:
.LBB12_26:
	@DEBUG_VALUE: USART0_Control:control <- $r2
	@DEBUG_VALUE: USART0_Control:arg <- $r1
	.loc	4 657 25                        @ C:/Users/dakum/AppData/Local/Arm/Packs/Keil/V2M-MPS2_IOTKit_BSP/1.5.1/CMSIS/Driver/USART_V2M-MPS2.c:657:25
	str	r0, [r6, #8]
	movs	r0, #4
.Ltmp150:
	.loc	4 660 22                        @ C:/Users/dakum/AppData/Local/Arm/Packs/Keil/V2M-MPS2_IOTKit_BSP/1.5.1/CMSIS/Driver/USART_V2M-MPS2.c:660:22
	orrs	r4, r0
	strb	r4, [r3]
	movs	r0, #0
.Ltmp151:
	.loc	4 787 111                       @ C:/Users/dakum/AppData/Local/Arm/Packs/Keil/V2M-MPS2_IOTKit_BSP/1.5.1/CMSIS/Driver/USART_V2M-MPS2.c:787:111
	pop	{r4, r5, r6, r7, pc}
.Ltmp152:
	.p2align	2
@ %bb.27:
	.loc	4 0 111 is_stmt 0               @ C:/Users/dakum/AppData/Local/Arm/Packs/Keil/V2M-MPS2_IOTKit_BSP/1.5.1/CMSIS/Driver/USART_V2M-MPS2.c:0:111
__arm_cp.12_0:
	.long	USART0_Info.4
.Lcpi_end32:
	.size	__arm_cp.12_0, .Lcpi_end32-__arm_cp.12_0
__arm_cp.12_1:
	.long	1075838984                      @ 0x40200008
.Lcpi_end33:
	.size	__arm_cp.12_1, .Lcpi_end33-__arm_cp.12_1
__arm_cp.12_2:
	.long	USART0_Info.2
.Lcpi_end34:
	.size	__arm_cp.12_2, .Lcpi_end34-__arm_cp.12_2
__arm_cp.12_3:
	.long	USART0_Info.1
.Lcpi_end35:
	.size	__arm_cp.12_3, .Lcpi_end35-__arm_cp.12_3
__arm_cp.12_4:
	.long	SystemCoreClock
.Lcpi_end36:
	.size	__arm_cp.12_4, .Lcpi_end36-__arm_cp.12_4
.Lfunc_end12:
	.size	USART0_Control, .Lfunc_end12-USART0_Control
	.cfi_endproc
	.cantunwind
	.fnend
                                        @ -- End function
	.section	.text.USART0_GetStatus,"ax",%progbits
	.p2align	2                               @ -- Begin function USART0_GetStatus
	.type	USART0_GetStatus,%function
	.code	16                              @ @USART0_GetStatus
	.thumb_func
USART0_GetStatus:
.Lfunc_begin13:
	.loc	4 788 0 is_stmt 1               @ C:/Users/dakum/AppData/Local/Arm/Packs/Keil/V2M-MPS2_IOTKit_BSP/1.5.1/CMSIS/Driver/USART_V2M-MPS2.c:788:0
	.fnstart
	.cfi_startproc
@ %bb.0:
	@DEBUG_VALUE: USART_GetStatus:status <- [DW_OP_LLVM_convert 1 7, DW_OP_LLVM_convert 8 7, DW_OP_LLVM_convert 8 7, DW_OP_LLVM_convert 32 7, DW_OP_stack_value] undef
	.loc	4 675 49 prologue_end           @ C:/Users/dakum/AppData/Local/Arm/Packs/Keil/V2M-MPS2_IOTKit_BSP/1.5.1/CMSIS/Driver/USART_V2M-MPS2.c:675:49
	ldr	r0, __arm_cp.13_0
	ldrb	r0, [r0]
	.loc	4 675 27 is_stmt 0              @ C:/Users/dakum/AppData/Local/Arm/Packs/Keil/V2M-MPS2_IOTKit_BSP/1.5.1/CMSIS/Driver/USART_V2M-MPS2.c:675:27
	subs	r1, r0, #1
	sbcs	r0, r1
	lsls	r0, r0, #1
	.loc	4 674 49 is_stmt 1              @ C:/Users/dakum/AppData/Local/Arm/Packs/Keil/V2M-MPS2_IOTKit_BSP/1.5.1/CMSIS/Driver/USART_V2M-MPS2.c:674:49
	ldr	r1, __arm_cp.13_1
	ldrb	r1, [r1]
	.loc	4 675 27                        @ C:/Users/dakum/AppData/Local/Arm/Packs/Keil/V2M-MPS2_IOTKit_BSP/1.5.1/CMSIS/Driver/USART_V2M-MPS2.c:675:27
	adds	r0, r0, r1
.Ltmp153:
	@DEBUG_VALUE: USART_GetStatus:status <- $r0
	.loc	4 788 111                       @ C:/Users/dakum/AppData/Local/Arm/Packs/Keil/V2M-MPS2_IOTKit_BSP/1.5.1/CMSIS/Driver/USART_V2M-MPS2.c:788:111
	bx	lr
.Ltmp154:
	.p2align	2
@ %bb.1:
	.loc	4 0 111 is_stmt 0               @ C:/Users/dakum/AppData/Local/Arm/Packs/Keil/V2M-MPS2_IOTKit_BSP/1.5.1/CMSIS/Driver/USART_V2M-MPS2.c:0:111
__arm_cp.13_0:
	.long	USART0_Info.2
.Lcpi_end37:
	.size	__arm_cp.13_0, .Lcpi_end37-__arm_cp.13_0
__arm_cp.13_1:
	.long	USART0_Info.1
.Lcpi_end38:
	.size	__arm_cp.13_1, .Lcpi_end38-__arm_cp.13_1
.Lfunc_end13:
	.size	USART0_GetStatus, .Lfunc_end13-USART0_GetStatus
	.cfi_endproc
	.cantunwind
	.fnend
                                        @ -- End function
	.section	.text.USART0_SetModemControl,"ax",%progbits
	.p2align	1                               @ -- Begin function USART0_SetModemControl
	.type	USART0_SetModemControl,%function
	.code	16                              @ @USART0_SetModemControl
	.thumb_func
USART0_SetModemControl:
.Lfunc_begin14:
	.loc	4 789 0 is_stmt 1               @ C:/Users/dakum/AppData/Local/Arm/Packs/Keil/V2M-MPS2_IOTKit_BSP/1.5.1/CMSIS/Driver/USART_V2M-MPS2.c:789:0
	.fnstart
	.cfi_startproc
@ %bb.0:
	@DEBUG_VALUE: USART0_SetModemControl:control <- $r0
	movs	r0, #3
.Ltmp155:
	@DEBUG_VALUE: USART0_SetModemControl:control <- [DW_OP_LLVM_entry_value 1] $r0
	mvns	r0, r0
.Ltmp156:
	.loc	4 789 111 prologue_end          @ C:/Users/dakum/AppData/Local/Arm/Packs/Keil/V2M-MPS2_IOTKit_BSP/1.5.1/CMSIS/Driver/USART_V2M-MPS2.c:789:111
	bx	lr
.Ltmp157:
.Lfunc_end14:
	.size	USART0_SetModemControl, .Lfunc_end14-USART0_SetModemControl
	.cfi_endproc
	.cantunwind
	.fnend
                                        @ -- End function
	.section	.text.USART0_GetModemStatus,"ax",%progbits
	.p2align	1                               @ -- Begin function USART0_GetModemStatus
	.type	USART0_GetModemStatus,%function
	.code	16                              @ @USART0_GetModemStatus
	.thumb_func
USART0_GetModemStatus:
.Lfunc_begin15:
	.loc	4 790 0                         @ C:/Users/dakum/AppData/Local/Arm/Packs/Keil/V2M-MPS2_IOTKit_BSP/1.5.1/CMSIS/Driver/USART_V2M-MPS2.c:790:0
	.fnstart
	.cfi_startproc
@ %bb.0:
	movs	r0, #0
.Ltmp158:
	.loc	4 790 111 prologue_end          @ C:/Users/dakum/AppData/Local/Arm/Packs/Keil/V2M-MPS2_IOTKit_BSP/1.5.1/CMSIS/Driver/USART_V2M-MPS2.c:790:111
	bx	lr
.Ltmp159:
.Lfunc_end15:
	.size	USART0_GetModemStatus, .Lfunc_end15-USART0_GetModemStatus
	.cfi_endproc
	.cantunwind
	.fnend
                                        @ -- End function
	.hidden	Driver_USART0                   @ @Driver_USART0
	.type	Driver_USART0,%object
	.section	.rodata.Driver_USART0,"a",%progbits
	.globl	Driver_USART0
	.p2align	2
Driver_USART0:
	.long	USARTx_GetVersion
	.long	USART0_GetCapabilities
	.long	USART0_Initialize
	.long	USART0_Uninitialize
	.long	USART0_PowerControl
	.long	USART0_Send
	.long	USART0_Receive
	.long	USART0_Transfer
	.long	USART0_GetTxCount
	.long	USART0_GetRxCount
	.long	USART0_Control
	.long	USART0_GetStatus
	.long	USART0_SetModemControl
	.long	USART0_GetModemStatus
	.size	Driver_USART0, 56

	.type	USART0_Info.0,%object           @ @USART0_Info.0
	.section	.bss.USART0_Info.0,"aw",%nobits
	.p2align	2
USART0_Info.0:
	.long	0
	.size	USART0_Info.0, 4

	.type	USART0_Info.1,%object           @ @USART0_Info.1
	.section	.bss.USART0_Info.1,"aw",%nobits
	.p2align	2
USART0_Info.1:
	.byte	0                               @ 0x0
	.size	USART0_Info.1, 1

	.type	USART0_Info.2,%object           @ @USART0_Info.2
	.section	.bss.USART0_Info.2,"aw",%nobits
	.p2align	2
USART0_Info.2:
	.byte	0                               @ 0x0
	.size	USART0_Info.2, 1

	.type	USART0_Info.4,%object           @ @USART0_Info.4
	.section	.bss.USART0_Info.4,"aw",%nobits
	.p2align	2
USART0_Info.4:
	.byte	0                               @ 0x0
	.size	USART0_Info.4, 1

	.type	USART0_TransferInfo,%object     @ @USART0_TransferInfo
	.section	.bss.USART0_TransferInfo,"aw",%nobits
	.p2align	2
USART0_TransferInfo:
	.zero	24
	.size	USART0_TransferInfo, 24

	.section	".note.GNU-stack","",%progbits
	.eabi_attribute	30, 1	@ Tag_ABI_optimization_goals
	.ARM_attribute	16, 1	@ Tag_AV_eba